
rawdaudio:     file format elf64-littleriscv


Disassembly of section .text:

0000000080000000 <_start>:
    80000000:	00000093          	li	ra,0
    80000004:	00000113          	li	sp,0
    80000008:	00000193          	li	gp,0
    8000000c:	00000213          	li	tp,0
    80000010:	00000293          	li	t0,0
    80000014:	00000313          	li	t1,0
    80000018:	00000393          	li	t2,0
    8000001c:	00000413          	li	s0,0
    80000020:	00000493          	li	s1,0
    80000024:	00000513          	li	a0,0
    80000028:	00000593          	li	a1,0
    8000002c:	00000613          	li	a2,0
    80000030:	00000693          	li	a3,0
    80000034:	00000713          	li	a4,0
    80000038:	00000793          	li	a5,0
    8000003c:	00000813          	li	a6,0
    80000040:	00000893          	li	a7,0
    80000044:	00000913          	li	s2,0
    80000048:	00000993          	li	s3,0
    8000004c:	00000a13          	li	s4,0
    80000050:	00000a93          	li	s5,0
    80000054:	00000b13          	li	s6,0
    80000058:	00000b93          	li	s7,0
    8000005c:	00000c13          	li	s8,0
    80000060:	00000c93          	li	s9,0
    80000064:	00000d13          	li	s10,0
    80000068:	00000d93          	li	s11,0
    8000006c:	00000e13          	li	t3,0
    80000070:	00000e93          	li	t4,0
    80000074:	00000f13          	li	t5,0
    80000078:	00000f93          	li	t6,0
    8000007c:	0001e2b7          	lui	t0,0x1e
    80000080:	00011197          	auipc	gp,0x11
    80000084:	83818193          	add	gp,gp,-1992 # 800108b8 <__global_pointer$>
    80000088:	01700293          	li	t0,23
    8000008c:	00812217          	auipc	tp,0x812
    80000090:	f7420213          	add	tp,tp,-140 # 80812000 <__heap_end>
    80000094:	005412b3          	sll	t0,s0,t0
    80000098:	00520233          	add	tp,tp,t0
    8000009c:	008002b7          	lui	t0,0x800
    800000a0:	00028293          	mv	t0,t0
    800000a4:	00520133          	add	sp,tp,t0
    800000a8:	00000297          	auipc	t0,0x0
    800000ac:	04828293          	add	t0,t0,72 # 800000f0 <trap_entry>
    800000b0:	1610b0ef          	jal	8000ba10 <__init_tls>
    800000b4:	00000293          	li	t0,0
    800000b8:	00540463          	beq	s0,t0,800000c0 <_start+0xc0>
    800000bc:	1900006f          	j	8000024c <_start_secondary>
    800000c0:	89018293          	add	t0,gp,-1904 # 80010148 <state>
    800000c4:	00011317          	auipc	t1,0x11
    800000c8:	ffc30313          	add	t1,t1,-4 # 800110c0 <_end>
    800000cc:	0062f863          	bgeu	t0,t1,800000dc <_start+0xdc>
    800000d0:	0002b023          	sd	zero,0(t0)
    800000d4:	00828293          	add	t0,t0,8
    800000d8:	fe62ece3          	bltu	t0,t1,800000d0 <_start+0xd0>
    800000dc:	00006517          	auipc	a0,0x6
    800000e0:	a1450513          	add	a0,a0,-1516 # 80005af0 <__libc_fini_array>
    800000e4:	76c010ef          	jal	80001850 <atexit>
    800000e8:	1ed0b0ef          	jal	8000bad4 <__libc_init_array>
    800000ec:	1140006f          	j	80000200 <_start_main>

00000000800000f0 <trap_entry>:
    800000f0:	f0010113          	add	sp,sp,-256
    800000f4:	00113423          	sd	ra,8(sp)
    800000f8:	00113823          	sd	ra,16(sp)
    800000fc:	00313c23          	sd	gp,24(sp)
    80000100:	02413023          	sd	tp,32(sp)
    80000104:	02513423          	sd	t0,40(sp)
    80000108:	02613823          	sd	t1,48(sp)
    8000010c:	02713c23          	sd	t2,56(sp)
    80000110:	04813023          	sd	s0,64(sp)
    80000114:	04913423          	sd	s1,72(sp)
    80000118:	04a13823          	sd	a0,80(sp)
    8000011c:	04b13c23          	sd	a1,88(sp)
    80000120:	06c13023          	sd	a2,96(sp)
    80000124:	06d13423          	sd	a3,104(sp)
    80000128:	06e13823          	sd	a4,112(sp)
    8000012c:	06f13c23          	sd	a5,120(sp)
    80000130:	09013023          	sd	a6,128(sp)
    80000134:	09113423          	sd	a7,136(sp)
    80000138:	09213823          	sd	s2,144(sp)
    8000013c:	09313c23          	sd	s3,152(sp)
    80000140:	0b413023          	sd	s4,160(sp)
    80000144:	0b513423          	sd	s5,168(sp)
    80000148:	0b613823          	sd	s6,176(sp)
    8000014c:	0b713c23          	sd	s7,184(sp)
    80000150:	0d813023          	sd	s8,192(sp)
    80000154:	0d913423          	sd	s9,200(sp)
    80000158:	0da13823          	sd	s10,208(sp)
    8000015c:	0db13c23          	sd	s11,216(sp)
    80000160:	0fc13023          	sd	t3,224(sp)
    80000164:	0fd13423          	sd	t4,232(sp)
    80000168:	0fe13823          	sd	t5,240(sp)
    8000016c:	0ff13c23          	sd	t6,248(sp)
    80000170:	00010693          	mv	a3,sp
    80000174:	0810b0ef          	jal	8000b9f4 <handle_trap>
    80000178:	000022b7          	lui	t0,0x2
    8000017c:	8002829b          	addw	t0,t0,-2048 # 1800 <__stack_shift+0x17e9>
    80000180:	00813083          	ld	ra,8(sp)
    80000184:	01813183          	ld	gp,24(sp)
    80000188:	02013203          	ld	tp,32(sp)
    8000018c:	02813283          	ld	t0,40(sp)
    80000190:	03013303          	ld	t1,48(sp)
    80000194:	03813383          	ld	t2,56(sp)
    80000198:	04013403          	ld	s0,64(sp)
    8000019c:	04813483          	ld	s1,72(sp)
    800001a0:	05013503          	ld	a0,80(sp)
    800001a4:	05813583          	ld	a1,88(sp)
    800001a8:	06013603          	ld	a2,96(sp)
    800001ac:	06813683          	ld	a3,104(sp)
    800001b0:	07013703          	ld	a4,112(sp)
    800001b4:	07813783          	ld	a5,120(sp)
    800001b8:	08013803          	ld	a6,128(sp)
    800001bc:	08813883          	ld	a7,136(sp)
    800001c0:	09013903          	ld	s2,144(sp)
    800001c4:	09813983          	ld	s3,152(sp)
    800001c8:	0a013a03          	ld	s4,160(sp)
    800001cc:	0a813a83          	ld	s5,168(sp)
    800001d0:	0b013b03          	ld	s6,176(sp)
    800001d4:	0b813b83          	ld	s7,184(sp)
    800001d8:	0c013c03          	ld	s8,192(sp)
    800001dc:	0c813c83          	ld	s9,200(sp)
    800001e0:	0d013d03          	ld	s10,208(sp)
    800001e4:	0d813d83          	ld	s11,216(sp)
    800001e8:	0e013e03          	ld	t3,224(sp)
    800001ec:	0e813e83          	ld	t4,232(sp)
    800001f0:	0f013f03          	ld	t5,240(sp)
    800001f4:	0f813f83          	ld	t6,248(sp)
    800001f8:	01013103          	ld	sp,16(sp)
    800001fc:	30200073          	mret

0000000080000200 <_start_main>:
    80000200:	80010113          	add	sp,sp,-2048
    80000204:	7db00693          	li	a3,2011
    80000208:	000015b7          	lui	a1,0x1
    8000020c:	8005859b          	addw	a1,a1,-2048 # 800 <__stack_shift+0x7e9>
    80000210:	00010513          	mv	a0,sp
    80000214:	0490b0ef          	jal	8000ba5c <htif_syscall>
    80000218:	00012503          	lw	a0,0(sp)
    8000021c:	00810593          	add	a1,sp,8
    80000220:	00011297          	auipc	t0,0x11
    80000224:	e8a2ac23          	sw	a0,-360(t0) # 800110b8 <argc>
    80000228:	00011297          	auipc	t0,0x11
    8000022c:	e8b2b423          	sd	a1,-376(t0) # 800110b0 <argv>
    80000230:	fff00293          	li	t0,-1
    80000234:	0110000f          	fence	w,w
    80000238:	00011317          	auipc	t1,0x11
    8000023c:	e8532223          	sw	t0,-380(t1) # 800110bc <__boot_sync>
    80000240:	8201b603          	ld	a2,-2016(gp) # 800100d8 <environ>
    80000244:	034000ef          	jal	80000278 <main>
    80000248:	4280006f          	j	80000670 <exit>

000000008000024c <_start_secondary>:
    8000024c:	00011317          	auipc	t1,0x11
    80000250:	e7032283          	lw	t0,-400(t1) # 800110bc <__boot_sync>
    80000254:	fe028ee3          	beqz	t0,80000250 <_start_secondary+0x4>
    80000258:	0220000f          	fence	r,r
    8000025c:	00011517          	auipc	a0,0x11
    80000260:	e5c52503          	lw	a0,-420(a0) # 800110b8 <argc>
    80000264:	00011597          	auipc	a1,0x11
    80000268:	e4c5b583          	ld	a1,-436(a1) # 800110b0 <argv>
    8000026c:	8201b603          	ld	a2,-2016(gp) # 800100d8 <environ>
    80000270:	7e40b0ef          	jal	8000ba54 <__main>
    80000274:	3fc0006f          	j	80000670 <exit>

0000000080000278 <main>:
    80000278:	fd010113          	add	sp,sp,-48
    8000027c:	00913c23          	sd	s1,24(sp)
    80000280:	01213823          	sd	s2,16(sp)
    80000284:	01313423          	sd	s3,8(sp)
    80000288:	02113423          	sd	ra,40(sp)
    8000028c:	02813023          	sd	s0,32(sp)
    80000290:	8e018493          	add	s1,gp,-1824 # 80010198 <abuf>
    80000294:	89018993          	add	s3,gp,-1904 # 80010148 <state>
    80000298:	ad818913          	add	s2,gp,-1320 # 80010390 <sbuf>
    8000029c:	02c0006f          	j	800002c8 <main+0x50>
    800002a0:	04050a63          	beqz	a0,800002f4 <main+0x7c>
    800002a4:	0015161b          	sllw	a2,a0,0x1
    800002a8:	00090593          	mv	a1,s2
    800002ac:	00048513          	mv	a0,s1
    800002b0:	00098693          	mv	a3,s3
    800002b4:	25c000ef          	jal	80000510 <adpcm_decoder>
    800002b8:	0024161b          	sllw	a2,s0,0x2
    800002bc:	00090593          	mv	a1,s2
    800002c0:	00100513          	li	a0,1
    800002c4:	278010ef          	jal	8000153c <write>
    800002c8:	1f400613          	li	a2,500
    800002cc:	00048593          	mv	a1,s1
    800002d0:	00000513          	li	a0,0
    800002d4:	250010ef          	jal	80001524 <read>
    800002d8:	00050413          	mv	s0,a0
    800002dc:	fc0552e3          	bgez	a0,800002a0 <main+0x28>
    800002e0:	0000e517          	auipc	a0,0xe
    800002e4:	de050513          	add	a0,a0,-544 # 8000e0c0 <__tbss_end+0x8>
    800002e8:	215000ef          	jal	80000cfc <perror>
    800002ec:	00100513          	li	a0,1
    800002f0:	380000ef          	jal	80000670 <exit>
    800002f4:	89018793          	add	a5,gp,-1904 # 80010148 <state>
    800002f8:	0027c683          	lbu	a3,2(a5)
    800002fc:	00079603          	lh	a2,0(a5)
    80000300:	00010797          	auipc	a5,0x10
    80000304:	db87b783          	ld	a5,-584(a5) # 800100b8 <_impure_ptr>
    80000308:	0187b503          	ld	a0,24(a5)
    8000030c:	0000e597          	auipc	a1,0xe
    80000310:	dc458593          	add	a1,a1,-572 # 8000e0d0 <__tbss_end+0x18>
    80000314:	720000ef          	jal	80000a34 <fprintf>
    80000318:	00000513          	li	a0,0
    8000031c:	354000ef          	jal	80000670 <exit>

0000000080000320 <register_fini>:
    80000320:	00000793          	li	a5,0
    80000324:	00078863          	beqz	a5,80000334 <register_fini+0x14>
    80000328:	00005517          	auipc	a0,0x5
    8000032c:	7c850513          	add	a0,a0,1992 # 80005af0 <__libc_fini_array>
    80000330:	5200106f          	j	80001850 <atexit>
    80000334:	00008067          	ret

0000000080000338 <adpcm_coder>:
    80000338:	0026c783          	lbu	a5,2(a3)
    8000033c:	0000ee17          	auipc	t3,0xe
    80000340:	6fce0e13          	add	t3,t3,1788 # 8000ea38 <stepsizeTable>
    80000344:	00069303          	lh	t1,0(a3)
    80000348:	00279713          	sll	a4,a5,0x2
    8000034c:	00ee0733          	add	a4,t3,a4
    80000350:	00072703          	lw	a4,0(a4)
    80000354:	1ac05863          	blez	a2,80000504 <adpcm_coder+0x1cc>
    80000358:	fd010113          	add	sp,sp,-48
    8000035c:	00078e9b          	sext.w	t4,a5
    80000360:	02061793          	sll	a5,a2,0x20
    80000364:	02913023          	sd	s1,32(sp)
    80000368:	01f7d613          	srl	a2,a5,0x1f
    8000036c:	000084b7          	lui	s1,0x8
    80000370:	02813423          	sd	s0,40(sp)
    80000374:	01213c23          	sd	s2,24(sp)
    80000378:	01313823          	sd	s3,16(sp)
    8000037c:	01413423          	sd	s4,8(sp)
    80000380:	01513023          	sd	s5,0(sp)
    80000384:	00000f93          	li	t6,0
    80000388:	00c50f33          	add	t5,a0,a2
    8000038c:	00100913          	li	s2,1
    80000390:	ffff8437          	lui	s0,0xffff8
    80000394:	000083b7          	lui	t2,0x8
    80000398:	fff4849b          	addw	s1,s1,-1 # 7fff <__stack_shift+0x7fe8>
    8000039c:	05800293          	li	t0,88
    800003a0:	00051783          	lh	a5,0(a0)
    800003a4:	00250513          	add	a0,a0,2
    800003a8:	4067863b          	subw	a2,a5,t1
    800003ac:	41c6589b          	sraw	a7,a2,0x1c
    800003b0:	0088f893          	and	a7,a7,8
    800003b4:	00088463          	beqz	a7,800003bc <adpcm_coder+0x84>
    800003b8:	40f3063b          	subw	a2,t1,a5
    800003bc:	4037579b          	sraw	a5,a4,0x3
    800003c0:	40375813          	sra	a6,a4,0x3
    800003c4:	0ee64663          	blt	a2,a4,800004b0 <adpcm_coder+0x178>
    800003c8:	00e7883b          	addw	a6,a5,a4
    800003cc:	40e6063b          	subw	a2,a2,a4
    800003d0:	00600a93          	li	s5,6
    800003d4:	00400793          	li	a5,4
    800003d8:	40175993          	sra	s3,a4,0x1
    800003dc:	40175a1b          	sraw	s4,a4,0x1
    800003e0:	01364863          	blt	a2,s3,800003f0 <adpcm_coder+0xb8>
    800003e4:	4146063b          	subw	a2,a2,s4
    800003e8:	010a083b          	addw	a6,s4,a6
    800003ec:	000a8793          	mv	a5,s5
    800003f0:	40275993          	sra	s3,a4,0x2
    800003f4:	4027571b          	sraw	a4,a4,0x2
    800003f8:	01364863          	blt	a2,s3,80000408 <adpcm_coder+0xd0>
    800003fc:	0017e793          	or	a5,a5,1
    80000400:	0007879b          	sext.w	a5,a5
    80000404:	0107083b          	addw	a6,a4,a6
    80000408:	0a088063          	beqz	a7,800004a8 <adpcm_coder+0x170>
    8000040c:	4103083b          	subw	a6,t1,a6
    80000410:	00080713          	mv	a4,a6
    80000414:	00885463          	bge	a6,s0,8000041c <adpcm_coder+0xe4>
    80000418:	ffff8737          	lui	a4,0xffff8
    8000041c:	0007081b          	sext.w	a6,a4
    80000420:	00784463          	blt	a6,t2,80000428 <adpcm_coder+0xf0>
    80000424:	00048813          	mv	a6,s1
    80000428:	0117e7b3          	or	a5,a5,a7
    8000042c:	0007879b          	sext.w	a5,a5
    80000430:	00279713          	sll	a4,a5,0x2
    80000434:	00ee0733          	add	a4,t3,a4
    80000438:	16872603          	lw	a2,360(a4) # ffffffffffff8168 <__heap_end+0xffffffff7f7e6168>
    8000043c:	00080313          	mv	t1,a6
    80000440:	01d6063b          	addw	a2,a2,t4
    80000444:	02c2d663          	bge	t0,a2,80000470 <adpcm_coder+0x138>
    80000448:	05800613          	li	a2,88
    8000044c:	00261713          	sll	a4,a2,0x2
    80000450:	00ee0733          	add	a4,t3,a4
    80000454:	00072703          	lw	a4,0(a4)
    80000458:	00060e93          	mv	t4,a2
    8000045c:	02090a63          	beqz	s2,80000490 <adpcm_coder+0x158>
    80000460:	00479f9b          	sllw	t6,a5,0x4
    80000464:	05e50c63          	beq	a0,t5,800004bc <adpcm_coder+0x184>
    80000468:	00000913          	li	s2,0
    8000046c:	f35ff06f          	j	800003a0 <adpcm_coder+0x68>
    80000470:	fff64713          	not	a4,a2
    80000474:	43f75713          	sra	a4,a4,0x3f
    80000478:	00e67633          	and	a2,a2,a4
    8000047c:	00261713          	sll	a4,a2,0x2
    80000480:	00ee0733          	add	a4,t3,a4
    80000484:	00072703          	lw	a4,0(a4)
    80000488:	00060e93          	mv	t4,a2
    8000048c:	fc091ae3          	bnez	s2,80000460 <adpcm_coder+0x128>
    80000490:	01f7e7b3          	or	a5,a5,t6
    80000494:	00f58023          	sb	a5,0(a1)
    80000498:	00158593          	add	a1,a1,1
    8000049c:	05e50c63          	beq	a0,t5,800004f4 <adpcm_coder+0x1bc>
    800004a0:	00100913          	li	s2,1
    800004a4:	efdff06f          	j	800003a0 <adpcm_coder+0x68>
    800004a8:	0068083b          	addw	a6,a6,t1
    800004ac:	f65ff06f          	j	80000410 <adpcm_coder+0xd8>
    800004b0:	00200a93          	li	s5,2
    800004b4:	00000793          	li	a5,0
    800004b8:	f21ff06f          	j	800003d8 <adpcm_coder+0xa0>
    800004bc:	0108181b          	sllw	a6,a6,0x10
    800004c0:	4108581b          	sraw	a6,a6,0x10
    800004c4:	0ff67793          	zext.b	a5,a2
    800004c8:	01f58023          	sb	t6,0(a1)
    800004cc:	02813403          	ld	s0,40(sp)
    800004d0:	01069023          	sh	a6,0(a3)
    800004d4:	00f68123          	sb	a5,2(a3)
    800004d8:	02013483          	ld	s1,32(sp)
    800004dc:	01813903          	ld	s2,24(sp)
    800004e0:	01013983          	ld	s3,16(sp)
    800004e4:	00813a03          	ld	s4,8(sp)
    800004e8:	00013a83          	ld	s5,0(sp)
    800004ec:	03010113          	add	sp,sp,48
    800004f0:	00008067          	ret
    800004f4:	0108181b          	sllw	a6,a6,0x10
    800004f8:	4108581b          	sraw	a6,a6,0x10
    800004fc:	0ff67793          	zext.b	a5,a2
    80000500:	fcdff06f          	j	800004cc <adpcm_coder+0x194>
    80000504:	00669023          	sh	t1,0(a3)
    80000508:	00f68123          	sb	a5,2(a3)
    8000050c:	00008067          	ret

0000000080000510 <adpcm_decoder>:
    80000510:	0026c783          	lbu	a5,2(a3)
    80000514:	0000ef17          	auipc	t5,0xe
    80000518:	524f0f13          	add	t5,t5,1316 # 8000ea38 <stepsizeTable>
    8000051c:	00069803          	lh	a6,0(a3)
    80000520:	00279713          	sll	a4,a5,0x2
    80000524:	00ef0733          	add	a4,t5,a4
    80000528:	00072883          	lw	a7,0(a4)
    8000052c:	12c05c63          	blez	a2,80000664 <adpcm_decoder+0x154>
    80000530:	fd010113          	add	sp,sp,-48
    80000534:	01213c23          	sd	s2,24(sp)
    80000538:	0007891b          	sext.w	s2,a5
    8000053c:	02061793          	sll	a5,a2,0x20
    80000540:	02913023          	sd	s1,32(sp)
    80000544:	01f7d613          	srl	a2,a5,0x1f
    80000548:	000084b7          	lui	s1,0x8
    8000054c:	02813423          	sd	s0,40(sp)
    80000550:	01313823          	sd	s3,16(sp)
    80000554:	01413423          	sd	s4,8(sp)
    80000558:	00000e93          	li	t4,0
    8000055c:	00c58fb3          	add	t6,a1,a2
    80000560:	00000e13          	li	t3,0
    80000564:	05800413          	li	s0,88
    80000568:	ffff83b7          	lui	t2,0xffff8
    8000056c:	000082b7          	lui	t0,0x8
    80000570:	fff4849b          	addw	s1,s1,-1 # 7fff <__stack_shift+0x7fe8>
    80000574:	00fef713          	and	a4,t4,15
    80000578:	000e1a63          	bnez	t3,8000058c <adpcm_decoder+0x7c>
    8000057c:	00050e83          	lb	t4,0(a0)
    80000580:	00150513          	add	a0,a0,1
    80000584:	404ed71b          	sraw	a4,t4,0x4
    80000588:	00f77713          	and	a4,a4,15
    8000058c:	00271793          	sll	a5,a4,0x2
    80000590:	00ff07b3          	add	a5,t5,a5
    80000594:	1687a783          	lw	a5,360(a5)
    80000598:	001e4e13          	xor	t3,t3,1
    8000059c:	012787bb          	addw	a5,a5,s2
    800005a0:	0af45663          	bge	s0,a5,8000064c <adpcm_decoder+0x13c>
    800005a4:	05800793          	li	a5,88
    800005a8:	00477313          	and	t1,a4,4
    800005ac:	00078913          	mv	s2,a5
    800005b0:	00877993          	and	s3,a4,8
    800005b4:	4038da1b          	sraw	s4,a7,0x3
    800005b8:	4038d613          	sra	a2,a7,0x3
    800005bc:	00030463          	beqz	t1,800005c4 <adpcm_decoder+0xb4>
    800005c0:	011a063b          	addw	a2,s4,a7
    800005c4:	00277313          	and	t1,a4,2
    800005c8:	00030663          	beqz	t1,800005d4 <adpcm_decoder+0xc4>
    800005cc:	4018d31b          	sraw	t1,a7,0x1
    800005d0:	00c3063b          	addw	a2,t1,a2
    800005d4:	00177713          	and	a4,a4,1
    800005d8:	00070663          	beqz	a4,800005e4 <adpcm_decoder+0xd4>
    800005dc:	4028d89b          	sraw	a7,a7,0x2
    800005e0:	00c8863b          	addw	a2,a7,a2
    800005e4:	06098c63          	beqz	s3,8000065c <adpcm_decoder+0x14c>
    800005e8:	40c8063b          	subw	a2,a6,a2
    800005ec:	0006071b          	sext.w	a4,a2
    800005f0:	00765463          	bge	a2,t2,800005f8 <adpcm_decoder+0xe8>
    800005f4:	ffff8737          	lui	a4,0xffff8
    800005f8:	00574463          	blt	a4,t0,80000600 <adpcm_decoder+0xf0>
    800005fc:	00048713          	mv	a4,s1
    80000600:	0107131b          	sllw	t1,a4,0x10
    80000604:	00279613          	sll	a2,a5,0x2
    80000608:	00258593          	add	a1,a1,2
    8000060c:	4103531b          	sraw	t1,t1,0x10
    80000610:	00cf0633          	add	a2,t5,a2
    80000614:	fe659f23          	sh	t1,-2(a1)
    80000618:	00062883          	lw	a7,0(a2)
    8000061c:	00070813          	mv	a6,a4
    80000620:	f5f59ae3          	bne	a1,t6,80000574 <adpcm_decoder+0x64>
    80000624:	02813403          	ld	s0,40(sp)
    80000628:	0ff7f793          	zext.b	a5,a5
    8000062c:	00669023          	sh	t1,0(a3)
    80000630:	00f68123          	sb	a5,2(a3)
    80000634:	02013483          	ld	s1,32(sp)
    80000638:	01813903          	ld	s2,24(sp)
    8000063c:	01013983          	ld	s3,16(sp)
    80000640:	00813a03          	ld	s4,8(sp)
    80000644:	03010113          	add	sp,sp,48
    80000648:	00008067          	ret
    8000064c:	fff7c613          	not	a2,a5
    80000650:	43f65613          	sra	a2,a2,0x3f
    80000654:	00c7f7b3          	and	a5,a5,a2
    80000658:	f51ff06f          	j	800005a8 <adpcm_decoder+0x98>
    8000065c:	0106063b          	addw	a2,a2,a6
    80000660:	f8dff06f          	j	800005ec <adpcm_decoder+0xdc>
    80000664:	01069023          	sh	a6,0(a3)
    80000668:	00f68123          	sb	a5,2(a3)
    8000066c:	00008067          	ret

0000000080000670 <exit>:
    80000670:	ff010113          	add	sp,sp,-16
    80000674:	00000593          	li	a1,0
    80000678:	00813023          	sd	s0,0(sp)
    8000067c:	00113423          	sd	ra,8(sp)
    80000680:	00050413          	mv	s0,a0
    80000684:	08c010ef          	jal	80001710 <__call_exitprocs>
    80000688:	8981b783          	ld	a5,-1896(gp) # 80010150 <__stdio_exit_handler>
    8000068c:	00078463          	beqz	a5,80000694 <exit+0x24>
    80000690:	000780e7          	jalr	a5
    80000694:	00040513          	mv	a0,s0
    80000698:	2640b0ef          	jal	8000b8fc <_exit>

000000008000069c <__fp_lock>:
    8000069c:	00000513          	li	a0,0
    800006a0:	00008067          	ret

00000000800006a4 <stdio_exit_handler>:
    800006a4:	0000f617          	auipc	a2,0xf
    800006a8:	eec60613          	add	a2,a2,-276 # 8000f590 <__sglue>
    800006ac:	00004597          	auipc	a1,0x4
    800006b0:	70c58593          	add	a1,a1,1804 # 80004db8 <_fclose_r>
    800006b4:	0000f517          	auipc	a0,0xf
    800006b8:	ef450513          	add	a0,a0,-268 # 8000f5a8 <_impure_data>
    800006bc:	3c40006f          	j	80000a80 <_fwalk_sglue>

00000000800006c0 <cleanup_stdio>:
    800006c0:	00853583          	ld	a1,8(a0)
    800006c4:	ff010113          	add	sp,sp,-16
    800006c8:	00813023          	sd	s0,0(sp)
    800006cc:	00113423          	sd	ra,8(sp)
    800006d0:	2a818793          	add	a5,gp,680 # 80010b60 <__sf>
    800006d4:	00050413          	mv	s0,a0
    800006d8:	00f58463          	beq	a1,a5,800006e0 <cleanup_stdio+0x20>
    800006dc:	6dc040ef          	jal	80004db8 <_fclose_r>
    800006e0:	01043583          	ld	a1,16(s0) # ffffffffffff8010 <__heap_end+0xffffffff7f7e6010>
    800006e4:	35818793          	add	a5,gp,856 # 80010c10 <__sf+0xb0>
    800006e8:	00f58663          	beq	a1,a5,800006f4 <cleanup_stdio+0x34>
    800006ec:	00040513          	mv	a0,s0
    800006f0:	6c8040ef          	jal	80004db8 <_fclose_r>
    800006f4:	01843583          	ld	a1,24(s0)
    800006f8:	40818793          	add	a5,gp,1032 # 80010cc0 <__sf+0x160>
    800006fc:	00f58c63          	beq	a1,a5,80000714 <cleanup_stdio+0x54>
    80000700:	00040513          	mv	a0,s0
    80000704:	00013403          	ld	s0,0(sp)
    80000708:	00813083          	ld	ra,8(sp)
    8000070c:	01010113          	add	sp,sp,16
    80000710:	6a80406f          	j	80004db8 <_fclose_r>
    80000714:	00813083          	ld	ra,8(sp)
    80000718:	00013403          	ld	s0,0(sp)
    8000071c:	01010113          	add	sp,sp,16
    80000720:	00008067          	ret

0000000080000724 <__fp_unlock>:
    80000724:	00000513          	li	a0,0
    80000728:	00008067          	ret

000000008000072c <global_stdio_init.part.0>:
    8000072c:	fd010113          	add	sp,sp,-48
    80000730:	00000797          	auipc	a5,0x0
    80000734:	f7478793          	add	a5,a5,-140 # 800006a4 <stdio_exit_handler>
    80000738:	02113423          	sd	ra,40(sp)
    8000073c:	02813023          	sd	s0,32(sp)
    80000740:	00913c23          	sd	s1,24(sp)
    80000744:	2a818413          	add	s0,gp,680 # 80010b60 <__sf>
    80000748:	01213823          	sd	s2,16(sp)
    8000074c:	01313423          	sd	s3,8(sp)
    80000750:	01413023          	sd	s4,0(sp)
    80000754:	88f1bc23          	sd	a5,-1896(gp) # 80010150 <__stdio_exit_handler>
    80000758:	00800613          	li	a2,8
    8000075c:	00400793          	li	a5,4
    80000760:	00000593          	li	a1,0
    80000764:	34c18513          	add	a0,gp,844 # 80010c04 <__sf+0xa4>
    80000768:	00f42823          	sw	a5,16(s0)
    8000076c:	00043023          	sd	zero,0(s0)
    80000770:	00043423          	sd	zero,8(s0)
    80000774:	0a042623          	sw	zero,172(s0)
    80000778:	00043c23          	sd	zero,24(s0)
    8000077c:	02042023          	sw	zero,32(s0)
    80000780:	02042423          	sw	zero,40(s0)
    80000784:	5d1000ef          	jal	80001554 <memset>
    80000788:	000107b7          	lui	a5,0x10
    8000078c:	00000a17          	auipc	s4,0x0
    80000790:	580a0a13          	add	s4,s4,1408 # 80000d0c <__sread>
    80000794:	00000997          	auipc	s3,0x0
    80000798:	5dc98993          	add	s3,s3,1500 # 80000d70 <__swrite>
    8000079c:	00000917          	auipc	s2,0x0
    800007a0:	65c90913          	add	s2,s2,1628 # 80000df8 <__sseek>
    800007a4:	00000497          	auipc	s1,0x0
    800007a8:	6cc48493          	add	s1,s1,1740 # 80000e70 <__sclose>
    800007ac:	00978793          	add	a5,a5,9 # 10009 <__stack_shift+0xfff2>
    800007b0:	00800613          	li	a2,8
    800007b4:	00000593          	li	a1,0
    800007b8:	3fc18513          	add	a0,gp,1020 # 80010cb4 <__sf+0x154>
    800007bc:	03443c23          	sd	s4,56(s0)
    800007c0:	05343023          	sd	s3,64(s0)
    800007c4:	05243423          	sd	s2,72(s0)
    800007c8:	04943823          	sd	s1,80(s0)
    800007cc:	0cf42023          	sw	a5,192(s0)
    800007d0:	02843823          	sd	s0,48(s0)
    800007d4:	0a043823          	sd	zero,176(s0)
    800007d8:	0a043c23          	sd	zero,184(s0)
    800007dc:	14042e23          	sw	zero,348(s0)
    800007e0:	0c043423          	sd	zero,200(s0)
    800007e4:	0c042823          	sw	zero,208(s0)
    800007e8:	0c042c23          	sw	zero,216(s0)
    800007ec:	569000ef          	jal	80001554 <memset>
    800007f0:	000207b7          	lui	a5,0x20
    800007f4:	01278793          	add	a5,a5,18 # 20012 <__stack_shift+0x1fffb>
    800007f8:	35818713          	add	a4,gp,856 # 80010c10 <__sf+0xb0>
    800007fc:	00800613          	li	a2,8
    80000800:	00000593          	li	a1,0
    80000804:	4ac18513          	add	a0,gp,1196 # 80010d64 <__sf+0x204>
    80000808:	0f443423          	sd	s4,232(s0)
    8000080c:	0f343823          	sd	s3,240(s0)
    80000810:	0f243c23          	sd	s2,248(s0)
    80000814:	10943023          	sd	s1,256(s0)
    80000818:	16f42823          	sw	a5,368(s0)
    8000081c:	0ee43023          	sd	a4,224(s0)
    80000820:	16043023          	sd	zero,352(s0)
    80000824:	16043423          	sd	zero,360(s0)
    80000828:	20042623          	sw	zero,524(s0)
    8000082c:	16043c23          	sd	zero,376(s0)
    80000830:	18042023          	sw	zero,384(s0)
    80000834:	18042423          	sw	zero,392(s0)
    80000838:	51d000ef          	jal	80001554 <memset>
    8000083c:	40818793          	add	a5,gp,1032 # 80010cc0 <__sf+0x160>
    80000840:	19443c23          	sd	s4,408(s0)
    80000844:	1b343023          	sd	s3,416(s0)
    80000848:	1b243423          	sd	s2,424(s0)
    8000084c:	1a943823          	sd	s1,432(s0)
    80000850:	02813083          	ld	ra,40(sp)
    80000854:	18f43823          	sd	a5,400(s0)
    80000858:	02013403          	ld	s0,32(sp)
    8000085c:	01813483          	ld	s1,24(sp)
    80000860:	01013903          	ld	s2,16(sp)
    80000864:	00813983          	ld	s3,8(sp)
    80000868:	00013a03          	ld	s4,0(sp)
    8000086c:	03010113          	add	sp,sp,48
    80000870:	00008067          	ret

0000000080000874 <__sfp>:
    80000874:	fd010113          	add	sp,sp,-48
    80000878:	01213823          	sd	s2,16(sp)
    8000087c:	02113423          	sd	ra,40(sp)
    80000880:	02813023          	sd	s0,32(sp)
    80000884:	00913c23          	sd	s1,24(sp)
    80000888:	01313423          	sd	s3,8(sp)
    8000088c:	8981b783          	ld	a5,-1896(gp) # 80010150 <__stdio_exit_handler>
    80000890:	00050913          	mv	s2,a0
    80000894:	0e078a63          	beqz	a5,80000988 <__sfp+0x114>
    80000898:	0000f497          	auipc	s1,0xf
    8000089c:	cf848493          	add	s1,s1,-776 # 8000f590 <__sglue>
    800008a0:	0b000993          	li	s3,176
    800008a4:	0084a703          	lw	a4,8(s1)
    800008a8:	0104b403          	ld	s0,16(s1)
    800008ac:	08e05663          	blez	a4,80000938 <__sfp+0xc4>
    800008b0:	02071713          	sll	a4,a4,0x20
    800008b4:	02075713          	srl	a4,a4,0x20
    800008b8:	03370733          	mul	a4,a4,s3
    800008bc:	00e40733          	add	a4,s0,a4
    800008c0:	00c0006f          	j	800008cc <__sfp+0x58>
    800008c4:	0b040413          	add	s0,s0,176
    800008c8:	06870863          	beq	a4,s0,80000938 <__sfp+0xc4>
    800008cc:	01041783          	lh	a5,16(s0)
    800008d0:	fe079ae3          	bnez	a5,800008c4 <__sfp+0x50>
    800008d4:	ffff07b7          	lui	a5,0xffff0
    800008d8:	00178793          	add	a5,a5,1 # ffffffffffff0001 <__heap_end+0xffffffff7f7de001>
    800008dc:	00f42823          	sw	a5,16(s0)
    800008e0:	0a042623          	sw	zero,172(s0)
    800008e4:	00043023          	sd	zero,0(s0)
    800008e8:	00043423          	sd	zero,8(s0)
    800008ec:	00043c23          	sd	zero,24(s0)
    800008f0:	02042023          	sw	zero,32(s0)
    800008f4:	02042423          	sw	zero,40(s0)
    800008f8:	00800613          	li	a2,8
    800008fc:	00000593          	li	a1,0
    80000900:	0a440513          	add	a0,s0,164
    80000904:	451000ef          	jal	80001554 <memset>
    80000908:	04043c23          	sd	zero,88(s0)
    8000090c:	06042023          	sw	zero,96(s0)
    80000910:	06043c23          	sd	zero,120(s0)
    80000914:	08042023          	sw	zero,128(s0)
    80000918:	02813083          	ld	ra,40(sp)
    8000091c:	00040513          	mv	a0,s0
    80000920:	02013403          	ld	s0,32(sp)
    80000924:	01813483          	ld	s1,24(sp)
    80000928:	01013903          	ld	s2,16(sp)
    8000092c:	00813983          	ld	s3,8(sp)
    80000930:	03010113          	add	sp,sp,48
    80000934:	00008067          	ret
    80000938:	0004b403          	ld	s0,0(s1)
    8000093c:	00040663          	beqz	s0,80000948 <__sfp+0xd4>
    80000940:	00040493          	mv	s1,s0
    80000944:	f61ff06f          	j	800008a4 <__sfp+0x30>
    80000948:	2d800593          	li	a1,728
    8000094c:	00090513          	mv	a0,s2
    80000950:	370010ef          	jal	80001cc0 <_malloc_r>
    80000954:	00050413          	mv	s0,a0
    80000958:	02050c63          	beqz	a0,80000990 <__sfp+0x11c>
    8000095c:	01850513          	add	a0,a0,24
    80000960:	00400793          	li	a5,4
    80000964:	00043023          	sd	zero,0(s0)
    80000968:	00f42423          	sw	a5,8(s0)
    8000096c:	00a43823          	sd	a0,16(s0)
    80000970:	2c000613          	li	a2,704
    80000974:	00000593          	li	a1,0
    80000978:	3dd000ef          	jal	80001554 <memset>
    8000097c:	0084b023          	sd	s0,0(s1)
    80000980:	00040493          	mv	s1,s0
    80000984:	f21ff06f          	j	800008a4 <__sfp+0x30>
    80000988:	da5ff0ef          	jal	8000072c <global_stdio_init.part.0>
    8000098c:	f0dff06f          	j	80000898 <__sfp+0x24>
    80000990:	0004b023          	sd	zero,0(s1)
    80000994:	00c00793          	li	a5,12
    80000998:	00f92023          	sw	a5,0(s2)
    8000099c:	f7dff06f          	j	80000918 <__sfp+0xa4>

00000000800009a0 <__sinit>:
    800009a0:	04853783          	ld	a5,72(a0)
    800009a4:	00078463          	beqz	a5,800009ac <__sinit+0xc>
    800009a8:	00008067          	ret
    800009ac:	00000797          	auipc	a5,0x0
    800009b0:	d1478793          	add	a5,a5,-748 # 800006c0 <cleanup_stdio>
    800009b4:	04f53423          	sd	a5,72(a0)
    800009b8:	8981b783          	ld	a5,-1896(gp) # 80010150 <__stdio_exit_handler>
    800009bc:	fe0796e3          	bnez	a5,800009a8 <__sinit+0x8>
    800009c0:	d6dff06f          	j	8000072c <global_stdio_init.part.0>

00000000800009c4 <__sfp_lock_acquire>:
    800009c4:	00008067          	ret

00000000800009c8 <__sfp_lock_release>:
    800009c8:	00008067          	ret

00000000800009cc <__fp_lock_all>:
    800009cc:	0000f617          	auipc	a2,0xf
    800009d0:	bc460613          	add	a2,a2,-1084 # 8000f590 <__sglue>
    800009d4:	00000597          	auipc	a1,0x0
    800009d8:	cc858593          	add	a1,a1,-824 # 8000069c <__fp_lock>
    800009dc:	00000513          	li	a0,0
    800009e0:	0a00006f          	j	80000a80 <_fwalk_sglue>

00000000800009e4 <__fp_unlock_all>:
    800009e4:	0000f617          	auipc	a2,0xf
    800009e8:	bac60613          	add	a2,a2,-1108 # 8000f590 <__sglue>
    800009ec:	00000597          	auipc	a1,0x0
    800009f0:	d3858593          	add	a1,a1,-712 # 80000724 <__fp_unlock>
    800009f4:	00000513          	li	a0,0
    800009f8:	0880006f          	j	80000a80 <_fwalk_sglue>

00000000800009fc <_fprintf_r>:
    800009fc:	fb010113          	add	sp,sp,-80
    80000a00:	02810313          	add	t1,sp,40
    80000a04:	02d13423          	sd	a3,40(sp)
    80000a08:	00030693          	mv	a3,t1
    80000a0c:	00113c23          	sd	ra,24(sp)
    80000a10:	02e13823          	sd	a4,48(sp)
    80000a14:	02f13c23          	sd	a5,56(sp)
    80000a18:	05013023          	sd	a6,64(sp)
    80000a1c:	05113423          	sd	a7,72(sp)
    80000a20:	00613423          	sd	t1,8(sp)
    80000a24:	2c5010ef          	jal	800024e8 <_vfprintf_r>
    80000a28:	01813083          	ld	ra,24(sp)
    80000a2c:	05010113          	add	sp,sp,80
    80000a30:	00008067          	ret

0000000080000a34 <fprintf>:
    80000a34:	fb010113          	add	sp,sp,-80
    80000a38:	02010313          	add	t1,sp,32
    80000a3c:	02c13023          	sd	a2,32(sp)
    80000a40:	02d13423          	sd	a3,40(sp)
    80000a44:	00058613          	mv	a2,a1
    80000a48:	00030693          	mv	a3,t1
    80000a4c:	00050593          	mv	a1,a0
    80000a50:	0000f517          	auipc	a0,0xf
    80000a54:	66853503          	ld	a0,1640(a0) # 800100b8 <_impure_ptr>
    80000a58:	00113c23          	sd	ra,24(sp)
    80000a5c:	02e13823          	sd	a4,48(sp)
    80000a60:	02f13c23          	sd	a5,56(sp)
    80000a64:	05013023          	sd	a6,64(sp)
    80000a68:	05113423          	sd	a7,72(sp)
    80000a6c:	00613423          	sd	t1,8(sp)
    80000a70:	279010ef          	jal	800024e8 <_vfprintf_r>
    80000a74:	01813083          	ld	ra,24(sp)
    80000a78:	05010113          	add	sp,sp,80
    80000a7c:	00008067          	ret

0000000080000a80 <_fwalk_sglue>:
    80000a80:	fb010113          	add	sp,sp,-80
    80000a84:	03213823          	sd	s2,48(sp)
    80000a88:	03313423          	sd	s3,40(sp)
    80000a8c:	03413023          	sd	s4,32(sp)
    80000a90:	01513c23          	sd	s5,24(sp)
    80000a94:	01613823          	sd	s6,16(sp)
    80000a98:	01713423          	sd	s7,8(sp)
    80000a9c:	01813023          	sd	s8,0(sp)
    80000aa0:	04113423          	sd	ra,72(sp)
    80000aa4:	04813023          	sd	s0,64(sp)
    80000aa8:	02913c23          	sd	s1,56(sp)
    80000aac:	00050a13          	mv	s4,a0
    80000ab0:	00058b13          	mv	s6,a1
    80000ab4:	00060993          	mv	s3,a2
    80000ab8:	00000913          	li	s2,0
    80000abc:	0b000b93          	li	s7,176
    80000ac0:	00100c13          	li	s8,1
    80000ac4:	fff00a93          	li	s5,-1
    80000ac8:	0089a483          	lw	s1,8(s3)
    80000acc:	0109b403          	ld	s0,16(s3)
    80000ad0:	04905063          	blez	s1,80000b10 <_fwalk_sglue+0x90>
    80000ad4:	02049493          	sll	s1,s1,0x20
    80000ad8:	0204d493          	srl	s1,s1,0x20
    80000adc:	037484b3          	mul	s1,s1,s7
    80000ae0:	009404b3          	add	s1,s0,s1
    80000ae4:	01045783          	lhu	a5,16(s0)
    80000ae8:	02fc7063          	bgeu	s8,a5,80000b08 <_fwalk_sglue+0x88>
    80000aec:	01241783          	lh	a5,18(s0)
    80000af0:	00040593          	mv	a1,s0
    80000af4:	000a0513          	mv	a0,s4
    80000af8:	01578863          	beq	a5,s5,80000b08 <_fwalk_sglue+0x88>
    80000afc:	000b00e7          	jalr	s6
    80000b00:	01256933          	or	s2,a0,s2
    80000b04:	0009091b          	sext.w	s2,s2
    80000b08:	0b040413          	add	s0,s0,176
    80000b0c:	fc941ce3          	bne	s0,s1,80000ae4 <_fwalk_sglue+0x64>
    80000b10:	0009b983          	ld	s3,0(s3)
    80000b14:	fa099ae3          	bnez	s3,80000ac8 <_fwalk_sglue+0x48>
    80000b18:	04813083          	ld	ra,72(sp)
    80000b1c:	04013403          	ld	s0,64(sp)
    80000b20:	03813483          	ld	s1,56(sp)
    80000b24:	02813983          	ld	s3,40(sp)
    80000b28:	02013a03          	ld	s4,32(sp)
    80000b2c:	01813a83          	ld	s5,24(sp)
    80000b30:	01013b03          	ld	s6,16(sp)
    80000b34:	00813b83          	ld	s7,8(sp)
    80000b38:	00013c03          	ld	s8,0(sp)
    80000b3c:	00090513          	mv	a0,s2
    80000b40:	03013903          	ld	s2,48(sp)
    80000b44:	05010113          	add	sp,sp,80
    80000b48:	00008067          	ret

0000000080000b4c <_perror_r>:
    80000b4c:	04853783          	ld	a5,72(a0)
    80000b50:	fc010113          	add	sp,sp,-64
    80000b54:	02813823          	sd	s0,48(sp)
    80000b58:	03213023          	sd	s2,32(sp)
    80000b5c:	01313c23          	sd	s3,24(sp)
    80000b60:	02113c23          	sd	ra,56(sp)
    80000b64:	02913423          	sd	s1,40(sp)
    80000b68:	01853983          	ld	s3,24(a0)
    80000b6c:	00050913          	mv	s2,a0
    80000b70:	00058413          	mv	s0,a1
    80000b74:	18078063          	beqz	a5,80000cf4 <_perror_r+0x1a8>
    80000b78:	00098593          	mv	a1,s3
    80000b7c:	00090513          	mv	a0,s2
    80000b80:	5a0040ef          	jal	80005120 <_fflush_r>
    80000b84:	00040663          	beqz	s0,80000b90 <_perror_r+0x44>
    80000b88:	00044783          	lbu	a5,0(s0)
    80000b8c:	0c079c63          	bnez	a5,80000c64 <_perror_r+0x118>
    80000b90:	00092583          	lw	a1,0(s2)
    80000b94:	00c10693          	add	a3,sp,12
    80000b98:	00100613          	li	a2,1
    80000b9c:	00090513          	mv	a0,s2
    80000ba0:	2d8000ef          	jal	80000e78 <_strerror_r>
    80000ba4:	00050493          	mv	s1,a0
    80000ba8:	04050063          	beqz	a0,80000be8 <_perror_r+0x9c>
    80000bac:	285000ef          	jal	80001630 <strlen>
    80000bb0:	00050413          	mv	s0,a0
    80000bb4:	00051863          	bnez	a0,80000bc4 <_perror_r+0x78>
    80000bb8:	0300006f          	j	80000be8 <_perror_r+0x9c>
    80000bbc:	00a484b3          	add	s1,s1,a0
    80000bc0:	02040463          	beqz	s0,80000be8 <_perror_r+0x9c>
    80000bc4:	00098513          	mv	a0,s3
    80000bc8:	640040ef          	jal	80005208 <fileno>
    80000bcc:	00050593          	mv	a1,a0
    80000bd0:	00040693          	mv	a3,s0
    80000bd4:	00048613          	mv	a2,s1
    80000bd8:	00090513          	mv	a0,s2
    80000bdc:	0ed000ef          	jal	800014c8 <_write_r>
    80000be0:	40a40433          	sub	s0,s0,a0
    80000be4:	fc055ce3          	bgez	a0,80000bbc <_perror_r+0x70>
    80000be8:	0000d517          	auipc	a0,0xd
    80000bec:	51050513          	add	a0,a0,1296 # 8000e0f8 <__tbss_end+0x40>
    80000bf0:	241000ef          	jal	80001630 <strlen>
    80000bf4:	00050413          	mv	s0,a0
    80000bf8:	02050e63          	beqz	a0,80000c34 <_perror_r+0xe8>
    80000bfc:	0000d497          	auipc	s1,0xd
    80000c00:	4fc48493          	add	s1,s1,1276 # 8000e0f8 <__tbss_end+0x40>
    80000c04:	00c0006f          	j	80000c10 <_perror_r+0xc4>
    80000c08:	00a484b3          	add	s1,s1,a0
    80000c0c:	02040463          	beqz	s0,80000c34 <_perror_r+0xe8>
    80000c10:	00098513          	mv	a0,s3
    80000c14:	5f4040ef          	jal	80005208 <fileno>
    80000c18:	00050593          	mv	a1,a0
    80000c1c:	00040693          	mv	a3,s0
    80000c20:	00048613          	mv	a2,s1
    80000c24:	00090513          	mv	a0,s2
    80000c28:	0a1000ef          	jal	800014c8 <_write_r>
    80000c2c:	40a40433          	sub	s0,s0,a0
    80000c30:	fc055ce3          	bgez	a0,80000c08 <_perror_r+0xbc>
    80000c34:	0109d783          	lhu	a5,16(s3)
    80000c38:	fffff737          	lui	a4,0xfffff
    80000c3c:	03813083          	ld	ra,56(sp)
    80000c40:	03013403          	ld	s0,48(sp)
    80000c44:	fff70713          	add	a4,a4,-1 # ffffffffffffefff <__heap_end+0xffffffff7f7ecfff>
    80000c48:	00e7f7b3          	and	a5,a5,a4
    80000c4c:	00f99823          	sh	a5,16(s3)
    80000c50:	02813483          	ld	s1,40(sp)
    80000c54:	02013903          	ld	s2,32(sp)
    80000c58:	01813983          	ld	s3,24(sp)
    80000c5c:	04010113          	add	sp,sp,64
    80000c60:	00008067          	ret
    80000c64:	00040513          	mv	a0,s0
    80000c68:	1c9000ef          	jal	80001630 <strlen>
    80000c6c:	00050493          	mv	s1,a0
    80000c70:	00051863          	bnez	a0,80000c80 <_perror_r+0x134>
    80000c74:	0300006f          	j	80000ca4 <_perror_r+0x158>
    80000c78:	00a40433          	add	s0,s0,a0
    80000c7c:	02048463          	beqz	s1,80000ca4 <_perror_r+0x158>
    80000c80:	00098513          	mv	a0,s3
    80000c84:	584040ef          	jal	80005208 <fileno>
    80000c88:	00050593          	mv	a1,a0
    80000c8c:	00048693          	mv	a3,s1
    80000c90:	00040613          	mv	a2,s0
    80000c94:	00090513          	mv	a0,s2
    80000c98:	031000ef          	jal	800014c8 <_write_r>
    80000c9c:	40a484b3          	sub	s1,s1,a0
    80000ca0:	fc055ce3          	bgez	a0,80000c78 <_perror_r+0x12c>
    80000ca4:	0000d517          	auipc	a0,0xd
    80000ca8:	44c50513          	add	a0,a0,1100 # 8000e0f0 <__tbss_end+0x38>
    80000cac:	185000ef          	jal	80001630 <strlen>
    80000cb0:	00050413          	mv	s0,a0
    80000cb4:	ec050ee3          	beqz	a0,80000b90 <_perror_r+0x44>
    80000cb8:	0000d497          	auipc	s1,0xd
    80000cbc:	43848493          	add	s1,s1,1080 # 8000e0f0 <__tbss_end+0x38>
    80000cc0:	00c0006f          	j	80000ccc <_perror_r+0x180>
    80000cc4:	00a484b3          	add	s1,s1,a0
    80000cc8:	ec0404e3          	beqz	s0,80000b90 <_perror_r+0x44>
    80000ccc:	00098513          	mv	a0,s3
    80000cd0:	538040ef          	jal	80005208 <fileno>
    80000cd4:	00050593          	mv	a1,a0
    80000cd8:	00040693          	mv	a3,s0
    80000cdc:	00048613          	mv	a2,s1
    80000ce0:	00090513          	mv	a0,s2
    80000ce4:	7e4000ef          	jal	800014c8 <_write_r>
    80000ce8:	40a40433          	sub	s0,s0,a0
    80000cec:	fc055ce3          	bgez	a0,80000cc4 <_perror_r+0x178>
    80000cf0:	ea1ff06f          	j	80000b90 <_perror_r+0x44>
    80000cf4:	cadff0ef          	jal	800009a0 <__sinit>
    80000cf8:	e81ff06f          	j	80000b78 <_perror_r+0x2c>

0000000080000cfc <perror>:
    80000cfc:	00050593          	mv	a1,a0
    80000d00:	0000f517          	auipc	a0,0xf
    80000d04:	3b853503          	ld	a0,952(a0) # 800100b8 <_impure_ptr>
    80000d08:	e45ff06f          	j	80000b4c <_perror_r>

0000000080000d0c <__sread>:
    80000d0c:	ff010113          	add	sp,sp,-16
    80000d10:	00813023          	sd	s0,0(sp)
    80000d14:	00058413          	mv	s0,a1
    80000d18:	01259583          	lh	a1,18(a1)
    80000d1c:	00113423          	sd	ra,8(sp)
    80000d20:	74c000ef          	jal	8000146c <_read_r>
    80000d24:	02054063          	bltz	a0,80000d44 <__sread+0x38>
    80000d28:	09043783          	ld	a5,144(s0)
    80000d2c:	00813083          	ld	ra,8(sp)
    80000d30:	00a787b3          	add	a5,a5,a0
    80000d34:	08f43823          	sd	a5,144(s0)
    80000d38:	00013403          	ld	s0,0(sp)
    80000d3c:	01010113          	add	sp,sp,16
    80000d40:	00008067          	ret
    80000d44:	01045783          	lhu	a5,16(s0)
    80000d48:	fffff737          	lui	a4,0xfffff
    80000d4c:	fff70713          	add	a4,a4,-1 # ffffffffffffefff <__heap_end+0xffffffff7f7ecfff>
    80000d50:	00e7f7b3          	and	a5,a5,a4
    80000d54:	00813083          	ld	ra,8(sp)
    80000d58:	00f41823          	sh	a5,16(s0)
    80000d5c:	00013403          	ld	s0,0(sp)
    80000d60:	01010113          	add	sp,sp,16
    80000d64:	00008067          	ret

0000000080000d68 <__seofread>:
    80000d68:	00000513          	li	a0,0
    80000d6c:	00008067          	ret

0000000080000d70 <__swrite>:
    80000d70:	01059783          	lh	a5,16(a1)
    80000d74:	fd010113          	add	sp,sp,-48
    80000d78:	02813023          	sd	s0,32(sp)
    80000d7c:	00913c23          	sd	s1,24(sp)
    80000d80:	01213823          	sd	s2,16(sp)
    80000d84:	01313423          	sd	s3,8(sp)
    80000d88:	02113423          	sd	ra,40(sp)
    80000d8c:	1007f713          	and	a4,a5,256
    80000d90:	00058413          	mv	s0,a1
    80000d94:	00050493          	mv	s1,a0
    80000d98:	00060913          	mv	s2,a2
    80000d9c:	00068993          	mv	s3,a3
    80000da0:	04071063          	bnez	a4,80000de0 <__swrite+0x70>
    80000da4:	fffff737          	lui	a4,0xfffff
    80000da8:	fff70713          	add	a4,a4,-1 # ffffffffffffefff <__heap_end+0xffffffff7f7ecfff>
    80000dac:	00e7f7b3          	and	a5,a5,a4
    80000db0:	01241583          	lh	a1,18(s0)
    80000db4:	00f41823          	sh	a5,16(s0)
    80000db8:	02013403          	ld	s0,32(sp)
    80000dbc:	02813083          	ld	ra,40(sp)
    80000dc0:	00098693          	mv	a3,s3
    80000dc4:	00090613          	mv	a2,s2
    80000dc8:	00813983          	ld	s3,8(sp)
    80000dcc:	01013903          	ld	s2,16(sp)
    80000dd0:	00048513          	mv	a0,s1
    80000dd4:	01813483          	ld	s1,24(sp)
    80000dd8:	03010113          	add	sp,sp,48
    80000ddc:	6ec0006f          	j	800014c8 <_write_r>
    80000de0:	01259583          	lh	a1,18(a1)
    80000de4:	00200693          	li	a3,2
    80000de8:	00000613          	li	a2,0
    80000dec:	624000ef          	jal	80001410 <_lseek_r>
    80000df0:	01041783          	lh	a5,16(s0)
    80000df4:	fb1ff06f          	j	80000da4 <__swrite+0x34>

0000000080000df8 <__sseek>:
    80000df8:	ff010113          	add	sp,sp,-16
    80000dfc:	00813023          	sd	s0,0(sp)
    80000e00:	00058413          	mv	s0,a1
    80000e04:	01259583          	lh	a1,18(a1)
    80000e08:	00113423          	sd	ra,8(sp)
    80000e0c:	604000ef          	jal	80001410 <_lseek_r>
    80000e10:	fff00793          	li	a5,-1
    80000e14:	02f50863          	beq	a0,a5,80000e44 <__sseek+0x4c>
    80000e18:	01045783          	lhu	a5,16(s0)
    80000e1c:	00001737          	lui	a4,0x1
    80000e20:	00813083          	ld	ra,8(sp)
    80000e24:	00e7e7b3          	or	a5,a5,a4
    80000e28:	0107979b          	sllw	a5,a5,0x10
    80000e2c:	4107d79b          	sraw	a5,a5,0x10
    80000e30:	08a43823          	sd	a0,144(s0)
    80000e34:	00f41823          	sh	a5,16(s0)
    80000e38:	00013403          	ld	s0,0(sp)
    80000e3c:	01010113          	add	sp,sp,16
    80000e40:	00008067          	ret
    80000e44:	01045783          	lhu	a5,16(s0)
    80000e48:	fffff737          	lui	a4,0xfffff
    80000e4c:	fff70713          	add	a4,a4,-1 # ffffffffffffefff <__heap_end+0xffffffff7f7ecfff>
    80000e50:	00e7f7b3          	and	a5,a5,a4
    80000e54:	0107979b          	sllw	a5,a5,0x10
    80000e58:	4107d79b          	sraw	a5,a5,0x10
    80000e5c:	00813083          	ld	ra,8(sp)
    80000e60:	00f41823          	sh	a5,16(s0)
    80000e64:	00013403          	ld	s0,0(sp)
    80000e68:	01010113          	add	sp,sp,16
    80000e6c:	00008067          	ret

0000000080000e70 <__sclose>:
    80000e70:	01259583          	lh	a1,18(a1)
    80000e74:	4640006f          	j	800012d8 <_close_r>

0000000080000e78 <_strerror_r>:
    80000e78:	00058793          	mv	a5,a1
    80000e7c:	08e00713          	li	a4,142
    80000e80:	00060593          	mv	a1,a2
    80000e84:	02f76063          	bltu	a4,a5,80000ea4 <_strerror_r+0x2c>
    80000e88:	0000e617          	auipc	a2,0xe
    80000e8c:	d5860613          	add	a2,a2,-680 # 8000ebe0 <indexTable+0x40>
    80000e90:	00279713          	sll	a4,a5,0x2
    80000e94:	00c70733          	add	a4,a4,a2
    80000e98:	00072703          	lw	a4,0(a4)
    80000e9c:	00c70733          	add	a4,a4,a2
    80000ea0:	00070067          	jr	a4
    80000ea4:	ff010113          	add	sp,sp,-16
    80000ea8:	00113423          	sd	ra,8(sp)
    80000eac:	3e068663          	beqz	a3,80001298 <_strerror_r+0x420>
    80000eb0:	00068613          	mv	a2,a3
    80000eb4:	00078513          	mv	a0,a5
    80000eb8:	418000ef          	jal	800012d0 <_user_strerror>
    80000ebc:	3c050863          	beqz	a0,8000128c <_strerror_r+0x414>
    80000ec0:	00813083          	ld	ra,8(sp)
    80000ec4:	01010113          	add	sp,sp,16
    80000ec8:	00008067          	ret
    80000ecc:	0000e517          	auipc	a0,0xe
    80000ed0:	93450513          	add	a0,a0,-1740 # 8000e800 <__tbss_end+0x748>
    80000ed4:	00008067          	ret
    80000ed8:	0000e517          	auipc	a0,0xe
    80000edc:	91050513          	add	a0,a0,-1776 # 8000e7e8 <__tbss_end+0x730>
    80000ee0:	00008067          	ret
    80000ee4:	0000e517          	auipc	a0,0xe
    80000ee8:	8b450513          	add	a0,a0,-1868 # 8000e798 <__tbss_end+0x6e0>
    80000eec:	00008067          	ret
    80000ef0:	0000e517          	auipc	a0,0xe
    80000ef4:	8c050513          	add	a0,a0,-1856 # 8000e7b0 <__tbss_end+0x6f8>
    80000ef8:	00008067          	ret
    80000efc:	0000d517          	auipc	a0,0xd
    80000f00:	45c50513          	add	a0,a0,1116 # 8000e358 <__tbss_end+0x2a0>
    80000f04:	00008067          	ret
    80000f08:	0000e517          	auipc	a0,0xe
    80000f0c:	85050513          	add	a0,a0,-1968 # 8000e758 <__tbss_end+0x6a0>
    80000f10:	00008067          	ret
    80000f14:	0000d517          	auipc	a0,0xd
    80000f18:	69450513          	add	a0,a0,1684 # 8000e5a8 <__tbss_end+0x4f0>
    80000f1c:	00008067          	ret
    80000f20:	0000e517          	auipc	a0,0xe
    80000f24:	94850513          	add	a0,a0,-1720 # 8000e868 <__tbss_end+0x7b0>
    80000f28:	00008067          	ret
    80000f2c:	0000d517          	auipc	a0,0xd
    80000f30:	2d450513          	add	a0,a0,724 # 8000e200 <__tbss_end+0x148>
    80000f34:	00008067          	ret
    80000f38:	0000d517          	auipc	a0,0xd
    80000f3c:	28850513          	add	a0,a0,648 # 8000e1c0 <__tbss_end+0x108>
    80000f40:	00008067          	ret
    80000f44:	0000e517          	auipc	a0,0xe
    80000f48:	88c50513          	add	a0,a0,-1908 # 8000e7d0 <__tbss_end+0x718>
    80000f4c:	00008067          	ret
    80000f50:	0000e517          	auipc	a0,0xe
    80000f54:	8f050513          	add	a0,a0,-1808 # 8000e840 <__tbss_end+0x788>
    80000f58:	00008067          	ret
    80000f5c:	0000d517          	auipc	a0,0xd
    80000f60:	59c50513          	add	a0,a0,1436 # 8000e4f8 <__tbss_end+0x440>
    80000f64:	00008067          	ret
    80000f68:	0000d517          	auipc	a0,0xd
    80000f6c:	4b850513          	add	a0,a0,1208 # 8000e420 <__tbss_end+0x368>
    80000f70:	00008067          	ret
    80000f74:	0000d517          	auipc	a0,0xd
    80000f78:	37450513          	add	a0,a0,884 # 8000e2e8 <__tbss_end+0x230>
    80000f7c:	00008067          	ret
    80000f80:	0000d517          	auipc	a0,0xd
    80000f84:	47050513          	add	a0,a0,1136 # 8000e3f0 <__tbss_end+0x338>
    80000f88:	00008067          	ret
    80000f8c:	0000d517          	auipc	a0,0xd
    80000f90:	34c50513          	add	a0,a0,844 # 8000e2d8 <__tbss_end+0x220>
    80000f94:	00008067          	ret
    80000f98:	0000e517          	auipc	a0,0xe
    80000f9c:	8e850513          	add	a0,a0,-1816 # 8000e880 <__tbss_end+0x7c8>
    80000fa0:	00008067          	ret
    80000fa4:	0000d517          	auipc	a0,0xd
    80000fa8:	38c50513          	add	a0,a0,908 # 8000e330 <__tbss_end+0x278>
    80000fac:	00008067          	ret
    80000fb0:	0000d517          	auipc	a0,0xd
    80000fb4:	57050513          	add	a0,a0,1392 # 8000e520 <__tbss_end+0x468>
    80000fb8:	00008067          	ret
    80000fbc:	0000d517          	auipc	a0,0xd
    80000fc0:	7b450513          	add	a0,a0,1972 # 8000e770 <__tbss_end+0x6b8>
    80000fc4:	00008067          	ret
    80000fc8:	0000d517          	auipc	a0,0xd
    80000fcc:	77850513          	add	a0,a0,1912 # 8000e740 <__tbss_end+0x688>
    80000fd0:	00008067          	ret
    80000fd4:	0000d517          	auipc	a0,0xd
    80000fd8:	73450513          	add	a0,a0,1844 # 8000e708 <__tbss_end+0x650>
    80000fdc:	00008067          	ret
    80000fe0:	0000d517          	auipc	a0,0xd
    80000fe4:	71050513          	add	a0,a0,1808 # 8000e6f0 <__tbss_end+0x638>
    80000fe8:	00008067          	ret
    80000fec:	0000d517          	auipc	a0,0xd
    80000ff0:	6e450513          	add	a0,a0,1764 # 8000e6d0 <__tbss_end+0x618>
    80000ff4:	00008067          	ret
    80000ff8:	0000d517          	auipc	a0,0xd
    80000ffc:	6b850513          	add	a0,a0,1720 # 8000e6b0 <__tbss_end+0x5f8>
    80001000:	00008067          	ret
    80001004:	0000d517          	auipc	a0,0xd
    80001008:	67c50513          	add	a0,a0,1660 # 8000e680 <__tbss_end+0x5c8>
    8000100c:	00008067          	ret
    80001010:	0000d517          	auipc	a0,0xd
    80001014:	64850513          	add	a0,a0,1608 # 8000e658 <__tbss_end+0x5a0>
    80001018:	00008067          	ret
    8000101c:	0000d517          	auipc	a0,0xd
    80001020:	70450513          	add	a0,a0,1796 # 8000e720 <__tbss_end+0x668>
    80001024:	00008067          	ret
    80001028:	0000d517          	auipc	a0,0xd
    8000102c:	7f050513          	add	a0,a0,2032 # 8000e818 <__tbss_end+0x760>
    80001030:	00008067          	ret
    80001034:	0000d517          	auipc	a0,0xd
    80001038:	60c50513          	add	a0,a0,1548 # 8000e640 <__tbss_end+0x588>
    8000103c:	00008067          	ret
    80001040:	0000d517          	auipc	a0,0xd
    80001044:	5e050513          	add	a0,a0,1504 # 8000e620 <__tbss_end+0x568>
    80001048:	00008067          	ret
    8000104c:	0000d517          	auipc	a0,0xd
    80001050:	5bc50513          	add	a0,a0,1468 # 8000e608 <__tbss_end+0x550>
    80001054:	00008067          	ret
    80001058:	0000d517          	auipc	a0,0xd
    8000105c:	59050513          	add	a0,a0,1424 # 8000e5e8 <__tbss_end+0x530>
    80001060:	00008067          	ret
    80001064:	0000d517          	auipc	a0,0xd
    80001068:	57450513          	add	a0,a0,1396 # 8000e5d8 <__tbss_end+0x520>
    8000106c:	00008067          	ret
    80001070:	0000d517          	auipc	a0,0xd
    80001074:	55050513          	add	a0,a0,1360 # 8000e5c0 <__tbss_end+0x508>
    80001078:	00008067          	ret
    8000107c:	0000d517          	auipc	a0,0xd
    80001080:	51c50513          	add	a0,a0,1308 # 8000e598 <__tbss_end+0x4e0>
    80001084:	00008067          	ret
    80001088:	0000d517          	auipc	a0,0xd
    8000108c:	4f850513          	add	a0,a0,1272 # 8000e580 <__tbss_end+0x4c8>
    80001090:	00008067          	ret
    80001094:	0000d517          	auipc	a0,0xd
    80001098:	4d450513          	add	a0,a0,1236 # 8000e568 <__tbss_end+0x4b0>
    8000109c:	00008067          	ret
    800010a0:	0000d517          	auipc	a0,0xd
    800010a4:	4b050513          	add	a0,a0,1200 # 8000e550 <__tbss_end+0x498>
    800010a8:	00008067          	ret
    800010ac:	0000d517          	auipc	a0,0xd
    800010b0:	5cc50513          	add	a0,a0,1484 # 8000e678 <__tbss_end+0x5c0>
    800010b4:	00008067          	ret
    800010b8:	0000d517          	auipc	a0,0xd
    800010bc:	48850513          	add	a0,a0,1160 # 8000e540 <__tbss_end+0x488>
    800010c0:	00008067          	ret
    800010c4:	0000d517          	auipc	a0,0xd
    800010c8:	47450513          	add	a0,a0,1140 # 8000e538 <__tbss_end+0x480>
    800010cc:	00008067          	ret
    800010d0:	0000d517          	auipc	a0,0xd
    800010d4:	44050513          	add	a0,a0,1088 # 8000e510 <__tbss_end+0x458>
    800010d8:	00008067          	ret
    800010dc:	0000d517          	auipc	a0,0xd
    800010e0:	40450513          	add	a0,a0,1028 # 8000e4e0 <__tbss_end+0x428>
    800010e4:	00008067          	ret
    800010e8:	0000d517          	auipc	a0,0xd
    800010ec:	3d850513          	add	a0,a0,984 # 8000e4c0 <__tbss_end+0x408>
    800010f0:	00008067          	ret
    800010f4:	0000d517          	auipc	a0,0xd
    800010f8:	3b450513          	add	a0,a0,948 # 8000e4a8 <__tbss_end+0x3f0>
    800010fc:	00008067          	ret
    80001100:	0000d517          	auipc	a0,0xd
    80001104:	37850513          	add	a0,a0,888 # 8000e478 <__tbss_end+0x3c0>
    80001108:	00008067          	ret
    8000110c:	0000d517          	auipc	a0,0xd
    80001110:	35c50513          	add	a0,a0,860 # 8000e468 <__tbss_end+0x3b0>
    80001114:	00008067          	ret
    80001118:	0000d517          	auipc	a0,0xd
    8000111c:	34050513          	add	a0,a0,832 # 8000e458 <__tbss_end+0x3a0>
    80001120:	00008067          	ret
    80001124:	0000d517          	auipc	a0,0xd
    80001128:	31c50513          	add	a0,a0,796 # 8000e440 <__tbss_end+0x388>
    8000112c:	00008067          	ret
    80001130:	0000d517          	auipc	a0,0xd
    80001134:	30050513          	add	a0,a0,768 # 8000e430 <__tbss_end+0x378>
    80001138:	00008067          	ret
    8000113c:	0000d517          	auipc	a0,0xd
    80001140:	2cc50513          	add	a0,a0,716 # 8000e408 <__tbss_end+0x350>
    80001144:	00008067          	ret
    80001148:	0000d517          	auipc	a0,0xd
    8000114c:	29850513          	add	a0,a0,664 # 8000e3e0 <__tbss_end+0x328>
    80001150:	00008067          	ret
    80001154:	0000d517          	auipc	a0,0xd
    80001158:	27c50513          	add	a0,a0,636 # 8000e3d0 <__tbss_end+0x318>
    8000115c:	00008067          	ret
    80001160:	0000d517          	auipc	a0,0xd
    80001164:	25850513          	add	a0,a0,600 # 8000e3b8 <__tbss_end+0x300>
    80001168:	00008067          	ret
    8000116c:	0000d517          	auipc	a0,0xd
    80001170:	22c50513          	add	a0,a0,556 # 8000e398 <__tbss_end+0x2e0>
    80001174:	00008067          	ret
    80001178:	0000d517          	auipc	a0,0xd
    8000117c:	20050513          	add	a0,a0,512 # 8000e378 <__tbss_end+0x2c0>
    80001180:	00008067          	ret
    80001184:	0000d517          	auipc	a0,0xd
    80001188:	19450513          	add	a0,a0,404 # 8000e318 <__tbss_end+0x260>
    8000118c:	00008067          	ret
    80001190:	0000d517          	auipc	a0,0xd
    80001194:	17850513          	add	a0,a0,376 # 8000e308 <__tbss_end+0x250>
    80001198:	00008067          	ret
    8000119c:	0000d517          	auipc	a0,0xd
    800011a0:	12c50513          	add	a0,a0,300 # 8000e2c8 <__tbss_end+0x210>
    800011a4:	00008067          	ret
    800011a8:	0000d517          	auipc	a0,0xd
    800011ac:	11050513          	add	a0,a0,272 # 8000e2b8 <__tbss_end+0x200>
    800011b0:	00008067          	ret
    800011b4:	0000d517          	auipc	a0,0xd
    800011b8:	0ec50513          	add	a0,a0,236 # 8000e2a0 <__tbss_end+0x1e8>
    800011bc:	00008067          	ret
    800011c0:	0000d517          	auipc	a0,0xd
    800011c4:	0d050513          	add	a0,a0,208 # 8000e290 <__tbss_end+0x1d8>
    800011c8:	00008067          	ret
    800011cc:	0000d517          	auipc	a0,0xd
    800011d0:	0ac50513          	add	a0,a0,172 # 8000e278 <__tbss_end+0x1c0>
    800011d4:	00008067          	ret
    800011d8:	0000d517          	auipc	a0,0xd
    800011dc:	09050513          	add	a0,a0,144 # 8000e268 <__tbss_end+0x1b0>
    800011e0:	00008067          	ret
    800011e4:	0000d517          	auipc	a0,0xd
    800011e8:	06c50513          	add	a0,a0,108 # 8000e250 <__tbss_end+0x198>
    800011ec:	00008067          	ret
    800011f0:	0000d517          	auipc	a0,0xd
    800011f4:	04850513          	add	a0,a0,72 # 8000e238 <__tbss_end+0x180>
    800011f8:	00008067          	ret
    800011fc:	0000d517          	auipc	a0,0xd
    80001200:	02450513          	add	a0,a0,36 # 8000e220 <__tbss_end+0x168>
    80001204:	00008067          	ret
    80001208:	0000d517          	auipc	a0,0xd
    8000120c:	fe850513          	add	a0,a0,-24 # 8000e1f0 <__tbss_end+0x138>
    80001210:	00008067          	ret
    80001214:	0000d517          	auipc	a0,0xd
    80001218:	fcc50513          	add	a0,a0,-52 # 8000e1e0 <__tbss_end+0x128>
    8000121c:	00008067          	ret
    80001220:	0000d517          	auipc	a0,0xd
    80001224:	f8850513          	add	a0,a0,-120 # 8000e1a8 <__tbss_end+0xf0>
    80001228:	00008067          	ret
    8000122c:	0000d517          	auipc	a0,0xd
    80001230:	f6450513          	add	a0,a0,-156 # 8000e190 <__tbss_end+0xd8>
    80001234:	00008067          	ret
    80001238:	0000d517          	auipc	a0,0xd
    8000123c:	f3850513          	add	a0,a0,-200 # 8000e170 <__tbss_end+0xb8>
    80001240:	00008067          	ret
    80001244:	0000d517          	auipc	a0,0xd
    80001248:	f1c50513          	add	a0,a0,-228 # 8000e160 <__tbss_end+0xa8>
    8000124c:	00008067          	ret
    80001250:	0000d517          	auipc	a0,0xd
    80001254:	ef850513          	add	a0,a0,-264 # 8000e148 <__tbss_end+0x90>
    80001258:	00008067          	ret
    8000125c:	0000d517          	auipc	a0,0xd
    80001260:	edc50513          	add	a0,a0,-292 # 8000e138 <__tbss_end+0x80>
    80001264:	00008067          	ret
    80001268:	0000d517          	auipc	a0,0xd
    8000126c:	eb050513          	add	a0,a0,-336 # 8000e118 <__tbss_end+0x60>
    80001270:	00008067          	ret
    80001274:	0000d517          	auipc	a0,0xd
    80001278:	e9450513          	add	a0,a0,-364 # 8000e108 <__tbss_end+0x50>
    8000127c:	00008067          	ret
    80001280:	0000d517          	auipc	a0,0xd
    80001284:	e8050513          	add	a0,a0,-384 # 8000e100 <__tbss_end+0x48>
    80001288:	00008067          	ret
    8000128c:	0000d517          	auipc	a0,0xd
    80001290:	65450513          	add	a0,a0,1620 # 8000e8e0 <__tbss_end+0x828>
    80001294:	c2dff06f          	j	80000ec0 <_strerror_r+0x48>
    80001298:	00050693          	mv	a3,a0
    8000129c:	c15ff06f          	j	80000eb0 <_strerror_r+0x38>

00000000800012a0 <strerror>:
    800012a0:	00050593          	mv	a1,a0
    800012a4:	00000693          	li	a3,0
    800012a8:	00000613          	li	a2,0
    800012ac:	0000f517          	auipc	a0,0xf
    800012b0:	e0c53503          	ld	a0,-500(a0) # 800100b8 <_impure_ptr>
    800012b4:	bc5ff06f          	j	80000e78 <_strerror_r>

00000000800012b8 <strerror_l>:
    800012b8:	00050593          	mv	a1,a0
    800012bc:	00000693          	li	a3,0
    800012c0:	00000613          	li	a2,0
    800012c4:	0000f517          	auipc	a0,0xf
    800012c8:	df453503          	ld	a0,-524(a0) # 800100b8 <_impure_ptr>
    800012cc:	badff06f          	j	80000e78 <_strerror_r>

00000000800012d0 <_user_strerror>:
    800012d0:	00000513          	li	a0,0
    800012d4:	00008067          	ret

00000000800012d8 <_close_r>:
    800012d8:	ff010113          	add	sp,sp,-16
    800012dc:	00813023          	sd	s0,0(sp)
    800012e0:	00050413          	mv	s0,a0
    800012e4:	00058513          	mv	a0,a1
    800012e8:	8a01a023          	sw	zero,-1888(gp) # 80010158 <errno>
    800012ec:	00113423          	sd	ra,8(sp)
    800012f0:	5e40a0ef          	jal	8000b8d4 <_close>
    800012f4:	fff00793          	li	a5,-1
    800012f8:	00f50a63          	beq	a0,a5,8000130c <_close_r+0x34>
    800012fc:	00813083          	ld	ra,8(sp)
    80001300:	00013403          	ld	s0,0(sp)
    80001304:	01010113          	add	sp,sp,16
    80001308:	00008067          	ret
    8000130c:	8a01a783          	lw	a5,-1888(gp) # 80010158 <errno>
    80001310:	fe0786e3          	beqz	a5,800012fc <_close_r+0x24>
    80001314:	00813083          	ld	ra,8(sp)
    80001318:	00f42023          	sw	a5,0(s0)
    8000131c:	00013403          	ld	s0,0(sp)
    80001320:	01010113          	add	sp,sp,16
    80001324:	00008067          	ret

0000000080001328 <_reclaim_reent>:
    80001328:	0000f797          	auipc	a5,0xf
    8000132c:	d907b783          	ld	a5,-624(a5) # 800100b8 <_impure_ptr>
    80001330:	0ca78e63          	beq	a5,a0,8000140c <_reclaim_reent+0xe4>
    80001334:	06853583          	ld	a1,104(a0)
    80001338:	fd010113          	add	sp,sp,-48
    8000133c:	00913c23          	sd	s1,24(sp)
    80001340:	02113423          	sd	ra,40(sp)
    80001344:	02813023          	sd	s0,32(sp)
    80001348:	00050493          	mv	s1,a0
    8000134c:	04058863          	beqz	a1,8000139c <_reclaim_reent+0x74>
    80001350:	01213823          	sd	s2,16(sp)
    80001354:	01313423          	sd	s3,8(sp)
    80001358:	00000913          	li	s2,0
    8000135c:	20000993          	li	s3,512
    80001360:	012587b3          	add	a5,a1,s2
    80001364:	0007b403          	ld	s0,0(a5)
    80001368:	00040e63          	beqz	s0,80001384 <_reclaim_reent+0x5c>
    8000136c:	00040593          	mv	a1,s0
    80001370:	00043403          	ld	s0,0(s0)
    80001374:	00048513          	mv	a0,s1
    80001378:	628000ef          	jal	800019a0 <_free_r>
    8000137c:	fe0418e3          	bnez	s0,8000136c <_reclaim_reent+0x44>
    80001380:	0684b583          	ld	a1,104(s1)
    80001384:	00890913          	add	s2,s2,8
    80001388:	fd391ce3          	bne	s2,s3,80001360 <_reclaim_reent+0x38>
    8000138c:	00048513          	mv	a0,s1
    80001390:	610000ef          	jal	800019a0 <_free_r>
    80001394:	01013903          	ld	s2,16(sp)
    80001398:	00813983          	ld	s3,8(sp)
    8000139c:	0504b583          	ld	a1,80(s1)
    800013a0:	00058663          	beqz	a1,800013ac <_reclaim_reent+0x84>
    800013a4:	00048513          	mv	a0,s1
    800013a8:	5f8000ef          	jal	800019a0 <_free_r>
    800013ac:	0604b403          	ld	s0,96(s1)
    800013b0:	00040c63          	beqz	s0,800013c8 <_reclaim_reent+0xa0>
    800013b4:	00040593          	mv	a1,s0
    800013b8:	00043403          	ld	s0,0(s0)
    800013bc:	00048513          	mv	a0,s1
    800013c0:	5e0000ef          	jal	800019a0 <_free_r>
    800013c4:	fe0418e3          	bnez	s0,800013b4 <_reclaim_reent+0x8c>
    800013c8:	0784b583          	ld	a1,120(s1)
    800013cc:	00058663          	beqz	a1,800013d8 <_reclaim_reent+0xb0>
    800013d0:	00048513          	mv	a0,s1
    800013d4:	5cc000ef          	jal	800019a0 <_free_r>
    800013d8:	0484b783          	ld	a5,72(s1)
    800013dc:	00078e63          	beqz	a5,800013f8 <_reclaim_reent+0xd0>
    800013e0:	02013403          	ld	s0,32(sp)
    800013e4:	02813083          	ld	ra,40(sp)
    800013e8:	00048513          	mv	a0,s1
    800013ec:	01813483          	ld	s1,24(sp)
    800013f0:	03010113          	add	sp,sp,48
    800013f4:	00078067          	jr	a5
    800013f8:	02813083          	ld	ra,40(sp)
    800013fc:	02013403          	ld	s0,32(sp)
    80001400:	01813483          	ld	s1,24(sp)
    80001404:	03010113          	add	sp,sp,48
    80001408:	00008067          	ret
    8000140c:	00008067          	ret

0000000080001410 <_lseek_r>:
    80001410:	ff010113          	add	sp,sp,-16
    80001414:	00058713          	mv	a4,a1
    80001418:	00813023          	sd	s0,0(sp)
    8000141c:	00060593          	mv	a1,a2
    80001420:	00050413          	mv	s0,a0
    80001424:	00068613          	mv	a2,a3
    80001428:	00070513          	mv	a0,a4
    8000142c:	8a01a023          	sw	zero,-1888(gp) # 80010158 <errno>
    80001430:	00113423          	sd	ra,8(sp)
    80001434:	5500a0ef          	jal	8000b984 <_lseek>
    80001438:	fff00793          	li	a5,-1
    8000143c:	00f50a63          	beq	a0,a5,80001450 <_lseek_r+0x40>
    80001440:	00813083          	ld	ra,8(sp)
    80001444:	00013403          	ld	s0,0(sp)
    80001448:	01010113          	add	sp,sp,16
    8000144c:	00008067          	ret
    80001450:	8a01a783          	lw	a5,-1888(gp) # 80010158 <errno>
    80001454:	fe0786e3          	beqz	a5,80001440 <_lseek_r+0x30>
    80001458:	00813083          	ld	ra,8(sp)
    8000145c:	00f42023          	sw	a5,0(s0)
    80001460:	00013403          	ld	s0,0(sp)
    80001464:	01010113          	add	sp,sp,16
    80001468:	00008067          	ret

000000008000146c <_read_r>:
    8000146c:	ff010113          	add	sp,sp,-16
    80001470:	00058713          	mv	a4,a1
    80001474:	00813023          	sd	s0,0(sp)
    80001478:	00060593          	mv	a1,a2
    8000147c:	00050413          	mv	s0,a0
    80001480:	00068613          	mv	a2,a3
    80001484:	00070513          	mv	a0,a4
    80001488:	8a01a023          	sw	zero,-1888(gp) # 80010158 <errno>
    8000148c:	00113423          	sd	ra,8(sp)
    80001490:	4fc0a0ef          	jal	8000b98c <_read>
    80001494:	fff00793          	li	a5,-1
    80001498:	00f50a63          	beq	a0,a5,800014ac <_read_r+0x40>
    8000149c:	00813083          	ld	ra,8(sp)
    800014a0:	00013403          	ld	s0,0(sp)
    800014a4:	01010113          	add	sp,sp,16
    800014a8:	00008067          	ret
    800014ac:	8a01a783          	lw	a5,-1888(gp) # 80010158 <errno>
    800014b0:	fe0786e3          	beqz	a5,8000149c <_read_r+0x30>
    800014b4:	00813083          	ld	ra,8(sp)
    800014b8:	00f42023          	sw	a5,0(s0)
    800014bc:	00013403          	ld	s0,0(sp)
    800014c0:	01010113          	add	sp,sp,16
    800014c4:	00008067          	ret

00000000800014c8 <_write_r>:
    800014c8:	ff010113          	add	sp,sp,-16
    800014cc:	00058713          	mv	a4,a1
    800014d0:	00813023          	sd	s0,0(sp)
    800014d4:	00060593          	mv	a1,a2
    800014d8:	00050413          	mv	s0,a0
    800014dc:	00068613          	mv	a2,a3
    800014e0:	00070513          	mv	a0,a4
    800014e4:	8a01a023          	sw	zero,-1888(gp) # 80010158 <errno>
    800014e8:	00113423          	sd	ra,8(sp)
    800014ec:	5000a0ef          	jal	8000b9ec <_write>
    800014f0:	fff00793          	li	a5,-1
    800014f4:	00f50a63          	beq	a0,a5,80001508 <_write_r+0x40>
    800014f8:	00813083          	ld	ra,8(sp)
    800014fc:	00013403          	ld	s0,0(sp)
    80001500:	01010113          	add	sp,sp,16
    80001504:	00008067          	ret
    80001508:	8a01a783          	lw	a5,-1888(gp) # 80010158 <errno>
    8000150c:	fe0786e3          	beqz	a5,800014f8 <_write_r+0x30>
    80001510:	00813083          	ld	ra,8(sp)
    80001514:	00f42023          	sw	a5,0(s0)
    80001518:	00013403          	ld	s0,0(sp)
    8000151c:	01010113          	add	sp,sp,16
    80001520:	00008067          	ret

0000000080001524 <read>:
    80001524:	00060693          	mv	a3,a2
    80001528:	00058613          	mv	a2,a1
    8000152c:	00050593          	mv	a1,a0
    80001530:	0000f517          	auipc	a0,0xf
    80001534:	b8853503          	ld	a0,-1144(a0) # 800100b8 <_impure_ptr>
    80001538:	f35ff06f          	j	8000146c <_read_r>

000000008000153c <write>:
    8000153c:	00060693          	mv	a3,a2
    80001540:	00058613          	mv	a2,a1
    80001544:	00050593          	mv	a1,a0
    80001548:	0000f517          	auipc	a0,0xf
    8000154c:	b7053503          	ld	a0,-1168(a0) # 800100b8 <_impure_ptr>
    80001550:	f79ff06f          	j	800014c8 <_write_r>

0000000080001554 <memset>:
    80001554:	00f00313          	li	t1,15
    80001558:	00050713          	mv	a4,a0
    8000155c:	02c37a63          	bgeu	t1,a2,80001590 <memset+0x3c>
    80001560:	00f77793          	and	a5,a4,15
    80001564:	0a079063          	bnez	a5,80001604 <memset+0xb0>
    80001568:	06059e63          	bnez	a1,800015e4 <memset+0x90>
    8000156c:	ff067693          	and	a3,a2,-16
    80001570:	00f67613          	and	a2,a2,15
    80001574:	00e686b3          	add	a3,a3,a4
    80001578:	00b73023          	sd	a1,0(a4)
    8000157c:	00b73423          	sd	a1,8(a4)
    80001580:	01070713          	add	a4,a4,16
    80001584:	fed76ae3          	bltu	a4,a3,80001578 <memset+0x24>
    80001588:	00061463          	bnez	a2,80001590 <memset+0x3c>
    8000158c:	00008067          	ret
    80001590:	40c306b3          	sub	a3,t1,a2
    80001594:	00269693          	sll	a3,a3,0x2
    80001598:	00000297          	auipc	t0,0x0
    8000159c:	005686b3          	add	a3,a3,t0
    800015a0:	00c68067          	jr	12(a3)
    800015a4:	00b70723          	sb	a1,14(a4)
    800015a8:	00b706a3          	sb	a1,13(a4)
    800015ac:	00b70623          	sb	a1,12(a4)
    800015b0:	00b705a3          	sb	a1,11(a4)
    800015b4:	00b70523          	sb	a1,10(a4)
    800015b8:	00b704a3          	sb	a1,9(a4)
    800015bc:	00b70423          	sb	a1,8(a4)
    800015c0:	00b703a3          	sb	a1,7(a4)
    800015c4:	00b70323          	sb	a1,6(a4)
    800015c8:	00b702a3          	sb	a1,5(a4)
    800015cc:	00b70223          	sb	a1,4(a4)
    800015d0:	00b701a3          	sb	a1,3(a4)
    800015d4:	00b70123          	sb	a1,2(a4)
    800015d8:	00b700a3          	sb	a1,1(a4)
    800015dc:	00b70023          	sb	a1,0(a4)
    800015e0:	00008067          	ret
    800015e4:	0ff5f593          	zext.b	a1,a1
    800015e8:	00859693          	sll	a3,a1,0x8
    800015ec:	00d5e5b3          	or	a1,a1,a3
    800015f0:	01059693          	sll	a3,a1,0x10
    800015f4:	00d5e5b3          	or	a1,a1,a3
    800015f8:	02059693          	sll	a3,a1,0x20
    800015fc:	00d5e5b3          	or	a1,a1,a3
    80001600:	f6dff06f          	j	8000156c <memset+0x18>
    80001604:	00279693          	sll	a3,a5,0x2
    80001608:	00000297          	auipc	t0,0x0
    8000160c:	005686b3          	add	a3,a3,t0
    80001610:	00008293          	mv	t0,ra
    80001614:	f98680e7          	jalr	-104(a3)
    80001618:	00028093          	mv	ra,t0
    8000161c:	ff078793          	add	a5,a5,-16
    80001620:	40f70733          	sub	a4,a4,a5
    80001624:	00f60633          	add	a2,a2,a5
    80001628:	f6c374e3          	bgeu	t1,a2,80001590 <memset+0x3c>
    8000162c:	f3dff06f          	j	80001568 <memset+0x14>

0000000080001630 <strlen>:
    80001630:	00757793          	and	a5,a0,7
    80001634:	00050713          	mv	a4,a0
    80001638:	08079663          	bnez	a5,800016c4 <strlen+0x94>
    8000163c:	0feff6b7          	lui	a3,0xfeff
    80001640:	00469693          	sll	a3,a3,0x4
    80001644:	eff68693          	add	a3,a3,-257 # fefeeff <__heap_size+0xf6feeff>
    80001648:	01069693          	sll	a3,a3,0x10
    8000164c:	eff68693          	add	a3,a3,-257
    80001650:	00f69693          	sll	a3,a3,0xf
    80001654:	f7f68693          	add	a3,a3,-129
    80001658:	fff00593          	li	a1,-1
    8000165c:	00073603          	ld	a2,0(a4)
    80001660:	00870713          	add	a4,a4,8
    80001664:	00d677b3          	and	a5,a2,a3
    80001668:	00d787b3          	add	a5,a5,a3
    8000166c:	00c7e7b3          	or	a5,a5,a2
    80001670:	00d7e7b3          	or	a5,a5,a3
    80001674:	feb784e3          	beq	a5,a1,8000165c <strlen+0x2c>
    80001678:	ff874683          	lbu	a3,-8(a4)
    8000167c:	40a707b3          	sub	a5,a4,a0
    80001680:	06068463          	beqz	a3,800016e8 <strlen+0xb8>
    80001684:	ff974683          	lbu	a3,-7(a4)
    80001688:	04068c63          	beqz	a3,800016e0 <strlen+0xb0>
    8000168c:	ffa74683          	lbu	a3,-6(a4)
    80001690:	06068463          	beqz	a3,800016f8 <strlen+0xc8>
    80001694:	ffb74683          	lbu	a3,-5(a4)
    80001698:	04068c63          	beqz	a3,800016f0 <strlen+0xc0>
    8000169c:	ffc74683          	lbu	a3,-4(a4)
    800016a0:	06068063          	beqz	a3,80001700 <strlen+0xd0>
    800016a4:	ffd74683          	lbu	a3,-3(a4)
    800016a8:	06068063          	beqz	a3,80001708 <strlen+0xd8>
    800016ac:	ffe74503          	lbu	a0,-2(a4)
    800016b0:	00a03533          	snez	a0,a0
    800016b4:	00f50533          	add	a0,a0,a5
    800016b8:	ffe50513          	add	a0,a0,-2
    800016bc:	00008067          	ret
    800016c0:	f6068ee3          	beqz	a3,8000163c <strlen+0xc>
    800016c4:	00074783          	lbu	a5,0(a4)
    800016c8:	00170713          	add	a4,a4,1
    800016cc:	00777693          	and	a3,a4,7
    800016d0:	fe0798e3          	bnez	a5,800016c0 <strlen+0x90>
    800016d4:	40a70733          	sub	a4,a4,a0
    800016d8:	fff70513          	add	a0,a4,-1
    800016dc:	00008067          	ret
    800016e0:	ff978513          	add	a0,a5,-7
    800016e4:	00008067          	ret
    800016e8:	ff878513          	add	a0,a5,-8
    800016ec:	00008067          	ret
    800016f0:	ffb78513          	add	a0,a5,-5
    800016f4:	00008067          	ret
    800016f8:	ffa78513          	add	a0,a5,-6
    800016fc:	00008067          	ret
    80001700:	ffc78513          	add	a0,a5,-4
    80001704:	00008067          	ret
    80001708:	ffd78513          	add	a0,a5,-3
    8000170c:	00008067          	ret

0000000080001710 <__call_exitprocs>:
    80001710:	fb010113          	add	sp,sp,-80
    80001714:	03413023          	sd	s4,32(sp)
    80001718:	8a818a13          	add	s4,gp,-1880 # 80010160 <__atexit>
    8000171c:	03213823          	sd	s2,48(sp)
    80001720:	000a3903          	ld	s2,0(s4)
    80001724:	04113423          	sd	ra,72(sp)
    80001728:	0a090a63          	beqz	s2,800017dc <__call_exitprocs+0xcc>
    8000172c:	03313423          	sd	s3,40(sp)
    80001730:	01513c23          	sd	s5,24(sp)
    80001734:	01613823          	sd	s6,16(sp)
    80001738:	01713423          	sd	s7,8(sp)
    8000173c:	04813023          	sd	s0,64(sp)
    80001740:	02913c23          	sd	s1,56(sp)
    80001744:	01813023          	sd	s8,0(sp)
    80001748:	00050b13          	mv	s6,a0
    8000174c:	00058b93          	mv	s7,a1
    80001750:	fff00993          	li	s3,-1
    80001754:	00100a93          	li	s5,1
    80001758:	00892483          	lw	s1,8(s2)
    8000175c:	fff4841b          	addw	s0,s1,-1
    80001760:	06044063          	bltz	s0,800017c0 <__call_exitprocs+0xb0>
    80001764:	00349493          	sll	s1,s1,0x3
    80001768:	009904b3          	add	s1,s2,s1
    8000176c:	080b9263          	bnez	s7,800017f0 <__call_exitprocs+0xe0>
    80001770:	00892783          	lw	a5,8(s2)
    80001774:	0084b703          	ld	a4,8(s1)
    80001778:	fff7879b          	addw	a5,a5,-1
    8000177c:	0c878063          	beq	a5,s0,8000183c <__call_exitprocs+0x12c>
    80001780:	0004b423          	sd	zero,8(s1)
    80001784:	02070863          	beqz	a4,800017b4 <__call_exitprocs+0xa4>
    80001788:	31092783          	lw	a5,784(s2)
    8000178c:	008a96bb          	sllw	a3,s5,s0
    80001790:	00892c03          	lw	s8,8(s2)
    80001794:	00d7f7b3          	and	a5,a5,a3
    80001798:	0007879b          	sext.w	a5,a5
    8000179c:	06079663          	bnez	a5,80001808 <__call_exitprocs+0xf8>
    800017a0:	000700e7          	jalr	a4
    800017a4:	00892703          	lw	a4,8(s2)
    800017a8:	000a3783          	ld	a5,0(s4)
    800017ac:	09871263          	bne	a4,s8,80001830 <__call_exitprocs+0x120>
    800017b0:	09279063          	bne	a5,s2,80001830 <__call_exitprocs+0x120>
    800017b4:	fff4041b          	addw	s0,s0,-1
    800017b8:	ff848493          	add	s1,s1,-8
    800017bc:	fb3418e3          	bne	s0,s3,8000176c <__call_exitprocs+0x5c>
    800017c0:	04013403          	ld	s0,64(sp)
    800017c4:	03813483          	ld	s1,56(sp)
    800017c8:	02813983          	ld	s3,40(sp)
    800017cc:	01813a83          	ld	s5,24(sp)
    800017d0:	01013b03          	ld	s6,16(sp)
    800017d4:	00813b83          	ld	s7,8(sp)
    800017d8:	00013c03          	ld	s8,0(sp)
    800017dc:	04813083          	ld	ra,72(sp)
    800017e0:	03013903          	ld	s2,48(sp)
    800017e4:	02013a03          	ld	s4,32(sp)
    800017e8:	05010113          	add	sp,sp,80
    800017ec:	00008067          	ret
    800017f0:	2084b783          	ld	a5,520(s1)
    800017f4:	f7778ee3          	beq	a5,s7,80001770 <__call_exitprocs+0x60>
    800017f8:	fff4041b          	addw	s0,s0,-1
    800017fc:	ff848493          	add	s1,s1,-8
    80001800:	ff3418e3          	bne	s0,s3,800017f0 <__call_exitprocs+0xe0>
    80001804:	fbdff06f          	j	800017c0 <__call_exitprocs+0xb0>
    80001808:	31492783          	lw	a5,788(s2)
    8000180c:	1084b583          	ld	a1,264(s1)
    80001810:	00d7f7b3          	and	a5,a5,a3
    80001814:	0007879b          	sext.w	a5,a5
    80001818:	02079663          	bnez	a5,80001844 <__call_exitprocs+0x134>
    8000181c:	000b0513          	mv	a0,s6
    80001820:	000700e7          	jalr	a4
    80001824:	00892703          	lw	a4,8(s2)
    80001828:	000a3783          	ld	a5,0(s4)
    8000182c:	f98702e3          	beq	a4,s8,800017b0 <__call_exitprocs+0xa0>
    80001830:	f80788e3          	beqz	a5,800017c0 <__call_exitprocs+0xb0>
    80001834:	00078913          	mv	s2,a5
    80001838:	f21ff06f          	j	80001758 <__call_exitprocs+0x48>
    8000183c:	00892423          	sw	s0,8(s2)
    80001840:	f45ff06f          	j	80001784 <__call_exitprocs+0x74>
    80001844:	00058513          	mv	a0,a1
    80001848:	000700e7          	jalr	a4
    8000184c:	f59ff06f          	j	800017a4 <__call_exitprocs+0x94>

0000000080001850 <atexit>:
    80001850:	00050593          	mv	a1,a0
    80001854:	00000693          	li	a3,0
    80001858:	00000613          	li	a2,0
    8000185c:	00000513          	li	a0,0
    80001860:	6c40406f          	j	80005f24 <__register_exitproc>

0000000080001864 <_malloc_trim_r>:
    80001864:	fd010113          	add	sp,sp,-48
    80001868:	02813023          	sd	s0,32(sp)
    8000186c:	00913c23          	sd	s1,24(sp)
    80001870:	01213823          	sd	s2,16(sp)
    80001874:	01313423          	sd	s3,8(sp)
    80001878:	01413023          	sd	s4,0(sp)
    8000187c:	00058993          	mv	s3,a1
    80001880:	02113423          	sd	ra,40(sp)
    80001884:	00050913          	mv	s2,a0
    80001888:	0000ea17          	auipc	s4,0xe
    8000188c:	e78a0a13          	add	s4,s4,-392 # 8000f700 <__malloc_av_>
    80001890:	451000ef          	jal	800024e0 <__malloc_lock>
    80001894:	010a3703          	ld	a4,16(s4)
    80001898:	000017b7          	lui	a5,0x1
    8000189c:	fdf78793          	add	a5,a5,-33 # fdf <__stack_shift+0xfc8>
    800018a0:	00873483          	ld	s1,8(a4)
    800018a4:	00001737          	lui	a4,0x1
    800018a8:	ffc4f493          	and	s1,s1,-4
    800018ac:	00f48433          	add	s0,s1,a5
    800018b0:	41340433          	sub	s0,s0,s3
    800018b4:	00c45413          	srl	s0,s0,0xc
    800018b8:	fff40413          	add	s0,s0,-1
    800018bc:	00c41413          	sll	s0,s0,0xc
    800018c0:	00e44e63          	blt	s0,a4,800018dc <_malloc_trim_r+0x78>
    800018c4:	00000593          	li	a1,0
    800018c8:	00090513          	mv	a0,s2
    800018cc:	1d4040ef          	jal	80005aa0 <_sbrk_r>
    800018d0:	010a3783          	ld	a5,16(s4)
    800018d4:	009787b3          	add	a5,a5,s1
    800018d8:	02f50863          	beq	a0,a5,80001908 <_malloc_trim_r+0xa4>
    800018dc:	00090513          	mv	a0,s2
    800018e0:	405000ef          	jal	800024e4 <__malloc_unlock>
    800018e4:	02813083          	ld	ra,40(sp)
    800018e8:	02013403          	ld	s0,32(sp)
    800018ec:	01813483          	ld	s1,24(sp)
    800018f0:	01013903          	ld	s2,16(sp)
    800018f4:	00813983          	ld	s3,8(sp)
    800018f8:	00013a03          	ld	s4,0(sp)
    800018fc:	00000513          	li	a0,0
    80001900:	03010113          	add	sp,sp,48
    80001904:	00008067          	ret
    80001908:	408005b3          	neg	a1,s0
    8000190c:	00090513          	mv	a0,s2
    80001910:	190040ef          	jal	80005aa0 <_sbrk_r>
    80001914:	fff00793          	li	a5,-1
    80001918:	04f50863          	beq	a0,a5,80001968 <_malloc_trim_r+0x104>
    8000191c:	4b818713          	add	a4,gp,1208 # 80010d70 <__malloc_current_mallinfo>
    80001920:	00072783          	lw	a5,0(a4) # 1000 <__stack_shift+0xfe9>
    80001924:	010a3683          	ld	a3,16(s4)
    80001928:	408484b3          	sub	s1,s1,s0
    8000192c:	0014e493          	or	s1,s1,1
    80001930:	408787bb          	subw	a5,a5,s0
    80001934:	00090513          	mv	a0,s2
    80001938:	0096b423          	sd	s1,8(a3)
    8000193c:	00f72023          	sw	a5,0(a4)
    80001940:	3a5000ef          	jal	800024e4 <__malloc_unlock>
    80001944:	02813083          	ld	ra,40(sp)
    80001948:	02013403          	ld	s0,32(sp)
    8000194c:	01813483          	ld	s1,24(sp)
    80001950:	01013903          	ld	s2,16(sp)
    80001954:	00813983          	ld	s3,8(sp)
    80001958:	00013a03          	ld	s4,0(sp)
    8000195c:	00100513          	li	a0,1
    80001960:	03010113          	add	sp,sp,48
    80001964:	00008067          	ret
    80001968:	00000593          	li	a1,0
    8000196c:	00090513          	mv	a0,s2
    80001970:	130040ef          	jal	80005aa0 <_sbrk_r>
    80001974:	010a3703          	ld	a4,16(s4)
    80001978:	01f00693          	li	a3,31
    8000197c:	40e507b3          	sub	a5,a0,a4
    80001980:	f4f6dee3          	bge	a3,a5,800018dc <_malloc_trim_r+0x78>
    80001984:	0000e697          	auipc	a3,0xe
    80001988:	73c6b683          	ld	a3,1852(a3) # 800100c0 <__malloc_sbrk_base>
    8000198c:	40d50533          	sub	a0,a0,a3
    80001990:	0017e793          	or	a5,a5,1
    80001994:	4aa1ac23          	sw	a0,1208(gp) # 80010d70 <__malloc_current_mallinfo>
    80001998:	00f73423          	sd	a5,8(a4)
    8000199c:	f41ff06f          	j	800018dc <_malloc_trim_r+0x78>

00000000800019a0 <_free_r>:
    800019a0:	18058863          	beqz	a1,80001b30 <_free_r+0x190>
    800019a4:	fe010113          	add	sp,sp,-32
    800019a8:	00813823          	sd	s0,16(sp)
    800019ac:	00913423          	sd	s1,8(sp)
    800019b0:	00058413          	mv	s0,a1
    800019b4:	00050493          	mv	s1,a0
    800019b8:	00113c23          	sd	ra,24(sp)
    800019bc:	325000ef          	jal	800024e0 <__malloc_lock>
    800019c0:	ff843583          	ld	a1,-8(s0)
    800019c4:	ff040713          	add	a4,s0,-16
    800019c8:	0000e517          	auipc	a0,0xe
    800019cc:	d3850513          	add	a0,a0,-712 # 8000f700 <__malloc_av_>
    800019d0:	ffe5f793          	and	a5,a1,-2
    800019d4:	00f70633          	add	a2,a4,a5
    800019d8:	00863683          	ld	a3,8(a2)
    800019dc:	01053803          	ld	a6,16(a0)
    800019e0:	ffc6f693          	and	a3,a3,-4
    800019e4:	1ac80863          	beq	a6,a2,80001b94 <_free_r+0x1f4>
    800019e8:	00d63423          	sd	a3,8(a2)
    800019ec:	0015f593          	and	a1,a1,1
    800019f0:	00d60833          	add	a6,a2,a3
    800019f4:	0a059463          	bnez	a1,80001a9c <_free_r+0xfc>
    800019f8:	ff043303          	ld	t1,-16(s0)
    800019fc:	00883583          	ld	a1,8(a6)
    80001a00:	0000e897          	auipc	a7,0xe
    80001a04:	d1088893          	add	a7,a7,-752 # 8000f710 <__malloc_av_+0x10>
    80001a08:	40670733          	sub	a4,a4,t1
    80001a0c:	01073803          	ld	a6,16(a4)
    80001a10:	006787b3          	add	a5,a5,t1
    80001a14:	0015f593          	and	a1,a1,1
    80001a18:	15180863          	beq	a6,a7,80001b68 <_free_r+0x1c8>
    80001a1c:	01873303          	ld	t1,24(a4)
    80001a20:	00683c23          	sd	t1,24(a6)
    80001a24:	01033823          	sd	a6,16(t1)
    80001a28:	1a058c63          	beqz	a1,80001be0 <_free_r+0x240>
    80001a2c:	0017e693          	or	a3,a5,1
    80001a30:	00d73423          	sd	a3,8(a4)
    80001a34:	00f63023          	sd	a5,0(a2)
    80001a38:	1ff00693          	li	a3,511
    80001a3c:	08f6e063          	bltu	a3,a5,80001abc <_free_r+0x11c>
    80001a40:	0037d793          	srl	a5,a5,0x3
    80001a44:	0017869b          	addw	a3,a5,1
    80001a48:	0016969b          	sllw	a3,a3,0x1
    80001a4c:	00369693          	sll	a3,a3,0x3
    80001a50:	00853803          	ld	a6,8(a0)
    80001a54:	00d506b3          	add	a3,a0,a3
    80001a58:	0006b583          	ld	a1,0(a3)
    80001a5c:	4027d61b          	sraw	a2,a5,0x2
    80001a60:	00100793          	li	a5,1
    80001a64:	00c797b3          	sll	a5,a5,a2
    80001a68:	0107e7b3          	or	a5,a5,a6
    80001a6c:	ff068613          	add	a2,a3,-16
    80001a70:	00c73c23          	sd	a2,24(a4)
    80001a74:	00b73823          	sd	a1,16(a4)
    80001a78:	00f53423          	sd	a5,8(a0)
    80001a7c:	00e6b023          	sd	a4,0(a3)
    80001a80:	00e5bc23          	sd	a4,24(a1)
    80001a84:	01013403          	ld	s0,16(sp)
    80001a88:	01813083          	ld	ra,24(sp)
    80001a8c:	00048513          	mv	a0,s1
    80001a90:	00813483          	ld	s1,8(sp)
    80001a94:	02010113          	add	sp,sp,32
    80001a98:	24d0006f          	j	800024e4 <__malloc_unlock>
    80001a9c:	00883583          	ld	a1,8(a6)
    80001aa0:	0015f593          	and	a1,a1,1
    80001aa4:	08058863          	beqz	a1,80001b34 <_free_r+0x194>
    80001aa8:	0017e693          	or	a3,a5,1
    80001aac:	fed43c23          	sd	a3,-8(s0)
    80001ab0:	00f63023          	sd	a5,0(a2)
    80001ab4:	1ff00693          	li	a3,511
    80001ab8:	f8f6f4e3          	bgeu	a3,a5,80001a40 <_free_r+0xa0>
    80001abc:	0097d693          	srl	a3,a5,0x9
    80001ac0:	00400613          	li	a2,4
    80001ac4:	12d66263          	bltu	a2,a3,80001be8 <_free_r+0x248>
    80001ac8:	0067d693          	srl	a3,a5,0x6
    80001acc:	0396859b          	addw	a1,a3,57
    80001ad0:	0015959b          	sllw	a1,a1,0x1
    80001ad4:	0386861b          	addw	a2,a3,56
    80001ad8:	00359593          	sll	a1,a1,0x3
    80001adc:	00b505b3          	add	a1,a0,a1
    80001ae0:	0005b683          	ld	a3,0(a1)
    80001ae4:	ff058593          	add	a1,a1,-16
    80001ae8:	00d59863          	bne	a1,a3,80001af8 <_free_r+0x158>
    80001aec:	15c0006f          	j	80001c48 <_free_r+0x2a8>
    80001af0:	0106b683          	ld	a3,16(a3)
    80001af4:	00d58863          	beq	a1,a3,80001b04 <_free_r+0x164>
    80001af8:	0086b603          	ld	a2,8(a3)
    80001afc:	ffc67613          	and	a2,a2,-4
    80001b00:	fec7e8e3          	bltu	a5,a2,80001af0 <_free_r+0x150>
    80001b04:	0186b583          	ld	a1,24(a3)
    80001b08:	00b73c23          	sd	a1,24(a4)
    80001b0c:	00d73823          	sd	a3,16(a4)
    80001b10:	01013403          	ld	s0,16(sp)
    80001b14:	01813083          	ld	ra,24(sp)
    80001b18:	00e5b823          	sd	a4,16(a1)
    80001b1c:	00048513          	mv	a0,s1
    80001b20:	00813483          	ld	s1,8(sp)
    80001b24:	00e6bc23          	sd	a4,24(a3)
    80001b28:	02010113          	add	sp,sp,32
    80001b2c:	1b90006f          	j	800024e4 <__malloc_unlock>
    80001b30:	00008067          	ret
    80001b34:	00d787b3          	add	a5,a5,a3
    80001b38:	0000e897          	auipc	a7,0xe
    80001b3c:	bd888893          	add	a7,a7,-1064 # 8000f710 <__malloc_av_+0x10>
    80001b40:	01063683          	ld	a3,16(a2)
    80001b44:	0f168063          	beq	a3,a7,80001c24 <_free_r+0x284>
    80001b48:	01863803          	ld	a6,24(a2)
    80001b4c:	0017e593          	or	a1,a5,1
    80001b50:	00f70633          	add	a2,a4,a5
    80001b54:	0106bc23          	sd	a6,24(a3)
    80001b58:	00d83823          	sd	a3,16(a6)
    80001b5c:	00b73423          	sd	a1,8(a4)
    80001b60:	00f63023          	sd	a5,0(a2)
    80001b64:	ed5ff06f          	j	80001a38 <_free_r+0x98>
    80001b68:	14059463          	bnez	a1,80001cb0 <_free_r+0x310>
    80001b6c:	01063583          	ld	a1,16(a2)
    80001b70:	01863603          	ld	a2,24(a2)
    80001b74:	00f686b3          	add	a3,a3,a5
    80001b78:	0016e793          	or	a5,a3,1
    80001b7c:	00c5bc23          	sd	a2,24(a1)
    80001b80:	00b63823          	sd	a1,16(a2)
    80001b84:	00f73423          	sd	a5,8(a4)
    80001b88:	00d70733          	add	a4,a4,a3
    80001b8c:	00d73023          	sd	a3,0(a4)
    80001b90:	ef5ff06f          	j	80001a84 <_free_r+0xe4>
    80001b94:	0015f593          	and	a1,a1,1
    80001b98:	00d786b3          	add	a3,a5,a3
    80001b9c:	02059063          	bnez	a1,80001bbc <_free_r+0x21c>
    80001ba0:	ff043583          	ld	a1,-16(s0)
    80001ba4:	40b70733          	sub	a4,a4,a1
    80001ba8:	01873783          	ld	a5,24(a4)
    80001bac:	01073603          	ld	a2,16(a4)
    80001bb0:	00b686b3          	add	a3,a3,a1
    80001bb4:	00f63c23          	sd	a5,24(a2)
    80001bb8:	00c7b823          	sd	a2,16(a5)
    80001bbc:	0016e793          	or	a5,a3,1
    80001bc0:	00f73423          	sd	a5,8(a4)
    80001bc4:	00e53823          	sd	a4,16(a0)
    80001bc8:	8101b783          	ld	a5,-2032(gp) # 800100c8 <__malloc_trim_threshold>
    80001bcc:	eaf6ece3          	bltu	a3,a5,80001a84 <_free_r+0xe4>
    80001bd0:	8c01b583          	ld	a1,-1856(gp) # 80010178 <__malloc_top_pad>
    80001bd4:	00048513          	mv	a0,s1
    80001bd8:	c8dff0ef          	jal	80001864 <_malloc_trim_r>
    80001bdc:	ea9ff06f          	j	80001a84 <_free_r+0xe4>
    80001be0:	00d787b3          	add	a5,a5,a3
    80001be4:	f5dff06f          	j	80001b40 <_free_r+0x1a0>
    80001be8:	01400613          	li	a2,20
    80001bec:	02d67263          	bgeu	a2,a3,80001c10 <_free_r+0x270>
    80001bf0:	05400613          	li	a2,84
    80001bf4:	06d66863          	bltu	a2,a3,80001c64 <_free_r+0x2c4>
    80001bf8:	00c7d693          	srl	a3,a5,0xc
    80001bfc:	06f6859b          	addw	a1,a3,111
    80001c00:	0015959b          	sllw	a1,a1,0x1
    80001c04:	06e6861b          	addw	a2,a3,110
    80001c08:	00359593          	sll	a1,a1,0x3
    80001c0c:	ed1ff06f          	j	80001adc <_free_r+0x13c>
    80001c10:	05c6859b          	addw	a1,a3,92
    80001c14:	0015959b          	sllw	a1,a1,0x1
    80001c18:	05b6861b          	addw	a2,a3,91
    80001c1c:	00359593          	sll	a1,a1,0x3
    80001c20:	ebdff06f          	j	80001adc <_free_r+0x13c>
    80001c24:	02e53423          	sd	a4,40(a0)
    80001c28:	02e53023          	sd	a4,32(a0)
    80001c2c:	0017e693          	or	a3,a5,1
    80001c30:	01173c23          	sd	a7,24(a4)
    80001c34:	01173823          	sd	a7,16(a4)
    80001c38:	00d73423          	sd	a3,8(a4)
    80001c3c:	00f70733          	add	a4,a4,a5
    80001c40:	00f73023          	sd	a5,0(a4)
    80001c44:	e41ff06f          	j	80001a84 <_free_r+0xe4>
    80001c48:	00853803          	ld	a6,8(a0)
    80001c4c:	4026561b          	sraw	a2,a2,0x2
    80001c50:	00100793          	li	a5,1
    80001c54:	00c797b3          	sll	a5,a5,a2
    80001c58:	0107e7b3          	or	a5,a5,a6
    80001c5c:	00f53423          	sd	a5,8(a0)
    80001c60:	ea9ff06f          	j	80001b08 <_free_r+0x168>
    80001c64:	15400613          	li	a2,340
    80001c68:	00d66e63          	bltu	a2,a3,80001c84 <_free_r+0x2e4>
    80001c6c:	00f7d693          	srl	a3,a5,0xf
    80001c70:	0786859b          	addw	a1,a3,120
    80001c74:	0015959b          	sllw	a1,a1,0x1
    80001c78:	0776861b          	addw	a2,a3,119
    80001c7c:	00359593          	sll	a1,a1,0x3
    80001c80:	e5dff06f          	j	80001adc <_free_r+0x13c>
    80001c84:	55400613          	li	a2,1364
    80001c88:	00d66e63          	bltu	a2,a3,80001ca4 <_free_r+0x304>
    80001c8c:	0127d693          	srl	a3,a5,0x12
    80001c90:	07d6859b          	addw	a1,a3,125
    80001c94:	0015959b          	sllw	a1,a1,0x1
    80001c98:	07c6861b          	addw	a2,a3,124
    80001c9c:	00359593          	sll	a1,a1,0x3
    80001ca0:	e3dff06f          	j	80001adc <_free_r+0x13c>
    80001ca4:	7f000593          	li	a1,2032
    80001ca8:	07e00613          	li	a2,126
    80001cac:	e31ff06f          	j	80001adc <_free_r+0x13c>
    80001cb0:	0017e693          	or	a3,a5,1
    80001cb4:	00d73423          	sd	a3,8(a4)
    80001cb8:	00f63023          	sd	a5,0(a2)
    80001cbc:	dc9ff06f          	j	80001a84 <_free_r+0xe4>

0000000080001cc0 <_malloc_r>:
    80001cc0:	fa010113          	add	sp,sp,-96
    80001cc4:	04913423          	sd	s1,72(sp)
    80001cc8:	05213023          	sd	s2,64(sp)
    80001ccc:	04113c23          	sd	ra,88(sp)
    80001cd0:	04813823          	sd	s0,80(sp)
    80001cd4:	03313c23          	sd	s3,56(sp)
    80001cd8:	01758493          	add	s1,a1,23
    80001cdc:	02e00793          	li	a5,46
    80001ce0:	00050913          	mv	s2,a0
    80001ce4:	0897e263          	bltu	a5,s1,80001d68 <_malloc_r+0xa8>
    80001ce8:	02000793          	li	a5,32
    80001cec:	22b7e663          	bltu	a5,a1,80001f18 <_malloc_r+0x258>
    80001cf0:	7f0000ef          	jal	800024e0 <__malloc_lock>
    80001cf4:	05000793          	li	a5,80
    80001cf8:	00400593          	li	a1,4
    80001cfc:	02000493          	li	s1,32
    80001d00:	0000e997          	auipc	s3,0xe
    80001d04:	a0098993          	add	s3,s3,-1536 # 8000f700 <__malloc_av_>
    80001d08:	00f987b3          	add	a5,s3,a5
    80001d0c:	0087b403          	ld	s0,8(a5)
    80001d10:	ff078713          	add	a4,a5,-16
    80001d14:	36e40c63          	beq	s0,a4,8000208c <_malloc_r+0x3cc>
    80001d18:	00843783          	ld	a5,8(s0)
    80001d1c:	01843683          	ld	a3,24(s0)
    80001d20:	01043603          	ld	a2,16(s0)
    80001d24:	ffc7f793          	and	a5,a5,-4
    80001d28:	00f407b3          	add	a5,s0,a5
    80001d2c:	0087b703          	ld	a4,8(a5)
    80001d30:	00d63c23          	sd	a3,24(a2)
    80001d34:	00c6b823          	sd	a2,16(a3)
    80001d38:	00176713          	or	a4,a4,1
    80001d3c:	00090513          	mv	a0,s2
    80001d40:	00e7b423          	sd	a4,8(a5)
    80001d44:	7a0000ef          	jal	800024e4 <__malloc_unlock>
    80001d48:	01040513          	add	a0,s0,16
    80001d4c:	05813083          	ld	ra,88(sp)
    80001d50:	05013403          	ld	s0,80(sp)
    80001d54:	04813483          	ld	s1,72(sp)
    80001d58:	04013903          	ld	s2,64(sp)
    80001d5c:	03813983          	ld	s3,56(sp)
    80001d60:	06010113          	add	sp,sp,96
    80001d64:	00008067          	ret
    80001d68:	800007b7          	lui	a5,0x80000
    80001d6c:	ff04f493          	and	s1,s1,-16
    80001d70:	fff7c793          	not	a5,a5
    80001d74:	1a97e263          	bltu	a5,s1,80001f18 <_malloc_r+0x258>
    80001d78:	1ab4e063          	bltu	s1,a1,80001f18 <_malloc_r+0x258>
    80001d7c:	764000ef          	jal	800024e0 <__malloc_lock>
    80001d80:	1f700793          	li	a5,503
    80001d84:	4697f063          	bgeu	a5,s1,800021e4 <_malloc_r+0x524>
    80001d88:	0094d793          	srl	a5,s1,0x9
    80001d8c:	18078e63          	beqz	a5,80001f28 <_malloc_r+0x268>
    80001d90:	00400713          	li	a4,4
    80001d94:	36f76663          	bltu	a4,a5,80002100 <_malloc_r+0x440>
    80001d98:	0064d793          	srl	a5,s1,0x6
    80001d9c:	0397859b          	addw	a1,a5,57 # ffffffff80000039 <__heap_end+0xfffffffeff7ee039>
    80001da0:	0015961b          	sllw	a2,a1,0x1
    80001da4:	0387881b          	addw	a6,a5,56
    80001da8:	00361613          	sll	a2,a2,0x3
    80001dac:	0000e997          	auipc	s3,0xe
    80001db0:	95498993          	add	s3,s3,-1708 # 8000f700 <__malloc_av_>
    80001db4:	00c98633          	add	a2,s3,a2
    80001db8:	00863403          	ld	s0,8(a2)
    80001dbc:	ff060613          	add	a2,a2,-16
    80001dc0:	02860863          	beq	a2,s0,80001df0 <_malloc_r+0x130>
    80001dc4:	01f00513          	li	a0,31
    80001dc8:	0140006f          	j	80001ddc <_malloc_r+0x11c>
    80001dcc:	01843683          	ld	a3,24(s0)
    80001dd0:	2a075a63          	bgez	a4,80002084 <_malloc_r+0x3c4>
    80001dd4:	00d60e63          	beq	a2,a3,80001df0 <_malloc_r+0x130>
    80001dd8:	00068413          	mv	s0,a3
    80001ddc:	00843783          	ld	a5,8(s0)
    80001de0:	ffc7f793          	and	a5,a5,-4
    80001de4:	40978733          	sub	a4,a5,s1
    80001de8:	fee552e3          	bge	a0,a4,80001dcc <_malloc_r+0x10c>
    80001dec:	00080593          	mv	a1,a6
    80001df0:	0209b403          	ld	s0,32(s3)
    80001df4:	0000e897          	auipc	a7,0xe
    80001df8:	91c88893          	add	a7,a7,-1764 # 8000f710 <__malloc_av_+0x10>
    80001dfc:	29140063          	beq	s0,a7,8000207c <_malloc_r+0x3bc>
    80001e00:	00843783          	ld	a5,8(s0)
    80001e04:	01f00693          	li	a3,31
    80001e08:	ffc7f793          	and	a5,a5,-4
    80001e0c:	40978733          	sub	a4,a5,s1
    80001e10:	38e6cc63          	blt	a3,a4,800021a8 <_malloc_r+0x4e8>
    80001e14:	0319b423          	sd	a7,40(s3)
    80001e18:	0319b023          	sd	a7,32(s3)
    80001e1c:	36075663          	bgez	a4,80002188 <_malloc_r+0x4c8>
    80001e20:	1ff00713          	li	a4,511
    80001e24:	0089b503          	ld	a0,8(s3)
    80001e28:	26f76a63          	bltu	a4,a5,8000209c <_malloc_r+0x3dc>
    80001e2c:	0037d793          	srl	a5,a5,0x3
    80001e30:	0017871b          	addw	a4,a5,1
    80001e34:	0017171b          	sllw	a4,a4,0x1
    80001e38:	00371713          	sll	a4,a4,0x3
    80001e3c:	00e98733          	add	a4,s3,a4
    80001e40:	00073603          	ld	a2,0(a4)
    80001e44:	4027d79b          	sraw	a5,a5,0x2
    80001e48:	00100693          	li	a3,1
    80001e4c:	00f697b3          	sll	a5,a3,a5
    80001e50:	00f56533          	or	a0,a0,a5
    80001e54:	ff070793          	add	a5,a4,-16
    80001e58:	00f43c23          	sd	a5,24(s0)
    80001e5c:	00c43823          	sd	a2,16(s0)
    80001e60:	00a9b423          	sd	a0,8(s3)
    80001e64:	00873023          	sd	s0,0(a4)
    80001e68:	00863c23          	sd	s0,24(a2)
    80001e6c:	4025d79b          	sraw	a5,a1,0x2
    80001e70:	00100613          	li	a2,1
    80001e74:	00f61633          	sll	a2,a2,a5
    80001e78:	0cc56063          	bltu	a0,a2,80001f38 <_malloc_r+0x278>
    80001e7c:	00a677b3          	and	a5,a2,a0
    80001e80:	02079463          	bnez	a5,80001ea8 <_malloc_r+0x1e8>
    80001e84:	00161613          	sll	a2,a2,0x1
    80001e88:	ffc5f593          	and	a1,a1,-4
    80001e8c:	00a677b3          	and	a5,a2,a0
    80001e90:	0045859b          	addw	a1,a1,4
    80001e94:	00079a63          	bnez	a5,80001ea8 <_malloc_r+0x1e8>
    80001e98:	00161613          	sll	a2,a2,0x1
    80001e9c:	00a677b3          	and	a5,a2,a0
    80001ea0:	0045859b          	addw	a1,a1,4
    80001ea4:	fe078ae3          	beqz	a5,80001e98 <_malloc_r+0x1d8>
    80001ea8:	01f00813          	li	a6,31
    80001eac:	0015831b          	addw	t1,a1,1
    80001eb0:	0013131b          	sllw	t1,t1,0x1
    80001eb4:	00331313          	sll	t1,t1,0x3
    80001eb8:	ff030313          	add	t1,t1,-16
    80001ebc:	00698333          	add	t1,s3,t1
    80001ec0:	00030513          	mv	a0,t1
    80001ec4:	01853783          	ld	a5,24(a0)
    80001ec8:	00058e13          	mv	t3,a1
    80001ecc:	24f50e63          	beq	a0,a5,80002128 <_malloc_r+0x468>
    80001ed0:	0087b703          	ld	a4,8(a5)
    80001ed4:	00078413          	mv	s0,a5
    80001ed8:	0187b783          	ld	a5,24(a5)
    80001edc:	ffc77713          	and	a4,a4,-4
    80001ee0:	409706b3          	sub	a3,a4,s1
    80001ee4:	24d84e63          	blt	a6,a3,80002140 <_malloc_r+0x480>
    80001ee8:	fe06c2e3          	bltz	a3,80001ecc <_malloc_r+0x20c>
    80001eec:	00e40733          	add	a4,s0,a4
    80001ef0:	00873683          	ld	a3,8(a4)
    80001ef4:	01043603          	ld	a2,16(s0)
    80001ef8:	00090513          	mv	a0,s2
    80001efc:	0016e693          	or	a3,a3,1
    80001f00:	00d73423          	sd	a3,8(a4)
    80001f04:	00f63c23          	sd	a5,24(a2)
    80001f08:	00c7b823          	sd	a2,16(a5)
    80001f0c:	5d8000ef          	jal	800024e4 <__malloc_unlock>
    80001f10:	01040513          	add	a0,s0,16
    80001f14:	e39ff06f          	j	80001d4c <_malloc_r+0x8c>
    80001f18:	00c00793          	li	a5,12
    80001f1c:	00f92023          	sw	a5,0(s2)
    80001f20:	00000513          	li	a0,0
    80001f24:	e29ff06f          	j	80001d4c <_malloc_r+0x8c>
    80001f28:	40000613          	li	a2,1024
    80001f2c:	04000593          	li	a1,64
    80001f30:	03f00813          	li	a6,63
    80001f34:	e79ff06f          	j	80001dac <_malloc_r+0xec>
    80001f38:	0109b403          	ld	s0,16(s3)
    80001f3c:	03513423          	sd	s5,40(sp)
    80001f40:	00843783          	ld	a5,8(s0)
    80001f44:	ffc7fa93          	and	s5,a5,-4
    80001f48:	009ae863          	bltu	s5,s1,80001f58 <_malloc_r+0x298>
    80001f4c:	409a8733          	sub	a4,s5,s1
    80001f50:	01f00793          	li	a5,31
    80001f54:	0ee7c263          	blt	a5,a4,80002038 <_malloc_r+0x378>
    80001f58:	01913423          	sd	s9,8(sp)
    80001f5c:	0000ec97          	auipc	s9,0xe
    80001f60:	164c8c93          	add	s9,s9,356 # 800100c0 <__malloc_sbrk_base>
    80001f64:	000cb703          	ld	a4,0(s9)
    80001f68:	03413823          	sd	s4,48(sp)
    80001f6c:	01713c23          	sd	s7,24(sp)
    80001f70:	8c01ba03          	ld	s4,-1856(gp) # 80010178 <__malloc_top_pad>
    80001f74:	03613023          	sd	s6,32(sp)
    80001f78:	fff00793          	li	a5,-1
    80001f7c:	01540bb3          	add	s7,s0,s5
    80001f80:	01448a33          	add	s4,s1,s4
    80001f84:	3ef70a63          	beq	a4,a5,80002378 <_malloc_r+0x6b8>
    80001f88:	000017b7          	lui	a5,0x1
    80001f8c:	01f78793          	add	a5,a5,31 # 101f <__stack_shift+0x1008>
    80001f90:	00fa0a33          	add	s4,s4,a5
    80001f94:	fffff7b7          	lui	a5,0xfffff
    80001f98:	00fa7a33          	and	s4,s4,a5
    80001f9c:	000a0593          	mv	a1,s4
    80001fa0:	00090513          	mv	a0,s2
    80001fa4:	2fd030ef          	jal	80005aa0 <_sbrk_r>
    80001fa8:	fff00793          	li	a5,-1
    80001fac:	00050b13          	mv	s6,a0
    80001fb0:	48f50263          	beq	a0,a5,80002434 <_malloc_r+0x774>
    80001fb4:	01813823          	sd	s8,16(sp)
    80001fb8:	25756e63          	bltu	a0,s7,80002214 <_malloc_r+0x554>
    80001fbc:	4b818c13          	add	s8,gp,1208 # 80010d70 <__malloc_current_mallinfo>
    80001fc0:	000c2783          	lw	a5,0(s8)
    80001fc4:	0147873b          	addw	a4,a5,s4
    80001fc8:	00ec2023          	sw	a4,0(s8)
    80001fcc:	00070693          	mv	a3,a4
    80001fd0:	2cab9863          	bne	s7,a0,800022a0 <_malloc_r+0x5e0>
    80001fd4:	03451793          	sll	a5,a0,0x34
    80001fd8:	2c079463          	bnez	a5,800022a0 <_malloc_r+0x5e0>
    80001fdc:	0109bb03          	ld	s6,16(s3)
    80001fe0:	014a87b3          	add	a5,s5,s4
    80001fe4:	0017e793          	or	a5,a5,1
    80001fe8:	00fb3423          	sd	a5,8(s6)
    80001fec:	8b818693          	add	a3,gp,-1864 # 80010170 <__malloc_max_sbrked_mem>
    80001ff0:	0006b603          	ld	a2,0(a3)
    80001ff4:	00e67463          	bgeu	a2,a4,80001ffc <_malloc_r+0x33c>
    80001ff8:	00e6b023          	sd	a4,0(a3)
    80001ffc:	8b018693          	add	a3,gp,-1872 # 80010168 <__malloc_max_total_mem>
    80002000:	0006b603          	ld	a2,0(a3)
    80002004:	00e67463          	bgeu	a2,a4,8000200c <_malloc_r+0x34c>
    80002008:	00e6b023          	sd	a4,0(a3)
    8000200c:	01013c03          	ld	s8,16(sp)
    80002010:	000b0413          	mv	s0,s6
    80002014:	ffc7f793          	and	a5,a5,-4
    80002018:	40978733          	sub	a4,a5,s1
    8000201c:	3a97ea63          	bltu	a5,s1,800023d0 <_malloc_r+0x710>
    80002020:	01f00793          	li	a5,31
    80002024:	3ae7d663          	bge	a5,a4,800023d0 <_malloc_r+0x710>
    80002028:	03013a03          	ld	s4,48(sp)
    8000202c:	02013b03          	ld	s6,32(sp)
    80002030:	01813b83          	ld	s7,24(sp)
    80002034:	00813c83          	ld	s9,8(sp)
    80002038:	0014e793          	or	a5,s1,1
    8000203c:	00f43423          	sd	a5,8(s0)
    80002040:	009404b3          	add	s1,s0,s1
    80002044:	0099b823          	sd	s1,16(s3)
    80002048:	00176713          	or	a4,a4,1
    8000204c:	00090513          	mv	a0,s2
    80002050:	00e4b423          	sd	a4,8(s1)
    80002054:	490000ef          	jal	800024e4 <__malloc_unlock>
    80002058:	05813083          	ld	ra,88(sp)
    8000205c:	01040513          	add	a0,s0,16
    80002060:	05013403          	ld	s0,80(sp)
    80002064:	02813a83          	ld	s5,40(sp)
    80002068:	04813483          	ld	s1,72(sp)
    8000206c:	04013903          	ld	s2,64(sp)
    80002070:	03813983          	ld	s3,56(sp)
    80002074:	06010113          	add	sp,sp,96
    80002078:	00008067          	ret
    8000207c:	0089b503          	ld	a0,8(s3)
    80002080:	dedff06f          	j	80001e6c <_malloc_r+0x1ac>
    80002084:	01043603          	ld	a2,16(s0)
    80002088:	ca1ff06f          	j	80001d28 <_malloc_r+0x68>
    8000208c:	0187b403          	ld	s0,24(a5) # fffffffffffff018 <__heap_end+0xffffffff7f7ed018>
    80002090:	0025859b          	addw	a1,a1,2
    80002094:	d4878ee3          	beq	a5,s0,80001df0 <_malloc_r+0x130>
    80002098:	c81ff06f          	j	80001d18 <_malloc_r+0x58>
    8000209c:	0097d713          	srl	a4,a5,0x9
    800020a0:	00400693          	li	a3,4
    800020a4:	14e6fc63          	bgeu	a3,a4,800021fc <_malloc_r+0x53c>
    800020a8:	01400693          	li	a3,20
    800020ac:	34e6e463          	bltu	a3,a4,800023f4 <_malloc_r+0x734>
    800020b0:	05c7061b          	addw	a2,a4,92
    800020b4:	0016161b          	sllw	a2,a2,0x1
    800020b8:	05b7069b          	addw	a3,a4,91
    800020bc:	00361613          	sll	a2,a2,0x3
    800020c0:	00c98633          	add	a2,s3,a2
    800020c4:	00063703          	ld	a4,0(a2)
    800020c8:	ff060613          	add	a2,a2,-16
    800020cc:	00e61863          	bne	a2,a4,800020dc <_malloc_r+0x41c>
    800020d0:	2b00006f          	j	80002380 <_malloc_r+0x6c0>
    800020d4:	01073703          	ld	a4,16(a4)
    800020d8:	00e60863          	beq	a2,a4,800020e8 <_malloc_r+0x428>
    800020dc:	00873683          	ld	a3,8(a4)
    800020e0:	ffc6f693          	and	a3,a3,-4
    800020e4:	fed7e8e3          	bltu	a5,a3,800020d4 <_malloc_r+0x414>
    800020e8:	01873603          	ld	a2,24(a4)
    800020ec:	00c43c23          	sd	a2,24(s0)
    800020f0:	00e43823          	sd	a4,16(s0)
    800020f4:	00863823          	sd	s0,16(a2)
    800020f8:	00873c23          	sd	s0,24(a4)
    800020fc:	d71ff06f          	j	80001e6c <_malloc_r+0x1ac>
    80002100:	01400713          	li	a4,20
    80002104:	12f77263          	bgeu	a4,a5,80002228 <_malloc_r+0x568>
    80002108:	05400713          	li	a4,84
    8000210c:	30f76463          	bltu	a4,a5,80002414 <_malloc_r+0x754>
    80002110:	00c4d793          	srl	a5,s1,0xc
    80002114:	06f7859b          	addw	a1,a5,111
    80002118:	0015961b          	sllw	a2,a1,0x1
    8000211c:	06e7881b          	addw	a6,a5,110
    80002120:	00361613          	sll	a2,a2,0x3
    80002124:	c89ff06f          	j	80001dac <_malloc_r+0xec>
    80002128:	001e0e1b          	addw	t3,t3,1
    8000212c:	003e7793          	and	a5,t3,3
    80002130:	01050513          	add	a0,a0,16
    80002134:	10078a63          	beqz	a5,80002248 <_malloc_r+0x588>
    80002138:	01853783          	ld	a5,24(a0)
    8000213c:	d91ff06f          	j	80001ecc <_malloc_r+0x20c>
    80002140:	01043603          	ld	a2,16(s0)
    80002144:	0014e593          	or	a1,s1,1
    80002148:	00b43423          	sd	a1,8(s0)
    8000214c:	00f63c23          	sd	a5,24(a2)
    80002150:	00c7b823          	sd	a2,16(a5)
    80002154:	009404b3          	add	s1,s0,s1
    80002158:	0299b423          	sd	s1,40(s3)
    8000215c:	0299b023          	sd	s1,32(s3)
    80002160:	0016e793          	or	a5,a3,1
    80002164:	0114bc23          	sd	a7,24(s1)
    80002168:	0114b823          	sd	a7,16(s1)
    8000216c:	00f4b423          	sd	a5,8(s1)
    80002170:	00e40733          	add	a4,s0,a4
    80002174:	00090513          	mv	a0,s2
    80002178:	00d73023          	sd	a3,0(a4)
    8000217c:	368000ef          	jal	800024e4 <__malloc_unlock>
    80002180:	01040513          	add	a0,s0,16
    80002184:	bc9ff06f          	j	80001d4c <_malloc_r+0x8c>
    80002188:	00f407b3          	add	a5,s0,a5
    8000218c:	0087b703          	ld	a4,8(a5)
    80002190:	00090513          	mv	a0,s2
    80002194:	00176713          	or	a4,a4,1
    80002198:	00e7b423          	sd	a4,8(a5)
    8000219c:	348000ef          	jal	800024e4 <__malloc_unlock>
    800021a0:	01040513          	add	a0,s0,16
    800021a4:	ba9ff06f          	j	80001d4c <_malloc_r+0x8c>
    800021a8:	0014e693          	or	a3,s1,1
    800021ac:	00d43423          	sd	a3,8(s0)
    800021b0:	009404b3          	add	s1,s0,s1
    800021b4:	0299b423          	sd	s1,40(s3)
    800021b8:	0299b023          	sd	s1,32(s3)
    800021bc:	00176693          	or	a3,a4,1
    800021c0:	0114bc23          	sd	a7,24(s1)
    800021c4:	0114b823          	sd	a7,16(s1)
    800021c8:	00d4b423          	sd	a3,8(s1)
    800021cc:	00f407b3          	add	a5,s0,a5
    800021d0:	00090513          	mv	a0,s2
    800021d4:	00e7b023          	sd	a4,0(a5)
    800021d8:	30c000ef          	jal	800024e4 <__malloc_unlock>
    800021dc:	01040513          	add	a0,s0,16
    800021e0:	b6dff06f          	j	80001d4c <_malloc_r+0x8c>
    800021e4:	0034d593          	srl	a1,s1,0x3
    800021e8:	0015879b          	addw	a5,a1,1
    800021ec:	0017979b          	sllw	a5,a5,0x1
    800021f0:	0005859b          	sext.w	a1,a1
    800021f4:	00379793          	sll	a5,a5,0x3
    800021f8:	b09ff06f          	j	80001d00 <_malloc_r+0x40>
    800021fc:	0067d713          	srl	a4,a5,0x6
    80002200:	0397061b          	addw	a2,a4,57
    80002204:	0016161b          	sllw	a2,a2,0x1
    80002208:	0387069b          	addw	a3,a4,56
    8000220c:	00361613          	sll	a2,a2,0x3
    80002210:	eb1ff06f          	j	800020c0 <_malloc_r+0x400>
    80002214:	07340e63          	beq	s0,s3,80002290 <_malloc_r+0x5d0>
    80002218:	0109b403          	ld	s0,16(s3)
    8000221c:	01013c03          	ld	s8,16(sp)
    80002220:	00843783          	ld	a5,8(s0)
    80002224:	df1ff06f          	j	80002014 <_malloc_r+0x354>
    80002228:	05c7859b          	addw	a1,a5,92
    8000222c:	0015961b          	sllw	a2,a1,0x1
    80002230:	05b7881b          	addw	a6,a5,91
    80002234:	00361613          	sll	a2,a2,0x3
    80002238:	b75ff06f          	j	80001dac <_malloc_r+0xec>
    8000223c:	01033783          	ld	a5,16(t1)
    80002240:	fff5859b          	addw	a1,a1,-1
    80002244:	28679a63          	bne	a5,t1,800024d8 <_malloc_r+0x818>
    80002248:	0035f793          	and	a5,a1,3
    8000224c:	ff030313          	add	t1,t1,-16
    80002250:	fe0796e3          	bnez	a5,8000223c <_malloc_r+0x57c>
    80002254:	0089b703          	ld	a4,8(s3)
    80002258:	fff64793          	not	a5,a2
    8000225c:	00e7f7b3          	and	a5,a5,a4
    80002260:	00f9b423          	sd	a5,8(s3)
    80002264:	00161613          	sll	a2,a2,0x1
    80002268:	ccc7e8e3          	bltu	a5,a2,80001f38 <_malloc_r+0x278>
    8000226c:	cc0606e3          	beqz	a2,80001f38 <_malloc_r+0x278>
    80002270:	00f67733          	and	a4,a2,a5
    80002274:	00071a63          	bnez	a4,80002288 <_malloc_r+0x5c8>
    80002278:	00161613          	sll	a2,a2,0x1
    8000227c:	00f67733          	and	a4,a2,a5
    80002280:	004e0e1b          	addw	t3,t3,4
    80002284:	fe070ae3          	beqz	a4,80002278 <_malloc_r+0x5b8>
    80002288:	000e0593          	mv	a1,t3
    8000228c:	c21ff06f          	j	80001eac <_malloc_r+0x1ec>
    80002290:	4b818c13          	add	s8,gp,1208 # 80010d70 <__malloc_current_mallinfo>
    80002294:	000c2783          	lw	a5,0(s8)
    80002298:	014786bb          	addw	a3,a5,s4
    8000229c:	00dc2023          	sw	a3,0(s8)
    800022a0:	000cb703          	ld	a4,0(s9)
    800022a4:	fff00793          	li	a5,-1
    800022a8:	18f70c63          	beq	a4,a5,80002440 <_malloc_r+0x780>
    800022ac:	417b07b3          	sub	a5,s6,s7
    800022b0:	00d787bb          	addw	a5,a5,a3
    800022b4:	00fc2023          	sw	a5,0(s8)
    800022b8:	00fb7c93          	and	s9,s6,15
    800022bc:	0c0c8e63          	beqz	s9,80002398 <_malloc_r+0x6d8>
    800022c0:	419b0b33          	sub	s6,s6,s9
    800022c4:	00001737          	lui	a4,0x1
    800022c8:	01070713          	add	a4,a4,16 # 1010 <__stack_shift+0xff9>
    800022cc:	010b0b13          	add	s6,s6,16
    800022d0:	41970bb3          	sub	s7,a4,s9
    800022d4:	014b0a33          	add	s4,s6,s4
    800022d8:	414b8bb3          	sub	s7,s7,s4
    800022dc:	034b9b93          	sll	s7,s7,0x34
    800022e0:	034bdb93          	srl	s7,s7,0x34
    800022e4:	000b8593          	mv	a1,s7
    800022e8:	00090513          	mv	a0,s2
    800022ec:	7b4030ef          	jal	80005aa0 <_sbrk_r>
    800022f0:	fff00793          	li	a5,-1
    800022f4:	18f50a63          	beq	a0,a5,80002488 <_malloc_r+0x7c8>
    800022f8:	41650533          	sub	a0,a0,s6
    800022fc:	000b869b          	sext.w	a3,s7
    80002300:	01750a33          	add	s4,a0,s7
    80002304:	000c2703          	lw	a4,0(s8)
    80002308:	0169b823          	sd	s6,16(s3)
    8000230c:	001a6793          	or	a5,s4,1
    80002310:	00d7073b          	addw	a4,a4,a3
    80002314:	00ec2023          	sw	a4,0(s8)
    80002318:	00fb3423          	sd	a5,8(s6)
    8000231c:	cd3408e3          	beq	s0,s3,80001fec <_malloc_r+0x32c>
    80002320:	01f00613          	li	a2,31
    80002324:	0b567063          	bgeu	a2,s5,800023c4 <_malloc_r+0x704>
    80002328:	00843683          	ld	a3,8(s0)
    8000232c:	fe8a8793          	add	a5,s5,-24
    80002330:	ff07f793          	and	a5,a5,-16
    80002334:	0016f693          	and	a3,a3,1
    80002338:	00f6e6b3          	or	a3,a3,a5
    8000233c:	00d43423          	sd	a3,8(s0)
    80002340:	00900593          	li	a1,9
    80002344:	00f406b3          	add	a3,s0,a5
    80002348:	00b6b423          	sd	a1,8(a3)
    8000234c:	00b6b823          	sd	a1,16(a3)
    80002350:	00f66663          	bltu	a2,a5,8000235c <_malloc_r+0x69c>
    80002354:	008b3783          	ld	a5,8(s6)
    80002358:	c95ff06f          	j	80001fec <_malloc_r+0x32c>
    8000235c:	01040593          	add	a1,s0,16
    80002360:	00090513          	mv	a0,s2
    80002364:	e3cff0ef          	jal	800019a0 <_free_r>
    80002368:	0109bb03          	ld	s6,16(s3)
    8000236c:	000c2703          	lw	a4,0(s8)
    80002370:	008b3783          	ld	a5,8(s6)
    80002374:	c79ff06f          	j	80001fec <_malloc_r+0x32c>
    80002378:	020a0a13          	add	s4,s4,32
    8000237c:	c21ff06f          	j	80001f9c <_malloc_r+0x2dc>
    80002380:	4026d69b          	sraw	a3,a3,0x2
    80002384:	00100793          	li	a5,1
    80002388:	00d797b3          	sll	a5,a5,a3
    8000238c:	00f56533          	or	a0,a0,a5
    80002390:	00a9b423          	sd	a0,8(s3)
    80002394:	d59ff06f          	j	800020ec <_malloc_r+0x42c>
    80002398:	014b0bb3          	add	s7,s6,s4
    8000239c:	41700bb3          	neg	s7,s7
    800023a0:	034b9b93          	sll	s7,s7,0x34
    800023a4:	034bdb93          	srl	s7,s7,0x34
    800023a8:	000b8593          	mv	a1,s7
    800023ac:	00090513          	mv	a0,s2
    800023b0:	6f0030ef          	jal	80005aa0 <_sbrk_r>
    800023b4:	fff00793          	li	a5,-1
    800023b8:	00000693          	li	a3,0
    800023bc:	f2f51ee3          	bne	a0,a5,800022f8 <_malloc_r+0x638>
    800023c0:	f45ff06f          	j	80002304 <_malloc_r+0x644>
    800023c4:	01013c03          	ld	s8,16(sp)
    800023c8:	00100793          	li	a5,1
    800023cc:	00fb3423          	sd	a5,8(s6)
    800023d0:	00090513          	mv	a0,s2
    800023d4:	110000ef          	jal	800024e4 <__malloc_unlock>
    800023d8:	00000513          	li	a0,0
    800023dc:	03013a03          	ld	s4,48(sp)
    800023e0:	02813a83          	ld	s5,40(sp)
    800023e4:	02013b03          	ld	s6,32(sp)
    800023e8:	01813b83          	ld	s7,24(sp)
    800023ec:	00813c83          	ld	s9,8(sp)
    800023f0:	95dff06f          	j	80001d4c <_malloc_r+0x8c>
    800023f4:	05400693          	li	a3,84
    800023f8:	04e6e863          	bltu	a3,a4,80002448 <_malloc_r+0x788>
    800023fc:	00c7d713          	srl	a4,a5,0xc
    80002400:	06f7061b          	addw	a2,a4,111
    80002404:	0016161b          	sllw	a2,a2,0x1
    80002408:	06e7069b          	addw	a3,a4,110
    8000240c:	00361613          	sll	a2,a2,0x3
    80002410:	cb1ff06f          	j	800020c0 <_malloc_r+0x400>
    80002414:	15400713          	li	a4,340
    80002418:	04f76863          	bltu	a4,a5,80002468 <_malloc_r+0x7a8>
    8000241c:	00f4d793          	srl	a5,s1,0xf
    80002420:	0787859b          	addw	a1,a5,120
    80002424:	0015961b          	sllw	a2,a1,0x1
    80002428:	0777881b          	addw	a6,a5,119
    8000242c:	00361613          	sll	a2,a2,0x3
    80002430:	97dff06f          	j	80001dac <_malloc_r+0xec>
    80002434:	0109b403          	ld	s0,16(s3)
    80002438:	00843783          	ld	a5,8(s0)
    8000243c:	bd9ff06f          	j	80002014 <_malloc_r+0x354>
    80002440:	016cb023          	sd	s6,0(s9)
    80002444:	e75ff06f          	j	800022b8 <_malloc_r+0x5f8>
    80002448:	15400693          	li	a3,340
    8000244c:	04e6e863          	bltu	a3,a4,8000249c <_malloc_r+0x7dc>
    80002450:	00f7d713          	srl	a4,a5,0xf
    80002454:	0787061b          	addw	a2,a4,120
    80002458:	0016161b          	sllw	a2,a2,0x1
    8000245c:	0777069b          	addw	a3,a4,119
    80002460:	00361613          	sll	a2,a2,0x3
    80002464:	c5dff06f          	j	800020c0 <_malloc_r+0x400>
    80002468:	55400713          	li	a4,1364
    8000246c:	04f76863          	bltu	a4,a5,800024bc <_malloc_r+0x7fc>
    80002470:	0124d793          	srl	a5,s1,0x12
    80002474:	07d7859b          	addw	a1,a5,125
    80002478:	0015961b          	sllw	a2,a1,0x1
    8000247c:	07c7881b          	addw	a6,a5,124
    80002480:	00361613          	sll	a2,a2,0x3
    80002484:	929ff06f          	j	80001dac <_malloc_r+0xec>
    80002488:	ff0c8c93          	add	s9,s9,-16
    8000248c:	019a0a33          	add	s4,s4,s9
    80002490:	416a0a33          	sub	s4,s4,s6
    80002494:	00000693          	li	a3,0
    80002498:	e6dff06f          	j	80002304 <_malloc_r+0x644>
    8000249c:	55400693          	li	a3,1364
    800024a0:	02e6e663          	bltu	a3,a4,800024cc <_malloc_r+0x80c>
    800024a4:	0127d713          	srl	a4,a5,0x12
    800024a8:	07d7061b          	addw	a2,a4,125
    800024ac:	0016161b          	sllw	a2,a2,0x1
    800024b0:	07c7069b          	addw	a3,a4,124
    800024b4:	00361613          	sll	a2,a2,0x3
    800024b8:	c09ff06f          	j	800020c0 <_malloc_r+0x400>
    800024bc:	7f000613          	li	a2,2032
    800024c0:	07f00593          	li	a1,127
    800024c4:	07e00813          	li	a6,126
    800024c8:	8e5ff06f          	j	80001dac <_malloc_r+0xec>
    800024cc:	7f000613          	li	a2,2032
    800024d0:	07e00693          	li	a3,126
    800024d4:	bedff06f          	j	800020c0 <_malloc_r+0x400>
    800024d8:	0089b783          	ld	a5,8(s3)
    800024dc:	d89ff06f          	j	80002264 <_malloc_r+0x5a4>

00000000800024e0 <__malloc_lock>:
    800024e0:	00008067          	ret

00000000800024e4 <__malloc_unlock>:
    800024e4:	00008067          	ret

00000000800024e8 <_vfprintf_r>:
    800024e8:	db010113          	add	sp,sp,-592
    800024ec:	24113423          	sd	ra,584(sp)
    800024f0:	24813023          	sd	s0,576(sp)
    800024f4:	22913c23          	sd	s1,568(sp)
    800024f8:	21713423          	sd	s7,520(sp)
    800024fc:	00058493          	mv	s1,a1
    80002500:	00060b93          	mv	s7,a2
    80002504:	02d13023          	sd	a3,32(sp)
    80002508:	00050413          	mv	s0,a0
    8000250c:	00a13423          	sd	a0,8(sp)
    80002510:	578030ef          	jal	80005a88 <_localeconv_r>
    80002514:	00053703          	ld	a4,0(a0)
    80002518:	00070513          	mv	a0,a4
    8000251c:	04e13823          	sd	a4,80(sp)
    80002520:	910ff0ef          	jal	80001630 <strlen>
    80002524:	04a13423          	sd	a0,72(sp)
    80002528:	0c013823          	sd	zero,208(sp)
    8000252c:	0c013c23          	sd	zero,216(sp)
    80002530:	00040863          	beqz	s0,80002540 <_vfprintf_r+0x58>
    80002534:	04843703          	ld	a4,72(s0)
    80002538:	00071463          	bnez	a4,80002540 <_vfprintf_r+0x58>
    8000253c:	2550106f          	j	80003f90 <_vfprintf_r+0x1aa8>
    80002540:	01049683          	lh	a3,16(s1)
    80002544:	0ac4a703          	lw	a4,172(s1)
    80002548:	03269613          	sll	a2,a3,0x32
    8000254c:	02064063          	bltz	a2,8000256c <_vfprintf_r+0x84>
    80002550:	ffffe637          	lui	a2,0xffffe
    80002554:	fff60613          	add	a2,a2,-1 # ffffffffffffdfff <__heap_end+0xffffffff7f7ebfff>
    80002558:	000025b7          	lui	a1,0x2
    8000255c:	00b6e6b3          	or	a3,a3,a1
    80002560:	00c77733          	and	a4,a4,a2
    80002564:	00d49823          	sh	a3,16(s1)
    80002568:	0ae4a623          	sw	a4,172(s1)
    8000256c:	03271693          	sll	a3,a4,0x32
    80002570:	0006d463          	bgez	a3,80002578 <_vfprintf_r+0x90>
    80002574:	2880206f          	j	800047fc <_vfprintf_r+0x2314>
    80002578:	01049703          	lh	a4,16(s1)
    8000257c:	00877693          	and	a3,a4,8
    80002580:	32068c63          	beqz	a3,800028b8 <_vfprintf_r+0x3d0>
    80002584:	0184b683          	ld	a3,24(s1)
    80002588:	32068863          	beqz	a3,800028b8 <_vfprintf_r+0x3d0>
    8000258c:	01a77713          	and	a4,a4,26
    80002590:	00a00693          	li	a3,10
    80002594:	34d70463          	beq	a4,a3,800028dc <_vfprintf_r+0x3f4>
    80002598:	23213823          	sd	s2,560(sp)
    8000259c:	23313423          	sd	s3,552(sp)
    800025a0:	1fb13423          	sd	s11,488(sp)
    800025a4:	23413023          	sd	s4,544(sp)
    800025a8:	21513c23          	sd	s5,536(sp)
    800025ac:	21613823          	sd	s6,528(sp)
    800025b0:	21813023          	sd	s8,512(sp)
    800025b4:	1f913c23          	sd	s9,504(sp)
    800025b8:	1fa13823          	sd	s10,496(sp)
    800025bc:	000b8d93          	mv	s11,s7
    800025c0:	000dc703          	lbu	a4,0(s11)
    800025c4:	16010993          	add	s3,sp,352
    800025c8:	0f313023          	sd	s3,224(sp)
    800025cc:	0e013823          	sd	zero,240(sp)
    800025d0:	0e012423          	sw	zero,232(sp)
    800025d4:	02013823          	sd	zero,48(sp)
    800025d8:	04013c23          	sd	zero,88(sp)
    800025dc:	06013423          	sd	zero,104(sp)
    800025e0:	06013c23          	sd	zero,120(sp)
    800025e4:	08013023          	sd	zero,128(sp)
    800025e8:	06013823          	sd	zero,112(sp)
    800025ec:	00013823          	sd	zero,16(sp)
    800025f0:	01000413          	li	s0,16
    800025f4:	00098913          	mv	s2,s3
    800025f8:	24070a63          	beqz	a4,8000284c <_vfprintf_r+0x364>
    800025fc:	000d8a93          	mv	s5,s11
    80002600:	02500693          	li	a3,37
    80002604:	3ed70663          	beq	a4,a3,800029f0 <_vfprintf_r+0x508>
    80002608:	001ac703          	lbu	a4,1(s5)
    8000260c:	001a8a93          	add	s5,s5,1
    80002610:	fe071ae3          	bnez	a4,80002604 <_vfprintf_r+0x11c>
    80002614:	41ba8a3b          	subw	s4,s5,s11
    80002618:	220a0a63          	beqz	s4,8000284c <_vfprintf_r+0x364>
    8000261c:	0e812703          	lw	a4,232(sp)
    80002620:	0f013683          	ld	a3,240(sp)
    80002624:	01b93023          	sd	s11,0(s2)
    80002628:	0017071b          	addw	a4,a4,1
    8000262c:	014686b3          	add	a3,a3,s4
    80002630:	01493423          	sd	s4,8(s2)
    80002634:	0ed13823          	sd	a3,240(sp)
    80002638:	0ee12423          	sw	a4,232(sp)
    8000263c:	0007069b          	sext.w	a3,a4
    80002640:	00700713          	li	a4,7
    80002644:	01090913          	add	s2,s2,16
    80002648:	3ad74c63          	blt	a4,a3,80002a00 <_vfprintf_r+0x518>
    8000264c:	01013783          	ld	a5,16(sp)
    80002650:	000ac703          	lbu	a4,0(s5)
    80002654:	014787bb          	addw	a5,a5,s4
    80002658:	00f13823          	sd	a5,16(sp)
    8000265c:	1e070863          	beqz	a4,8000284c <_vfprintf_r+0x364>
    80002660:	001ac303          	lbu	t1,1(s5)
    80002664:	0a0107a3          	sb	zero,175(sp)
    80002668:	001a8a93          	add	s5,s5,1
    8000266c:	fff00b13          	li	s6,-1
    80002670:	00000c13          	li	s8,0
    80002674:	00000d13          	li	s10,0
    80002678:	05a00a13          	li	s4,90
    8000267c:	001a8a93          	add	s5,s5,1
    80002680:	0003031b          	sext.w	t1,t1
    80002684:	fe03079b          	addw	a5,t1,-32
    80002688:	0007871b          	sext.w	a4,a5
    8000268c:	06ea6063          	bltu	s4,a4,800026ec <_vfprintf_r+0x204>
    80002690:	02079713          	sll	a4,a5,0x20
    80002694:	01e75793          	srl	a5,a4,0x1e
    80002698:	0000c717          	auipc	a4,0xc
    8000269c:	78470713          	add	a4,a4,1924 # 8000ee1c <indexTable+0x27c>
    800026a0:	00e787b3          	add	a5,a5,a4
    800026a4:	0007a783          	lw	a5,0(a5)
    800026a8:	00e787b3          	add	a5,a5,a4
    800026ac:	00078067          	jr	a5
    800026b0:	00000c13          	li	s8,0
    800026b4:	00900693          	li	a3,9
    800026b8:	000ac703          	lbu	a4,0(s5)
    800026bc:	002c179b          	sllw	a5,s8,0x2
    800026c0:	01878c3b          	addw	s8,a5,s8
    800026c4:	fd03031b          	addw	t1,t1,-48
    800026c8:	001c1c1b          	sllw	s8,s8,0x1
    800026cc:	fd07079b          	addw	a5,a4,-48
    800026d0:	01830c3b          	addw	s8,t1,s8
    800026d4:	001a8a93          	add	s5,s5,1
    800026d8:	0007031b          	sext.w	t1,a4
    800026dc:	fcf6fee3          	bgeu	a3,a5,800026b8 <_vfprintf_r+0x1d0>
    800026e0:	fe03079b          	addw	a5,t1,-32
    800026e4:	0007871b          	sext.w	a4,a5
    800026e8:	faea74e3          	bgeu	s4,a4,80002690 <_vfprintf_r+0x1a8>
    800026ec:	16030063          	beqz	t1,8000284c <_vfprintf_r+0x364>
    800026f0:	0e610c23          	sb	t1,248(sp)
    800026f4:	0a0107a3          	sb	zero,175(sp)
    800026f8:	00100b93          	li	s7,1
    800026fc:	00100693          	li	a3,1
    80002700:	0f810d93          	add	s11,sp,248
    80002704:	00013c23          	sd	zero,24(sp)
    80002708:	00000b13          	li	s6,0
    8000270c:	04013023          	sd	zero,64(sp)
    80002710:	02013c23          	sd	zero,56(sp)
    80002714:	02013423          	sd	zero,40(sp)
    80002718:	002d7293          	and	t0,s10,2
    8000271c:	00028463          	beqz	t0,80002724 <_vfprintf_r+0x23c>
    80002720:	002b8b9b          	addw	s7,s7,2
    80002724:	084d7f93          	and	t6,s10,132
    80002728:	0f013a03          	ld	s4,240(sp)
    8000272c:	000f9863          	bnez	t6,8000273c <_vfprintf_r+0x254>
    80002730:	417c073b          	subw	a4,s8,s7
    80002734:	00e05463          	blez	a4,8000273c <_vfprintf_r+0x254>
    80002738:	7a10006f          	j	800036d8 <_vfprintf_r+0x11f0>
    8000273c:	0af14703          	lbu	a4,175(sp)
    80002740:	02070c63          	beqz	a4,80002778 <_vfprintf_r+0x290>
    80002744:	0e812703          	lw	a4,232(sp)
    80002748:	0af10613          	add	a2,sp,175
    8000274c:	00c93023          	sd	a2,0(s2)
    80002750:	0017071b          	addw	a4,a4,1
    80002754:	00100613          	li	a2,1
    80002758:	001a0a13          	add	s4,s4,1
    8000275c:	00c93423          	sd	a2,8(s2)
    80002760:	0ee12423          	sw	a4,232(sp)
    80002764:	0007061b          	sext.w	a2,a4
    80002768:	0f413823          	sd	s4,240(sp)
    8000276c:	00700713          	li	a4,7
    80002770:	01090913          	add	s2,s2,16
    80002774:	6ec74663          	blt	a4,a2,80002e60 <_vfprintf_r+0x978>
    80002778:	02028e63          	beqz	t0,800027b4 <_vfprintf_r+0x2cc>
    8000277c:	0e812703          	lw	a4,232(sp)
    80002780:	00200613          	li	a2,2
    80002784:	002a0a13          	add	s4,s4,2
    80002788:	0017071b          	addw	a4,a4,1
    8000278c:	0b010793          	add	a5,sp,176
    80002790:	00c93423          	sd	a2,8(s2)
    80002794:	00f93023          	sd	a5,0(s2)
    80002798:	0007061b          	sext.w	a2,a4
    8000279c:	0ee12423          	sw	a4,232(sp)
    800027a0:	0f413823          	sd	s4,240(sp)
    800027a4:	00700713          	li	a4,7
    800027a8:	01090913          	add	s2,s2,16
    800027ac:	00c75463          	bge	a4,a2,800027b4 <_vfprintf_r+0x2cc>
    800027b0:	0580106f          	j	80003808 <_vfprintf_r+0x1320>
    800027b4:	08000713          	li	a4,128
    800027b8:	4cef84e3          	beq	t6,a4,80003480 <_vfprintf_r+0xf98>
    800027bc:	40db0b3b          	subw	s6,s6,a3
    800027c0:	5d6046e3          	bgtz	s6,8000358c <_vfprintf_r+0x10a4>
    800027c4:	100d7713          	and	a4,s10,256
    800027c8:	340718e3          	bnez	a4,80003318 <_vfprintf_r+0xe30>
    800027cc:	0e812703          	lw	a4,232(sp)
    800027d0:	00da0a33          	add	s4,s4,a3
    800027d4:	01b93023          	sd	s11,0(s2)
    800027d8:	0017071b          	addw	a4,a4,1
    800027dc:	00d93423          	sd	a3,8(s2)
    800027e0:	0f413823          	sd	s4,240(sp)
    800027e4:	0ee12423          	sw	a4,232(sp)
    800027e8:	00700793          	li	a5,7
    800027ec:	78e7cc63          	blt	a5,a4,80002f84 <_vfprintf_r+0xa9c>
    800027f0:	01090913          	add	s2,s2,16
    800027f4:	004d7e13          	and	t3,s10,4
    800027f8:	000e0863          	beqz	t3,80002808 <_vfprintf_r+0x320>
    800027fc:	417c0b3b          	subw	s6,s8,s7
    80002800:	01605463          	blez	s6,80002808 <_vfprintf_r+0x320>
    80002804:	03c0106f          	j	80003840 <_vfprintf_r+0x1358>
    80002808:	000c0793          	mv	a5,s8
    8000280c:	017c5463          	bge	s8,s7,80002814 <_vfprintf_r+0x32c>
    80002810:	000b8793          	mv	a5,s7
    80002814:	01013703          	ld	a4,16(sp)
    80002818:	00e787bb          	addw	a5,a5,a4
    8000281c:	00f13823          	sd	a5,16(sp)
    80002820:	660a12e3          	bnez	s4,80003684 <_vfprintf_r+0x119c>
    80002824:	01813783          	ld	a5,24(sp)
    80002828:	0e012423          	sw	zero,232(sp)
    8000282c:	00078863          	beqz	a5,8000283c <_vfprintf_r+0x354>
    80002830:	01813583          	ld	a1,24(sp)
    80002834:	00813503          	ld	a0,8(sp)
    80002838:	968ff0ef          	jal	800019a0 <_free_r>
    8000283c:	00098913          	mv	s2,s3
    80002840:	000a8d93          	mv	s11,s5
    80002844:	000dc703          	lbu	a4,0(s11)
    80002848:	da071ae3          	bnez	a4,800025fc <_vfprintf_r+0x114>
    8000284c:	0f013783          	ld	a5,240(sp)
    80002850:	00078463          	beqz	a5,80002858 <_vfprintf_r+0x370>
    80002854:	4d90106f          	j	8000452c <_vfprintf_r+0x2044>
    80002858:	0104d783          	lhu	a5,16(s1)
    8000285c:	23013903          	ld	s2,560(sp)
    80002860:	22813983          	ld	s3,552(sp)
    80002864:	0407f793          	and	a5,a5,64
    80002868:	22013a03          	ld	s4,544(sp)
    8000286c:	21813a83          	ld	s5,536(sp)
    80002870:	21013b03          	ld	s6,528(sp)
    80002874:	20013c03          	ld	s8,512(sp)
    80002878:	1f813c83          	ld	s9,504(sp)
    8000287c:	1f013d03          	ld	s10,496(sp)
    80002880:	1e813d83          	ld	s11,488(sp)
    80002884:	00078463          	beqz	a5,8000288c <_vfprintf_r+0x3a4>
    80002888:	7750106f          	j	800047fc <_vfprintf_r+0x2314>
    8000288c:	24813083          	ld	ra,584(sp)
    80002890:	24013403          	ld	s0,576(sp)
    80002894:	01013503          	ld	a0,16(sp)
    80002898:	23813483          	ld	s1,568(sp)
    8000289c:	20813b83          	ld	s7,520(sp)
    800028a0:	25010113          	add	sp,sp,592
    800028a4:	00008067          	ret
    800028a8:	010d6d13          	or	s10,s10,16
    800028ac:	000ac303          	lbu	t1,0(s5)
    800028b0:	000d0d1b          	sext.w	s10,s10
    800028b4:	dc9ff06f          	j	8000267c <_vfprintf_r+0x194>
    800028b8:	00813503          	ld	a0,8(sp)
    800028bc:	00048593          	mv	a1,s1
    800028c0:	6bd020ef          	jal	8000577c <__swsetup_r>
    800028c4:	00050463          	beqz	a0,800028cc <_vfprintf_r+0x3e4>
    800028c8:	7350106f          	j	800047fc <_vfprintf_r+0x2314>
    800028cc:	01049703          	lh	a4,16(s1)
    800028d0:	00a00693          	li	a3,10
    800028d4:	01a77713          	and	a4,a4,26
    800028d8:	ccd710e3          	bne	a4,a3,80002598 <_vfprintf_r+0xb0>
    800028dc:	01249703          	lh	a4,18(s1)
    800028e0:	ca074ce3          	bltz	a4,80002598 <_vfprintf_r+0xb0>
    800028e4:	02013683          	ld	a3,32(sp)
    800028e8:	00813503          	ld	a0,8(sp)
    800028ec:	000b8613          	mv	a2,s7
    800028f0:	00048593          	mv	a1,s1
    800028f4:	3ac020ef          	jal	80004ca0 <__sbprintf>
    800028f8:	00a13823          	sd	a0,16(sp)
    800028fc:	f91ff06f          	j	8000288c <_vfprintf_r+0x3a4>
    80002900:	010d6e13          	or	t3,s10,16
    80002904:	000e0d1b          	sext.w	s10,t3
    80002908:	02013683          	ld	a3,32(sp)
    8000290c:	020d7793          	and	a5,s10,32
    80002910:	00868713          	add	a4,a3,8
    80002914:	6a078c63          	beqz	a5,80002fcc <_vfprintf_r+0xae4>
    80002918:	0006b783          	ld	a5,0(a3)
    8000291c:	00078a13          	mv	s4,a5
    80002920:	6c07cc63          	bltz	a5,80002ff8 <_vfprintf_r+0xb10>
    80002924:	000b5463          	bgez	s6,8000292c <_vfprintf_r+0x444>
    80002928:	2e00106f          	j	80003c08 <_vfprintf_r+0x1720>
    8000292c:	f7fd7b93          	and	s7,s10,-129
    80002930:	000b8b9b          	sext.w	s7,s7
    80002934:	000a0463          	beqz	s4,8000293c <_vfprintf_r+0x454>
    80002938:	6b80106f          	j	80003ff0 <_vfprintf_r+0x1b08>
    8000293c:	000b0463          	beqz	s6,80002944 <_vfprintf_r+0x45c>
    80002940:	1440206f          	j	80004a84 <_vfprintf_r+0x259c>
    80002944:	00000693          	li	a3,0
    80002948:	02e13023          	sd	a4,32(sp)
    8000294c:	000b8d13          	mv	s10,s7
    80002950:	15c10d93          	add	s11,sp,348
    80002954:	0af14703          	lbu	a4,175(sp)
    80002958:	000b0813          	mv	a6,s6
    8000295c:	00db5463          	bge	s6,a3,80002964 <_vfprintf_r+0x47c>
    80002960:	00068813          	mv	a6,a3
    80002964:	00013c23          	sd	zero,24(sp)
    80002968:	04013023          	sd	zero,64(sp)
    8000296c:	02013c23          	sd	zero,56(sp)
    80002970:	02013423          	sd	zero,40(sp)
    80002974:	00080b9b          	sext.w	s7,a6
    80002978:	da0700e3          	beqz	a4,80002718 <_vfprintf_r+0x230>
    8000297c:	001b8b9b          	addw	s7,s7,1
    80002980:	d99ff06f          	j	80002718 <_vfprintf_r+0x230>
    80002984:	010d6e13          	or	t3,s10,16
    80002988:	000e0d1b          	sext.w	s10,t3
    8000298c:	02013683          	ld	a3,32(sp)
    80002990:	020d7793          	and	a5,s10,32
    80002994:	00868713          	add	a4,a3,8
    80002998:	60078663          	beqz	a5,80002fa4 <_vfprintf_r+0xabc>
    8000299c:	0006ba03          	ld	s4,0(a3)
    800029a0:	bffd7b93          	and	s7,s10,-1025
    800029a4:	000b8b9b          	sext.w	s7,s7
    800029a8:	02e13023          	sd	a4,32(sp)
    800029ac:	00000793          	li	a5,0
    800029b0:	00000713          	li	a4,0
    800029b4:	0ae107a3          	sb	a4,175(sp)
    800029b8:	640b4e63          	bltz	s6,80003014 <_vfprintf_r+0xb2c>
    800029bc:	f7fbfe13          	and	t3,s7,-129
    800029c0:	000e0d1b          	sext.w	s10,t3
    800029c4:	4e0a14e3          	bnez	s4,800036ac <_vfprintf_r+0x11c4>
    800029c8:	260b16e3          	bnez	s6,80003434 <_vfprintf_r+0xf4c>
    800029cc:	00078463          	beqz	a5,800029d4 <_vfprintf_r+0x4ec>
    800029d0:	19c0106f          	j	80003b6c <_vfprintf_r+0x1684>
    800029d4:	001bf693          	and	a3,s7,1
    800029d8:	15c10d93          	add	s11,sp,348
    800029dc:	f6068ce3          	beqz	a3,80002954 <_vfprintf_r+0x46c>
    800029e0:	03000793          	li	a5,48
    800029e4:	14f10da3          	sb	a5,347(sp)
    800029e8:	15b10d93          	add	s11,sp,347
    800029ec:	f69ff06f          	j	80002954 <_vfprintf_r+0x46c>
    800029f0:	41ba8a3b          	subw	s4,s5,s11
    800029f4:	c20a14e3          	bnez	s4,8000261c <_vfprintf_r+0x134>
    800029f8:	000ac703          	lbu	a4,0(s5)
    800029fc:	c61ff06f          	j	8000265c <_vfprintf_r+0x174>
    80002a00:	00813503          	ld	a0,8(sp)
    80002a04:	0e010613          	add	a2,sp,224
    80002a08:	00048593          	mv	a1,s1
    80002a0c:	360020ef          	jal	80004d6c <__sprint_r>
    80002a10:	e40514e3          	bnez	a0,80002858 <_vfprintf_r+0x370>
    80002a14:	00098913          	mv	s2,s3
    80002a18:	c35ff06f          	j	8000264c <_vfprintf_r+0x164>
    80002a1c:	008d7713          	and	a4,s10,8
    80002a20:	00070463          	beqz	a4,80002a28 <_vfprintf_r+0x540>
    80002a24:	1b40106f          	j	80003bd8 <_vfprintf_r+0x16f0>
    80002a28:	02013783          	ld	a5,32(sp)
    80002a2c:	00613c23          	sd	t1,24(sp)
    80002a30:	0007b503          	ld	a0,0(a5)
    80002a34:	00878c93          	add	s9,a5,8
    80002a38:	5440b0ef          	jal	8000df7c <__extenddftf2>
    80002a3c:	01813303          	ld	t1,24(sp)
    80002a40:	00050713          	mv	a4,a0
    80002a44:	03913023          	sd	s9,32(sp)
    80002a48:	0d010513          	add	a0,sp,208
    80002a4c:	00613c23          	sd	t1,24(sp)
    80002a50:	0ce13823          	sd	a4,208(sp)
    80002a54:	0cb13c23          	sd	a1,216(sp)
    80002a58:	7bc030ef          	jal	80006214 <_ldcheck>
    80002a5c:	0aa12c23          	sw	a0,184(sp)
    80002a60:	00200713          	li	a4,2
    80002a64:	01813303          	ld	t1,24(sp)
    80002a68:	00e51463          	bne	a0,a4,80002a70 <_vfprintf_r+0x588>
    80002a6c:	58c0106f          	j	80003ff8 <_vfprintf_r+0x1b10>
    80002a70:	00100713          	li	a4,1
    80002a74:	00e51463          	bne	a0,a4,80002a7c <_vfprintf_r+0x594>
    80002a78:	71c0106f          	j	80004194 <_vfprintf_r+0x1cac>
    80002a7c:	06100713          	li	a4,97
    80002a80:	00e31463          	bne	t1,a4,80002a88 <_vfprintf_r+0x5a0>
    80002a84:	3c00106f          	j	80003e44 <_vfprintf_r+0x195c>
    80002a88:	04100713          	li	a4,65
    80002a8c:	05800793          	li	a5,88
    80002a90:	00e31463          	bne	t1,a4,80002a98 <_vfprintf_r+0x5b0>
    80002a94:	3b40106f          	j	80003e48 <_vfprintf_r+0x1960>
    80002a98:	fff00713          	li	a4,-1
    80002a9c:	00eb1463          	bne	s6,a4,80002aa4 <_vfprintf_r+0x5bc>
    80002aa0:	7b10106f          	j	80004a50 <_vfprintf_r+0x2568>
    80002aa4:	fdf37713          	and	a4,t1,-33
    80002aa8:	04700693          	li	a3,71
    80002aac:	00013c23          	sd	zero,24(sp)
    80002ab0:	00d71463          	bne	a4,a3,80002ab8 <_vfprintf_r+0x5d0>
    80002ab4:	7b10106f          	j	80004a64 <_vfprintf_r+0x257c>
    80002ab8:	0d013783          	ld	a5,208(sp)
    80002abc:	0d813e83          	ld	t4,216(sp)
    80002ac0:	100d6713          	or	a4,s10,256
    80002ac4:	02f13423          	sd	a5,40(sp)
    80002ac8:	06013023          	sd	zero,96(sp)
    80002acc:	00070a1b          	sext.w	s4,a4
    80002ad0:	000ed463          	bgez	t4,80002ad8 <_vfprintf_r+0x5f0>
    80002ad4:	4b90106f          	j	8000478c <_vfprintf_r+0x22a4>
    80002ad8:	fbf3069b          	addw	a3,t1,-65
    80002adc:	02500713          	li	a4,37
    80002ae0:	00d77463          	bgeu	a4,a3,80002ae8 <_vfprintf_r+0x600>
    80002ae4:	5510106f          	j	80004834 <_vfprintf_r+0x234c>
    80002ae8:	00100713          	li	a4,1
    80002aec:	00100b93          	li	s7,1
    80002af0:	02571713          	sll	a4,a4,0x25
    80002af4:	00db96b3          	sll	a3,s7,a3
    80002af8:	02070713          	add	a4,a4,32
    80002afc:	00e6f733          	and	a4,a3,a4
    80002b00:	00070463          	beqz	a4,80002b08 <_vfprintf_r+0x620>
    80002b04:	3510106f          	j	80004654 <_vfprintf_r+0x216c>
    80002b08:	00100713          	li	a4,1
    80002b0c:	02471713          	sll	a4,a4,0x24
    80002b10:	01070713          	add	a4,a4,16
    80002b14:	00e6f733          	and	a4,a3,a4
    80002b18:	00070463          	beqz	a4,80002b20 <_vfprintf_r+0x638>
    80002b1c:	6f90106f          	j	80004a14 <_vfprintf_r+0x252c>
    80002b20:	00100713          	li	a4,1
    80002b24:	02071713          	sll	a4,a4,0x20
    80002b28:	00170713          	add	a4,a4,1
    80002b2c:	00e6f6b3          	and	a3,a3,a4
    80002b30:	00069463          	bnez	a3,80002b38 <_vfprintf_r+0x650>
    80002b34:	2750106f          	j	800045a8 <_vfprintf_r+0x20c0>
    80002b38:	02813503          	ld	a0,40(sp)
    80002b3c:	000e8593          	mv	a1,t4
    80002b40:	0b810613          	add	a2,sp,184
    80002b44:	02613823          	sd	t1,48(sp)
    80002b48:	2b4030ef          	jal	80005dfc <frexpl>
    80002b4c:	0000c717          	auipc	a4,0xc
    80002b50:	46470713          	add	a4,a4,1124 # 8000efb0 <blanks.1+0x18>
    80002b54:	00073603          	ld	a2,0(a4)
    80002b58:	00873683          	ld	a3,8(a4)
    80002b5c:	4600a0ef          	jal	8000cfbc <__multf3>
    80002b60:	00000613          	li	a2,0
    80002b64:	00000693          	li	a3,0
    80002b68:	00050c93          	mv	s9,a0
    80002b6c:	00058a13          	mv	s4,a1
    80002b70:	2180a0ef          	jal	8000cd88 <__eqtf2>
    80002b74:	03013303          	ld	t1,48(sp)
    80002b78:	00051463          	bnez	a0,80002b80 <_vfprintf_r+0x698>
    80002b7c:	0b712c23          	sw	s7,184(sp)
    80002b80:	0000c797          	auipc	a5,0xc
    80002b84:	d5078793          	add	a5,a5,-688 # 8000e8d0 <__tbss_end+0x818>
    80002b88:	06100713          	li	a4,97
    80002b8c:	02f13c23          	sd	a5,56(sp)
    80002b90:	00e31863          	bne	t1,a4,80002ba0 <_vfprintf_r+0x6b8>
    80002b94:	0000c797          	auipc	a5,0xc
    80002b98:	d2478793          	add	a5,a5,-732 # 8000e8b8 <__tbss_end+0x800>
    80002b9c:	02f13c23          	sd	a5,56(sp)
    80002ba0:	0000c697          	auipc	a3,0xc
    80002ba4:	42068693          	add	a3,a3,1056 # 8000efc0 <blanks.1+0x28>
    80002ba8:	0006b783          	ld	a5,0(a3)
    80002bac:	020b1713          	sll	a4,s6,0x20
    80002bb0:	02075713          	srl	a4,a4,0x20
    80002bb4:	02f13423          	sd	a5,40(sp)
    80002bb8:	0086b783          	ld	a5,8(a3)
    80002bbc:	00170713          	add	a4,a4,1
    80002bc0:	000b069b          	sext.w	a3,s6
    80002bc4:	02f13823          	sd	a5,48(sp)
    80002bc8:	00ed87b3          	add	a5,s11,a4
    80002bcc:	05513023          	sd	s5,64(sp)
    80002bd0:	09213423          	sd	s2,136(sp)
    80002bd4:	00048b93          	mv	s7,s1
    80002bd8:	03813a83          	ld	s5,56(sp)
    80002bdc:	08d13823          	sd	a3,144(sp)
    80002be0:	06613423          	sd	t1,104(sp)
    80002be4:	000d8913          	mv	s2,s11
    80002be8:	00078493          	mv	s1,a5
    80002bec:	0180006f          	j	80002c04 <_vfprintf_r+0x71c>
    80002bf0:	00000613          	li	a2,0
    80002bf4:	00000693          	li	a3,0
    80002bf8:	1900a0ef          	jal	8000cd88 <__eqtf2>
    80002bfc:	00051463          	bnez	a0,80002c04 <_vfprintf_r+0x71c>
    80002c00:	76d0106f          	j	80004b6c <_vfprintf_r+0x2684>
    80002c04:	02813603          	ld	a2,40(sp)
    80002c08:	03013683          	ld	a3,48(sp)
    80002c0c:	000c8513          	mv	a0,s9
    80002c10:	000a0593          	mv	a1,s4
    80002c14:	3a80a0ef          	jal	8000cfbc <__multf3>
    80002c18:	00058a13          	mv	s4,a1
    80002c1c:	00050c93          	mv	s9,a0
    80002c20:	2680b0ef          	jal	8000de88 <__fixtfsi>
    80002c24:	00050b1b          	sext.w	s6,a0
    80002c28:	2cc0b0ef          	jal	8000def4 <__floatsitf>
    80002c2c:	00058693          	mv	a3,a1
    80002c30:	00050613          	mv	a2,a0
    80002c34:	000a0593          	mv	a1,s4
    80002c38:	000c8513          	mv	a0,s9
    80002c3c:	2210a0ef          	jal	8000d65c <__subtf3>
    80002c40:	016a86b3          	add	a3,s5,s6
    80002c44:	0006c683          	lbu	a3,0(a3)
    80002c48:	00090893          	mv	a7,s2
    80002c4c:	00190913          	add	s2,s2,1
    80002c50:	fed90fa3          	sb	a3,-1(s2)
    80002c54:	00050c93          	mv	s9,a0
    80002c58:	00058a13          	mv	s4,a1
    80002c5c:	f9249ae3          	bne	s1,s2,80002bf0 <_vfprintf_r+0x708>
    80002c60:	0000c697          	auipc	a3,0xc
    80002c64:	37068693          	add	a3,a3,880 # 8000efd0 <blanks.1+0x38>
    80002c68:	06813303          	ld	t1,104(sp)
    80002c6c:	0006b603          	ld	a2,0(a3)
    80002c70:	0086b683          	ld	a3,8(a3)
    80002c74:	02613823          	sd	t1,48(sp)
    80002c78:	03113423          	sd	a7,40(sp)
    80002c7c:	04013a83          	ld	s5,64(sp)
    80002c80:	06c13423          	sd	a2,104(sp)
    80002c84:	04d13023          	sd	a3,64(sp)
    80002c88:	18c0a0ef          	jal	8000ce14 <__getf2>
    80002c8c:	000b8493          	mv	s1,s7
    80002c90:	02813883          	ld	a7,40(sp)
    80002c94:	00090b93          	mv	s7,s2
    80002c98:	03013303          	ld	t1,48(sp)
    80002c9c:	08813903          	ld	s2,136(sp)
    80002ca0:	02a04a63          	bgtz	a0,80002cd4 <_vfprintf_r+0x7ec>
    80002ca4:	06813603          	ld	a2,104(sp)
    80002ca8:	04013683          	ld	a3,64(sp)
    80002cac:	000c8513          	mv	a0,s9
    80002cb0:	000a0593          	mv	a1,s4
    80002cb4:	02613423          	sd	t1,40(sp)
    80002cb8:	03113823          	sd	a7,48(sp)
    80002cbc:	0cc0a0ef          	jal	8000cd88 <__eqtf2>
    80002cc0:	02813303          	ld	t1,40(sp)
    80002cc4:	04051e63          	bnez	a0,80002d20 <_vfprintf_r+0x838>
    80002cc8:	001b7b13          	and	s6,s6,1
    80002ccc:	03013883          	ld	a7,48(sp)
    80002cd0:	040b0863          	beqz	s6,80002d20 <_vfprintf_r+0x838>
    80002cd4:	03813783          	ld	a5,56(sp)
    80002cd8:	0d113423          	sd	a7,200(sp)
    80002cdc:	fffbc603          	lbu	a2,-1(s7)
    80002ce0:	00f7c583          	lbu	a1,15(a5)
    80002ce4:	000b8693          	mv	a3,s7
    80002ce8:	02c59063          	bne	a1,a2,80002d08 <_vfprintf_r+0x820>
    80002cec:	03000513          	li	a0,48
    80002cf0:	fea68fa3          	sb	a0,-1(a3)
    80002cf4:	0c813683          	ld	a3,200(sp)
    80002cf8:	fff68793          	add	a5,a3,-1
    80002cfc:	0cf13423          	sd	a5,200(sp)
    80002d00:	fff6c603          	lbu	a2,-1(a3)
    80002d04:	fec586e3          	beq	a1,a2,80002cf0 <_vfprintf_r+0x808>
    80002d08:	0016059b          	addw	a1,a2,1
    80002d0c:	03900513          	li	a0,57
    80002d10:	0ff5f593          	zext.b	a1,a1
    80002d14:	00a61463          	bne	a2,a0,80002d1c <_vfprintf_r+0x834>
    80002d18:	1190106f          	j	80004630 <_vfprintf_r+0x2148>
    80002d1c:	feb68fa3          	sb	a1,-1(a3)
    80002d20:	000b8693          	mv	a3,s7
    80002d24:	0b812783          	lw	a5,184(sp)
    80002d28:	41b6873b          	subw	a4,a3,s11
    80002d2c:	02e13823          	sd	a4,48(sp)
    80002d30:	fff7871b          	addw	a4,a5,-1
    80002d34:	02f13423          	sd	a5,40(sp)
    80002d38:	06100613          	li	a2,97
    80002d3c:	0ae12c23          	sw	a4,184(sp)
    80002d40:	00c31463          	bne	t1,a2,80002d48 <_vfprintf_r+0x860>
    80002d44:	6a10106f          	j	80004be4 <_vfprintf_r+0x26fc>
    80002d48:	04100613          	li	a2,65
    80002d4c:	05000693          	li	a3,80
    80002d50:	00c30463          	beq	t1,a2,80002d58 <_vfprintf_r+0x870>
    80002d54:	0d10106f          	j	80004624 <_vfprintf_r+0x213c>
    80002d58:	00100613          	li	a2,1
    80002d5c:	0cd10023          	sb	a3,192(sp)
    80002d60:	02b00693          	li	a3,43
    80002d64:	00075a63          	bgez	a4,80002d78 <_vfprintf_r+0x890>
    80002d68:	02813783          	ld	a5,40(sp)
    80002d6c:	00100713          	li	a4,1
    80002d70:	02d00693          	li	a3,45
    80002d74:	40f7073b          	subw	a4,a4,a5
    80002d78:	0cd100a3          	sb	a3,193(sp)
    80002d7c:	00900693          	li	a3,9
    80002d80:	00e6c463          	blt	a3,a4,80002d88 <_vfprintf_r+0x8a0>
    80002d84:	49d0106f          	j	80004a20 <_vfprintf_r+0x2538>
    80002d88:	0cf10893          	add	a7,sp,207
    80002d8c:	00088513          	mv	a0,a7
    80002d90:	00a00813          	li	a6,10
    80002d94:	06300f13          	li	t5,99
    80002d98:	030767bb          	remw	a5,a4,a6
    80002d9c:	00050693          	mv	a3,a0
    80002da0:	00070613          	mv	a2,a4
    80002da4:	fff50513          	add	a0,a0,-1
    80002da8:	0307879b          	addw	a5,a5,48
    80002dac:	fef68fa3          	sb	a5,-1(a3)
    80002db0:	0307473b          	divw	a4,a4,a6
    80002db4:	fecf42e3          	blt	t5,a2,80002d98 <_vfprintf_r+0x8b0>
    80002db8:	0307059b          	addw	a1,a4,48
    80002dbc:	feb50fa3          	sb	a1,-1(a0)
    80002dc0:	ffe68713          	add	a4,a3,-2
    80002dc4:	01176463          	bltu	a4,a7,80002dcc <_vfprintf_r+0x8e4>
    80002dc8:	6250106f          	j	80004bec <_vfprintf_r+0x2704>
    80002dcc:	0c210613          	add	a2,sp,194
    80002dd0:	00074783          	lbu	a5,0(a4)
    80002dd4:	00170713          	add	a4,a4,1
    80002dd8:	00160613          	add	a2,a2,1
    80002ddc:	fef60fa3          	sb	a5,-1(a2)
    80002de0:	ff1718e3          	bne	a4,a7,80002dd0 <_vfprintf_r+0x8e8>
    80002de4:	1e010793          	add	a5,sp,480
    80002de8:	40d786b3          	sub	a3,a5,a3
    80002dec:	ef36879b          	addw	a5,a3,-269
    80002df0:	06f13423          	sd	a5,104(sp)
    80002df4:	06813703          	ld	a4,104(sp)
    80002df8:	03013783          	ld	a5,48(sp)
    80002dfc:	00100613          	li	a2,1
    80002e00:	00e786bb          	addw	a3,a5,a4
    80002e04:	00068713          	mv	a4,a3
    80002e08:	00f64463          	blt	a2,a5,80002e10 <_vfprintf_r+0x928>
    80002e0c:	4690106f          	j	80004a74 <_vfprintf_r+0x258c>
    80002e10:	04813783          	ld	a5,72(sp)
    80002e14:	00f706bb          	addw	a3,a4,a5
    80002e18:	fff6c813          	not	a6,a3
    80002e1c:	bffd7e13          	and	t3,s10,-1025
    80002e20:	43f85813          	sra	a6,a6,0x3f
    80002e24:	000e0e1b          	sext.w	t3,t3
    80002e28:	0106f833          	and	a6,a3,a6
    80002e2c:	100e6d13          	or	s10,t3,256
    80002e30:	00080b9b          	sext.w	s7,a6
    80002e34:	04013023          	sd	zero,64(sp)
    80002e38:	02013c23          	sd	zero,56(sp)
    80002e3c:	02013423          	sd	zero,40(sp)
    80002e40:	06013783          	ld	a5,96(sp)
    80002e44:	00079463          	bnez	a5,80002e4c <_vfprintf_r+0x964>
    80002e48:	7f80106f          	j	80004640 <_vfprintf_r+0x2158>
    80002e4c:	02d00713          	li	a4,45
    80002e50:	0ae107a3          	sb	a4,175(sp)
    80002e54:	00000b13          	li	s6,0
    80002e58:	001b8b9b          	addw	s7,s7,1
    80002e5c:	8bdff06f          	j	80002718 <_vfprintf_r+0x230>
    80002e60:	00813503          	ld	a0,8(sp)
    80002e64:	0e010613          	add	a2,sp,224
    80002e68:	00048593          	mv	a1,s1
    80002e6c:	08d13c23          	sd	a3,152(sp)
    80002e70:	08613823          	sd	t1,144(sp)
    80002e74:	09f13423          	sd	t6,136(sp)
    80002e78:	06513023          	sd	t0,96(sp)
    80002e7c:	6f1010ef          	jal	80004d6c <__sprint_r>
    80002e80:	00051ce3          	bnez	a0,80003698 <_vfprintf_r+0x11b0>
    80002e84:	0f013a03          	ld	s4,240(sp)
    80002e88:	09813683          	ld	a3,152(sp)
    80002e8c:	09013303          	ld	t1,144(sp)
    80002e90:	08813f83          	ld	t6,136(sp)
    80002e94:	06013283          	ld	t0,96(sp)
    80002e98:	00098913          	mv	s2,s3
    80002e9c:	8ddff06f          	j	80002778 <_vfprintf_r+0x290>
    80002ea0:	0e812683          	lw	a3,232(sp)
    80002ea4:	03013783          	ld	a5,48(sp)
    80002ea8:	00100613          	li	a2,1
    80002eac:	00168b1b          	addw	s6,a3,1
    80002eb0:	01b93023          	sd	s11,0(s2)
    80002eb4:	001a0a13          	add	s4,s4,1
    80002eb8:	000b0693          	mv	a3,s6
    80002ebc:	01090c93          	add	s9,s2,16
    80002ec0:	3af65ae3          	bge	a2,a5,80003a74 <_vfprintf_r+0x158c>
    80002ec4:	00100613          	li	a2,1
    80002ec8:	0ed12423          	sw	a3,232(sp)
    80002ecc:	00c93423          	sd	a2,8(s2)
    80002ed0:	0f413823          	sd	s4,240(sp)
    80002ed4:	00700693          	li	a3,7
    80002ed8:	0166d463          	bge	a3,s6,80002ee0 <_vfprintf_r+0x9f8>
    80002edc:	7cd0006f          	j	80003ea8 <_vfprintf_r+0x19c0>
    80002ee0:	04813783          	ld	a5,72(sp)
    80002ee4:	05013703          	ld	a4,80(sp)
    80002ee8:	001b0b1b          	addw	s6,s6,1
    80002eec:	00fa0a33          	add	s4,s4,a5
    80002ef0:	00ecb023          	sd	a4,0(s9)
    80002ef4:	00fcb423          	sd	a5,8(s9)
    80002ef8:	0f413823          	sd	s4,240(sp)
    80002efc:	0f612423          	sw	s6,232(sp)
    80002f00:	00700693          	li	a3,7
    80002f04:	010c8c93          	add	s9,s9,16
    80002f08:	0166d463          	bge	a3,s6,80002f10 <_vfprintf_r+0xa28>
    80002f0c:	7c10006f          	j	80003ecc <_vfprintf_r+0x19e4>
    80002f10:	03013783          	ld	a5,48(sp)
    80002f14:	0d013503          	ld	a0,208(sp)
    80002f18:	0d813583          	ld	a1,216(sp)
    80002f1c:	00000613          	li	a2,0
    80002f20:	00000693          	li	a3,0
    80002f24:	fff7891b          	addw	s2,a5,-1
    80002f28:	661090ef          	jal	8000cd88 <__eqtf2>
    80002f2c:	380504e3          	beqz	a0,80003ab4 <_vfprintf_r+0x15cc>
    80002f30:	001d8793          	add	a5,s11,1
    80002f34:	001b0b1b          	addw	s6,s6,1
    80002f38:	012a0a33          	add	s4,s4,s2
    80002f3c:	00fcb023          	sd	a5,0(s9)
    80002f40:	012cb423          	sd	s2,8(s9)
    80002f44:	0f413823          	sd	s4,240(sp)
    80002f48:	0f612423          	sw	s6,232(sp)
    80002f4c:	00700793          	li	a5,7
    80002f50:	3567c0e3          	blt	a5,s6,80003a90 <_vfprintf_r+0x15a8>
    80002f54:	010c8c93          	add	s9,s9,16
    80002f58:	06813703          	ld	a4,104(sp)
    80002f5c:	0c010793          	add	a5,sp,192
    80002f60:	001b069b          	addw	a3,s6,1
    80002f64:	01470a33          	add	s4,a4,s4
    80002f68:	00fcb023          	sd	a5,0(s9)
    80002f6c:	00ecb423          	sd	a4,8(s9)
    80002f70:	0f413823          	sd	s4,240(sp)
    80002f74:	0ed12423          	sw	a3,232(sp)
    80002f78:	00700793          	li	a5,7
    80002f7c:	010c8913          	add	s2,s9,16
    80002f80:	86d7dae3          	bge	a5,a3,800027f4 <_vfprintf_r+0x30c>
    80002f84:	00813503          	ld	a0,8(sp)
    80002f88:	0e010613          	add	a2,sp,224
    80002f8c:	00048593          	mv	a1,s1
    80002f90:	5dd010ef          	jal	80004d6c <__sprint_r>
    80002f94:	70051263          	bnez	a0,80003698 <_vfprintf_r+0x11b0>
    80002f98:	0f013a03          	ld	s4,240(sp)
    80002f9c:	00098913          	mv	s2,s3
    80002fa0:	855ff06f          	j	800027f4 <_vfprintf_r+0x30c>
    80002fa4:	010d7793          	and	a5,s10,16
    80002fa8:	3e0796e3          	bnez	a5,80003b94 <_vfprintf_r+0x16ac>
    80002fac:	02013683          	ld	a3,32(sp)
    80002fb0:	040d7793          	and	a5,s10,64
    80002fb4:	0006aa03          	lw	s4,0(a3)
    80002fb8:	00079463          	bnez	a5,80002fc0 <_vfprintf_r+0xad8>
    80002fbc:	1a00106f          	j	8000415c <_vfprintf_r+0x1c74>
    80002fc0:	030a1a13          	sll	s4,s4,0x30
    80002fc4:	030a5a13          	srl	s4,s4,0x30
    80002fc8:	9d9ff06f          	j	800029a0 <_vfprintf_r+0x4b8>
    80002fcc:	010d7793          	and	a5,s10,16
    80002fd0:	420794e3          	bnez	a5,80003bf8 <_vfprintf_r+0x1710>
    80002fd4:	02013683          	ld	a3,32(sp)
    80002fd8:	040d7793          	and	a5,s10,64
    80002fdc:	0006aa03          	lw	s4,0(a3)
    80002fe0:	00079463          	bnez	a5,80002fe8 <_vfprintf_r+0xb00>
    80002fe4:	1880106f          	j	8000416c <_vfprintf_r+0x1c84>
    80002fe8:	010a1a1b          	sllw	s4,s4,0x10
    80002fec:	410a5a1b          	sraw	s4,s4,0x10
    80002ff0:	000a0793          	mv	a5,s4
    80002ff4:	9207d8e3          	bgez	a5,80002924 <_vfprintf_r+0x43c>
    80002ff8:	02e13023          	sd	a4,32(sp)
    80002ffc:	02d00713          	li	a4,45
    80003000:	0ae107a3          	sb	a4,175(sp)
    80003004:	41400a33          	neg	s4,s4
    80003008:	000d0b93          	mv	s7,s10
    8000300c:	00100793          	li	a5,1
    80003010:	9a0b56e3          	bgez	s6,800029bc <_vfprintf_r+0x4d4>
    80003014:	00100713          	li	a4,1
    80003018:	6ae78063          	beq	a5,a4,800036b8 <_vfprintf_r+0x11d0>
    8000301c:	00200713          	li	a4,2
    80003020:	42e78663          	beq	a5,a4,8000344c <_vfprintf_r+0xf64>
    80003024:	15c10693          	add	a3,sp,348
    80003028:	00068d93          	mv	s11,a3
    8000302c:	007a7713          	and	a4,s4,7
    80003030:	03070713          	add	a4,a4,48
    80003034:	feed8fa3          	sb	a4,-1(s11)
    80003038:	003a5a13          	srl	s4,s4,0x3
    8000303c:	000d8613          	mv	a2,s11
    80003040:	fffd8d93          	add	s11,s11,-1
    80003044:	fe0a14e3          	bnez	s4,8000302c <_vfprintf_r+0xb44>
    80003048:	001bf593          	and	a1,s7,1
    8000304c:	42058463          	beqz	a1,80003474 <_vfprintf_r+0xf8c>
    80003050:	03000593          	li	a1,48
    80003054:	42b70063          	beq	a4,a1,80003474 <_vfprintf_r+0xf8c>
    80003058:	ffe60613          	add	a2,a2,-2
    8000305c:	febd8fa3          	sb	a1,-1(s11)
    80003060:	40c686bb          	subw	a3,a3,a2
    80003064:	000b8d13          	mv	s10,s7
    80003068:	00060d93          	mv	s11,a2
    8000306c:	8e9ff06f          	j	80002954 <_vfprintf_r+0x46c>
    80003070:	02013783          	ld	a5,32(sp)
    80003074:	0a0107a3          	sb	zero,175(sp)
    80003078:	0007bd83          	ld	s11,0(a5)
    8000307c:	00878c93          	add	s9,a5,8
    80003080:	4c0d8ae3          	beqz	s11,80003d54 <_vfprintf_r+0x186c>
    80003084:	000b5463          	bgez	s6,8000308c <_vfprintf_r+0xba4>
    80003088:	7d90006f          	j	80004060 <_vfprintf_r+0x1b78>
    8000308c:	000b0613          	mv	a2,s6
    80003090:	00000593          	li	a1,0
    80003094:	000d8513          	mv	a0,s11
    80003098:	02613023          	sd	t1,32(sp)
    8000309c:	025020ef          	jal	800058c0 <memchr>
    800030a0:	00a13c23          	sd	a0,24(sp)
    800030a4:	02013303          	ld	t1,32(sp)
    800030a8:	00051463          	bnez	a0,800030b0 <_vfprintf_r+0xbc8>
    800030ac:	75c0106f          	j	80004808 <_vfprintf_r+0x2320>
    800030b0:	01813783          	ld	a5,24(sp)
    800030b4:	0af14703          	lbu	a4,175(sp)
    800030b8:	03913023          	sd	s9,32(sp)
    800030bc:	41b786bb          	subw	a3,a5,s11
    800030c0:	fff6c813          	not	a6,a3
    800030c4:	43f85813          	sra	a6,a6,0x3f
    800030c8:	00013c23          	sd	zero,24(sp)
    800030cc:	04013023          	sd	zero,64(sp)
    800030d0:	02013c23          	sd	zero,56(sp)
    800030d4:	02013423          	sd	zero,40(sp)
    800030d8:	00d87bb3          	and	s7,a6,a3
    800030dc:	00000b13          	li	s6,0
    800030e0:	88071ee3          	bnez	a4,8000297c <_vfprintf_r+0x494>
    800030e4:	e34ff06f          	j	80002718 <_vfprintf_r+0x230>
    800030e8:	02013703          	ld	a4,32(sp)
    800030ec:	0a0107a3          	sb	zero,175(sp)
    800030f0:	00100b93          	li	s7,1
    800030f4:	00072783          	lw	a5,0(a4)
    800030f8:	00870713          	add	a4,a4,8
    800030fc:	02e13023          	sd	a4,32(sp)
    80003100:	0ef10c23          	sb	a5,248(sp)
    80003104:	00100693          	li	a3,1
    80003108:	0f810d93          	add	s11,sp,248
    8000310c:	df8ff06f          	j	80002704 <_vfprintf_r+0x21c>
    80003110:	02013783          	ld	a5,32(sp)
    80003114:	0007ac03          	lw	s8,0(a5)
    80003118:	00878793          	add	a5,a5,8
    8000311c:	260c56e3          	bgez	s8,80003b88 <_vfprintf_r+0x16a0>
    80003120:	41800c3b          	negw	s8,s8
    80003124:	02f13023          	sd	a5,32(sp)
    80003128:	004d6d13          	or	s10,s10,4
    8000312c:	000ac303          	lbu	t1,0(s5)
    80003130:	000d0d1b          	sext.w	s10,s10
    80003134:	d48ff06f          	j	8000267c <_vfprintf_r+0x194>
    80003138:	02b00793          	li	a5,43
    8000313c:	000ac303          	lbu	t1,0(s5)
    80003140:	0af107a3          	sb	a5,175(sp)
    80003144:	d38ff06f          	j	8000267c <_vfprintf_r+0x194>
    80003148:	080d6d13          	or	s10,s10,128
    8000314c:	000ac303          	lbu	t1,0(s5)
    80003150:	000d0d1b          	sext.w	s10,s10
    80003154:	d28ff06f          	j	8000267c <_vfprintf_r+0x194>
    80003158:	000ac303          	lbu	t1,0(s5)
    8000315c:	02a00693          	li	a3,42
    80003160:	001a8713          	add	a4,s5,1
    80003164:	00d31463          	bne	t1,a3,8000316c <_vfprintf_r+0xc84>
    80003168:	2910106f          	j	80004bf8 <_vfprintf_r+0x2710>
    8000316c:	fd03079b          	addw	a5,t1,-48
    80003170:	00900593          	li	a1,9
    80003174:	00000693          	li	a3,0
    80003178:	00900613          	li	a2,9
    8000317c:	00070a93          	mv	s5,a4
    80003180:	00000b13          	li	s6,0
    80003184:	d0f5e063          	bltu	a1,a5,80002684 <_vfprintf_r+0x19c>
    80003188:	00074303          	lbu	t1,0(a4)
    8000318c:	00269b1b          	sllw	s6,a3,0x2
    80003190:	00db0b3b          	addw	s6,s6,a3
    80003194:	001b1b1b          	sllw	s6,s6,0x1
    80003198:	00fb06bb          	addw	a3,s6,a5
    8000319c:	fd03079b          	addw	a5,t1,-48
    800031a0:	00068b13          	mv	s6,a3
    800031a4:	00170713          	add	a4,a4,1
    800031a8:	fef670e3          	bgeu	a2,a5,80003188 <_vfprintf_r+0xca0>
    800031ac:	2e06c4e3          	bltz	a3,80003c94 <_vfprintf_r+0x17ac>
    800031b0:	00070a93          	mv	s5,a4
    800031b4:	cd0ff06f          	j	80002684 <_vfprintf_r+0x19c>
    800031b8:	010d6b93          	or	s7,s10,16
    800031bc:	000b8b9b          	sext.w	s7,s7
    800031c0:	02013683          	ld	a3,32(sp)
    800031c4:	020bf793          	and	a5,s7,32
    800031c8:	00868713          	add	a4,a3,8
    800031cc:	16078ae3          	beqz	a5,80003b40 <_vfprintf_r+0x1658>
    800031d0:	0006ba03          	ld	s4,0(a3)
    800031d4:	00100793          	li	a5,1
    800031d8:	02e13023          	sd	a4,32(sp)
    800031dc:	fd4ff06f          	j	800029b0 <_vfprintf_r+0x4c8>
    800031e0:	001d6d13          	or	s10,s10,1
    800031e4:	000ac303          	lbu	t1,0(s5)
    800031e8:	000d0d1b          	sext.w	s10,s10
    800031ec:	c90ff06f          	j	8000267c <_vfprintf_r+0x194>
    800031f0:	0af14783          	lbu	a5,175(sp)
    800031f4:	000ac303          	lbu	t1,0(s5)
    800031f8:	c8079263          	bnez	a5,8000267c <_vfprintf_r+0x194>
    800031fc:	02000793          	li	a5,32
    80003200:	0af107a3          	sb	a5,175(sp)
    80003204:	c78ff06f          	j	8000267c <_vfprintf_r+0x194>
    80003208:	00813b83          	ld	s7,8(sp)
    8000320c:	000b8513          	mv	a0,s7
    80003210:	079020ef          	jal	80005a88 <_localeconv_r>
    80003214:	00853783          	ld	a5,8(a0)
    80003218:	00078513          	mv	a0,a5
    8000321c:	06f13823          	sd	a5,112(sp)
    80003220:	c10fe0ef          	jal	80001630 <strlen>
    80003224:	00050793          	mv	a5,a0
    80003228:	000b8513          	mv	a0,s7
    8000322c:	08f13023          	sd	a5,128(sp)
    80003230:	00078b93          	mv	s7,a5
    80003234:	055020ef          	jal	80005a88 <_localeconv_r>
    80003238:	01053703          	ld	a4,16(a0)
    8000323c:	000ac303          	lbu	t1,0(s5)
    80003240:	06e13c23          	sd	a4,120(sp)
    80003244:	c20b8c63          	beqz	s7,8000267c <_vfprintf_r+0x194>
    80003248:	c2070a63          	beqz	a4,8000267c <_vfprintf_r+0x194>
    8000324c:	00074783          	lbu	a5,0(a4)
    80003250:	c2078663          	beqz	a5,8000267c <_vfprintf_r+0x194>
    80003254:	400d6d13          	or	s10,s10,1024
    80003258:	000d0d1b          	sext.w	s10,s10
    8000325c:	c20ff06f          	j	8000267c <_vfprintf_r+0x194>
    80003260:	008d6d13          	or	s10,s10,8
    80003264:	000ac303          	lbu	t1,0(s5)
    80003268:	000d0d1b          	sext.w	s10,s10
    8000326c:	c10ff06f          	j	8000267c <_vfprintf_r+0x194>
    80003270:	020d6d13          	or	s10,s10,32
    80003274:	000ac303          	lbu	t1,0(s5)
    80003278:	000d0d1b          	sext.w	s10,s10
    8000327c:	c00ff06f          	j	8000267c <_vfprintf_r+0x194>
    80003280:	02013703          	ld	a4,32(sp)
    80003284:	000087b7          	lui	a5,0x8
    80003288:	83078793          	add	a5,a5,-2000 # 7830 <__stack_shift+0x7819>
    8000328c:	0af11823          	sh	a5,176(sp)
    80003290:	00870793          	add	a5,a4,8
    80003294:	002d6b93          	or	s7,s10,2
    80003298:	02f13023          	sd	a5,32(sp)
    8000329c:	0000b797          	auipc	a5,0xb
    800032a0:	61c78793          	add	a5,a5,1564 # 8000e8b8 <__tbss_end+0x800>
    800032a4:	04f13c23          	sd	a5,88(sp)
    800032a8:	00073a03          	ld	s4,0(a4)
    800032ac:	000b8b9b          	sext.w	s7,s7
    800032b0:	00200793          	li	a5,2
    800032b4:	07800313          	li	t1,120
    800032b8:	ef8ff06f          	j	800029b0 <_vfprintf_r+0x4c8>
    800032bc:	02013703          	ld	a4,32(sp)
    800032c0:	020d7793          	and	a5,s10,32
    800032c4:	00073703          	ld	a4,0(a4)
    800032c8:	0e0786e3          	beqz	a5,80003bb4 <_vfprintf_r+0x16cc>
    800032cc:	01013783          	ld	a5,16(sp)
    800032d0:	00f73023          	sd	a5,0(a4)
    800032d4:	02013783          	ld	a5,32(sp)
    800032d8:	000a8d93          	mv	s11,s5
    800032dc:	00878793          	add	a5,a5,8
    800032e0:	02f13023          	sd	a5,32(sp)
    800032e4:	d60ff06f          	j	80002844 <_vfprintf_r+0x35c>
    800032e8:	000ac303          	lbu	t1,0(s5)
    800032ec:	06c00793          	li	a5,108
    800032f0:	22f308e3          	beq	t1,a5,80003d20 <_vfprintf_r+0x1838>
    800032f4:	010d6d13          	or	s10,s10,16
    800032f8:	000d0d1b          	sext.w	s10,s10
    800032fc:	b80ff06f          	j	8000267c <_vfprintf_r+0x194>
    80003300:	000ac303          	lbu	t1,0(s5)
    80003304:	06800793          	li	a5,104
    80003308:	20f302e3          	beq	t1,a5,80003d0c <_vfprintf_r+0x1824>
    8000330c:	040d6d13          	or	s10,s10,64
    80003310:	000d0d1b          	sext.w	s10,s10
    80003314:	b68ff06f          	j	8000267c <_vfprintf_r+0x194>
    80003318:	06500713          	li	a4,101
    8000331c:	b86752e3          	bge	a4,t1,80002ea0 <_vfprintf_r+0x9b8>
    80003320:	0d013503          	ld	a0,208(sp)
    80003324:	0d813583          	ld	a1,216(sp)
    80003328:	00000613          	li	a2,0
    8000332c:	00000693          	li	a3,0
    80003330:	259090ef          	jal	8000cd88 <__eqtf2>
    80003334:	5c051e63          	bnez	a0,80003910 <_vfprintf_r+0x1428>
    80003338:	0e812783          	lw	a5,232(sp)
    8000333c:	0000b717          	auipc	a4,0xb
    80003340:	5b470713          	add	a4,a4,1460 # 8000e8f0 <__tbss_end+0x838>
    80003344:	00e93023          	sd	a4,0(s2)
    80003348:	0017879b          	addw	a5,a5,1
    8000334c:	00100713          	li	a4,1
    80003350:	001a0a13          	add	s4,s4,1
    80003354:	00e93423          	sd	a4,8(s2)
    80003358:	0ef12423          	sw	a5,232(sp)
    8000335c:	0007871b          	sext.w	a4,a5
    80003360:	0f413823          	sd	s4,240(sp)
    80003364:	00700793          	li	a5,7
    80003368:	01090913          	add	s2,s2,16
    8000336c:	42e7c8e3          	blt	a5,a4,80003f9c <_vfprintf_r+0x1ab4>
    80003370:	0b812783          	lw	a5,184(sp)
    80003374:	03013703          	ld	a4,48(sp)
    80003378:	00e7d0e3          	bge	a5,a4,80003b78 <_vfprintf_r+0x1690>
    8000337c:	04813703          	ld	a4,72(sp)
    80003380:	0e812783          	lw	a5,232(sp)
    80003384:	05013683          	ld	a3,80(sp)
    80003388:	00ea0a33          	add	s4,s4,a4
    8000338c:	0017879b          	addw	a5,a5,1
    80003390:	00e93423          	sd	a4,8(s2)
    80003394:	00d93023          	sd	a3,0(s2)
    80003398:	0007871b          	sext.w	a4,a5
    8000339c:	0ef12423          	sw	a5,232(sp)
    800033a0:	0f413823          	sd	s4,240(sp)
    800033a4:	00700793          	li	a5,7
    800033a8:	01090913          	add	s2,s2,16
    800033ac:	18e7c4e3          	blt	a5,a4,80003d34 <_vfprintf_r+0x184c>
    800033b0:	03013783          	ld	a5,48(sp)
    800033b4:	fff78b1b          	addw	s6,a5,-1
    800033b8:	c3605e63          	blez	s6,800027f4 <_vfprintf_r+0x30c>
    800033bc:	01000713          	li	a4,16
    800033c0:	0e812783          	lw	a5,232(sp)
    800033c4:	0000c897          	auipc	a7,0xc
    800033c8:	bc488893          	add	a7,a7,-1084 # 8000ef88 <zeroes.0>
    800033cc:	3f675ee3          	bge	a4,s6,80003fc8 <_vfprintf_r+0x1ae0>
    800033d0:	03513423          	sd	s5,40(sp)
    800033d4:	01000d93          	li	s11,16
    800033d8:	000b0a93          	mv	s5,s6
    800033dc:	00700c93          	li	s9,7
    800033e0:	00088b13          	mv	s6,a7
    800033e4:	00c0006f          	j	800033f0 <_vfprintf_r+0xf08>
    800033e8:	ff0a8a9b          	addw	s5,s5,-16
    800033ec:	3d5dd8e3          	bge	s11,s5,80003fbc <_vfprintf_r+0x1ad4>
    800033f0:	0017879b          	addw	a5,a5,1
    800033f4:	010a0a13          	add	s4,s4,16
    800033f8:	01693023          	sd	s6,0(s2)
    800033fc:	01b93423          	sd	s11,8(s2)
    80003400:	0f413823          	sd	s4,240(sp)
    80003404:	0ef12423          	sw	a5,232(sp)
    80003408:	01090913          	add	s2,s2,16
    8000340c:	fcfcdee3          	bge	s9,a5,800033e8 <_vfprintf_r+0xf00>
    80003410:	00813503          	ld	a0,8(sp)
    80003414:	0e010613          	add	a2,sp,224
    80003418:	00048593          	mv	a1,s1
    8000341c:	151010ef          	jal	80004d6c <__sprint_r>
    80003420:	26051c63          	bnez	a0,80003698 <_vfprintf_r+0x11b0>
    80003424:	0f013a03          	ld	s4,240(sp)
    80003428:	0e812783          	lw	a5,232(sp)
    8000342c:	00098913          	mv	s2,s3
    80003430:	fb9ff06f          	j	800033e8 <_vfprintf_r+0xf00>
    80003434:	00100713          	li	a4,1
    80003438:	00e79463          	bne	a5,a4,80003440 <_vfprintf_r+0xf58>
    8000343c:	4fc0106f          	j	80004938 <_vfprintf_r+0x2450>
    80003440:	00200713          	li	a4,2
    80003444:	000d0b93          	mv	s7,s10
    80003448:	bce79ee3          	bne	a5,a4,80003024 <_vfprintf_r+0xb3c>
    8000344c:	05813703          	ld	a4,88(sp)
    80003450:	15c10693          	add	a3,sp,348
    80003454:	00068d93          	mv	s11,a3
    80003458:	00fa7793          	and	a5,s4,15
    8000345c:	00f707b3          	add	a5,a4,a5
    80003460:	0007c783          	lbu	a5,0(a5)
    80003464:	004a5a13          	srl	s4,s4,0x4
    80003468:	fffd8d93          	add	s11,s11,-1
    8000346c:	00fd8023          	sb	a5,0(s11)
    80003470:	fe0a14e3          	bnez	s4,80003458 <_vfprintf_r+0xf70>
    80003474:	41b686bb          	subw	a3,a3,s11
    80003478:	000b8d13          	mv	s10,s7
    8000347c:	cd8ff06f          	j	80002954 <_vfprintf_r+0x46c>
    80003480:	417c0cbb          	subw	s9,s8,s7
    80003484:	b3905c63          	blez	s9,800027bc <_vfprintf_r+0x2d4>
    80003488:	01000593          	li	a1,16
    8000348c:	0e812603          	lw	a2,232(sp)
    80003490:	0000c897          	auipc	a7,0xc
    80003494:	af888893          	add	a7,a7,-1288 # 8000ef88 <zeroes.0>
    80003498:	0b95d063          	bge	a1,s9,80003538 <_vfprintf_r+0x1050>
    8000349c:	00090793          	mv	a5,s2
    800034a0:	000a0713          	mv	a4,s4
    800034a4:	000c8913          	mv	s2,s9
    800034a8:	01000f13          	li	t5,16
    800034ac:	000b8c93          	mv	s9,s7
    800034b0:	00700f93          	li	t6,7
    800034b4:	06613023          	sd	t1,96(sp)
    800034b8:	00068b93          	mv	s7,a3
    800034bc:	00088a13          	mv	s4,a7
    800034c0:	00c0006f          	j	800034cc <_vfprintf_r+0xfe4>
    800034c4:	ff09091b          	addw	s2,s2,-16
    800034c8:	052f5a63          	bge	t5,s2,8000351c <_vfprintf_r+0x1034>
    800034cc:	0016061b          	addw	a2,a2,1
    800034d0:	01070713          	add	a4,a4,16
    800034d4:	0147b023          	sd	s4,0(a5)
    800034d8:	01e7b423          	sd	t5,8(a5)
    800034dc:	0ee13823          	sd	a4,240(sp)
    800034e0:	0ec12423          	sw	a2,232(sp)
    800034e4:	01078793          	add	a5,a5,16
    800034e8:	fccfdee3          	bge	t6,a2,800034c4 <_vfprintf_r+0xfdc>
    800034ec:	00813503          	ld	a0,8(sp)
    800034f0:	0e010613          	add	a2,sp,224
    800034f4:	00048593          	mv	a1,s1
    800034f8:	075010ef          	jal	80004d6c <__sprint_r>
    800034fc:	18051e63          	bnez	a0,80003698 <_vfprintf_r+0x11b0>
    80003500:	01000f13          	li	t5,16
    80003504:	ff09091b          	addw	s2,s2,-16
    80003508:	0f013703          	ld	a4,240(sp)
    8000350c:	0e812603          	lw	a2,232(sp)
    80003510:	00098793          	mv	a5,s3
    80003514:	00700f93          	li	t6,7
    80003518:	fb2f4ae3          	blt	t5,s2,800034cc <_vfprintf_r+0xfe4>
    8000351c:	06013303          	ld	t1,96(sp)
    80003520:	000b8693          	mv	a3,s7
    80003524:	000a0893          	mv	a7,s4
    80003528:	000c8b93          	mv	s7,s9
    8000352c:	00070a13          	mv	s4,a4
    80003530:	00090c93          	mv	s9,s2
    80003534:	00078913          	mv	s2,a5
    80003538:	0016059b          	addw	a1,a2,1
    8000353c:	019a0a33          	add	s4,s4,s9
    80003540:	01193023          	sd	a7,0(s2)
    80003544:	01993423          	sd	s9,8(s2)
    80003548:	0f413823          	sd	s4,240(sp)
    8000354c:	0eb12423          	sw	a1,232(sp)
    80003550:	00700713          	li	a4,7
    80003554:	01090913          	add	s2,s2,16
    80003558:	a6b75263          	bge	a4,a1,800027bc <_vfprintf_r+0x2d4>
    8000355c:	00813503          	ld	a0,8(sp)
    80003560:	0e010613          	add	a2,sp,224
    80003564:	00048593          	mv	a1,s1
    80003568:	08d13423          	sd	a3,136(sp)
    8000356c:	06613023          	sd	t1,96(sp)
    80003570:	7fc010ef          	jal	80004d6c <__sprint_r>
    80003574:	12051263          	bnez	a0,80003698 <_vfprintf_r+0x11b0>
    80003578:	0f013a03          	ld	s4,240(sp)
    8000357c:	08813683          	ld	a3,136(sp)
    80003580:	06013303          	ld	t1,96(sp)
    80003584:	00098913          	mv	s2,s3
    80003588:	a34ff06f          	j	800027bc <_vfprintf_r+0x2d4>
    8000358c:	0e812603          	lw	a2,232(sp)
    80003590:	0000c897          	auipc	a7,0xc
    80003594:	9f888893          	add	a7,a7,-1544 # 8000ef88 <zeroes.0>
    80003598:	09645c63          	bge	s0,s6,80003630 <_vfprintf_r+0x1148>
    8000359c:	00090793          	mv	a5,s2
    800035a0:	000a0713          	mv	a4,s4
    800035a4:	000b0913          	mv	s2,s6
    800035a8:	00700c93          	li	s9,7
    800035ac:	06613023          	sd	t1,96(sp)
    800035b0:	00068a13          	mv	s4,a3
    800035b4:	00088b13          	mv	s6,a7
    800035b8:	00c0006f          	j	800035c4 <_vfprintf_r+0x10dc>
    800035bc:	ff09091b          	addw	s2,s2,-16
    800035c0:	05245c63          	bge	s0,s2,80003618 <_vfprintf_r+0x1130>
    800035c4:	0016069b          	addw	a3,a2,1
    800035c8:	01070713          	add	a4,a4,16
    800035cc:	0000c617          	auipc	a2,0xc
    800035d0:	9bc60613          	add	a2,a2,-1604 # 8000ef88 <zeroes.0>
    800035d4:	00c7b023          	sd	a2,0(a5)
    800035d8:	0087b423          	sd	s0,8(a5)
    800035dc:	0ee13823          	sd	a4,240(sp)
    800035e0:	0006861b          	sext.w	a2,a3
    800035e4:	0ed12423          	sw	a3,232(sp)
    800035e8:	01078793          	add	a5,a5,16
    800035ec:	fcccd8e3          	bge	s9,a2,800035bc <_vfprintf_r+0x10d4>
    800035f0:	00813503          	ld	a0,8(sp)
    800035f4:	0e010613          	add	a2,sp,224
    800035f8:	00048593          	mv	a1,s1
    800035fc:	770010ef          	jal	80004d6c <__sprint_r>
    80003600:	08051c63          	bnez	a0,80003698 <_vfprintf_r+0x11b0>
    80003604:	ff09091b          	addw	s2,s2,-16
    80003608:	0f013703          	ld	a4,240(sp)
    8000360c:	0e812603          	lw	a2,232(sp)
    80003610:	00098793          	mv	a5,s3
    80003614:	fb2448e3          	blt	s0,s2,800035c4 <_vfprintf_r+0x10dc>
    80003618:	06013303          	ld	t1,96(sp)
    8000361c:	000a0693          	mv	a3,s4
    80003620:	000b0893          	mv	a7,s6
    80003624:	00070a13          	mv	s4,a4
    80003628:	00090b13          	mv	s6,s2
    8000362c:	00078913          	mv	s2,a5
    80003630:	0016059b          	addw	a1,a2,1
    80003634:	016a0a33          	add	s4,s4,s6
    80003638:	01193023          	sd	a7,0(s2)
    8000363c:	01693423          	sd	s6,8(s2)
    80003640:	0f413823          	sd	s4,240(sp)
    80003644:	0eb12423          	sw	a1,232(sp)
    80003648:	00700713          	li	a4,7
    8000364c:	01090913          	add	s2,s2,16
    80003650:	96b75a63          	bge	a4,a1,800027c4 <_vfprintf_r+0x2dc>
    80003654:	00813503          	ld	a0,8(sp)
    80003658:	0e010613          	add	a2,sp,224
    8000365c:	00048593          	mv	a1,s1
    80003660:	08d13423          	sd	a3,136(sp)
    80003664:	06613023          	sd	t1,96(sp)
    80003668:	704010ef          	jal	80004d6c <__sprint_r>
    8000366c:	02051663          	bnez	a0,80003698 <_vfprintf_r+0x11b0>
    80003670:	0f013a03          	ld	s4,240(sp)
    80003674:	08813683          	ld	a3,136(sp)
    80003678:	06013303          	ld	t1,96(sp)
    8000367c:	00098913          	mv	s2,s3
    80003680:	944ff06f          	j	800027c4 <_vfprintf_r+0x2dc>
    80003684:	00813503          	ld	a0,8(sp)
    80003688:	0e010613          	add	a2,sp,224
    8000368c:	00048593          	mv	a1,s1
    80003690:	6dc010ef          	jal	80004d6c <__sprint_r>
    80003694:	98050863          	beqz	a0,80002824 <_vfprintf_r+0x33c>
    80003698:	01813583          	ld	a1,24(sp)
    8000369c:	9a058e63          	beqz	a1,80002858 <_vfprintf_r+0x370>
    800036a0:	00813503          	ld	a0,8(sp)
    800036a4:	afcfe0ef          	jal	800019a0 <_free_r>
    800036a8:	9b0ff06f          	j	80002858 <_vfprintf_r+0x370>
    800036ac:	00100713          	li	a4,1
    800036b0:	000d0b93          	mv	s7,s10
    800036b4:	96e794e3          	bne	a5,a4,8000301c <_vfprintf_r+0xb34>
    800036b8:	00900793          	li	a5,9
    800036bc:	5547ee63          	bltu	a5,s4,80003c18 <_vfprintf_r+0x1730>
    800036c0:	030a0a1b          	addw	s4,s4,48
    800036c4:	15410da3          	sb	s4,347(sp)
    800036c8:	000b8d13          	mv	s10,s7
    800036cc:	00100693          	li	a3,1
    800036d0:	15b10d93          	add	s11,sp,347
    800036d4:	a80ff06f          	j	80002954 <_vfprintf_r+0x46c>
    800036d8:	01000593          	li	a1,16
    800036dc:	0e812603          	lw	a2,232(sp)
    800036e0:	0000cc97          	auipc	s9,0xc
    800036e4:	8b8c8c93          	add	s9,s9,-1864 # 8000ef98 <blanks.1>
    800036e8:	0ae5dc63          	bge	a1,a4,800037a0 <_vfprintf_r+0x12b8>
    800036ec:	00090793          	mv	a5,s2
    800036f0:	00070913          	mv	s2,a4
    800036f4:	000c8713          	mv	a4,s9
    800036f8:	01000893          	li	a7,16
    800036fc:	000b8c93          	mv	s9,s7
    80003700:	00700393          	li	t2,7
    80003704:	00068b93          	mv	s7,a3
    80003708:	06513023          	sd	t0,96(sp)
    8000370c:	000a0693          	mv	a3,s4
    80003710:	09f13423          	sd	t6,136(sp)
    80003714:	08613823          	sd	t1,144(sp)
    80003718:	00070a13          	mv	s4,a4
    8000371c:	00c0006f          	j	80003728 <_vfprintf_r+0x1240>
    80003720:	ff09091b          	addw	s2,s2,-16
    80003724:	0528da63          	bge	a7,s2,80003778 <_vfprintf_r+0x1290>
    80003728:	0016061b          	addw	a2,a2,1
    8000372c:	01068693          	add	a3,a3,16
    80003730:	0147b023          	sd	s4,0(a5)
    80003734:	0117b423          	sd	a7,8(a5)
    80003738:	0ed13823          	sd	a3,240(sp)
    8000373c:	0ec12423          	sw	a2,232(sp)
    80003740:	01078793          	add	a5,a5,16
    80003744:	fcc3dee3          	bge	t2,a2,80003720 <_vfprintf_r+0x1238>
    80003748:	00813503          	ld	a0,8(sp)
    8000374c:	0e010613          	add	a2,sp,224
    80003750:	00048593          	mv	a1,s1
    80003754:	618010ef          	jal	80004d6c <__sprint_r>
    80003758:	f40510e3          	bnez	a0,80003698 <_vfprintf_r+0x11b0>
    8000375c:	01000893          	li	a7,16
    80003760:	ff09091b          	addw	s2,s2,-16
    80003764:	0f013683          	ld	a3,240(sp)
    80003768:	0e812603          	lw	a2,232(sp)
    8000376c:	00098793          	mv	a5,s3
    80003770:	00700393          	li	t2,7
    80003774:	fb28cae3          	blt	a7,s2,80003728 <_vfprintf_r+0x1240>
    80003778:	06013283          	ld	t0,96(sp)
    8000377c:	08813f83          	ld	t6,136(sp)
    80003780:	09013303          	ld	t1,144(sp)
    80003784:	00090713          	mv	a4,s2
    80003788:	00078913          	mv	s2,a5
    8000378c:	000a0793          	mv	a5,s4
    80003790:	00068a13          	mv	s4,a3
    80003794:	000b8693          	mv	a3,s7
    80003798:	000c8b93          	mv	s7,s9
    8000379c:	00078c93          	mv	s9,a5
    800037a0:	00ea0a33          	add	s4,s4,a4
    800037a4:	0016059b          	addw	a1,a2,1
    800037a8:	00e93423          	sd	a4,8(s2)
    800037ac:	01993023          	sd	s9,0(s2)
    800037b0:	0f413823          	sd	s4,240(sp)
    800037b4:	0eb12423          	sw	a1,232(sp)
    800037b8:	00700713          	li	a4,7
    800037bc:	01090913          	add	s2,s2,16
    800037c0:	00b74463          	blt	a4,a1,800037c8 <_vfprintf_r+0x12e0>
    800037c4:	f79fe06f          	j	8000273c <_vfprintf_r+0x254>
    800037c8:	00813503          	ld	a0,8(sp)
    800037cc:	0e010613          	add	a2,sp,224
    800037d0:	00048593          	mv	a1,s1
    800037d4:	08d13c23          	sd	a3,152(sp)
    800037d8:	08613823          	sd	t1,144(sp)
    800037dc:	09f13423          	sd	t6,136(sp)
    800037e0:	06513023          	sd	t0,96(sp)
    800037e4:	588010ef          	jal	80004d6c <__sprint_r>
    800037e8:	ea0518e3          	bnez	a0,80003698 <_vfprintf_r+0x11b0>
    800037ec:	0f013a03          	ld	s4,240(sp)
    800037f0:	09813683          	ld	a3,152(sp)
    800037f4:	09013303          	ld	t1,144(sp)
    800037f8:	08813f83          	ld	t6,136(sp)
    800037fc:	06013283          	ld	t0,96(sp)
    80003800:	00098913          	mv	s2,s3
    80003804:	f39fe06f          	j	8000273c <_vfprintf_r+0x254>
    80003808:	00813503          	ld	a0,8(sp)
    8000380c:	0e010613          	add	a2,sp,224
    80003810:	00048593          	mv	a1,s1
    80003814:	08d13823          	sd	a3,144(sp)
    80003818:	08613423          	sd	t1,136(sp)
    8000381c:	07f13023          	sd	t6,96(sp)
    80003820:	54c010ef          	jal	80004d6c <__sprint_r>
    80003824:	e6051ae3          	bnez	a0,80003698 <_vfprintf_r+0x11b0>
    80003828:	0f013a03          	ld	s4,240(sp)
    8000382c:	09013683          	ld	a3,144(sp)
    80003830:	08813303          	ld	t1,136(sp)
    80003834:	06013f83          	ld	t6,96(sp)
    80003838:	00098913          	mv	s2,s3
    8000383c:	f79fe06f          	j	800027b4 <_vfprintf_r+0x2cc>
    80003840:	01000713          	li	a4,16
    80003844:	0e812783          	lw	a5,232(sp)
    80003848:	0000bc97          	auipc	s9,0xb
    8000384c:	750c8c93          	add	s9,s9,1872 # 8000ef98 <blanks.1>
    80003850:	09675063          	bge	a4,s6,800038d0 <_vfprintf_r+0x13e8>
    80003854:	000c8713          	mv	a4,s9
    80003858:	01000d93          	li	s11,16
    8000385c:	000b0c93          	mv	s9,s6
    80003860:	00700d13          	li	s10,7
    80003864:	000a8b13          	mv	s6,s5
    80003868:	00070a93          	mv	s5,a4
    8000386c:	00c0006f          	j	80003878 <_vfprintf_r+0x1390>
    80003870:	ff0c8c9b          	addw	s9,s9,-16
    80003874:	059dd663          	bge	s11,s9,800038c0 <_vfprintf_r+0x13d8>
    80003878:	0017879b          	addw	a5,a5,1
    8000387c:	010a0a13          	add	s4,s4,16
    80003880:	01593023          	sd	s5,0(s2)
    80003884:	01b93423          	sd	s11,8(s2)
    80003888:	0f413823          	sd	s4,240(sp)
    8000388c:	0ef12423          	sw	a5,232(sp)
    80003890:	01090913          	add	s2,s2,16
    80003894:	fcfd5ee3          	bge	s10,a5,80003870 <_vfprintf_r+0x1388>
    80003898:	00813503          	ld	a0,8(sp)
    8000389c:	0e010613          	add	a2,sp,224
    800038a0:	00048593          	mv	a1,s1
    800038a4:	4c8010ef          	jal	80004d6c <__sprint_r>
    800038a8:	de0518e3          	bnez	a0,80003698 <_vfprintf_r+0x11b0>
    800038ac:	ff0c8c9b          	addw	s9,s9,-16
    800038b0:	0f013a03          	ld	s4,240(sp)
    800038b4:	0e812783          	lw	a5,232(sp)
    800038b8:	00098913          	mv	s2,s3
    800038bc:	fb9dcee3          	blt	s11,s9,80003878 <_vfprintf_r+0x1390>
    800038c0:	000a8713          	mv	a4,s5
    800038c4:	000b0a93          	mv	s5,s6
    800038c8:	000c8b13          	mv	s6,s9
    800038cc:	00070c93          	mv	s9,a4
    800038d0:	0017871b          	addw	a4,a5,1
    800038d4:	016a0a33          	add	s4,s4,s6
    800038d8:	01993023          	sd	s9,0(s2)
    800038dc:	01693423          	sd	s6,8(s2)
    800038e0:	0f413823          	sd	s4,240(sp)
    800038e4:	0ee12423          	sw	a4,232(sp)
    800038e8:	00700793          	li	a5,7
    800038ec:	00e7c463          	blt	a5,a4,800038f4 <_vfprintf_r+0x140c>
    800038f0:	f19fe06f          	j	80002808 <_vfprintf_r+0x320>
    800038f4:	00813503          	ld	a0,8(sp)
    800038f8:	0e010613          	add	a2,sp,224
    800038fc:	00048593          	mv	a1,s1
    80003900:	46c010ef          	jal	80004d6c <__sprint_r>
    80003904:	d8051ae3          	bnez	a0,80003698 <_vfprintf_r+0x11b0>
    80003908:	0f013a03          	ld	s4,240(sp)
    8000390c:	efdfe06f          	j	80002808 <_vfprintf_r+0x320>
    80003910:	0b812583          	lw	a1,184(sp)
    80003914:	5cb05e63          	blez	a1,80003ef0 <_vfprintf_r+0x1a08>
    80003918:	02813783          	ld	a5,40(sp)
    8000391c:	03013703          	ld	a4,48(sp)
    80003920:	00078b1b          	sext.w	s6,a5
    80003924:	36f74263          	blt	a4,a5,80003c88 <_vfprintf_r+0x17a0>
    80003928:	03605663          	blez	s6,80003954 <_vfprintf_r+0x146c>
    8000392c:	0e812703          	lw	a4,232(sp)
    80003930:	016a0a33          	add	s4,s4,s6
    80003934:	01b93023          	sd	s11,0(s2)
    80003938:	0017069b          	addw	a3,a4,1
    8000393c:	01693423          	sd	s6,8(s2)
    80003940:	0f413823          	sd	s4,240(sp)
    80003944:	0ed12423          	sw	a3,232(sp)
    80003948:	00700713          	li	a4,7
    8000394c:	01090913          	add	s2,s2,16
    80003950:	36d74ae3          	blt	a4,a3,800044c4 <_vfprintf_r+0x1fdc>
    80003954:	fffb4713          	not	a4,s6
    80003958:	02813783          	ld	a5,40(sp)
    8000395c:	43f75713          	sra	a4,a4,0x3f
    80003960:	00eb7b33          	and	s6,s6,a4
    80003964:	41678b3b          	subw	s6,a5,s6
    80003968:	41604663          	bgtz	s6,80003d74 <_vfprintf_r+0x188c>
    8000396c:	02813783          	ld	a5,40(sp)
    80003970:	400d7713          	and	a4,s10,1024
    80003974:	00fd8cb3          	add	s9,s11,a5
    80003978:	0e0716e3          	bnez	a4,80004264 <_vfprintf_r+0x1d7c>
    8000397c:	0b812703          	lw	a4,184(sp)
    80003980:	03013783          	ld	a5,48(sp)
    80003984:	46f74663          	blt	a4,a5,80003df0 <_vfprintf_r+0x1908>
    80003988:	001d7693          	and	a3,s10,1
    8000398c:	46069263          	bnez	a3,80003df0 <_vfprintf_r+0x1908>
    80003990:	03013683          	ld	a3,48(sp)
    80003994:	00dd87b3          	add	a5,s11,a3
    80003998:	41978b33          	sub	s6,a5,s9
    8000399c:	40e686bb          	subw	a3,a3,a4
    800039a0:	000b079b          	sext.w	a5,s6
    800039a4:	00f6d463          	bge	a3,a5,800039ac <_vfprintf_r+0x14c4>
    800039a8:	00068b13          	mv	s6,a3
    800039ac:	000b0b1b          	sext.w	s6,s6
    800039b0:	03605663          	blez	s6,800039dc <_vfprintf_r+0x14f4>
    800039b4:	0e812783          	lw	a5,232(sp)
    800039b8:	016a0a33          	add	s4,s4,s6
    800039bc:	01993023          	sd	s9,0(s2)
    800039c0:	0017871b          	addw	a4,a5,1
    800039c4:	01693423          	sd	s6,8(s2)
    800039c8:	0f413823          	sd	s4,240(sp)
    800039cc:	0ee12423          	sw	a4,232(sp)
    800039d0:	00700793          	li	a5,7
    800039d4:	01090913          	add	s2,s2,16
    800039d8:	6ae7c4e3          	blt	a5,a4,80004880 <_vfprintf_r+0x2398>
    800039dc:	fffb4793          	not	a5,s6
    800039e0:	43f7d793          	sra	a5,a5,0x3f
    800039e4:	00fb7b33          	and	s6,s6,a5
    800039e8:	41668b3b          	subw	s6,a3,s6
    800039ec:	01604463          	bgtz	s6,800039f4 <_vfprintf_r+0x150c>
    800039f0:	e05fe06f          	j	800027f4 <_vfprintf_r+0x30c>
    800039f4:	01000713          	li	a4,16
    800039f8:	0e812783          	lw	a5,232(sp)
    800039fc:	0000b897          	auipc	a7,0xb
    80003a00:	58c88893          	add	a7,a7,1420 # 8000ef88 <zeroes.0>
    80003a04:	5d675263          	bge	a4,s6,80003fc8 <_vfprintf_r+0x1ae0>
    80003a08:	03513423          	sd	s5,40(sp)
    80003a0c:	01000d93          	li	s11,16
    80003a10:	00048a93          	mv	s5,s1
    80003a14:	00700c93          	li	s9,7
    80003a18:	000b0493          	mv	s1,s6
    80003a1c:	00088b13          	mv	s6,a7
    80003a20:	00c0006f          	j	80003a2c <_vfprintf_r+0x1544>
    80003a24:	ff04849b          	addw	s1,s1,-16
    80003a28:	5c9dd0e3          	bge	s11,s1,800047e8 <_vfprintf_r+0x2300>
    80003a2c:	0017879b          	addw	a5,a5,1
    80003a30:	010a0a13          	add	s4,s4,16
    80003a34:	01693023          	sd	s6,0(s2)
    80003a38:	01b93423          	sd	s11,8(s2)
    80003a3c:	0f413823          	sd	s4,240(sp)
    80003a40:	0ef12423          	sw	a5,232(sp)
    80003a44:	01090913          	add	s2,s2,16
    80003a48:	fcfcdee3          	bge	s9,a5,80003a24 <_vfprintf_r+0x153c>
    80003a4c:	00813503          	ld	a0,8(sp)
    80003a50:	0e010613          	add	a2,sp,224
    80003a54:	000a8593          	mv	a1,s5
    80003a58:	314010ef          	jal	80004d6c <__sprint_r>
    80003a5c:	00050463          	beqz	a0,80003a64 <_vfprintf_r+0x157c>
    80003a60:	1540106f          	j	80004bb4 <_vfprintf_r+0x26cc>
    80003a64:	0f013a03          	ld	s4,240(sp)
    80003a68:	0e812783          	lw	a5,232(sp)
    80003a6c:	00098913          	mv	s2,s3
    80003a70:	fb5ff06f          	j	80003a24 <_vfprintf_r+0x153c>
    80003a74:	001d7593          	and	a1,s10,1
    80003a78:	c4059663          	bnez	a1,80002ec4 <_vfprintf_r+0x9dc>
    80003a7c:	00c93423          	sd	a2,8(s2)
    80003a80:	0f413823          	sd	s4,240(sp)
    80003a84:	0f612423          	sw	s6,232(sp)
    80003a88:	00700793          	li	a5,7
    80003a8c:	cd67d663          	bge	a5,s6,80002f58 <_vfprintf_r+0xa70>
    80003a90:	00813503          	ld	a0,8(sp)
    80003a94:	0e010613          	add	a2,sp,224
    80003a98:	00048593          	mv	a1,s1
    80003a9c:	2d0010ef          	jal	80004d6c <__sprint_r>
    80003aa0:	be051ce3          	bnez	a0,80003698 <_vfprintf_r+0x11b0>
    80003aa4:	0f013a03          	ld	s4,240(sp)
    80003aa8:	0e812b03          	lw	s6,232(sp)
    80003aac:	00098c93          	mv	s9,s3
    80003ab0:	ca8ff06f          	j	80002f58 <_vfprintf_r+0xa70>
    80003ab4:	03013703          	ld	a4,48(sp)
    80003ab8:	00100793          	li	a5,1
    80003abc:	c8e7de63          	bge	a5,a4,80002f58 <_vfprintf_r+0xa70>
    80003ac0:	01100793          	li	a5,17
    80003ac4:	0000b897          	auipc	a7,0xb
    80003ac8:	4c488893          	add	a7,a7,1220 # 8000ef88 <zeroes.0>
    80003acc:	64e7d863          	bge	a5,a4,8000411c <_vfprintf_r+0x1c34>
    80003ad0:	00048793          	mv	a5,s1
    80003ad4:	03513423          	sd	s5,40(sp)
    80003ad8:	00090493          	mv	s1,s2
    80003adc:	01000693          	li	a3,16
    80003ae0:	00700d93          	li	s11,7
    80003ae4:	00088a93          	mv	s5,a7
    80003ae8:	00078913          	mv	s2,a5
    80003aec:	00c0006f          	j	80003af8 <_vfprintf_r+0x1610>
    80003af0:	ff04849b          	addw	s1,s1,-16
    80003af4:	6096da63          	bge	a3,s1,80004108 <_vfprintf_r+0x1c20>
    80003af8:	001b0b1b          	addw	s6,s6,1
    80003afc:	010a0a13          	add	s4,s4,16
    80003b00:	015cb023          	sd	s5,0(s9)
    80003b04:	00dcb423          	sd	a3,8(s9)
    80003b08:	0f413823          	sd	s4,240(sp)
    80003b0c:	0f612423          	sw	s6,232(sp)
    80003b10:	010c8c93          	add	s9,s9,16
    80003b14:	fd6ddee3          	bge	s11,s6,80003af0 <_vfprintf_r+0x1608>
    80003b18:	00813503          	ld	a0,8(sp)
    80003b1c:	0e010613          	add	a2,sp,224
    80003b20:	00090593          	mv	a1,s2
    80003b24:	248010ef          	jal	80004d6c <__sprint_r>
    80003b28:	680518e3          	bnez	a0,800049b8 <_vfprintf_r+0x24d0>
    80003b2c:	0f013a03          	ld	s4,240(sp)
    80003b30:	0e812b03          	lw	s6,232(sp)
    80003b34:	00098c93          	mv	s9,s3
    80003b38:	01000693          	li	a3,16
    80003b3c:	fb5ff06f          	j	80003af0 <_vfprintf_r+0x1608>
    80003b40:	010bf793          	and	a5,s7,16
    80003b44:	04079e63          	bnez	a5,80003ba0 <_vfprintf_r+0x16b8>
    80003b48:	02013683          	ld	a3,32(sp)
    80003b4c:	040bf793          	and	a5,s7,64
    80003b50:	0006aa03          	lw	s4,0(a3)
    80003b54:	5e078863          	beqz	a5,80004144 <_vfprintf_r+0x1c5c>
    80003b58:	030a1a13          	sll	s4,s4,0x30
    80003b5c:	030a5a13          	srl	s4,s4,0x30
    80003b60:	02e13023          	sd	a4,32(sp)
    80003b64:	00100793          	li	a5,1
    80003b68:	e49fe06f          	j	800029b0 <_vfprintf_r+0x4c8>
    80003b6c:	00000693          	li	a3,0
    80003b70:	15c10d93          	add	s11,sp,348
    80003b74:	de1fe06f          	j	80002954 <_vfprintf_r+0x46c>
    80003b78:	001d7793          	and	a5,s10,1
    80003b7c:	00079463          	bnez	a5,80003b84 <_vfprintf_r+0x169c>
    80003b80:	c75fe06f          	j	800027f4 <_vfprintf_r+0x30c>
    80003b84:	ff8ff06f          	j	8000337c <_vfprintf_r+0xe94>
    80003b88:	000ac303          	lbu	t1,0(s5)
    80003b8c:	02f13023          	sd	a5,32(sp)
    80003b90:	aedfe06f          	j	8000267c <_vfprintf_r+0x194>
    80003b94:	02013783          	ld	a5,32(sp)
    80003b98:	0007ba03          	ld	s4,0(a5)
    80003b9c:	e05fe06f          	j	800029a0 <_vfprintf_r+0x4b8>
    80003ba0:	02013783          	ld	a5,32(sp)
    80003ba4:	02e13023          	sd	a4,32(sp)
    80003ba8:	0007ba03          	ld	s4,0(a5)
    80003bac:	00100793          	li	a5,1
    80003bb0:	e01fe06f          	j	800029b0 <_vfprintf_r+0x4c8>
    80003bb4:	010d7793          	and	a5,s10,16
    80003bb8:	f0079a63          	bnez	a5,800032cc <_vfprintf_r+0xde4>
    80003bbc:	040d7793          	and	a5,s10,64
    80003bc0:	160790e3          	bnez	a5,80004520 <_vfprintf_r+0x2038>
    80003bc4:	200d7e13          	and	t3,s10,512
    80003bc8:	01013783          	ld	a5,16(sp)
    80003bcc:	680e08e3          	beqz	t3,80004a5c <_vfprintf_r+0x2574>
    80003bd0:	00f70023          	sb	a5,0(a4)
    80003bd4:	f00ff06f          	j	800032d4 <_vfprintf_r+0xdec>
    80003bd8:	02013783          	ld	a5,32(sp)
    80003bdc:	00f78c93          	add	s9,a5,15
    80003be0:	ff0cfc93          	and	s9,s9,-16
    80003be4:	010c8793          	add	a5,s9,16
    80003be8:	000cb703          	ld	a4,0(s9)
    80003bec:	008cb583          	ld	a1,8(s9)
    80003bf0:	02f13023          	sd	a5,32(sp)
    80003bf4:	e55fe06f          	j	80002a48 <_vfprintf_r+0x560>
    80003bf8:	02013783          	ld	a5,32(sp)
    80003bfc:	0007b783          	ld	a5,0(a5)
    80003c00:	00078a13          	mv	s4,a5
    80003c04:	d1dfe06f          	j	80002920 <_vfprintf_r+0x438>
    80003c08:	02e13023          	sd	a4,32(sp)
    80003c0c:	00900793          	li	a5,9
    80003c10:	000d0b93          	mv	s7,s10
    80003c14:	ab47f6e3          	bgeu	a5,s4,800036c0 <_vfprintf_r+0x11d8>
    80003c18:	15c10693          	add	a3,sp,348
    80003c1c:	07813883          	ld	a7,120(sp)
    80003c20:	400bf813          	and	a6,s7,1024
    80003c24:	00000613          	li	a2,0
    80003c28:	00068593          	mv	a1,a3
    80003c2c:	00a00713          	li	a4,10
    80003c30:	00900d13          	li	s10,9
    80003c34:	0ff00c93          	li	s9,255
    80003c38:	0140006f          	j	80003c4c <_vfprintf_r+0x1764>
    80003c3c:	02ea57b3          	divu	a5,s4,a4
    80003c40:	034d7a63          	bgeu	s10,s4,80003c74 <_vfprintf_r+0x178c>
    80003c44:	00078a13          	mv	s4,a5
    80003c48:	000d8593          	mv	a1,s11
    80003c4c:	fff58d93          	add	s11,a1,-1 # 1fff <__stack_shift+0x1fe8>
    80003c50:	0016061b          	addw	a2,a2,1
    80003c54:	02ea77b3          	remu	a5,s4,a4
    80003c58:	0307879b          	addw	a5,a5,48
    80003c5c:	fef58fa3          	sb	a5,-1(a1)
    80003c60:	fc080ee3          	beqz	a6,80003c3c <_vfprintf_r+0x1754>
    80003c64:	0008c783          	lbu	a5,0(a7)
    80003c68:	fcf61ae3          	bne	a2,a5,80003c3c <_vfprintf_r+0x1754>
    80003c6c:	fd9788e3          	beq	a5,s9,80003c3c <_vfprintf_r+0x1754>
    80003c70:	594d6e63          	bltu	s10,s4,8000420c <_vfprintf_r+0x1d24>
    80003c74:	02c13823          	sd	a2,48(sp)
    80003c78:	07113c23          	sd	a7,120(sp)
    80003c7c:	41b686bb          	subw	a3,a3,s11
    80003c80:	000b8d13          	mv	s10,s7
    80003c84:	cd1fe06f          	j	80002954 <_vfprintf_r+0x46c>
    80003c88:	00070b1b          	sext.w	s6,a4
    80003c8c:	cb6040e3          	bgtz	s6,8000392c <_vfprintf_r+0x1444>
    80003c90:	cc5ff06f          	j	80003954 <_vfprintf_r+0x146c>
    80003c94:	fff00b13          	li	s6,-1
    80003c98:	00070a93          	mv	s5,a4
    80003c9c:	9e9fe06f          	j	80002684 <_vfprintf_r+0x19c>
    80003ca0:	0000b797          	auipc	a5,0xb
    80003ca4:	c3078793          	add	a5,a5,-976 # 8000e8d0 <__tbss_end+0x818>
    80003ca8:	04f13c23          	sd	a5,88(sp)
    80003cac:	02013683          	ld	a3,32(sp)
    80003cb0:	020d7793          	and	a5,s10,32
    80003cb4:	00868713          	add	a4,a3,8
    80003cb8:	1c078e63          	beqz	a5,80003e94 <_vfprintf_r+0x19ac>
    80003cbc:	0006ba03          	ld	s4,0(a3)
    80003cc0:	001d7793          	and	a5,s10,1
    80003cc4:	00078e63          	beqz	a5,80003ce0 <_vfprintf_r+0x17f8>
    80003cc8:	000a0c63          	beqz	s4,80003ce0 <_vfprintf_r+0x17f8>
    80003ccc:	002d6e13          	or	t3,s10,2
    80003cd0:	03000793          	li	a5,48
    80003cd4:	0af10823          	sb	a5,176(sp)
    80003cd8:	0a6108a3          	sb	t1,177(sp)
    80003cdc:	000e0d1b          	sext.w	s10,t3
    80003ce0:	bffd7b93          	and	s7,s10,-1025
    80003ce4:	000b8b9b          	sext.w	s7,s7
    80003ce8:	02e13023          	sd	a4,32(sp)
    80003cec:	00200793          	li	a5,2
    80003cf0:	cc1fe06f          	j	800029b0 <_vfprintf_r+0x4c8>
    80003cf4:	000d0b93          	mv	s7,s10
    80003cf8:	cc8ff06f          	j	800031c0 <_vfprintf_r+0xcd8>
    80003cfc:	0000b797          	auipc	a5,0xb
    80003d00:	bbc78793          	add	a5,a5,-1092 # 8000e8b8 <__tbss_end+0x800>
    80003d04:	04f13c23          	sd	a5,88(sp)
    80003d08:	fa5ff06f          	j	80003cac <_vfprintf_r+0x17c4>
    80003d0c:	200d6d13          	or	s10,s10,512
    80003d10:	001ac303          	lbu	t1,1(s5)
    80003d14:	000d0d1b          	sext.w	s10,s10
    80003d18:	001a8a93          	add	s5,s5,1
    80003d1c:	961fe06f          	j	8000267c <_vfprintf_r+0x194>
    80003d20:	020d6d13          	or	s10,s10,32
    80003d24:	001ac303          	lbu	t1,1(s5)
    80003d28:	000d0d1b          	sext.w	s10,s10
    80003d2c:	001a8a93          	add	s5,s5,1
    80003d30:	94dfe06f          	j	8000267c <_vfprintf_r+0x194>
    80003d34:	00813503          	ld	a0,8(sp)
    80003d38:	0e010613          	add	a2,sp,224
    80003d3c:	00048593          	mv	a1,s1
    80003d40:	02c010ef          	jal	80004d6c <__sprint_r>
    80003d44:	94051ae3          	bnez	a0,80003698 <_vfprintf_r+0x11b0>
    80003d48:	0f013a03          	ld	s4,240(sp)
    80003d4c:	00098913          	mv	s2,s3
    80003d50:	e60ff06f          	j	800033b0 <_vfprintf_r+0xec8>
    80003d54:	00600793          	li	a5,6
    80003d58:	000b069b          	sext.w	a3,s6
    80003d5c:	7967e463          	bltu	a5,s6,800044e4 <_vfprintf_r+0x1ffc>
    80003d60:	00068b93          	mv	s7,a3
    80003d64:	03913023          	sd	s9,32(sp)
    80003d68:	0000bd97          	auipc	s11,0xb
    80003d6c:	b80d8d93          	add	s11,s11,-1152 # 8000e8e8 <__tbss_end+0x830>
    80003d70:	995fe06f          	j	80002704 <_vfprintf_r+0x21c>
    80003d74:	01000693          	li	a3,16
    80003d78:	0e812703          	lw	a4,232(sp)
    80003d7c:	0000b897          	auipc	a7,0xb
    80003d80:	20c88893          	add	a7,a7,524 # 8000ef88 <zeroes.0>
    80003d84:	4566d263          	bge	a3,s6,800041c8 <_vfprintf_r+0x1ce0>
    80003d88:	07513023          	sd	s5,96(sp)
    80003d8c:	01000693          	li	a3,16
    80003d90:	000b0a93          	mv	s5,s6
    80003d94:	00700c93          	li	s9,7
    80003d98:	00088b13          	mv	s6,a7
    80003d9c:	00c0006f          	j	80003da8 <_vfprintf_r+0x18c0>
    80003da0:	ff0a8a9b          	addw	s5,s5,-16
    80003da4:	4156dc63          	bge	a3,s5,800041bc <_vfprintf_r+0x1cd4>
    80003da8:	0017071b          	addw	a4,a4,1
    80003dac:	010a0a13          	add	s4,s4,16
    80003db0:	01693023          	sd	s6,0(s2)
    80003db4:	00d93423          	sd	a3,8(s2)
    80003db8:	0f413823          	sd	s4,240(sp)
    80003dbc:	0ee12423          	sw	a4,232(sp)
    80003dc0:	01090913          	add	s2,s2,16
    80003dc4:	fcecdee3          	bge	s9,a4,80003da0 <_vfprintf_r+0x18b8>
    80003dc8:	00813503          	ld	a0,8(sp)
    80003dcc:	0e010613          	add	a2,sp,224
    80003dd0:	00048593          	mv	a1,s1
    80003dd4:	799000ef          	jal	80004d6c <__sprint_r>
    80003dd8:	8c0510e3          	bnez	a0,80003698 <_vfprintf_r+0x11b0>
    80003ddc:	0f013a03          	ld	s4,240(sp)
    80003de0:	0e812703          	lw	a4,232(sp)
    80003de4:	00098913          	mv	s2,s3
    80003de8:	01000693          	li	a3,16
    80003dec:	fb5ff06f          	j	80003da0 <_vfprintf_r+0x18b8>
    80003df0:	0e812683          	lw	a3,232(sp)
    80003df4:	04813783          	ld	a5,72(sp)
    80003df8:	05013603          	ld	a2,80(sp)
    80003dfc:	01090913          	add	s2,s2,16
    80003e00:	00fa0a33          	add	s4,s4,a5
    80003e04:	fec93823          	sd	a2,-16(s2)
    80003e08:	0016861b          	addw	a2,a3,1
    80003e0c:	fef93c23          	sd	a5,-8(s2)
    80003e10:	0f413823          	sd	s4,240(sp)
    80003e14:	0ec12423          	sw	a2,232(sp)
    80003e18:	00700693          	li	a3,7
    80003e1c:	b6c6dae3          	bge	a3,a2,80003990 <_vfprintf_r+0x14a8>
    80003e20:	00813503          	ld	a0,8(sp)
    80003e24:	0e010613          	add	a2,sp,224
    80003e28:	00048593          	mv	a1,s1
    80003e2c:	741000ef          	jal	80004d6c <__sprint_r>
    80003e30:	860514e3          	bnez	a0,80003698 <_vfprintf_r+0x11b0>
    80003e34:	0b812703          	lw	a4,184(sp)
    80003e38:	0f013a03          	ld	s4,240(sp)
    80003e3c:	00098913          	mv	s2,s3
    80003e40:	b51ff06f          	j	80003990 <_vfprintf_r+0x14a8>
    80003e44:	07800793          	li	a5,120
    80003e48:	03000693          	li	a3,48
    80003e4c:	002d6713          	or	a4,s10,2
    80003e50:	0af108a3          	sb	a5,177(sp)
    80003e54:	0ad10823          	sb	a3,176(sp)
    80003e58:	06300793          	li	a5,99
    80003e5c:	0007071b          	sext.w	a4,a4
    80003e60:	7167cc63          	blt	a5,s6,80004578 <_vfprintf_r+0x2090>
    80003e64:	0d013783          	ld	a5,208(sp)
    80003e68:	0d813e83          	ld	t4,216(sp)
    80003e6c:	102d6e13          	or	t3,s10,258
    80003e70:	02f13423          	sd	a5,40(sp)
    80003e74:	000e0a1b          	sext.w	s4,t3
    80003e78:	100ec4e3          	bltz	t4,80004780 <_vfprintf_r+0x2298>
    80003e7c:	fbf3069b          	addw	a3,t1,-65
    80003e80:	00070d13          	mv	s10,a4
    80003e84:	06013023          	sd	zero,96(sp)
    80003e88:	00013c23          	sd	zero,24(sp)
    80003e8c:	0f810d93          	add	s11,sp,248
    80003e90:	c59fe06f          	j	80002ae8 <_vfprintf_r+0x600>
    80003e94:	010d7793          	and	a5,s10,16
    80003e98:	0c078e63          	beqz	a5,80003f74 <_vfprintf_r+0x1a8c>
    80003e9c:	02013783          	ld	a5,32(sp)
    80003ea0:	0007ba03          	ld	s4,0(a5)
    80003ea4:	e1dff06f          	j	80003cc0 <_vfprintf_r+0x17d8>
    80003ea8:	00813503          	ld	a0,8(sp)
    80003eac:	0e010613          	add	a2,sp,224
    80003eb0:	00048593          	mv	a1,s1
    80003eb4:	6b9000ef          	jal	80004d6c <__sprint_r>
    80003eb8:	fe051063          	bnez	a0,80003698 <_vfprintf_r+0x11b0>
    80003ebc:	0f013a03          	ld	s4,240(sp)
    80003ec0:	0e812b03          	lw	s6,232(sp)
    80003ec4:	00098c93          	mv	s9,s3
    80003ec8:	818ff06f          	j	80002ee0 <_vfprintf_r+0x9f8>
    80003ecc:	00813503          	ld	a0,8(sp)
    80003ed0:	0e010613          	add	a2,sp,224
    80003ed4:	00048593          	mv	a1,s1
    80003ed8:	695000ef          	jal	80004d6c <__sprint_r>
    80003edc:	fa051e63          	bnez	a0,80003698 <_vfprintf_r+0x11b0>
    80003ee0:	0f013a03          	ld	s4,240(sp)
    80003ee4:	0e812b03          	lw	s6,232(sp)
    80003ee8:	00098c93          	mv	s9,s3
    80003eec:	824ff06f          	j	80002f10 <_vfprintf_r+0xa28>
    80003ef0:	0e812703          	lw	a4,232(sp)
    80003ef4:	0000b697          	auipc	a3,0xb
    80003ef8:	9fc68693          	add	a3,a3,-1540 # 8000e8f0 <__tbss_end+0x838>
    80003efc:	00d93023          	sd	a3,0(s2)
    80003f00:	0017071b          	addw	a4,a4,1
    80003f04:	00100693          	li	a3,1
    80003f08:	001a0a13          	add	s4,s4,1
    80003f0c:	00d93423          	sd	a3,8(s2)
    80003f10:	0ee12423          	sw	a4,232(sp)
    80003f14:	0007069b          	sext.w	a3,a4
    80003f18:	0f413823          	sd	s4,240(sp)
    80003f1c:	00700713          	li	a4,7
    80003f20:	01090913          	add	s2,s2,16
    80003f24:	56d74e63          	blt	a4,a3,800044a0 <_vfprintf_r+0x1fb8>
    80003f28:	18059063          	bnez	a1,800040a8 <_vfprintf_r+0x1bc0>
    80003f2c:	03013783          	ld	a5,48(sp)
    80003f30:	001d7713          	and	a4,s10,1
    80003f34:	00e7e733          	or	a4,a5,a4
    80003f38:	00071463          	bnez	a4,80003f40 <_vfprintf_r+0x1a58>
    80003f3c:	8b9fe06f          	j	800027f4 <_vfprintf_r+0x30c>
    80003f40:	0e812703          	lw	a4,232(sp)
    80003f44:	04813783          	ld	a5,72(sp)
    80003f48:	05013683          	ld	a3,80(sp)
    80003f4c:	01478633          	add	a2,a5,s4
    80003f50:	00d93023          	sd	a3,0(s2)
    80003f54:	0017069b          	addw	a3,a4,1
    80003f58:	00f93423          	sd	a5,8(s2)
    80003f5c:	0ec13823          	sd	a2,240(sp)
    80003f60:	0ed12423          	sw	a3,232(sp)
    80003f64:	00700713          	li	a4,7
    80003f68:	5ed74463          	blt	a4,a3,80004550 <_vfprintf_r+0x2068>
    80003f6c:	01090913          	add	s2,s2,16
    80003f70:	16c0006f          	j	800040dc <_vfprintf_r+0x1bf4>
    80003f74:	02013683          	ld	a3,32(sp)
    80003f78:	040d7793          	and	a5,s10,64
    80003f7c:	0006aa03          	lw	s4,0(a3)
    80003f80:	20078263          	beqz	a5,80004184 <_vfprintf_r+0x1c9c>
    80003f84:	030a1a13          	sll	s4,s4,0x30
    80003f88:	030a5a13          	srl	s4,s4,0x30
    80003f8c:	d35ff06f          	j	80003cc0 <_vfprintf_r+0x17d8>
    80003f90:	00813503          	ld	a0,8(sp)
    80003f94:	a0dfc0ef          	jal	800009a0 <__sinit>
    80003f98:	da8fe06f          	j	80002540 <_vfprintf_r+0x58>
    80003f9c:	00813503          	ld	a0,8(sp)
    80003fa0:	0e010613          	add	a2,sp,224
    80003fa4:	00048593          	mv	a1,s1
    80003fa8:	5c5000ef          	jal	80004d6c <__sprint_r>
    80003fac:	ee051663          	bnez	a0,80003698 <_vfprintf_r+0x11b0>
    80003fb0:	0f013a03          	ld	s4,240(sp)
    80003fb4:	00098913          	mv	s2,s3
    80003fb8:	bb8ff06f          	j	80003370 <_vfprintf_r+0xe88>
    80003fbc:	000b0893          	mv	a7,s6
    80003fc0:	000a8b13          	mv	s6,s5
    80003fc4:	02813a83          	ld	s5,40(sp)
    80003fc8:	0017871b          	addw	a4,a5,1
    80003fcc:	01193023          	sd	a7,0(s2)
    80003fd0:	01693423          	sd	s6,8(s2)
    80003fd4:	016a0a33          	add	s4,s4,s6
    80003fd8:	0f413823          	sd	s4,240(sp)
    80003fdc:	0ee12423          	sw	a4,232(sp)
    80003fe0:	00700793          	li	a5,7
    80003fe4:	00e7c463          	blt	a5,a4,80003fec <_vfprintf_r+0x1b04>
    80003fe8:	809fe06f          	j	800027f0 <_vfprintf_r+0x308>
    80003fec:	f99fe06f          	j	80002f84 <_vfprintf_r+0xa9c>
    80003ff0:	02e13023          	sd	a4,32(sp)
    80003ff4:	ec4ff06f          	j	800036b8 <_vfprintf_r+0x11d0>
    80003ff8:	0d013503          	ld	a0,208(sp)
    80003ffc:	0d813583          	ld	a1,216(sp)
    80004000:	00000613          	li	a2,0
    80004004:	00000693          	li	a3,0
    80004008:	6e1080ef          	jal	8000cee8 <__letf2>
    8000400c:	01813303          	ld	t1,24(sp)
    80004010:	7c054463          	bltz	a0,800047d8 <_vfprintf_r+0x22f0>
    80004014:	0af14703          	lbu	a4,175(sp)
    80004018:	04700693          	li	a3,71
    8000401c:	0000bd97          	auipc	s11,0xb
    80004020:	884d8d93          	add	s11,s11,-1916 # 8000e8a0 <__tbss_end+0x7e8>
    80004024:	0066c663          	blt	a3,t1,80004030 <_vfprintf_r+0x1b48>
    80004028:	0000bd97          	auipc	s11,0xb
    8000402c:	870d8d93          	add	s11,s11,-1936 # 8000e898 <__tbss_end+0x7e0>
    80004030:	f7fd7e13          	and	t3,s10,-129
    80004034:	00013c23          	sd	zero,24(sp)
    80004038:	04013023          	sd	zero,64(sp)
    8000403c:	02013c23          	sd	zero,56(sp)
    80004040:	02013423          	sd	zero,40(sp)
    80004044:	000e0d1b          	sext.w	s10,t3
    80004048:	00300b93          	li	s7,3
    8000404c:	00300693          	li	a3,3
    80004050:	00000b13          	li	s6,0
    80004054:	00070463          	beqz	a4,8000405c <_vfprintf_r+0x1b74>
    80004058:	925fe06f          	j	8000297c <_vfprintf_r+0x494>
    8000405c:	ebcfe06f          	j	80002718 <_vfprintf_r+0x230>
    80004060:	000d8513          	mv	a0,s11
    80004064:	06613023          	sd	t1,96(sp)
    80004068:	dc8fd0ef          	jal	80001630 <strlen>
    8000406c:	0005069b          	sext.w	a3,a0
    80004070:	0af14703          	lbu	a4,175(sp)
    80004074:	fff6c813          	not	a6,a3
    80004078:	43f85813          	sra	a6,a6,0x3f
    8000407c:	03913023          	sd	s9,32(sp)
    80004080:	00013c23          	sd	zero,24(sp)
    80004084:	04013023          	sd	zero,64(sp)
    80004088:	02013c23          	sd	zero,56(sp)
    8000408c:	02013423          	sd	zero,40(sp)
    80004090:	06013303          	ld	t1,96(sp)
    80004094:	00d87bb3          	and	s7,a6,a3
    80004098:	00000b13          	li	s6,0
    8000409c:	00070463          	beqz	a4,800040a4 <_vfprintf_r+0x1bbc>
    800040a0:	8ddfe06f          	j	8000297c <_vfprintf_r+0x494>
    800040a4:	e74fe06f          	j	80002718 <_vfprintf_r+0x230>
    800040a8:	0e812703          	lw	a4,232(sp)
    800040ac:	04813783          	ld	a5,72(sp)
    800040b0:	05013683          	ld	a3,80(sp)
    800040b4:	01090913          	add	s2,s2,16
    800040b8:	01478633          	add	a2,a5,s4
    800040bc:	fed93823          	sd	a3,-16(s2)
    800040c0:	0017069b          	addw	a3,a4,1
    800040c4:	fef93c23          	sd	a5,-8(s2)
    800040c8:	0ec13823          	sd	a2,240(sp)
    800040cc:	0ed12423          	sw	a3,232(sp)
    800040d0:	00700713          	li	a4,7
    800040d4:	46d74e63          	blt	a4,a3,80004550 <_vfprintf_r+0x2068>
    800040d8:	0605c4e3          	bltz	a1,80004940 <_vfprintf_r+0x2458>
    800040dc:	03013783          	ld	a5,48(sp)
    800040e0:	0016871b          	addw	a4,a3,1
    800040e4:	01b93023          	sd	s11,0(s2)
    800040e8:	00c78a33          	add	s4,a5,a2
    800040ec:	00f93423          	sd	a5,8(s2)
    800040f0:	0f413823          	sd	s4,240(sp)
    800040f4:	0ee12423          	sw	a4,232(sp)
    800040f8:	00700793          	li	a5,7
    800040fc:	00e7c463          	blt	a5,a4,80004104 <_vfprintf_r+0x1c1c>
    80004100:	ef0fe06f          	j	800027f0 <_vfprintf_r+0x308>
    80004104:	e81fe06f          	j	80002f84 <_vfprintf_r+0xa9c>
    80004108:	000a8893          	mv	a7,s5
    8000410c:	02813a83          	ld	s5,40(sp)
    80004110:	00090793          	mv	a5,s2
    80004114:	00048913          	mv	s2,s1
    80004118:	00078493          	mv	s1,a5
    8000411c:	001b0b1b          	addw	s6,s6,1
    80004120:	012a0a33          	add	s4,s4,s2
    80004124:	011cb023          	sd	a7,0(s9)
    80004128:	012cb423          	sd	s2,8(s9)
    8000412c:	0f413823          	sd	s4,240(sp)
    80004130:	0f612423          	sw	s6,232(sp)
    80004134:	00700793          	li	a5,7
    80004138:	0167c463          	blt	a5,s6,80004140 <_vfprintf_r+0x1c58>
    8000413c:	e19fe06f          	j	80002f54 <_vfprintf_r+0xa6c>
    80004140:	951ff06f          	j	80003a90 <_vfprintf_r+0x15a8>
    80004144:	200bf793          	and	a5,s7,512
    80004148:	3c078263          	beqz	a5,8000450c <_vfprintf_r+0x2024>
    8000414c:	0ffa7a13          	zext.b	s4,s4
    80004150:	02e13023          	sd	a4,32(sp)
    80004154:	00100793          	li	a5,1
    80004158:	859fe06f          	j	800029b0 <_vfprintf_r+0x4c8>
    8000415c:	200d7793          	and	a5,s10,512
    80004160:	3a078063          	beqz	a5,80004500 <_vfprintf_r+0x2018>
    80004164:	0ffa7a13          	zext.b	s4,s4
    80004168:	839fe06f          	j	800029a0 <_vfprintf_r+0x4b8>
    8000416c:	200d7793          	and	a5,s10,512
    80004170:	38078463          	beqz	a5,800044f8 <_vfprintf_r+0x2010>
    80004174:	018a1a1b          	sllw	s4,s4,0x18
    80004178:	418a5a1b          	sraw	s4,s4,0x18
    8000417c:	000a0793          	mv	a5,s4
    80004180:	fa0fe06f          	j	80002920 <_vfprintf_r+0x438>
    80004184:	200d7793          	and	a5,s10,512
    80004188:	36078263          	beqz	a5,800044ec <_vfprintf_r+0x2004>
    8000418c:	0ffa7a13          	zext.b	s4,s4
    80004190:	b31ff06f          	j	80003cc0 <_vfprintf_r+0x17d8>
    80004194:	0d813783          	ld	a5,216(sp)
    80004198:	3a07c463          	bltz	a5,80004540 <_vfprintf_r+0x2058>
    8000419c:	0af14703          	lbu	a4,175(sp)
    800041a0:	04700693          	li	a3,71
    800041a4:	0000ad97          	auipc	s11,0xa
    800041a8:	70cd8d93          	add	s11,s11,1804 # 8000e8b0 <__tbss_end+0x7f8>
    800041ac:	e866c2e3          	blt	a3,t1,80004030 <_vfprintf_r+0x1b48>
    800041b0:	0000ad97          	auipc	s11,0xa
    800041b4:	6f8d8d93          	add	s11,s11,1784 # 8000e8a8 <__tbss_end+0x7f0>
    800041b8:	e79ff06f          	j	80004030 <_vfprintf_r+0x1b48>
    800041bc:	000b0893          	mv	a7,s6
    800041c0:	000a8b13          	mv	s6,s5
    800041c4:	06013a83          	ld	s5,96(sp)
    800041c8:	0017069b          	addw	a3,a4,1
    800041cc:	016a0a33          	add	s4,s4,s6
    800041d0:	01193023          	sd	a7,0(s2)
    800041d4:	01693423          	sd	s6,8(s2)
    800041d8:	0f413823          	sd	s4,240(sp)
    800041dc:	0ed12423          	sw	a3,232(sp)
    800041e0:	00700713          	li	a4,7
    800041e4:	01090913          	add	s2,s2,16
    800041e8:	f8d75263          	bge	a4,a3,8000396c <_vfprintf_r+0x1484>
    800041ec:	00813503          	ld	a0,8(sp)
    800041f0:	0e010613          	add	a2,sp,224
    800041f4:	00048593          	mv	a1,s1
    800041f8:	375000ef          	jal	80004d6c <__sprint_r>
    800041fc:	c8051e63          	bnez	a0,80003698 <_vfprintf_r+0x11b0>
    80004200:	0f013a03          	ld	s4,240(sp)
    80004204:	00098913          	mv	s2,s3
    80004208:	f64ff06f          	j	8000396c <_vfprintf_r+0x1484>
    8000420c:	08013783          	ld	a5,128(sp)
    80004210:	07013583          	ld	a1,112(sp)
    80004214:	02d13c23          	sd	a3,56(sp)
    80004218:	40fd8db3          	sub	s11,s11,a5
    8000421c:	00078613          	mv	a2,a5
    80004220:	000d8513          	mv	a0,s11
    80004224:	03013823          	sd	a6,48(sp)
    80004228:	02613423          	sd	t1,40(sp)
    8000422c:	01113c23          	sd	a7,24(sp)
    80004230:	780010ef          	jal	800059b0 <strncpy>
    80004234:	01813883          	ld	a7,24(sp)
    80004238:	00a00793          	li	a5,10
    8000423c:	02fa57b3          	divu	a5,s4,a5
    80004240:	0018c603          	lbu	a2,1(a7)
    80004244:	02813303          	ld	t1,40(sp)
    80004248:	03013803          	ld	a6,48(sp)
    8000424c:	00c03633          	snez	a2,a2
    80004250:	00c888b3          	add	a7,a7,a2
    80004254:	03813683          	ld	a3,56(sp)
    80004258:	00000613          	li	a2,0
    8000425c:	00a00713          	li	a4,10
    80004260:	9e5ff06f          	j	80003c44 <_vfprintf_r+0x175c>
    80004264:	03013783          	ld	a5,48(sp)
    80004268:	07513023          	sd	s5,96(sp)
    8000426c:	09a13423          	sd	s10,136(sp)
    80004270:	00fd85b3          	add	a1,s11,a5
    80004274:	00090793          	mv	a5,s2
    80004278:	03813903          	ld	s2,56(sp)
    8000427c:	09813823          	sd	s8,144(sp)
    80004280:	03713c23          	sd	s7,56(sp)
    80004284:	09b13c23          	sd	s11,152(sp)
    80004288:	000c8d13          	mv	s10,s9
    8000428c:	08013c03          	ld	s8,128(sp)
    80004290:	07813c83          	ld	s9,120(sp)
    80004294:	00813a83          	ld	s5,8(sp)
    80004298:	04013d83          	ld	s11,64(sp)
    8000429c:	00700693          	li	a3,7
    800042a0:	01000713          	li	a4,16
    800042a4:	0000bb17          	auipc	s6,0xb
    800042a8:	ce4b0b13          	add	s6,s6,-796 # 8000ef88 <zeroes.0>
    800042ac:	000a0613          	mv	a2,s4
    800042b0:	00058b93          	mv	s7,a1
    800042b4:	09205e63          	blez	s2,80004350 <_vfprintf_r+0x1e68>
    800042b8:	19b05263          	blez	s11,8000443c <_vfprintf_r+0x1f54>
    800042bc:	fffd8d9b          	addw	s11,s11,-1
    800042c0:	0e812583          	lw	a1,232(sp)
    800042c4:	07013503          	ld	a0,112(sp)
    800042c8:	01860633          	add	a2,a2,s8
    800042cc:	0187b423          	sd	s8,8(a5)
    800042d0:	00a7b023          	sd	a0,0(a5)
    800042d4:	0015851b          	addw	a0,a1,1
    800042d8:	0ec13823          	sd	a2,240(sp)
    800042dc:	0ea12423          	sw	a0,232(sp)
    800042e0:	01078793          	add	a5,a5,16
    800042e4:	16a6c263          	blt	a3,a0,80004448 <_vfprintf_r+0x1f60>
    800042e8:	000cc583          	lbu	a1,0(s9)
    800042ec:	41ab8f33          	sub	t5,s7,s10
    800042f0:	000f051b          	sext.w	a0,t5
    800042f4:	0005881b          	sext.w	a6,a1
    800042f8:	00a5d463          	bge	a1,a0,80004300 <_vfprintf_r+0x1e18>
    800042fc:	00080f13          	mv	t5,a6
    80004300:	000f0a1b          	sext.w	s4,t5
    80004304:	03405863          	blez	s4,80004334 <_vfprintf_r+0x1e4c>
    80004308:	0e812583          	lw	a1,232(sp)
    8000430c:	01460633          	add	a2,a2,s4
    80004310:	01a7b023          	sd	s10,0(a5)
    80004314:	0015851b          	addw	a0,a1,1
    80004318:	0147b423          	sd	s4,8(a5)
    8000431c:	0ec13823          	sd	a2,240(sp)
    80004320:	0ea12423          	sw	a0,232(sp)
    80004324:	14a6c663          	blt	a3,a0,80004470 <_vfprintf_r+0x1f88>
    80004328:	000cc583          	lbu	a1,0(s9)
    8000432c:	01078793          	add	a5,a5,16
    80004330:	0005881b          	sext.w	a6,a1
    80004334:	fffa4513          	not	a0,s4
    80004338:	43f55513          	sra	a0,a0,0x3f
    8000433c:	00aa7f33          	and	t5,s4,a0
    80004340:	41e80a3b          	subw	s4,a6,t5
    80004344:	05404463          	bgtz	s4,8000438c <_vfprintf_r+0x1ea4>
    80004348:	00bd0d33          	add	s10,s10,a1
    8000434c:	f72046e3          	bgtz	s2,800042b8 <_vfprintf_r+0x1dd0>
    80004350:	f7b046e3          	bgtz	s11,800042bc <_vfprintf_r+0x1dd4>
    80004354:	09813d83          	ld	s11,152(sp)
    80004358:	00078913          	mv	s2,a5
    8000435c:	03013783          	ld	a5,48(sp)
    80004360:	07913c23          	sd	s9,120(sp)
    80004364:	000d0c93          	mv	s9,s10
    80004368:	00fd8733          	add	a4,s11,a5
    8000436c:	06013a83          	ld	s5,96(sp)
    80004370:	08813d03          	ld	s10,136(sp)
    80004374:	09013c03          	ld	s8,144(sp)
    80004378:	03813b83          	ld	s7,56(sp)
    8000437c:	00060a13          	mv	s4,a2
    80004380:	df977e63          	bgeu	a4,s9,8000397c <_vfprintf_r+0x1494>
    80004384:	00070c93          	mv	s9,a4
    80004388:	df4ff06f          	j	8000397c <_vfprintf_r+0x1494>
    8000438c:	0e812583          	lw	a1,232(sp)
    80004390:	0000bf17          	auipc	t5,0xb
    80004394:	bf8f0f13          	add	t5,t5,-1032 # 8000ef88 <zeroes.0>
    80004398:	07475c63          	bge	a4,s4,80004410 <_vfprintf_r+0x1f28>
    8000439c:	03213423          	sd	s2,40(sp)
    800043a0:	000a0913          	mv	s2,s4
    800043a4:	000b0a13          	mv	s4,s6
    800043a8:	00c0006f          	j	800043b4 <_vfprintf_r+0x1ecc>
    800043ac:	ff09091b          	addw	s2,s2,-16
    800043b0:	05275a63          	bge	a4,s2,80004404 <_vfprintf_r+0x1f1c>
    800043b4:	0015859b          	addw	a1,a1,1
    800043b8:	01060613          	add	a2,a2,16
    800043bc:	0167b023          	sd	s6,0(a5)
    800043c0:	00e7b423          	sd	a4,8(a5)
    800043c4:	0ec13823          	sd	a2,240(sp)
    800043c8:	0eb12423          	sw	a1,232(sp)
    800043cc:	01078793          	add	a5,a5,16
    800043d0:	fcb6dee3          	bge	a3,a1,800043ac <_vfprintf_r+0x1ec4>
    800043d4:	0e010613          	add	a2,sp,224
    800043d8:	00048593          	mv	a1,s1
    800043dc:	000a8513          	mv	a0,s5
    800043e0:	18d000ef          	jal	80004d6c <__sprint_r>
    800043e4:	aa051a63          	bnez	a0,80003698 <_vfprintf_r+0x11b0>
    800043e8:	01000713          	li	a4,16
    800043ec:	ff09091b          	addw	s2,s2,-16
    800043f0:	0f013603          	ld	a2,240(sp)
    800043f4:	0e812583          	lw	a1,232(sp)
    800043f8:	00098793          	mv	a5,s3
    800043fc:	00700693          	li	a3,7
    80004400:	fb274ae3          	blt	a4,s2,800043b4 <_vfprintf_r+0x1ecc>
    80004404:	000a0f13          	mv	t5,s4
    80004408:	00090a13          	mv	s4,s2
    8000440c:	02813903          	ld	s2,40(sp)
    80004410:	0015851b          	addw	a0,a1,1
    80004414:	01460633          	add	a2,a2,s4
    80004418:	01e7b023          	sd	t5,0(a5)
    8000441c:	0147b423          	sd	s4,8(a5)
    80004420:	0ec13823          	sd	a2,240(sp)
    80004424:	0ea12423          	sw	a0,232(sp)
    80004428:	36a6ce63          	blt	a3,a0,800047a4 <_vfprintf_r+0x22bc>
    8000442c:	000cc583          	lbu	a1,0(s9)
    80004430:	01078793          	add	a5,a5,16
    80004434:	00bd0d33          	add	s10,s10,a1
    80004438:	f15ff06f          	j	8000434c <_vfprintf_r+0x1e64>
    8000443c:	fffc8c93          	add	s9,s9,-1
    80004440:	fff9091b          	addw	s2,s2,-1
    80004444:	e7dff06f          	j	800042c0 <_vfprintf_r+0x1dd8>
    80004448:	0e010613          	add	a2,sp,224
    8000444c:	00048593          	mv	a1,s1
    80004450:	000a8513          	mv	a0,s5
    80004454:	119000ef          	jal	80004d6c <__sprint_r>
    80004458:	a4051063          	bnez	a0,80003698 <_vfprintf_r+0x11b0>
    8000445c:	0f013603          	ld	a2,240(sp)
    80004460:	00098793          	mv	a5,s3
    80004464:	01000713          	li	a4,16
    80004468:	00700693          	li	a3,7
    8000446c:	e7dff06f          	j	800042e8 <_vfprintf_r+0x1e00>
    80004470:	0e010613          	add	a2,sp,224
    80004474:	00048593          	mv	a1,s1
    80004478:	000a8513          	mv	a0,s5
    8000447c:	0f1000ef          	jal	80004d6c <__sprint_r>
    80004480:	a0051c63          	bnez	a0,80003698 <_vfprintf_r+0x11b0>
    80004484:	000cc583          	lbu	a1,0(s9)
    80004488:	0f013603          	ld	a2,240(sp)
    8000448c:	00098793          	mv	a5,s3
    80004490:	0005881b          	sext.w	a6,a1
    80004494:	01000713          	li	a4,16
    80004498:	00700693          	li	a3,7
    8000449c:	e99ff06f          	j	80004334 <_vfprintf_r+0x1e4c>
    800044a0:	00813503          	ld	a0,8(sp)
    800044a4:	0e010613          	add	a2,sp,224
    800044a8:	00048593          	mv	a1,s1
    800044ac:	0c1000ef          	jal	80004d6c <__sprint_r>
    800044b0:	9e051463          	bnez	a0,80003698 <_vfprintf_r+0x11b0>
    800044b4:	0b812583          	lw	a1,184(sp)
    800044b8:	0f013a03          	ld	s4,240(sp)
    800044bc:	00098913          	mv	s2,s3
    800044c0:	a69ff06f          	j	80003f28 <_vfprintf_r+0x1a40>
    800044c4:	00813503          	ld	a0,8(sp)
    800044c8:	0e010613          	add	a2,sp,224
    800044cc:	00048593          	mv	a1,s1
    800044d0:	09d000ef          	jal	80004d6c <__sprint_r>
    800044d4:	9c051263          	bnez	a0,80003698 <_vfprintf_r+0x11b0>
    800044d8:	0f013a03          	ld	s4,240(sp)
    800044dc:	00098913          	mv	s2,s3
    800044e0:	c74ff06f          	j	80003954 <_vfprintf_r+0x146c>
    800044e4:	00600693          	li	a3,6
    800044e8:	879ff06f          	j	80003d60 <_vfprintf_r+0x1878>
    800044ec:	020a1a13          	sll	s4,s4,0x20
    800044f0:	020a5a13          	srl	s4,s4,0x20
    800044f4:	fccff06f          	j	80003cc0 <_vfprintf_r+0x17d8>
    800044f8:	000a0793          	mv	a5,s4
    800044fc:	c24fe06f          	j	80002920 <_vfprintf_r+0x438>
    80004500:	020a1a13          	sll	s4,s4,0x20
    80004504:	020a5a13          	srl	s4,s4,0x20
    80004508:	c98fe06f          	j	800029a0 <_vfprintf_r+0x4b8>
    8000450c:	020a1a13          	sll	s4,s4,0x20
    80004510:	020a5a13          	srl	s4,s4,0x20
    80004514:	02e13023          	sd	a4,32(sp)
    80004518:	00100793          	li	a5,1
    8000451c:	c94fe06f          	j	800029b0 <_vfprintf_r+0x4c8>
    80004520:	01013783          	ld	a5,16(sp)
    80004524:	00f71023          	sh	a5,0(a4)
    80004528:	dadfe06f          	j	800032d4 <_vfprintf_r+0xdec>
    8000452c:	00813503          	ld	a0,8(sp)
    80004530:	0e010613          	add	a2,sp,224
    80004534:	00048593          	mv	a1,s1
    80004538:	035000ef          	jal	80004d6c <__sprint_r>
    8000453c:	b1cfe06f          	j	80002858 <_vfprintf_r+0x370>
    80004540:	02d00793          	li	a5,45
    80004544:	0af107a3          	sb	a5,175(sp)
    80004548:	02d00713          	li	a4,45
    8000454c:	c55ff06f          	j	800041a0 <_vfprintf_r+0x1cb8>
    80004550:	00813503          	ld	a0,8(sp)
    80004554:	0e010613          	add	a2,sp,224
    80004558:	00048593          	mv	a1,s1
    8000455c:	011000ef          	jal	80004d6c <__sprint_r>
    80004560:	92051c63          	bnez	a0,80003698 <_vfprintf_r+0x11b0>
    80004564:	0b812583          	lw	a1,184(sp)
    80004568:	0f013603          	ld	a2,240(sp)
    8000456c:	0e812683          	lw	a3,232(sp)
    80004570:	00098913          	mv	s2,s3
    80004574:	b65ff06f          	j	800040d8 <_vfprintf_r+0x1bf0>
    80004578:	00813503          	ld	a0,8(sp)
    8000457c:	001b059b          	addw	a1,s6,1
    80004580:	02e13423          	sd	a4,40(sp)
    80004584:	00613c23          	sd	t1,24(sp)
    80004588:	f38fd0ef          	jal	80001cc0 <_malloc_r>
    8000458c:	01813303          	ld	t1,24(sp)
    80004590:	02813703          	ld	a4,40(sp)
    80004594:	00050d93          	mv	s11,a0
    80004598:	6c050663          	beqz	a0,80004c64 <_vfprintf_r+0x277c>
    8000459c:	00a13c23          	sd	a0,24(sp)
    800045a0:	00070d13          	mv	s10,a4
    800045a4:	d14fe06f          	j	80002ab8 <_vfprintf_r+0x5d0>
    800045a8:	02813583          	ld	a1,40(sp)
    800045ac:	00813503          	ld	a0,8(sp)
    800045b0:	000b0713          	mv	a4,s6
    800045b4:	000e8613          	mv	a2,t4
    800045b8:	0c810893          	add	a7,sp,200
    800045bc:	0bc10813          	add	a6,sp,188
    800045c0:	0b810793          	add	a5,sp,184
    800045c4:	00200693          	li	a3,2
    800045c8:	02613c23          	sd	t1,56(sp)
    800045cc:	03d13823          	sd	t4,48(sp)
    800045d0:	201010ef          	jal	80005fd0 <_ldtoa_r>
    800045d4:	03813303          	ld	t1,56(sp)
    800045d8:	04700713          	li	a4,71
    800045dc:	03013e83          	ld	t4,48(sp)
    800045e0:	00050d93          	mv	s11,a0
    800045e4:	68e31e63          	bne	t1,a4,80004c80 <_vfprintf_r+0x2798>
    800045e8:	001d7713          	and	a4,s10,1
    800045ec:	28071463          	bnez	a4,80004874 <_vfprintf_r+0x238c>
    800045f0:	0b812783          	lw	a5,184(sp)
    800045f4:	02f13423          	sd	a5,40(sp)
    800045f8:	0c813783          	ld	a5,200(sp)
    800045fc:	41b787bb          	subw	a5,a5,s11
    80004600:	02f13823          	sd	a5,48(sp)
    80004604:	02813783          	ld	a5,40(sp)
    80004608:	ffd00713          	li	a4,-3
    8000460c:	00e7c463          	blt	a5,a4,80004614 <_vfprintf_r+0x212c>
    80004610:	10fb5c63          	bge	s6,a5,80004728 <_vfprintf_r+0x2240>
    80004614:	02813783          	ld	a5,40(sp)
    80004618:	ffe3031b          	addw	t1,t1,-2
    8000461c:	fff7871b          	addw	a4,a5,-1
    80004620:	0ae12c23          	sw	a4,184(sp)
    80004624:	0ff37693          	zext.b	a3,t1
    80004628:	00000613          	li	a2,0
    8000462c:	f30fe06f          	j	80002d5c <_vfprintf_r+0x874>
    80004630:	03813783          	ld	a5,56(sp)
    80004634:	00a7c583          	lbu	a1,10(a5)
    80004638:	feb68fa3          	sb	a1,-1(a3)
    8000463c:	ee4fe06f          	j	80002d20 <_vfprintf_r+0x838>
    80004640:	0af14703          	lbu	a4,175(sp)
    80004644:	00000b13          	li	s6,0
    80004648:	00070463          	beqz	a4,80004650 <_vfprintf_r+0x2168>
    8000464c:	b30fe06f          	j	8000297c <_vfprintf_r+0x494>
    80004650:	8c8fe06f          	j	80002718 <_vfprintf_r+0x230>
    80004654:	000b0713          	mv	a4,s6
    80004658:	00300693          	li	a3,3
    8000465c:	02813583          	ld	a1,40(sp)
    80004660:	00813503          	ld	a0,8(sp)
    80004664:	000e8613          	mv	a2,t4
    80004668:	0c810893          	add	a7,sp,200
    8000466c:	0bc10813          	add	a6,sp,188
    80004670:	0b810793          	add	a5,sp,184
    80004674:	04613023          	sd	t1,64(sp)
    80004678:	02e13c23          	sd	a4,56(sp)
    8000467c:	03d13823          	sd	t4,48(sp)
    80004680:	151010ef          	jal	80005fd0 <_ldtoa_r>
    80004684:	03013e83          	ld	t4,48(sp)
    80004688:	03813703          	ld	a4,56(sp)
    8000468c:	04013303          	ld	t1,64(sp)
    80004690:	00050d93          	mv	s11,a0
    80004694:	fdf37b93          	and	s7,t1,-33
    80004698:	04600693          	li	a3,70
    8000469c:	00ed8cb3          	add	s9,s11,a4
    800046a0:	00db9c63          	bne	s7,a3,800046b8 <_vfprintf_r+0x21d0>
    800046a4:	000dc603          	lbu	a2,0(s11)
    800046a8:	03000693          	li	a3,48
    800046ac:	3ed60063          	beq	a2,a3,80004a8c <_vfprintf_r+0x25a4>
    800046b0:	0b812683          	lw	a3,184(sp)
    800046b4:	00dc8cb3          	add	s9,s9,a3
    800046b8:	02813503          	ld	a0,40(sp)
    800046bc:	00000613          	li	a2,0
    800046c0:	00000693          	li	a3,0
    800046c4:	000e8593          	mv	a1,t4
    800046c8:	02613823          	sd	t1,48(sp)
    800046cc:	6bc080ef          	jal	8000cd88 <__eqtf2>
    800046d0:	03013303          	ld	t1,48(sp)
    800046d4:	1c050e63          	beqz	a0,800048b0 <_vfprintf_r+0x23c8>
    800046d8:	0c813783          	ld	a5,200(sp)
    800046dc:	0197fe63          	bgeu	a5,s9,800046f8 <_vfprintf_r+0x2210>
    800046e0:	03000693          	li	a3,48
    800046e4:	00178713          	add	a4,a5,1
    800046e8:	0ce13423          	sd	a4,200(sp)
    800046ec:	00d78023          	sb	a3,0(a5)
    800046f0:	0c813783          	ld	a5,200(sp)
    800046f4:	ff97e8e3          	bltu	a5,s9,800046e4 <_vfprintf_r+0x21fc>
    800046f8:	0b812703          	lw	a4,184(sp)
    800046fc:	02e13423          	sd	a4,40(sp)
    80004700:	41b787bb          	subw	a5,a5,s11
    80004704:	04700713          	li	a4,71
    80004708:	02f13823          	sd	a5,48(sp)
    8000470c:	eeeb8ce3          	beq	s7,a4,80004604 <_vfprintf_r+0x211c>
    80004710:	04600713          	li	a4,70
    80004714:	1aeb8663          	beq	s7,a4,800048c0 <_vfprintf_r+0x23d8>
    80004718:	02813783          	ld	a5,40(sp)
    8000471c:	fff7871b          	addw	a4,a5,-1
    80004720:	0ae12c23          	sw	a4,184(sp)
    80004724:	f01ff06f          	j	80004624 <_vfprintf_r+0x213c>
    80004728:	03013783          	ld	a5,48(sp)
    8000472c:	02813703          	ld	a4,40(sp)
    80004730:	1cf74663          	blt	a4,a5,800048fc <_vfprintf_r+0x2414>
    80004734:	02813783          	ld	a5,40(sp)
    80004738:	001d7713          	and	a4,s10,1
    8000473c:	00078693          	mv	a3,a5
    80004740:	00070663          	beqz	a4,8000474c <_vfprintf_r+0x2264>
    80004744:	04813703          	ld	a4,72(sp)
    80004748:	00f706bb          	addw	a3,a4,a5
    8000474c:	400d7e13          	and	t3,s10,1024
    80004750:	000e0663          	beqz	t3,8000475c <_vfprintf_r+0x2274>
    80004754:	02813783          	ld	a5,40(sp)
    80004758:	36f04e63          	bgtz	a5,80004ad4 <_vfprintf_r+0x25ec>
    8000475c:	fff6c813          	not	a6,a3
    80004760:	43f85813          	sra	a6,a6,0x3f
    80004764:	0106f833          	and	a6,a3,a6
    80004768:	00080b9b          	sext.w	s7,a6
    8000476c:	000a0d13          	mv	s10,s4
    80004770:	06700313          	li	t1,103
    80004774:	04013023          	sd	zero,64(sp)
    80004778:	02013c23          	sd	zero,56(sp)
    8000477c:	ec4fe06f          	j	80002e40 <_vfprintf_r+0x958>
    80004780:	00070d13          	mv	s10,a4
    80004784:	00013c23          	sd	zero,24(sp)
    80004788:	0f810d93          	add	s11,sp,248
    8000478c:	fff00713          	li	a4,-1
    80004790:	03f71713          	sll	a4,a4,0x3f
    80004794:	02d00793          	li	a5,45
    80004798:	00eeceb3          	xor	t4,t4,a4
    8000479c:	06f13023          	sd	a5,96(sp)
    800047a0:	b38fe06f          	j	80002ad8 <_vfprintf_r+0x5f0>
    800047a4:	0e010613          	add	a2,sp,224
    800047a8:	00048593          	mv	a1,s1
    800047ac:	000a8513          	mv	a0,s5
    800047b0:	5bc000ef          	jal	80004d6c <__sprint_r>
    800047b4:	00050463          	beqz	a0,800047bc <_vfprintf_r+0x22d4>
    800047b8:	ee1fe06f          	j	80003698 <_vfprintf_r+0x11b0>
    800047bc:	000cc583          	lbu	a1,0(s9)
    800047c0:	0f013603          	ld	a2,240(sp)
    800047c4:	00098793          	mv	a5,s3
    800047c8:	01000713          	li	a4,16
    800047cc:	00700693          	li	a3,7
    800047d0:	00bd0d33          	add	s10,s10,a1
    800047d4:	b79ff06f          	j	8000434c <_vfprintf_r+0x1e64>
    800047d8:	02d00793          	li	a5,45
    800047dc:	0af107a3          	sb	a5,175(sp)
    800047e0:	02d00713          	li	a4,45
    800047e4:	835ff06f          	j	80004018 <_vfprintf_r+0x1b30>
    800047e8:	000b0893          	mv	a7,s6
    800047ec:	00048b13          	mv	s6,s1
    800047f0:	000a8493          	mv	s1,s5
    800047f4:	02813a83          	ld	s5,40(sp)
    800047f8:	fd0ff06f          	j	80003fc8 <_vfprintf_r+0x1ae0>
    800047fc:	fff00793          	li	a5,-1
    80004800:	00f13823          	sd	a5,16(sp)
    80004804:	888fe06f          	j	8000288c <_vfprintf_r+0x3a4>
    80004808:	0af14703          	lbu	a4,175(sp)
    8000480c:	03913023          	sd	s9,32(sp)
    80004810:	04013023          	sd	zero,64(sp)
    80004814:	02013c23          	sd	zero,56(sp)
    80004818:	02013423          	sd	zero,40(sp)
    8000481c:	000b0b93          	mv	s7,s6
    80004820:	000b0693          	mv	a3,s6
    80004824:	00000b13          	li	s6,0
    80004828:	00070463          	beqz	a4,80004830 <_vfprintf_r+0x2348>
    8000482c:	950fe06f          	j	8000297c <_vfprintf_r+0x494>
    80004830:	ee9fd06f          	j	80002718 <_vfprintf_r+0x230>
    80004834:	02813583          	ld	a1,40(sp)
    80004838:	00813503          	ld	a0,8(sp)
    8000483c:	000b0713          	mv	a4,s6
    80004840:	000e8613          	mv	a2,t4
    80004844:	0c810893          	add	a7,sp,200
    80004848:	0bc10813          	add	a6,sp,188
    8000484c:	0b810793          	add	a5,sp,184
    80004850:	00200693          	li	a3,2
    80004854:	02613c23          	sd	t1,56(sp)
    80004858:	03d13823          	sd	t4,48(sp)
    8000485c:	774010ef          	jal	80005fd0 <_ldtoa_r>
    80004860:	001d7713          	and	a4,s10,1
    80004864:	03013e83          	ld	t4,48(sp)
    80004868:	03813303          	ld	t1,56(sp)
    8000486c:	00050d93          	mv	s11,a0
    80004870:	d80700e3          	beqz	a4,800045f0 <_vfprintf_r+0x2108>
    80004874:	016d8cb3          	add	s9,s11,s6
    80004878:	04700b93          	li	s7,71
    8000487c:	e3dff06f          	j	800046b8 <_vfprintf_r+0x21d0>
    80004880:	00813503          	ld	a0,8(sp)
    80004884:	0e010613          	add	a2,sp,224
    80004888:	00048593          	mv	a1,s1
    8000488c:	4e0000ef          	jal	80004d6c <__sprint_r>
    80004890:	00050463          	beqz	a0,80004898 <_vfprintf_r+0x23b0>
    80004894:	e05fe06f          	j	80003698 <_vfprintf_r+0x11b0>
    80004898:	0b812683          	lw	a3,184(sp)
    8000489c:	03013783          	ld	a5,48(sp)
    800048a0:	0f013a03          	ld	s4,240(sp)
    800048a4:	00098913          	mv	s2,s3
    800048a8:	40d786bb          	subw	a3,a5,a3
    800048ac:	930ff06f          	j	800039dc <_vfprintf_r+0x14f4>
    800048b0:	0b812783          	lw	a5,184(sp)
    800048b4:	02f13423          	sd	a5,40(sp)
    800048b8:	000c8793          	mv	a5,s9
    800048bc:	e45ff06f          	j	80004700 <_vfprintf_r+0x2218>
    800048c0:	02813783          	ld	a5,40(sp)
    800048c4:	001d7713          	and	a4,s10,1
    800048c8:	00eb6733          	or	a4,s6,a4
    800048cc:	34f05a63          	blez	a5,80004c20 <_vfprintf_r+0x2738>
    800048d0:	2e071863          	bnez	a4,80004bc0 <_vfprintf_r+0x26d8>
    800048d4:	02813683          	ld	a3,40(sp)
    800048d8:	06600313          	li	t1,102
    800048dc:	400d7e13          	and	t3,s10,1024
    800048e0:	1e0e1c63          	bnez	t3,80004ad8 <_vfprintf_r+0x25f0>
    800048e4:	fff6c813          	not	a6,a3
    800048e8:	43f85813          	sra	a6,a6,0x3f
    800048ec:	0106f833          	and	a6,a3,a6
    800048f0:	00080b9b          	sext.w	s7,a6
    800048f4:	000a0d13          	mv	s10,s4
    800048f8:	e7dff06f          	j	80004774 <_vfprintf_r+0x228c>
    800048fc:	04813783          	ld	a5,72(sp)
    80004900:	03013703          	ld	a4,48(sp)
    80004904:	06700313          	li	t1,103
    80004908:	00e786bb          	addw	a3,a5,a4
    8000490c:	02813783          	ld	a5,40(sp)
    80004910:	fcf046e3          	bgtz	a5,800048dc <_vfprintf_r+0x23f4>
    80004914:	40f6873b          	subw	a4,a3,a5
    80004918:	0017071b          	addw	a4,a4,1
    8000491c:	0007069b          	sext.w	a3,a4
    80004920:	fff6c613          	not	a2,a3
    80004924:	43f65613          	sra	a2,a2,0x3f
    80004928:	00c77733          	and	a4,a4,a2
    8000492c:	00070b9b          	sext.w	s7,a4
    80004930:	000a0d13          	mv	s10,s4
    80004934:	e41ff06f          	j	80004774 <_vfprintf_r+0x228c>
    80004938:	000d0b93          	mv	s7,s10
    8000493c:	d85fe06f          	j	800036c0 <_vfprintf_r+0x11d8>
    80004940:	ff000713          	li	a4,-16
    80004944:	40b00b3b          	negw	s6,a1
    80004948:	0000a897          	auipc	a7,0xa
    8000494c:	64088893          	add	a7,a7,1600 # 8000ef88 <zeroes.0>
    80004950:	06e5de63          	bge	a1,a4,800049cc <_vfprintf_r+0x24e4>
    80004954:	03513423          	sd	s5,40(sp)
    80004958:	01000a13          	li	s4,16
    8000495c:	00700c93          	li	s9,7
    80004960:	00088a93          	mv	s5,a7
    80004964:	00c0006f          	j	80004970 <_vfprintf_r+0x2488>
    80004968:	ff0b0b1b          	addw	s6,s6,-16
    8000496c:	056a5c63          	bge	s4,s6,800049c4 <_vfprintf_r+0x24dc>
    80004970:	0016869b          	addw	a3,a3,1
    80004974:	01060613          	add	a2,a2,16
    80004978:	01593023          	sd	s5,0(s2)
    8000497c:	01493423          	sd	s4,8(s2)
    80004980:	0ec13823          	sd	a2,240(sp)
    80004984:	0ed12423          	sw	a3,232(sp)
    80004988:	01090913          	add	s2,s2,16
    8000498c:	fcdcdee3          	bge	s9,a3,80004968 <_vfprintf_r+0x2480>
    80004990:	00813503          	ld	a0,8(sp)
    80004994:	0e010613          	add	a2,sp,224
    80004998:	00048593          	mv	a1,s1
    8000499c:	3d0000ef          	jal	80004d6c <__sprint_r>
    800049a0:	00050463          	beqz	a0,800049a8 <_vfprintf_r+0x24c0>
    800049a4:	cf5fe06f          	j	80003698 <_vfprintf_r+0x11b0>
    800049a8:	0f013603          	ld	a2,240(sp)
    800049ac:	0e812683          	lw	a3,232(sp)
    800049b0:	00098913          	mv	s2,s3
    800049b4:	fb5ff06f          	j	80004968 <_vfprintf_r+0x2480>
    800049b8:	01813583          	ld	a1,24(sp)
    800049bc:	00090493          	mv	s1,s2
    800049c0:	cddfe06f          	j	8000369c <_vfprintf_r+0x11b4>
    800049c4:	000a8893          	mv	a7,s5
    800049c8:	02813a83          	ld	s5,40(sp)
    800049cc:	0016869b          	addw	a3,a3,1
    800049d0:	01660633          	add	a2,a2,s6
    800049d4:	01193023          	sd	a7,0(s2)
    800049d8:	01693423          	sd	s6,8(s2)
    800049dc:	0ec13823          	sd	a2,240(sp)
    800049e0:	0ed12423          	sw	a3,232(sp)
    800049e4:	00700713          	li	a4,7
    800049e8:	d8d75263          	bge	a4,a3,80003f6c <_vfprintf_r+0x1a84>
    800049ec:	00813503          	ld	a0,8(sp)
    800049f0:	0e010613          	add	a2,sp,224
    800049f4:	00048593          	mv	a1,s1
    800049f8:	374000ef          	jal	80004d6c <__sprint_r>
    800049fc:	00050463          	beqz	a0,80004a04 <_vfprintf_r+0x251c>
    80004a00:	c99fe06f          	j	80003698 <_vfprintf_r+0x11b0>
    80004a04:	0f013603          	ld	a2,240(sp)
    80004a08:	0e812683          	lw	a3,232(sp)
    80004a0c:	00098913          	mv	s2,s3
    80004a10:	eccff06f          	j	800040dc <_vfprintf_r+0x1bf4>
    80004a14:	001b071b          	addw	a4,s6,1
    80004a18:	00200693          	li	a3,2
    80004a1c:	c41ff06f          	j	8000465c <_vfprintf_r+0x2174>
    80004a20:	0c210693          	add	a3,sp,194
    80004a24:	00061863          	bnez	a2,80004a34 <_vfprintf_r+0x254c>
    80004a28:	03000693          	li	a3,48
    80004a2c:	0cd10123          	sb	a3,194(sp)
    80004a30:	0c310693          	add	a3,sp,195
    80004a34:	1e010793          	add	a5,sp,480
    80004a38:	40f68633          	sub	a2,a3,a5
    80004a3c:	0307071b          	addw	a4,a4,48
    80004a40:	1216079b          	addw	a5,a2,289
    80004a44:	00e68023          	sb	a4,0(a3)
    80004a48:	06f13423          	sd	a5,104(sp)
    80004a4c:	ba8fe06f          	j	80002df4 <_vfprintf_r+0x90c>
    80004a50:	00013c23          	sd	zero,24(sp)
    80004a54:	00600b13          	li	s6,6
    80004a58:	860fe06f          	j	80002ab8 <_vfprintf_r+0x5d0>
    80004a5c:	00f72023          	sw	a5,0(a4)
    80004a60:	875fe06f          	j	800032d4 <_vfprintf_r+0xdec>
    80004a64:	000b0463          	beqz	s6,80004a6c <_vfprintf_r+0x2584>
    80004a68:	850fe06f          	j	80002ab8 <_vfprintf_r+0x5d0>
    80004a6c:	00100b13          	li	s6,1
    80004a70:	848fe06f          	j	80002ab8 <_vfprintf_r+0x5d0>
    80004a74:	001d7613          	and	a2,s10,1
    80004a78:	00061463          	bnez	a2,80004a80 <_vfprintf_r+0x2598>
    80004a7c:	b9cfe06f          	j	80002e18 <_vfprintf_r+0x930>
    80004a80:	b90fe06f          	j	80002e10 <_vfprintf_r+0x928>
    80004a84:	02e13023          	sd	a4,32(sp)
    80004a88:	c39fe06f          	j	800036c0 <_vfprintf_r+0x11d8>
    80004a8c:	02813503          	ld	a0,40(sp)
    80004a90:	000e8593          	mv	a1,t4
    80004a94:	00000613          	li	a2,0
    80004a98:	00000693          	li	a3,0
    80004a9c:	04613023          	sd	t1,64(sp)
    80004aa0:	02e13c23          	sd	a4,56(sp)
    80004aa4:	03d13823          	sd	t4,48(sp)
    80004aa8:	2e0080ef          	jal	8000cd88 <__eqtf2>
    80004aac:	03013e83          	ld	t4,48(sp)
    80004ab0:	03813703          	ld	a4,56(sp)
    80004ab4:	04013303          	ld	t1,64(sp)
    80004ab8:	10051e63          	bnez	a0,80004bd4 <_vfprintf_r+0x26ec>
    80004abc:	0b812783          	lw	a5,184(sp)
    80004ac0:	00fc8833          	add	a6,s9,a5
    80004ac4:	02f13423          	sd	a5,40(sp)
    80004ac8:	41b807bb          	subw	a5,a6,s11
    80004acc:	02f13823          	sd	a5,48(sp)
    80004ad0:	c41ff06f          	j	80004710 <_vfprintf_r+0x2228>
    80004ad4:	06700313          	li	t1,103
    80004ad8:	07813783          	ld	a5,120(sp)
    80004adc:	0ff00613          	li	a2,255
    80004ae0:	0007c703          	lbu	a4,0(a5)
    80004ae4:	18c70863          	beq	a4,a2,80004c74 <_vfprintf_r+0x278c>
    80004ae8:	00078613          	mv	a2,a5
    80004aec:	02813783          	ld	a5,40(sp)
    80004af0:	00000893          	li	a7,0
    80004af4:	00000813          	li	a6,0
    80004af8:	0ff00593          	li	a1,255
    80004afc:	0007051b          	sext.w	a0,a4
    80004b00:	00f75e63          	bge	a4,a5,80004b1c <_vfprintf_r+0x2634>
    80004b04:	00164703          	lbu	a4,1(a2)
    80004b08:	40a787bb          	subw	a5,a5,a0
    80004b0c:	04070a63          	beqz	a4,80004b60 <_vfprintf_r+0x2678>
    80004b10:	0018081b          	addw	a6,a6,1
    80004b14:	00160613          	add	a2,a2,1
    80004b18:	feb712e3          	bne	a4,a1,80004afc <_vfprintf_r+0x2614>
    80004b1c:	06c13c23          	sd	a2,120(sp)
    80004b20:	03013c23          	sd	a6,56(sp)
    80004b24:	05113023          	sd	a7,64(sp)
    80004b28:	02f13423          	sd	a5,40(sp)
    80004b2c:	04013783          	ld	a5,64(sp)
    80004b30:	03813703          	ld	a4,56(sp)
    80004b34:	000a0d13          	mv	s10,s4
    80004b38:	00e7873b          	addw	a4,a5,a4
    80004b3c:	08013783          	ld	a5,128(sp)
    80004b40:	02f7073b          	mulw	a4,a4,a5
    80004b44:	00d7073b          	addw	a4,a4,a3
    80004b48:	0007069b          	sext.w	a3,a4
    80004b4c:	fff6c613          	not	a2,a3
    80004b50:	43f65613          	sra	a2,a2,0x3f
    80004b54:	00c77733          	and	a4,a4,a2
    80004b58:	00070b9b          	sext.w	s7,a4
    80004b5c:	ae4fe06f          	j	80002e40 <_vfprintf_r+0x958>
    80004b60:	00064703          	lbu	a4,0(a2)
    80004b64:	0018889b          	addw	a7,a7,1
    80004b68:	fb1ff06f          	j	80004b18 <_vfprintf_r+0x2630>
    80004b6c:	09013683          	ld	a3,144(sp)
    80004b70:	000b8493          	mv	s1,s7
    80004b74:	00090b93          	mv	s7,s2
    80004b78:	00dd86bb          	addw	a3,s11,a3
    80004b7c:	417686bb          	subw	a3,a3,s7
    80004b80:	02069613          	sll	a2,a3,0x20
    80004b84:	04013a83          	ld	s5,64(sp)
    80004b88:	06813303          	ld	t1,104(sp)
    80004b8c:	08813903          	ld	s2,136(sp)
    80004b90:	00065463          	bgez	a2,80004b98 <_vfprintf_r+0x26b0>
    80004b94:	98cfe06f          	j	80002d20 <_vfprintf_r+0x838>
    80004b98:	0016869b          	addw	a3,a3,1
    80004b9c:	00db86b3          	add	a3,s7,a3
    80004ba0:	03000613          	li	a2,48
    80004ba4:	001b8b93          	add	s7,s7,1
    80004ba8:	fecb8fa3          	sb	a2,-1(s7)
    80004bac:	ff769ce3          	bne	a3,s7,80004ba4 <_vfprintf_r+0x26bc>
    80004bb0:	974fe06f          	j	80002d24 <_vfprintf_r+0x83c>
    80004bb4:	01813583          	ld	a1,24(sp)
    80004bb8:	000a8493          	mv	s1,s5
    80004bbc:	ae1fe06f          	j	8000369c <_vfprintf_r+0x11b4>
    80004bc0:	04813703          	ld	a4,72(sp)
    80004bc4:	06600313          	li	t1,102
    80004bc8:	016706bb          	addw	a3,a4,s6
    80004bcc:	00f686bb          	addw	a3,a3,a5
    80004bd0:	d0dff06f          	j	800048dc <_vfprintf_r+0x23f4>
    80004bd4:	00100693          	li	a3,1
    80004bd8:	40e686bb          	subw	a3,a3,a4
    80004bdc:	0ad12c23          	sw	a3,184(sp)
    80004be0:	ad5ff06f          	j	800046b4 <_vfprintf_r+0x21cc>
    80004be4:	07000693          	li	a3,112
    80004be8:	970fe06f          	j	80002d58 <_vfprintf_r+0x870>
    80004bec:	00200793          	li	a5,2
    80004bf0:	06f13423          	sd	a5,104(sp)
    80004bf4:	a00fe06f          	j	80002df4 <_vfprintf_r+0x90c>
    80004bf8:	02013683          	ld	a3,32(sp)
    80004bfc:	0006a783          	lw	a5,0(a3)
    80004c00:	00868693          	add	a3,a3,8
    80004c04:	00078b1b          	sext.w	s6,a5
    80004c08:	0007d463          	bgez	a5,80004c10 <_vfprintf_r+0x2728>
    80004c0c:	fff00b13          	li	s6,-1
    80004c10:	001ac303          	lbu	t1,1(s5)
    80004c14:	02d13023          	sd	a3,32(sp)
    80004c18:	00070a93          	mv	s5,a4
    80004c1c:	a61fd06f          	j	8000267c <_vfprintf_r+0x194>
    80004c20:	00071c63          	bnez	a4,80004c38 <_vfprintf_r+0x2750>
    80004c24:	000a0d13          	mv	s10,s4
    80004c28:	00100b93          	li	s7,1
    80004c2c:	06600313          	li	t1,102
    80004c30:	00100693          	li	a3,1
    80004c34:	b41ff06f          	j	80004774 <_vfprintf_r+0x228c>
    80004c38:	04813783          	ld	a5,72(sp)
    80004c3c:	000a0d13          	mv	s10,s4
    80004c40:	06600313          	li	t1,102
    80004c44:	0017871b          	addw	a4,a5,1
    80004c48:	0167073b          	addw	a4,a4,s6
    80004c4c:	0007069b          	sext.w	a3,a4
    80004c50:	fff6c613          	not	a2,a3
    80004c54:	43f65613          	sra	a2,a2,0x3f
    80004c58:	00c77733          	and	a4,a4,a2
    80004c5c:	00070b9b          	sext.w	s7,a4
    80004c60:	b15ff06f          	j	80004774 <_vfprintf_r+0x228c>
    80004c64:	0104d783          	lhu	a5,16(s1)
    80004c68:	0407e793          	or	a5,a5,64
    80004c6c:	00f49823          	sh	a5,16(s1)
    80004c70:	be9fd06f          	j	80002858 <_vfprintf_r+0x370>
    80004c74:	04013023          	sd	zero,64(sp)
    80004c78:	02013c23          	sd	zero,56(sp)
    80004c7c:	eb1ff06f          	j	80004b2c <_vfprintf_r+0x2644>
    80004c80:	000b0713          	mv	a4,s6
    80004c84:	a11ff06f          	j	80004694 <_vfprintf_r+0x21ac>

0000000080004c88 <vfprintf>:
    80004c88:	00060693          	mv	a3,a2
    80004c8c:	00058613          	mv	a2,a1
    80004c90:	00050593          	mv	a1,a0
    80004c94:	0000b517          	auipc	a0,0xb
    80004c98:	42453503          	ld	a0,1060(a0) # 800100b8 <_impure_ptr>
    80004c9c:	84dfd06f          	j	800024e8 <_vfprintf_r>

0000000080004ca0 <__sbprintf>:
    80004ca0:	b3010113          	add	sp,sp,-1232
    80004ca4:	0125d703          	lhu	a4,18(a1)
    80004ca8:	0105d783          	lhu	a5,16(a1)
    80004cac:	4c813023          	sd	s0,1216(sp)
    80004cb0:	00058413          	mv	s0,a1
    80004cb4:	000105b7          	lui	a1,0x10
    80004cb8:	ffd5859b          	addw	a1,a1,-3 # fffd <__stack_shift+0xffe6>
    80004cbc:	0ac42e03          	lw	t3,172(s0)
    80004cc0:	03043303          	ld	t1,48(s0)
    80004cc4:	04043883          	ld	a7,64(s0)
    80004cc8:	0107171b          	sllw	a4,a4,0x10
    80004ccc:	00b7f7b3          	and	a5,a5,a1
    80004cd0:	00e7e7b3          	or	a5,a5,a4
    80004cd4:	40000813          	li	a6,1024
    80004cd8:	00f12823          	sw	a5,16(sp)
    80004cdc:	00010593          	mv	a1,sp
    80004ce0:	0b010793          	add	a5,sp,176
    80004ce4:	4a913c23          	sd	s1,1208(sp)
    80004ce8:	4b213823          	sd	s2,1200(sp)
    80004cec:	4c113423          	sd	ra,1224(sp)
    80004cf0:	00050913          	mv	s2,a0
    80004cf4:	0bc12623          	sw	t3,172(sp)
    80004cf8:	02613823          	sd	t1,48(sp)
    80004cfc:	05113023          	sd	a7,64(sp)
    80004d00:	00f13023          	sd	a5,0(sp)
    80004d04:	00f13c23          	sd	a5,24(sp)
    80004d08:	01012623          	sw	a6,12(sp)
    80004d0c:	03012023          	sw	a6,32(sp)
    80004d10:	02012423          	sw	zero,40(sp)
    80004d14:	fd4fd0ef          	jal	800024e8 <_vfprintf_r>
    80004d18:	00050493          	mv	s1,a0
    80004d1c:	02055c63          	bgez	a0,80004d54 <__sbprintf+0xb4>
    80004d20:	01015783          	lhu	a5,16(sp)
    80004d24:	0407f793          	and	a5,a5,64
    80004d28:	00078863          	beqz	a5,80004d38 <__sbprintf+0x98>
    80004d2c:	01045783          	lhu	a5,16(s0)
    80004d30:	0407e793          	or	a5,a5,64
    80004d34:	00f41823          	sh	a5,16(s0)
    80004d38:	4c813083          	ld	ra,1224(sp)
    80004d3c:	4c013403          	ld	s0,1216(sp)
    80004d40:	4b013903          	ld	s2,1200(sp)
    80004d44:	00048513          	mv	a0,s1
    80004d48:	4b813483          	ld	s1,1208(sp)
    80004d4c:	4d010113          	add	sp,sp,1232
    80004d50:	00008067          	ret
    80004d54:	00010593          	mv	a1,sp
    80004d58:	00090513          	mv	a0,s2
    80004d5c:	3c4000ef          	jal	80005120 <_fflush_r>
    80004d60:	fc0500e3          	beqz	a0,80004d20 <__sbprintf+0x80>
    80004d64:	fff00493          	li	s1,-1
    80004d68:	fb9ff06f          	j	80004d20 <__sbprintf+0x80>

0000000080004d6c <__sprint_r>:
    80004d6c:	01063783          	ld	a5,16(a2)
    80004d70:	ff010113          	add	sp,sp,-16
    80004d74:	00813023          	sd	s0,0(sp)
    80004d78:	00113423          	sd	ra,8(sp)
    80004d7c:	00060413          	mv	s0,a2
    80004d80:	00079e63          	bnez	a5,80004d9c <__sprint_r+0x30>
    80004d84:	00813083          	ld	ra,8(sp)
    80004d88:	00042423          	sw	zero,8(s0)
    80004d8c:	00013403          	ld	s0,0(sp)
    80004d90:	00000513          	li	a0,0
    80004d94:	01010113          	add	sp,sp,16
    80004d98:	00008067          	ret
    80004d9c:	4d8000ef          	jal	80005274 <__sfvwrite_r>
    80004da0:	00813083          	ld	ra,8(sp)
    80004da4:	00043823          	sd	zero,16(s0)
    80004da8:	00042423          	sw	zero,8(s0)
    80004dac:	00013403          	ld	s0,0(sp)
    80004db0:	01010113          	add	sp,sp,16
    80004db4:	00008067          	ret

0000000080004db8 <_fclose_r>:
    80004db8:	fe010113          	add	sp,sp,-32
    80004dbc:	00113c23          	sd	ra,24(sp)
    80004dc0:	01213023          	sd	s2,0(sp)
    80004dc4:	02058863          	beqz	a1,80004df4 <_fclose_r+0x3c>
    80004dc8:	00813823          	sd	s0,16(sp)
    80004dcc:	00913423          	sd	s1,8(sp)
    80004dd0:	00058413          	mv	s0,a1
    80004dd4:	00050493          	mv	s1,a0
    80004dd8:	00050663          	beqz	a0,80004de4 <_fclose_r+0x2c>
    80004ddc:	04853783          	ld	a5,72(a0)
    80004de0:	0c078c63          	beqz	a5,80004eb8 <_fclose_r+0x100>
    80004de4:	01041783          	lh	a5,16(s0)
    80004de8:	02079263          	bnez	a5,80004e0c <_fclose_r+0x54>
    80004dec:	01013403          	ld	s0,16(sp)
    80004df0:	00813483          	ld	s1,8(sp)
    80004df4:	01813083          	ld	ra,24(sp)
    80004df8:	00000913          	li	s2,0
    80004dfc:	00090513          	mv	a0,s2
    80004e00:	00013903          	ld	s2,0(sp)
    80004e04:	02010113          	add	sp,sp,32
    80004e08:	00008067          	ret
    80004e0c:	00040593          	mv	a1,s0
    80004e10:	00048513          	mv	a0,s1
    80004e14:	0bc000ef          	jal	80004ed0 <__sflush_r>
    80004e18:	05043783          	ld	a5,80(s0)
    80004e1c:	00050913          	mv	s2,a0
    80004e20:	00078a63          	beqz	a5,80004e34 <_fclose_r+0x7c>
    80004e24:	03043583          	ld	a1,48(s0)
    80004e28:	00048513          	mv	a0,s1
    80004e2c:	000780e7          	jalr	a5
    80004e30:	06054463          	bltz	a0,80004e98 <_fclose_r+0xe0>
    80004e34:	01045783          	lhu	a5,16(s0)
    80004e38:	0807f793          	and	a5,a5,128
    80004e3c:	06079663          	bnez	a5,80004ea8 <_fclose_r+0xf0>
    80004e40:	05843583          	ld	a1,88(s0)
    80004e44:	00058c63          	beqz	a1,80004e5c <_fclose_r+0xa4>
    80004e48:	07440793          	add	a5,s0,116
    80004e4c:	00f58663          	beq	a1,a5,80004e58 <_fclose_r+0xa0>
    80004e50:	00048513          	mv	a0,s1
    80004e54:	b4dfc0ef          	jal	800019a0 <_free_r>
    80004e58:	04043c23          	sd	zero,88(s0)
    80004e5c:	07843583          	ld	a1,120(s0)
    80004e60:	00058863          	beqz	a1,80004e70 <_fclose_r+0xb8>
    80004e64:	00048513          	mv	a0,s1
    80004e68:	b39fc0ef          	jal	800019a0 <_free_r>
    80004e6c:	06043c23          	sd	zero,120(s0)
    80004e70:	b55fb0ef          	jal	800009c4 <__sfp_lock_acquire>
    80004e74:	00041823          	sh	zero,16(s0)
    80004e78:	b51fb0ef          	jal	800009c8 <__sfp_lock_release>
    80004e7c:	01813083          	ld	ra,24(sp)
    80004e80:	01013403          	ld	s0,16(sp)
    80004e84:	00813483          	ld	s1,8(sp)
    80004e88:	00090513          	mv	a0,s2
    80004e8c:	00013903          	ld	s2,0(sp)
    80004e90:	02010113          	add	sp,sp,32
    80004e94:	00008067          	ret
    80004e98:	01045783          	lhu	a5,16(s0)
    80004e9c:	fff00913          	li	s2,-1
    80004ea0:	0807f793          	and	a5,a5,128
    80004ea4:	f8078ee3          	beqz	a5,80004e40 <_fclose_r+0x88>
    80004ea8:	01843583          	ld	a1,24(s0)
    80004eac:	00048513          	mv	a0,s1
    80004eb0:	af1fc0ef          	jal	800019a0 <_free_r>
    80004eb4:	f8dff06f          	j	80004e40 <_fclose_r+0x88>
    80004eb8:	ae9fb0ef          	jal	800009a0 <__sinit>
    80004ebc:	f29ff06f          	j	80004de4 <_fclose_r+0x2c>

0000000080004ec0 <fclose>:
    80004ec0:	00050593          	mv	a1,a0
    80004ec4:	0000b517          	auipc	a0,0xb
    80004ec8:	1f453503          	ld	a0,500(a0) # 800100b8 <_impure_ptr>
    80004ecc:	eedff06f          	j	80004db8 <_fclose_r>

0000000080004ed0 <__sflush_r>:
    80004ed0:	01059703          	lh	a4,16(a1)
    80004ed4:	fd010113          	add	sp,sp,-48
    80004ed8:	02813023          	sd	s0,32(sp)
    80004edc:	01313423          	sd	s3,8(sp)
    80004ee0:	02113423          	sd	ra,40(sp)
    80004ee4:	00877793          	and	a5,a4,8
    80004ee8:	00058413          	mv	s0,a1
    80004eec:	00050993          	mv	s3,a0
    80004ef0:	12079263          	bnez	a5,80005014 <__sflush_r+0x144>
    80004ef4:	000017b7          	lui	a5,0x1
    80004ef8:	80078793          	add	a5,a5,-2048 # 800 <__stack_shift+0x7e9>
    80004efc:	0085a683          	lw	a3,8(a1)
    80004f00:	00f767b3          	or	a5,a4,a5
    80004f04:	00f59823          	sh	a5,16(a1)
    80004f08:	18d05463          	blez	a3,80005090 <__sflush_r+0x1c0>
    80004f0c:	04843803          	ld	a6,72(s0)
    80004f10:	0e080663          	beqz	a6,80004ffc <__sflush_r+0x12c>
    80004f14:	00913c23          	sd	s1,24(sp)
    80004f18:	03371693          	sll	a3,a4,0x33
    80004f1c:	0009a483          	lw	s1,0(s3)
    80004f20:	0009a023          	sw	zero,0(s3)
    80004f24:	03043583          	ld	a1,48(s0)
    80004f28:	1806c063          	bltz	a3,800050a8 <__sflush_r+0x1d8>
    80004f2c:	00000613          	li	a2,0
    80004f30:	00100693          	li	a3,1
    80004f34:	00098513          	mv	a0,s3
    80004f38:	000800e7          	jalr	a6
    80004f3c:	fff00793          	li	a5,-1
    80004f40:	00050613          	mv	a2,a0
    80004f44:	1af50663          	beq	a0,a5,800050f0 <__sflush_r+0x220>
    80004f48:	01041783          	lh	a5,16(s0)
    80004f4c:	04843803          	ld	a6,72(s0)
    80004f50:	03043583          	ld	a1,48(s0)
    80004f54:	0047f793          	and	a5,a5,4
    80004f58:	00078e63          	beqz	a5,80004f74 <__sflush_r+0xa4>
    80004f5c:	00842703          	lw	a4,8(s0)
    80004f60:	05843783          	ld	a5,88(s0)
    80004f64:	40e60633          	sub	a2,a2,a4
    80004f68:	00078663          	beqz	a5,80004f74 <__sflush_r+0xa4>
    80004f6c:	07042783          	lw	a5,112(s0)
    80004f70:	40f60633          	sub	a2,a2,a5
    80004f74:	00000693          	li	a3,0
    80004f78:	00098513          	mv	a0,s3
    80004f7c:	000800e7          	jalr	a6
    80004f80:	fff00793          	li	a5,-1
    80004f84:	12f51663          	bne	a0,a5,800050b0 <__sflush_r+0x1e0>
    80004f88:	0009a683          	lw	a3,0(s3)
    80004f8c:	01d00793          	li	a5,29
    80004f90:	01041703          	lh	a4,16(s0)
    80004f94:	0006861b          	sext.w	a2,a3
    80004f98:	16d7ea63          	bltu	a5,a3,8000510c <__sflush_r+0x23c>
    80004f9c:	204007b7          	lui	a5,0x20400
    80004fa0:	00178793          	add	a5,a5,1 # 20400001 <__heap_size+0x1fc00001>
    80004fa4:	00c7d7b3          	srl	a5,a5,a2
    80004fa8:	0017f793          	and	a5,a5,1
    80004fac:	16078063          	beqz	a5,8000510c <__sflush_r+0x23c>
    80004fb0:	01843603          	ld	a2,24(s0)
    80004fb4:	fffff7b7          	lui	a5,0xfffff
    80004fb8:	7ff78793          	add	a5,a5,2047 # fffffffffffff7ff <__heap_end+0xffffffff7f7ed7ff>
    80004fbc:	00f777b3          	and	a5,a4,a5
    80004fc0:	00f41823          	sh	a5,16(s0)
    80004fc4:	00042423          	sw	zero,8(s0)
    80004fc8:	00c43023          	sd	a2,0(s0)
    80004fcc:	03371793          	sll	a5,a4,0x33
    80004fd0:	0007d463          	bgez	a5,80004fd8 <__sflush_r+0x108>
    80004fd4:	10068263          	beqz	a3,800050d8 <__sflush_r+0x208>
    80004fd8:	05843583          	ld	a1,88(s0)
    80004fdc:	0099a023          	sw	s1,0(s3)
    80004fe0:	10058463          	beqz	a1,800050e8 <__sflush_r+0x218>
    80004fe4:	07440793          	add	a5,s0,116
    80004fe8:	00f58663          	beq	a1,a5,80004ff4 <__sflush_r+0x124>
    80004fec:	00098513          	mv	a0,s3
    80004ff0:	9b1fc0ef          	jal	800019a0 <_free_r>
    80004ff4:	01813483          	ld	s1,24(sp)
    80004ff8:	04043c23          	sd	zero,88(s0)
    80004ffc:	00000513          	li	a0,0
    80005000:	02813083          	ld	ra,40(sp)
    80005004:	02013403          	ld	s0,32(sp)
    80005008:	00813983          	ld	s3,8(sp)
    8000500c:	03010113          	add	sp,sp,48
    80005010:	00008067          	ret
    80005014:	01213823          	sd	s2,16(sp)
    80005018:	0185b903          	ld	s2,24(a1)
    8000501c:	08090263          	beqz	s2,800050a0 <__sflush_r+0x1d0>
    80005020:	00913c23          	sd	s1,24(sp)
    80005024:	0005b483          	ld	s1,0(a1)
    80005028:	00377713          	and	a4,a4,3
    8000502c:	0125b023          	sd	s2,0(a1)
    80005030:	412484bb          	subw	s1,s1,s2
    80005034:	00000793          	li	a5,0
    80005038:	00071463          	bnez	a4,80005040 <__sflush_r+0x170>
    8000503c:	0205a783          	lw	a5,32(a1)
    80005040:	00f42623          	sw	a5,12(s0)
    80005044:	00904863          	bgtz	s1,80005054 <__sflush_r+0x184>
    80005048:	0540006f          	j	8000509c <__sflush_r+0x1cc>
    8000504c:	00a90933          	add	s2,s2,a0
    80005050:	04905663          	blez	s1,8000509c <__sflush_r+0x1cc>
    80005054:	04043783          	ld	a5,64(s0)
    80005058:	03043583          	ld	a1,48(s0)
    8000505c:	00048693          	mv	a3,s1
    80005060:	00090613          	mv	a2,s2
    80005064:	00098513          	mv	a0,s3
    80005068:	000780e7          	jalr	a5
    8000506c:	40a484bb          	subw	s1,s1,a0
    80005070:	fca04ee3          	bgtz	a0,8000504c <__sflush_r+0x17c>
    80005074:	01041703          	lh	a4,16(s0)
    80005078:	01013903          	ld	s2,16(sp)
    8000507c:	04076713          	or	a4,a4,64
    80005080:	01813483          	ld	s1,24(sp)
    80005084:	00e41823          	sh	a4,16(s0)
    80005088:	fff00513          	li	a0,-1
    8000508c:	f75ff06f          	j	80005000 <__sflush_r+0x130>
    80005090:	0705a683          	lw	a3,112(a1)
    80005094:	e6d04ce3          	bgtz	a3,80004f0c <__sflush_r+0x3c>
    80005098:	f65ff06f          	j	80004ffc <__sflush_r+0x12c>
    8000509c:	01813483          	ld	s1,24(sp)
    800050a0:	01013903          	ld	s2,16(sp)
    800050a4:	f59ff06f          	j	80004ffc <__sflush_r+0x12c>
    800050a8:	09043603          	ld	a2,144(s0)
    800050ac:	ea9ff06f          	j	80004f54 <__sflush_r+0x84>
    800050b0:	01041703          	lh	a4,16(s0)
    800050b4:	01843683          	ld	a3,24(s0)
    800050b8:	fffff7b7          	lui	a5,0xfffff
    800050bc:	7ff78793          	add	a5,a5,2047 # fffffffffffff7ff <__heap_end+0xffffffff7f7ed7ff>
    800050c0:	00f777b3          	and	a5,a4,a5
    800050c4:	00f41823          	sh	a5,16(s0)
    800050c8:	00042423          	sw	zero,8(s0)
    800050cc:	00d43023          	sd	a3,0(s0)
    800050d0:	03371793          	sll	a5,a4,0x33
    800050d4:	f007d2e3          	bgez	a5,80004fd8 <__sflush_r+0x108>
    800050d8:	05843583          	ld	a1,88(s0)
    800050dc:	08a43823          	sd	a0,144(s0)
    800050e0:	0099a023          	sw	s1,0(s3)
    800050e4:	f00590e3          	bnez	a1,80004fe4 <__sflush_r+0x114>
    800050e8:	01813483          	ld	s1,24(sp)
    800050ec:	f11ff06f          	j	80004ffc <__sflush_r+0x12c>
    800050f0:	0009a783          	lw	a5,0(s3)
    800050f4:	e4078ae3          	beqz	a5,80004f48 <__sflush_r+0x78>
    800050f8:	01d00713          	li	a4,29
    800050fc:	00e78c63          	beq	a5,a4,80005114 <__sflush_r+0x244>
    80005100:	01600713          	li	a4,22
    80005104:	00e78863          	beq	a5,a4,80005114 <__sflush_r+0x244>
    80005108:	01041703          	lh	a4,16(s0)
    8000510c:	04076713          	or	a4,a4,64
    80005110:	f71ff06f          	j	80005080 <__sflush_r+0x1b0>
    80005114:	0099a023          	sw	s1,0(s3)
    80005118:	01813483          	ld	s1,24(sp)
    8000511c:	ee1ff06f          	j	80004ffc <__sflush_r+0x12c>

0000000080005120 <_fflush_r>:
    80005120:	fe010113          	add	sp,sp,-32
    80005124:	00813823          	sd	s0,16(sp)
    80005128:	00113c23          	sd	ra,24(sp)
    8000512c:	00050413          	mv	s0,a0
    80005130:	00050663          	beqz	a0,8000513c <_fflush_r+0x1c>
    80005134:	04853783          	ld	a5,72(a0)
    80005138:	02078a63          	beqz	a5,8000516c <_fflush_r+0x4c>
    8000513c:	01059783          	lh	a5,16(a1)
    80005140:	00079c63          	bnez	a5,80005158 <_fflush_r+0x38>
    80005144:	01813083          	ld	ra,24(sp)
    80005148:	01013403          	ld	s0,16(sp)
    8000514c:	00000513          	li	a0,0
    80005150:	02010113          	add	sp,sp,32
    80005154:	00008067          	ret
    80005158:	00040513          	mv	a0,s0
    8000515c:	01013403          	ld	s0,16(sp)
    80005160:	01813083          	ld	ra,24(sp)
    80005164:	02010113          	add	sp,sp,32
    80005168:	d69ff06f          	j	80004ed0 <__sflush_r>
    8000516c:	00b13423          	sd	a1,8(sp)
    80005170:	831fb0ef          	jal	800009a0 <__sinit>
    80005174:	00813583          	ld	a1,8(sp)
    80005178:	fc5ff06f          	j	8000513c <_fflush_r+0x1c>

000000008000517c <fflush>:
    8000517c:	06050263          	beqz	a0,800051e0 <fflush+0x64>
    80005180:	00050593          	mv	a1,a0
    80005184:	0000b517          	auipc	a0,0xb
    80005188:	f3453503          	ld	a0,-204(a0) # 800100b8 <_impure_ptr>
    8000518c:	00050663          	beqz	a0,80005198 <fflush+0x1c>
    80005190:	04853783          	ld	a5,72(a0)
    80005194:	00078c63          	beqz	a5,800051ac <fflush+0x30>
    80005198:	01059783          	lh	a5,16(a1)
    8000519c:	00079663          	bnez	a5,800051a8 <fflush+0x2c>
    800051a0:	00000513          	li	a0,0
    800051a4:	00008067          	ret
    800051a8:	d29ff06f          	j	80004ed0 <__sflush_r>
    800051ac:	fe010113          	add	sp,sp,-32
    800051b0:	00b13423          	sd	a1,8(sp)
    800051b4:	00a13023          	sd	a0,0(sp)
    800051b8:	00113c23          	sd	ra,24(sp)
    800051bc:	fe4fb0ef          	jal	800009a0 <__sinit>
    800051c0:	00813583          	ld	a1,8(sp)
    800051c4:	00013503          	ld	a0,0(sp)
    800051c8:	01059783          	lh	a5,16(a1)
    800051cc:	02079863          	bnez	a5,800051fc <fflush+0x80>
    800051d0:	01813083          	ld	ra,24(sp)
    800051d4:	00000513          	li	a0,0
    800051d8:	02010113          	add	sp,sp,32
    800051dc:	00008067          	ret
    800051e0:	0000a617          	auipc	a2,0xa
    800051e4:	3b060613          	add	a2,a2,944 # 8000f590 <__sglue>
    800051e8:	00000597          	auipc	a1,0x0
    800051ec:	f3858593          	add	a1,a1,-200 # 80005120 <_fflush_r>
    800051f0:	0000a517          	auipc	a0,0xa
    800051f4:	3b850513          	add	a0,a0,952 # 8000f5a8 <_impure_data>
    800051f8:	889fb06f          	j	80000a80 <_fwalk_sglue>
    800051fc:	01813083          	ld	ra,24(sp)
    80005200:	02010113          	add	sp,sp,32
    80005204:	ccdff06f          	j	80004ed0 <__sflush_r>

0000000080005208 <fileno>:
    80005208:	fe010113          	add	sp,sp,-32
    8000520c:	00913423          	sd	s1,8(sp)
    80005210:	0000b497          	auipc	s1,0xb
    80005214:	ea848493          	add	s1,s1,-344 # 800100b8 <_impure_ptr>
    80005218:	0004b783          	ld	a5,0(s1)
    8000521c:	00813823          	sd	s0,16(sp)
    80005220:	00113c23          	sd	ra,24(sp)
    80005224:	00050413          	mv	s0,a0
    80005228:	00078663          	beqz	a5,80005234 <fileno+0x2c>
    8000522c:	0487b703          	ld	a4,72(a5)
    80005230:	02070263          	beqz	a4,80005254 <fileno+0x4c>
    80005234:	01041783          	lh	a5,16(s0)
    80005238:	02078463          	beqz	a5,80005260 <fileno+0x58>
    8000523c:	01241503          	lh	a0,18(s0)
    80005240:	01813083          	ld	ra,24(sp)
    80005244:	01013403          	ld	s0,16(sp)
    80005248:	00813483          	ld	s1,8(sp)
    8000524c:	02010113          	add	sp,sp,32
    80005250:	00008067          	ret
    80005254:	00078513          	mv	a0,a5
    80005258:	f48fb0ef          	jal	800009a0 <__sinit>
    8000525c:	fd9ff06f          	j	80005234 <fileno+0x2c>
    80005260:	0004b783          	ld	a5,0(s1)
    80005264:	00900713          	li	a4,9
    80005268:	fff00513          	li	a0,-1
    8000526c:	00e7a023          	sw	a4,0(a5)
    80005270:	fd1ff06f          	j	80005240 <fileno+0x38>

0000000080005274 <__sfvwrite_r>:
    80005274:	01063783          	ld	a5,16(a2)
    80005278:	2c078063          	beqz	a5,80005538 <__sfvwrite_r+0x2c4>
    8000527c:	01059703          	lh	a4,16(a1)
    80005280:	fa010113          	add	sp,sp,-96
    80005284:	04813823          	sd	s0,80(sp)
    80005288:	03513423          	sd	s5,40(sp)
    8000528c:	01713c23          	sd	s7,24(sp)
    80005290:	04113c23          	sd	ra,88(sp)
    80005294:	00877793          	and	a5,a4,8
    80005298:	00060b93          	mv	s7,a2
    8000529c:	00050a93          	mv	s5,a0
    800052a0:	00058413          	mv	s0,a1
    800052a4:	0a078063          	beqz	a5,80005344 <__sfvwrite_r+0xd0>
    800052a8:	0185b783          	ld	a5,24(a1)
    800052ac:	08078c63          	beqz	a5,80005344 <__sfvwrite_r+0xd0>
    800052b0:	04913423          	sd	s1,72(sp)
    800052b4:	05213023          	sd	s2,64(sp)
    800052b8:	03313c23          	sd	s3,56(sp)
    800052bc:	03413823          	sd	s4,48(sp)
    800052c0:	00277793          	and	a5,a4,2
    800052c4:	000bb483          	ld	s1,0(s7)
    800052c8:	0a078663          	beqz	a5,80005374 <__sfvwrite_r+0x100>
    800052cc:	04043783          	ld	a5,64(s0)
    800052d0:	03043583          	ld	a1,48(s0)
    800052d4:	80000a37          	lui	s4,0x80000
    800052d8:	00000993          	li	s3,0
    800052dc:	00000913          	li	s2,0
    800052e0:	c00a4a13          	xor	s4,s4,-1024
    800052e4:	00098613          	mv	a2,s3
    800052e8:	000a8513          	mv	a0,s5
    800052ec:	04090463          	beqz	s2,80005334 <__sfvwrite_r+0xc0>
    800052f0:	00090693          	mv	a3,s2
    800052f4:	012a7463          	bgeu	s4,s2,800052fc <__sfvwrite_r+0x88>
    800052f8:	000a0693          	mv	a3,s4
    800052fc:	0006869b          	sext.w	a3,a3
    80005300:	000780e7          	jalr	a5
    80005304:	44a05a63          	blez	a0,80005758 <__sfvwrite_r+0x4e4>
    80005308:	010bb783          	ld	a5,16(s7)
    8000530c:	00a989b3          	add	s3,s3,a0
    80005310:	40a90933          	sub	s2,s2,a0
    80005314:	40a787b3          	sub	a5,a5,a0
    80005318:	00fbb823          	sd	a5,16(s7)
    8000531c:	18078e63          	beqz	a5,800054b8 <__sfvwrite_r+0x244>
    80005320:	04043783          	ld	a5,64(s0)
    80005324:	03043583          	ld	a1,48(s0)
    80005328:	00098613          	mv	a2,s3
    8000532c:	000a8513          	mv	a0,s5
    80005330:	fc0910e3          	bnez	s2,800052f0 <__sfvwrite_r+0x7c>
    80005334:	0004b983          	ld	s3,0(s1)
    80005338:	0084b903          	ld	s2,8(s1)
    8000533c:	01048493          	add	s1,s1,16
    80005340:	fa5ff06f          	j	800052e4 <__sfvwrite_r+0x70>
    80005344:	00040593          	mv	a1,s0
    80005348:	000a8513          	mv	a0,s5
    8000534c:	430000ef          	jal	8000577c <__swsetup_r>
    80005350:	1c051663          	bnez	a0,8000551c <__sfvwrite_r+0x2a8>
    80005354:	01041703          	lh	a4,16(s0)
    80005358:	04913423          	sd	s1,72(sp)
    8000535c:	05213023          	sd	s2,64(sp)
    80005360:	03313c23          	sd	s3,56(sp)
    80005364:	03413823          	sd	s4,48(sp)
    80005368:	00277793          	and	a5,a4,2
    8000536c:	000bb483          	ld	s1,0(s7)
    80005370:	f4079ee3          	bnez	a5,800052cc <__sfvwrite_r+0x58>
    80005374:	03613023          	sd	s6,32(sp)
    80005378:	01813823          	sd	s8,16(sp)
    8000537c:	01913423          	sd	s9,8(sp)
    80005380:	00177793          	and	a5,a4,1
    80005384:	08079e63          	bnez	a5,80005420 <__sfvwrite_r+0x1ac>
    80005388:	00c42a03          	lw	s4,12(s0)
    8000538c:	00043783          	ld	a5,0(s0)
    80005390:	80000b37          	lui	s6,0x80000
    80005394:	00000c13          	li	s8,0
    80005398:	00000913          	li	s2,0
    8000539c:	fffb4b13          	not	s6,s6
    800053a0:	00078513          	mv	a0,a5
    800053a4:	06090663          	beqz	s2,80005410 <__sfvwrite_r+0x19c>
    800053a8:	20077693          	and	a3,a4,512
    800053ac:	1e068e63          	beqz	a3,800055a8 <__sfvwrite_r+0x334>
    800053b0:	29497863          	bgeu	s2,s4,80005640 <__sfvwrite_r+0x3cc>
    800053b4:	00090c93          	mv	s9,s2
    800053b8:	00090a13          	mv	s4,s2
    800053bc:	000a0613          	mv	a2,s4
    800053c0:	000c0593          	mv	a1,s8
    800053c4:	788000ef          	jal	80005b4c <memmove>
    800053c8:	00c42703          	lw	a4,12(s0)
    800053cc:	00043783          	ld	a5,0(s0)
    800053d0:	00090993          	mv	s3,s2
    800053d4:	4197073b          	subw	a4,a4,s9
    800053d8:	01478a33          	add	s4,a5,s4
    800053dc:	00e42623          	sw	a4,12(s0)
    800053e0:	01443023          	sd	s4,0(s0)
    800053e4:	00000913          	li	s2,0
    800053e8:	010bb783          	ld	a5,16(s7)
    800053ec:	013c0c33          	add	s8,s8,s3
    800053f0:	413787b3          	sub	a5,a5,s3
    800053f4:	00fbb823          	sd	a5,16(s7)
    800053f8:	0a078a63          	beqz	a5,800054ac <__sfvwrite_r+0x238>
    800053fc:	00043783          	ld	a5,0(s0)
    80005400:	01041703          	lh	a4,16(s0)
    80005404:	00c42a03          	lw	s4,12(s0)
    80005408:	00078513          	mv	a0,a5
    8000540c:	f8091ee3          	bnez	s2,800053a8 <__sfvwrite_r+0x134>
    80005410:	0004bc03          	ld	s8,0(s1)
    80005414:	0084b903          	ld	s2,8(s1)
    80005418:	01048493          	add	s1,s1,16
    8000541c:	f85ff06f          	j	800053a0 <__sfvwrite_r+0x12c>
    80005420:	00000b13          	li	s6,0
    80005424:	00000513          	li	a0,0
    80005428:	00000c93          	li	s9,0
    8000542c:	00000c13          	li	s8,0
    80005430:	100c0863          	beqz	s8,80005540 <__sfvwrite_r+0x2cc>
    80005434:	12050063          	beqz	a0,80005554 <__sfvwrite_r+0x2e0>
    80005438:	000b0a13          	mv	s4,s6
    8000543c:	016c7463          	bgeu	s8,s6,80005444 <__sfvwrite_r+0x1d0>
    80005440:	000c0a13          	mv	s4,s8
    80005444:	00043503          	ld	a0,0(s0)
    80005448:	01843703          	ld	a4,24(s0)
    8000544c:	00c42783          	lw	a5,12(s0)
    80005450:	02042683          	lw	a3,32(s0)
    80005454:	000a0913          	mv	s2,s4
    80005458:	00a77663          	bgeu	a4,a0,80005464 <__sfvwrite_r+0x1f0>
    8000545c:	00d789bb          	addw	s3,a5,a3
    80005460:	1149ca63          	blt	s3,s4,80005574 <__sfvwrite_r+0x300>
    80005464:	26da4c63          	blt	s4,a3,800056dc <__sfvwrite_r+0x468>
    80005468:	04043783          	ld	a5,64(s0)
    8000546c:	03043583          	ld	a1,48(s0)
    80005470:	000c8613          	mv	a2,s9
    80005474:	000a8513          	mv	a0,s5
    80005478:	000780e7          	jalr	a5
    8000547c:	00050913          	mv	s2,a0
    80005480:	06a05a63          	blez	a0,800054f4 <__sfvwrite_r+0x280>
    80005484:	0005079b          	sext.w	a5,a0
    80005488:	40fb0b3b          	subw	s6,s6,a5
    8000548c:	00100513          	li	a0,1
    80005490:	040b0a63          	beqz	s6,800054e4 <__sfvwrite_r+0x270>
    80005494:	010bb783          	ld	a5,16(s7)
    80005498:	012c8cb3          	add	s9,s9,s2
    8000549c:	412c0c33          	sub	s8,s8,s2
    800054a0:	412787b3          	sub	a5,a5,s2
    800054a4:	00fbb823          	sd	a5,16(s7)
    800054a8:	f80794e3          	bnez	a5,80005430 <__sfvwrite_r+0x1bc>
    800054ac:	02013b03          	ld	s6,32(sp)
    800054b0:	01013c03          	ld	s8,16(sp)
    800054b4:	00813c83          	ld	s9,8(sp)
    800054b8:	05813083          	ld	ra,88(sp)
    800054bc:	05013403          	ld	s0,80(sp)
    800054c0:	04813483          	ld	s1,72(sp)
    800054c4:	04013903          	ld	s2,64(sp)
    800054c8:	03813983          	ld	s3,56(sp)
    800054cc:	03013a03          	ld	s4,48(sp)
    800054d0:	02813a83          	ld	s5,40(sp)
    800054d4:	01813b83          	ld	s7,24(sp)
    800054d8:	00000513          	li	a0,0
    800054dc:	06010113          	add	sp,sp,96
    800054e0:	00008067          	ret
    800054e4:	00040593          	mv	a1,s0
    800054e8:	000a8513          	mv	a0,s5
    800054ec:	c35ff0ef          	jal	80005120 <_fflush_r>
    800054f0:	fa0502e3          	beqz	a0,80005494 <__sfvwrite_r+0x220>
    800054f4:	01041783          	lh	a5,16(s0)
    800054f8:	02013b03          	ld	s6,32(sp)
    800054fc:	01013c03          	ld	s8,16(sp)
    80005500:	00813c83          	ld	s9,8(sp)
    80005504:	04813483          	ld	s1,72(sp)
    80005508:	04013903          	ld	s2,64(sp)
    8000550c:	03813983          	ld	s3,56(sp)
    80005510:	03013a03          	ld	s4,48(sp)
    80005514:	0407e793          	or	a5,a5,64
    80005518:	00f41823          	sh	a5,16(s0)
    8000551c:	05813083          	ld	ra,88(sp)
    80005520:	05013403          	ld	s0,80(sp)
    80005524:	02813a83          	ld	s5,40(sp)
    80005528:	01813b83          	ld	s7,24(sp)
    8000552c:	fff00513          	li	a0,-1
    80005530:	06010113          	add	sp,sp,96
    80005534:	00008067          	ret
    80005538:	00000513          	li	a0,0
    8000553c:	00008067          	ret
    80005540:	0084bc03          	ld	s8,8(s1)
    80005544:	00048793          	mv	a5,s1
    80005548:	01048493          	add	s1,s1,16
    8000554c:	fe0c0ae3          	beqz	s8,80005540 <__sfvwrite_r+0x2cc>
    80005550:	0007bc83          	ld	s9,0(a5)
    80005554:	000c0613          	mv	a2,s8
    80005558:	00a00593          	li	a1,10
    8000555c:	000c8513          	mv	a0,s9
    80005560:	360000ef          	jal	800058c0 <memchr>
    80005564:	1e050663          	beqz	a0,80005750 <__sfvwrite_r+0x4dc>
    80005568:	00150513          	add	a0,a0,1
    8000556c:	41950b3b          	subw	s6,a0,s9
    80005570:	ec9ff06f          	j	80005438 <__sfvwrite_r+0x1c4>
    80005574:	000c8593          	mv	a1,s9
    80005578:	00098613          	mv	a2,s3
    8000557c:	5d0000ef          	jal	80005b4c <memmove>
    80005580:	00043783          	ld	a5,0(s0)
    80005584:	00040593          	mv	a1,s0
    80005588:	000a8513          	mv	a0,s5
    8000558c:	013787b3          	add	a5,a5,s3
    80005590:	00f43023          	sd	a5,0(s0)
    80005594:	b8dff0ef          	jal	80005120 <_fflush_r>
    80005598:	f4051ee3          	bnez	a0,800054f4 <__sfvwrite_r+0x280>
    8000559c:	00098793          	mv	a5,s3
    800055a0:	00098913          	mv	s2,s3
    800055a4:	ee5ff06f          	j	80005488 <__sfvwrite_r+0x214>
    800055a8:	01843703          	ld	a4,24(s0)
    800055ac:	04f76263          	bltu	a4,a5,800055f0 <__sfvwrite_r+0x37c>
    800055b0:	02042703          	lw	a4,32(s0)
    800055b4:	02e96e63          	bltu	s2,a4,800055f0 <__sfvwrite_r+0x37c>
    800055b8:	00090693          	mv	a3,s2
    800055bc:	012b7463          	bgeu	s6,s2,800055c4 <__sfvwrite_r+0x350>
    800055c0:	000b0693          	mv	a3,s6
    800055c4:	02e6e73b          	remw	a4,a3,a4
    800055c8:	04043783          	ld	a5,64(s0)
    800055cc:	03043583          	ld	a1,48(s0)
    800055d0:	000c0613          	mv	a2,s8
    800055d4:	000a8513          	mv	a0,s5
    800055d8:	40e686bb          	subw	a3,a3,a4
    800055dc:	000780e7          	jalr	a5
    800055e0:	00050993          	mv	s3,a0
    800055e4:	f0a058e3          	blez	a0,800054f4 <__sfvwrite_r+0x280>
    800055e8:	41390933          	sub	s2,s2,s3
    800055ec:	dfdff06f          	j	800053e8 <__sfvwrite_r+0x174>
    800055f0:	000a0993          	mv	s3,s4
    800055f4:	01497463          	bgeu	s2,s4,800055fc <__sfvwrite_r+0x388>
    800055f8:	00090993          	mv	s3,s2
    800055fc:	00078513          	mv	a0,a5
    80005600:	00098613          	mv	a2,s3
    80005604:	000c0593          	mv	a1,s8
    80005608:	544000ef          	jal	80005b4c <memmove>
    8000560c:	00c42703          	lw	a4,12(s0)
    80005610:	00043783          	ld	a5,0(s0)
    80005614:	413706bb          	subw	a3,a4,s3
    80005618:	013787b3          	add	a5,a5,s3
    8000561c:	00d42623          	sw	a3,12(s0)
    80005620:	00f43023          	sd	a5,0(s0)
    80005624:	fc0692e3          	bnez	a3,800055e8 <__sfvwrite_r+0x374>
    80005628:	00040593          	mv	a1,s0
    8000562c:	000a8513          	mv	a0,s5
    80005630:	af1ff0ef          	jal	80005120 <_fflush_r>
    80005634:	ec0510e3          	bnez	a0,800054f4 <__sfvwrite_r+0x280>
    80005638:	41390933          	sub	s2,s2,s3
    8000563c:	dadff06f          	j	800053e8 <__sfvwrite_r+0x174>
    80005640:	48077693          	and	a3,a4,1152
    80005644:	0c068263          	beqz	a3,80005708 <__sfvwrite_r+0x494>
    80005648:	02042603          	lw	a2,32(s0)
    8000564c:	01843583          	ld	a1,24(s0)
    80005650:	0016169b          	sllw	a3,a2,0x1
    80005654:	00c686bb          	addw	a3,a3,a2
    80005658:	40b787b3          	sub	a5,a5,a1
    8000565c:	01f6d99b          	srlw	s3,a3,0x1f
    80005660:	00078c9b          	sext.w	s9,a5
    80005664:	00d989bb          	addw	s3,s3,a3
    80005668:	001c8693          	add	a3,s9,1
    8000566c:	4019d99b          	sraw	s3,s3,0x1
    80005670:	012686b3          	add	a3,a3,s2
    80005674:	00d9f663          	bgeu	s3,a3,80005680 <__sfvwrite_r+0x40c>
    80005678:	0017869b          	addw	a3,a5,1
    8000567c:	012689bb          	addw	s3,a3,s2
    80005680:	40077713          	and	a4,a4,1024
    80005684:	08070663          	beqz	a4,80005710 <__sfvwrite_r+0x49c>
    80005688:	00098593          	mv	a1,s3
    8000568c:	000a8513          	mv	a0,s5
    80005690:	e30fc0ef          	jal	80001cc0 <_malloc_r>
    80005694:	00050a13          	mv	s4,a0
    80005698:	0c050463          	beqz	a0,80005760 <__sfvwrite_r+0x4ec>
    8000569c:	01843583          	ld	a1,24(s0)
    800056a0:	000c8613          	mv	a2,s9
    800056a4:	5b4000ef          	jal	80005c58 <memcpy>
    800056a8:	01045783          	lhu	a5,16(s0)
    800056ac:	b7f7f793          	and	a5,a5,-1153
    800056b0:	0807e793          	or	a5,a5,128
    800056b4:	00f41823          	sh	a5,16(s0)
    800056b8:	019a0533          	add	a0,s4,s9
    800056bc:	419987bb          	subw	a5,s3,s9
    800056c0:	01443c23          	sd	s4,24(s0)
    800056c4:	00a43023          	sd	a0,0(s0)
    800056c8:	03342023          	sw	s3,32(s0)
    800056cc:	00090c93          	mv	s9,s2
    800056d0:	00f42623          	sw	a5,12(s0)
    800056d4:	00090a13          	mv	s4,s2
    800056d8:	ce5ff06f          	j	800053bc <__sfvwrite_r+0x148>
    800056dc:	000a0613          	mv	a2,s4
    800056e0:	000c8593          	mv	a1,s9
    800056e4:	468000ef          	jal	80005b4c <memmove>
    800056e8:	00c42683          	lw	a3,12(s0)
    800056ec:	00043703          	ld	a4,0(s0)
    800056f0:	000a079b          	sext.w	a5,s4
    800056f4:	414686bb          	subw	a3,a3,s4
    800056f8:	01470733          	add	a4,a4,s4
    800056fc:	00d42623          	sw	a3,12(s0)
    80005700:	00e43023          	sd	a4,0(s0)
    80005704:	d85ff06f          	j	80005488 <__sfvwrite_r+0x214>
    80005708:	000a0c93          	mv	s9,s4
    8000570c:	cb1ff06f          	j	800053bc <__sfvwrite_r+0x148>
    80005710:	00098613          	mv	a2,s3
    80005714:	000a8513          	mv	a0,s5
    80005718:	4a5030ef          	jal	800093bc <_realloc_r>
    8000571c:	00050a13          	mv	s4,a0
    80005720:	f8051ce3          	bnez	a0,800056b8 <__sfvwrite_r+0x444>
    80005724:	01843583          	ld	a1,24(s0)
    80005728:	000a8513          	mv	a0,s5
    8000572c:	a74fc0ef          	jal	800019a0 <_free_r>
    80005730:	01041783          	lh	a5,16(s0)
    80005734:	00c00713          	li	a4,12
    80005738:	02013b03          	ld	s6,32(sp)
    8000573c:	01013c03          	ld	s8,16(sp)
    80005740:	00813c83          	ld	s9,8(sp)
    80005744:	00eaa023          	sw	a4,0(s5)
    80005748:	f7f7f793          	and	a5,a5,-129
    8000574c:	db9ff06f          	j	80005504 <__sfvwrite_r+0x290>
    80005750:	001c0b1b          	addw	s6,s8,1
    80005754:	ce5ff06f          	j	80005438 <__sfvwrite_r+0x1c4>
    80005758:	01041783          	lh	a5,16(s0)
    8000575c:	da9ff06f          	j	80005504 <__sfvwrite_r+0x290>
    80005760:	00c00713          	li	a4,12
    80005764:	01041783          	lh	a5,16(s0)
    80005768:	02013b03          	ld	s6,32(sp)
    8000576c:	01013c03          	ld	s8,16(sp)
    80005770:	00813c83          	ld	s9,8(sp)
    80005774:	00eaa023          	sw	a4,0(s5)
    80005778:	d8dff06f          	j	80005504 <__sfvwrite_r+0x290>

000000008000577c <__swsetup_r>:
    8000577c:	fe010113          	add	sp,sp,-32
    80005780:	00813823          	sd	s0,16(sp)
    80005784:	00913423          	sd	s1,8(sp)
    80005788:	00113c23          	sd	ra,24(sp)
    8000578c:	0000b797          	auipc	a5,0xb
    80005790:	92c7b783          	ld	a5,-1748(a5) # 800100b8 <_impure_ptr>
    80005794:	00050493          	mv	s1,a0
    80005798:	00058413          	mv	s0,a1
    8000579c:	00078663          	beqz	a5,800057a8 <__swsetup_r+0x2c>
    800057a0:	0487b703          	ld	a4,72(a5)
    800057a4:	0e070c63          	beqz	a4,8000589c <__swsetup_r+0x120>
    800057a8:	01041783          	lh	a5,16(s0)
    800057ac:	0087f713          	and	a4,a5,8
    800057b0:	06070a63          	beqz	a4,80005824 <__swsetup_r+0xa8>
    800057b4:	01843703          	ld	a4,24(s0)
    800057b8:	08070663          	beqz	a4,80005844 <__swsetup_r+0xc8>
    800057bc:	0017f693          	and	a3,a5,1
    800057c0:	02068863          	beqz	a3,800057f0 <__swsetup_r+0x74>
    800057c4:	02042683          	lw	a3,32(s0)
    800057c8:	00042623          	sw	zero,12(s0)
    800057cc:	00000513          	li	a0,0
    800057d0:	40d006bb          	negw	a3,a3
    800057d4:	02d42423          	sw	a3,40(s0)
    800057d8:	02070a63          	beqz	a4,8000580c <__swsetup_r+0x90>
    800057dc:	01813083          	ld	ra,24(sp)
    800057e0:	01013403          	ld	s0,16(sp)
    800057e4:	00813483          	ld	s1,8(sp)
    800057e8:	02010113          	add	sp,sp,32
    800057ec:	00008067          	ret
    800057f0:	0027f693          	and	a3,a5,2
    800057f4:	00000613          	li	a2,0
    800057f8:	00069463          	bnez	a3,80005800 <__swsetup_r+0x84>
    800057fc:	02042603          	lw	a2,32(s0)
    80005800:	00c42623          	sw	a2,12(s0)
    80005804:	00000513          	li	a0,0
    80005808:	fc071ae3          	bnez	a4,800057dc <__swsetup_r+0x60>
    8000580c:	0807f713          	and	a4,a5,128
    80005810:	fc0706e3          	beqz	a4,800057dc <__swsetup_r+0x60>
    80005814:	0407e793          	or	a5,a5,64
    80005818:	00f41823          	sh	a5,16(s0)
    8000581c:	fff00513          	li	a0,-1
    80005820:	fbdff06f          	j	800057dc <__swsetup_r+0x60>
    80005824:	0107f713          	and	a4,a5,16
    80005828:	08070063          	beqz	a4,800058a8 <__swsetup_r+0x12c>
    8000582c:	0047f713          	and	a4,a5,4
    80005830:	02071c63          	bnez	a4,80005868 <__swsetup_r+0xec>
    80005834:	01843703          	ld	a4,24(s0)
    80005838:	0087e793          	or	a5,a5,8
    8000583c:	00f41823          	sh	a5,16(s0)
    80005840:	f6071ee3          	bnez	a4,800057bc <__swsetup_r+0x40>
    80005844:	2807f693          	and	a3,a5,640
    80005848:	20000613          	li	a2,512
    8000584c:	f6c688e3          	beq	a3,a2,800057bc <__swsetup_r+0x40>
    80005850:	00040593          	mv	a1,s0
    80005854:	00048513          	mv	a0,s1
    80005858:	0dc040ef          	jal	80009934 <__smakebuf_r>
    8000585c:	01041783          	lh	a5,16(s0)
    80005860:	01843703          	ld	a4,24(s0)
    80005864:	f59ff06f          	j	800057bc <__swsetup_r+0x40>
    80005868:	05843583          	ld	a1,88(s0)
    8000586c:	00058e63          	beqz	a1,80005888 <__swsetup_r+0x10c>
    80005870:	07440713          	add	a4,s0,116
    80005874:	00e58863          	beq	a1,a4,80005884 <__swsetup_r+0x108>
    80005878:	00048513          	mv	a0,s1
    8000587c:	924fc0ef          	jal	800019a0 <_free_r>
    80005880:	01041783          	lh	a5,16(s0)
    80005884:	04043c23          	sd	zero,88(s0)
    80005888:	01843703          	ld	a4,24(s0)
    8000588c:	fdb7f793          	and	a5,a5,-37
    80005890:	00042423          	sw	zero,8(s0)
    80005894:	00e43023          	sd	a4,0(s0)
    80005898:	fa1ff06f          	j	80005838 <__swsetup_r+0xbc>
    8000589c:	00078513          	mv	a0,a5
    800058a0:	900fb0ef          	jal	800009a0 <__sinit>
    800058a4:	f05ff06f          	j	800057a8 <__swsetup_r+0x2c>
    800058a8:	00900713          	li	a4,9
    800058ac:	00e4a023          	sw	a4,0(s1)
    800058b0:	0407e793          	or	a5,a5,64
    800058b4:	00f41823          	sh	a5,16(s0)
    800058b8:	fff00513          	li	a0,-1
    800058bc:	f21ff06f          	j	800057dc <__swsetup_r+0x60>

00000000800058c0 <memchr>:
    800058c0:	00757793          	and	a5,a0,7
    800058c4:	0ff5f693          	zext.b	a3,a1
    800058c8:	02078a63          	beqz	a5,800058fc <memchr+0x3c>
    800058cc:	fff60793          	add	a5,a2,-1
    800058d0:	02060e63          	beqz	a2,8000590c <memchr+0x4c>
    800058d4:	fff00613          	li	a2,-1
    800058d8:	0180006f          	j	800058f0 <memchr+0x30>
    800058dc:	00150513          	add	a0,a0,1
    800058e0:	00757713          	and	a4,a0,7
    800058e4:	00070e63          	beqz	a4,80005900 <memchr+0x40>
    800058e8:	fff78793          	add	a5,a5,-1
    800058ec:	02c78063          	beq	a5,a2,8000590c <memchr+0x4c>
    800058f0:	00054703          	lbu	a4,0(a0)
    800058f4:	fed714e3          	bne	a4,a3,800058dc <memchr+0x1c>
    800058f8:	00008067          	ret
    800058fc:	00060793          	mv	a5,a2
    80005900:	00700713          	li	a4,7
    80005904:	00f76863          	bltu	a4,a5,80005914 <memchr+0x54>
    80005908:	08079663          	bnez	a5,80005994 <memchr+0xd4>
    8000590c:	00000513          	li	a0,0
    80005910:	00008067          	ret
    80005914:	0ff5f593          	zext.b	a1,a1
    80005918:	f0101837          	lui	a6,0xf0101
    8000591c:	00859713          	sll	a4,a1,0x8
    80005920:	feff08b7          	lui	a7,0xfeff0
    80005924:	00481813          	sll	a6,a6,0x4
    80005928:	00b70733          	add	a4,a4,a1
    8000592c:	eff88893          	add	a7,a7,-257 # fffffffffefefeff <__heap_end+0xffffffff7e7ddeff>
    80005930:	10180813          	add	a6,a6,257 # fffffffff0101101 <__heap_end+0xffffffff6f8ef101>
    80005934:	01071593          	sll	a1,a4,0x10
    80005938:	01089893          	sll	a7,a7,0x10
    8000593c:	01081813          	sll	a6,a6,0x10
    80005940:	00e585b3          	add	a1,a1,a4
    80005944:	eff88893          	add	a7,a7,-257
    80005948:	10180813          	add	a6,a6,257
    8000594c:	02059713          	sll	a4,a1,0x20
    80005950:	01089893          	sll	a7,a7,0x10
    80005954:	00f81813          	sll	a6,a6,0xf
    80005958:	00e585b3          	add	a1,a1,a4
    8000595c:	eff88893          	add	a7,a7,-257
    80005960:	08080813          	add	a6,a6,128
    80005964:	00700313          	li	t1,7
    80005968:	0100006f          	j	80005978 <memchr+0xb8>
    8000596c:	ff878793          	add	a5,a5,-8
    80005970:	00850513          	add	a0,a0,8
    80005974:	f8f37ae3          	bgeu	t1,a5,80005908 <memchr+0x48>
    80005978:	00053703          	ld	a4,0(a0)
    8000597c:	00e5c733          	xor	a4,a1,a4
    80005980:	01170633          	add	a2,a4,a7
    80005984:	fff74713          	not	a4,a4
    80005988:	00e67733          	and	a4,a2,a4
    8000598c:	01077733          	and	a4,a4,a6
    80005990:	fc070ee3          	beqz	a4,8000596c <memchr+0xac>
    80005994:	00f507b3          	add	a5,a0,a5
    80005998:	00c0006f          	j	800059a4 <memchr+0xe4>
    8000599c:	00150513          	add	a0,a0,1
    800059a0:	f6a786e3          	beq	a5,a0,8000590c <memchr+0x4c>
    800059a4:	00054703          	lbu	a4,0(a0)
    800059a8:	fed71ae3          	bne	a4,a3,8000599c <memchr+0xdc>
    800059ac:	00008067          	ret

00000000800059b0 <strncpy>:
    800059b0:	00a5e7b3          	or	a5,a1,a0
    800059b4:	0077f793          	and	a5,a5,7
    800059b8:	00079663          	bnez	a5,800059c4 <strncpy+0x14>
    800059bc:	00700793          	li	a5,7
    800059c0:	04c7e663          	bltu	a5,a2,80005a0c <strncpy+0x5c>
    800059c4:	00050713          	mv	a4,a0
    800059c8:	01c0006f          	j	800059e4 <strncpy+0x34>
    800059cc:	fff5c683          	lbu	a3,-1(a1)
    800059d0:	fff60813          	add	a6,a2,-1
    800059d4:	fed78fa3          	sb	a3,-1(a5)
    800059d8:	00068e63          	beqz	a3,800059f4 <strncpy+0x44>
    800059dc:	00078713          	mv	a4,a5
    800059e0:	00080613          	mv	a2,a6
    800059e4:	00158593          	add	a1,a1,1
    800059e8:	00170793          	add	a5,a4,1
    800059ec:	fe0610e3          	bnez	a2,800059cc <strncpy+0x1c>
    800059f0:	00008067          	ret
    800059f4:	00c70733          	add	a4,a4,a2
    800059f8:	08080263          	beqz	a6,80005a7c <strncpy+0xcc>
    800059fc:	00178793          	add	a5,a5,1
    80005a00:	fe078fa3          	sb	zero,-1(a5)
    80005a04:	fee79ce3          	bne	a5,a4,800059fc <strncpy+0x4c>
    80005a08:	00008067          	ret
    80005a0c:	f0101837          	lui	a6,0xf0101
    80005a10:	feff08b7          	lui	a7,0xfeff0
    80005a14:	00481813          	sll	a6,a6,0x4
    80005a18:	eff88893          	add	a7,a7,-257 # fffffffffefefeff <__heap_end+0xffffffff7e7ddeff>
    80005a1c:	10180813          	add	a6,a6,257 # fffffffff0101101 <__heap_end+0xffffffff6f8ef101>
    80005a20:	01089893          	sll	a7,a7,0x10
    80005a24:	01081813          	sll	a6,a6,0x10
    80005a28:	eff88893          	add	a7,a7,-257
    80005a2c:	10180813          	add	a6,a6,257
    80005a30:	01089893          	sll	a7,a7,0x10
    80005a34:	00f81813          	sll	a6,a6,0xf
    80005a38:	00050713          	mv	a4,a0
    80005a3c:	eff88893          	add	a7,a7,-257
    80005a40:	08080813          	add	a6,a6,128
    80005a44:	00700e13          	li	t3,7
    80005a48:	0180006f          	j	80005a60 <strncpy+0xb0>
    80005a4c:	00d73023          	sd	a3,0(a4)
    80005a50:	ff860613          	add	a2,a2,-8
    80005a54:	00870713          	add	a4,a4,8
    80005a58:	00858593          	add	a1,a1,8
    80005a5c:	f8ce74e3          	bgeu	t3,a2,800059e4 <strncpy+0x34>
    80005a60:	0005b683          	ld	a3,0(a1)
    80005a64:	011687b3          	add	a5,a3,a7
    80005a68:	fff6c313          	not	t1,a3
    80005a6c:	0067f7b3          	and	a5,a5,t1
    80005a70:	0107f7b3          	and	a5,a5,a6
    80005a74:	fc078ce3          	beqz	a5,80005a4c <strncpy+0x9c>
    80005a78:	f6dff06f          	j	800059e4 <strncpy+0x34>
    80005a7c:	00008067          	ret

0000000080005a80 <__localeconv_l>:
    80005a80:	10050513          	add	a0,a0,256
    80005a84:	00008067          	ret

0000000080005a88 <_localeconv_r>:
    80005a88:	0000a517          	auipc	a0,0xa
    80005a8c:	58850513          	add	a0,a0,1416 # 80010010 <__global_locale+0x100>
    80005a90:	00008067          	ret

0000000080005a94 <localeconv>:
    80005a94:	0000a517          	auipc	a0,0xa
    80005a98:	57c50513          	add	a0,a0,1404 # 80010010 <__global_locale+0x100>
    80005a9c:	00008067          	ret

0000000080005aa0 <_sbrk_r>:
    80005aa0:	ff010113          	add	sp,sp,-16
    80005aa4:	00813023          	sd	s0,0(sp)
    80005aa8:	00050413          	mv	s0,a0
    80005aac:	00058513          	mv	a0,a1
    80005ab0:	8a01a023          	sw	zero,-1888(gp) # 80010158 <errno>
    80005ab4:	00113423          	sd	ra,8(sp)
    80005ab8:	6dd050ef          	jal	8000b994 <_sbrk>
    80005abc:	fff00793          	li	a5,-1
    80005ac0:	00f50a63          	beq	a0,a5,80005ad4 <_sbrk_r+0x34>
    80005ac4:	00813083          	ld	ra,8(sp)
    80005ac8:	00013403          	ld	s0,0(sp)
    80005acc:	01010113          	add	sp,sp,16
    80005ad0:	00008067          	ret
    80005ad4:	8a01a783          	lw	a5,-1888(gp) # 80010158 <errno>
    80005ad8:	fe0786e3          	beqz	a5,80005ac4 <_sbrk_r+0x24>
    80005adc:	00813083          	ld	ra,8(sp)
    80005ae0:	00f42023          	sw	a5,0(s0)
    80005ae4:	00013403          	ld	s0,0(sp)
    80005ae8:	01010113          	add	sp,sp,16
    80005aec:	00008067          	ret

0000000080005af0 <__libc_fini_array>:
    80005af0:	fe010113          	add	sp,sp,-32
    80005af4:	00813823          	sd	s0,16(sp)
    80005af8:	0000a797          	auipc	a5,0xa
    80005afc:	a5878793          	add	a5,a5,-1448 # 8000f550 <__fini_array_end>
    80005b00:	0000a417          	auipc	s0,0xa
    80005b04:	a5040413          	add	s0,s0,-1456 # 8000f550 <__fini_array_end>
    80005b08:	40f40433          	sub	s0,s0,a5
    80005b0c:	00913423          	sd	s1,8(sp)
    80005b10:	00113c23          	sd	ra,24(sp)
    80005b14:	40345493          	sra	s1,s0,0x3
    80005b18:	02048063          	beqz	s1,80005b38 <__libc_fini_array+0x48>
    80005b1c:	ff840413          	add	s0,s0,-8
    80005b20:	00f40433          	add	s0,s0,a5
    80005b24:	00043783          	ld	a5,0(s0)
    80005b28:	fff48493          	add	s1,s1,-1
    80005b2c:	ff840413          	add	s0,s0,-8
    80005b30:	000780e7          	jalr	a5
    80005b34:	fe0498e3          	bnez	s1,80005b24 <__libc_fini_array+0x34>
    80005b38:	01813083          	ld	ra,24(sp)
    80005b3c:	01013403          	ld	s0,16(sp)
    80005b40:	00813483          	ld	s1,8(sp)
    80005b44:	02010113          	add	sp,sp,32
    80005b48:	00008067          	ret

0000000080005b4c <memmove>:
    80005b4c:	02a5f663          	bgeu	a1,a0,80005b78 <memmove+0x2c>
    80005b50:	00c58733          	add	a4,a1,a2
    80005b54:	02e57263          	bgeu	a0,a4,80005b78 <memmove+0x2c>
    80005b58:	00c507b3          	add	a5,a0,a2
    80005b5c:	04060663          	beqz	a2,80005ba8 <memmove+0x5c>
    80005b60:	fff74683          	lbu	a3,-1(a4)
    80005b64:	fff78793          	add	a5,a5,-1
    80005b68:	fff70713          	add	a4,a4,-1
    80005b6c:	00d78023          	sb	a3,0(a5)
    80005b70:	fef518e3          	bne	a0,a5,80005b60 <memmove+0x14>
    80005b74:	00008067          	ret
    80005b78:	01f00793          	li	a5,31
    80005b7c:	02c7e863          	bltu	a5,a2,80005bac <memmove+0x60>
    80005b80:	00050793          	mv	a5,a0
    80005b84:	fff60693          	add	a3,a2,-1
    80005b88:	0c060263          	beqz	a2,80005c4c <memmove+0x100>
    80005b8c:	00168693          	add	a3,a3,1
    80005b90:	00d786b3          	add	a3,a5,a3
    80005b94:	0005c703          	lbu	a4,0(a1)
    80005b98:	00178793          	add	a5,a5,1
    80005b9c:	00158593          	add	a1,a1,1
    80005ba0:	fee78fa3          	sb	a4,-1(a5)
    80005ba4:	fed798e3          	bne	a5,a3,80005b94 <memmove+0x48>
    80005ba8:	00008067          	ret
    80005bac:	00b567b3          	or	a5,a0,a1
    80005bb0:	0077f793          	and	a5,a5,7
    80005bb4:	08079663          	bnez	a5,80005c40 <memmove+0xf4>
    80005bb8:	fe060893          	add	a7,a2,-32
    80005bbc:	fe08f893          	and	a7,a7,-32
    80005bc0:	02088893          	add	a7,a7,32
    80005bc4:	011506b3          	add	a3,a0,a7
    80005bc8:	00058713          	mv	a4,a1
    80005bcc:	00050793          	mv	a5,a0
    80005bd0:	00073803          	ld	a6,0(a4)
    80005bd4:	02070713          	add	a4,a4,32
    80005bd8:	02078793          	add	a5,a5,32
    80005bdc:	ff07b023          	sd	a6,-32(a5)
    80005be0:	fe873803          	ld	a6,-24(a4)
    80005be4:	ff07b423          	sd	a6,-24(a5)
    80005be8:	ff073803          	ld	a6,-16(a4)
    80005bec:	ff07b823          	sd	a6,-16(a5)
    80005bf0:	ff873803          	ld	a6,-8(a4)
    80005bf4:	ff07bc23          	sd	a6,-8(a5)
    80005bf8:	fcd79ce3          	bne	a5,a3,80005bd0 <memmove+0x84>
    80005bfc:	01867813          	and	a6,a2,24
    80005c00:	011585b3          	add	a1,a1,a7
    80005c04:	01f67713          	and	a4,a2,31
    80005c08:	04080463          	beqz	a6,80005c50 <memmove+0x104>
    80005c0c:	ff870813          	add	a6,a4,-8
    80005c10:	ff887813          	and	a6,a6,-8
    80005c14:	00880813          	add	a6,a6,8
    80005c18:	010687b3          	add	a5,a3,a6
    80005c1c:	00058713          	mv	a4,a1
    80005c20:	00073883          	ld	a7,0(a4)
    80005c24:	00868693          	add	a3,a3,8
    80005c28:	00870713          	add	a4,a4,8
    80005c2c:	ff16bc23          	sd	a7,-8(a3)
    80005c30:	fef698e3          	bne	a3,a5,80005c20 <memmove+0xd4>
    80005c34:	00767613          	and	a2,a2,7
    80005c38:	010585b3          	add	a1,a1,a6
    80005c3c:	f49ff06f          	j	80005b84 <memmove+0x38>
    80005c40:	fff60693          	add	a3,a2,-1
    80005c44:	00050793          	mv	a5,a0
    80005c48:	f45ff06f          	j	80005b8c <memmove+0x40>
    80005c4c:	00008067          	ret
    80005c50:	00070613          	mv	a2,a4
    80005c54:	f31ff06f          	j	80005b84 <memmove+0x38>

0000000080005c58 <memcpy>:
    80005c58:	00a5c7b3          	xor	a5,a1,a0
    80005c5c:	0077f793          	and	a5,a5,7
    80005c60:	00c508b3          	add	a7,a0,a2
    80005c64:	06079463          	bnez	a5,80005ccc <memcpy+0x74>
    80005c68:	00700793          	li	a5,7
    80005c6c:	06c7f063          	bgeu	a5,a2,80005ccc <memcpy+0x74>
    80005c70:	00757793          	and	a5,a0,7
    80005c74:	00050713          	mv	a4,a0
    80005c78:	06079a63          	bnez	a5,80005cec <memcpy+0x94>
    80005c7c:	ff88f613          	and	a2,a7,-8
    80005c80:	40e606b3          	sub	a3,a2,a4
    80005c84:	04000793          	li	a5,64
    80005c88:	08d7ce63          	blt	a5,a3,80005d24 <memcpy+0xcc>
    80005c8c:	00058693          	mv	a3,a1
    80005c90:	00070793          	mv	a5,a4
    80005c94:	02c77863          	bgeu	a4,a2,80005cc4 <memcpy+0x6c>
    80005c98:	0006b803          	ld	a6,0(a3)
    80005c9c:	00878793          	add	a5,a5,8
    80005ca0:	00868693          	add	a3,a3,8
    80005ca4:	ff07bc23          	sd	a6,-8(a5)
    80005ca8:	fec7e8e3          	bltu	a5,a2,80005c98 <memcpy+0x40>
    80005cac:	fff60793          	add	a5,a2,-1
    80005cb0:	40e787b3          	sub	a5,a5,a4
    80005cb4:	ff87f793          	and	a5,a5,-8
    80005cb8:	00878793          	add	a5,a5,8
    80005cbc:	00f70733          	add	a4,a4,a5
    80005cc0:	00f585b3          	add	a1,a1,a5
    80005cc4:	01176863          	bltu	a4,a7,80005cd4 <memcpy+0x7c>
    80005cc8:	00008067          	ret
    80005ccc:	00050713          	mv	a4,a0
    80005cd0:	05157863          	bgeu	a0,a7,80005d20 <memcpy+0xc8>
    80005cd4:	0005c783          	lbu	a5,0(a1)
    80005cd8:	00170713          	add	a4,a4,1
    80005cdc:	00158593          	add	a1,a1,1
    80005ce0:	fef70fa3          	sb	a5,-1(a4)
    80005ce4:	fee898e3          	bne	a7,a4,80005cd4 <memcpy+0x7c>
    80005ce8:	00008067          	ret
    80005cec:	0005c683          	lbu	a3,0(a1)
    80005cf0:	00170713          	add	a4,a4,1
    80005cf4:	00777793          	and	a5,a4,7
    80005cf8:	fed70fa3          	sb	a3,-1(a4)
    80005cfc:	00158593          	add	a1,a1,1
    80005d00:	f6078ee3          	beqz	a5,80005c7c <memcpy+0x24>
    80005d04:	0005c683          	lbu	a3,0(a1)
    80005d08:	00170713          	add	a4,a4,1
    80005d0c:	00777793          	and	a5,a4,7
    80005d10:	fed70fa3          	sb	a3,-1(a4)
    80005d14:	00158593          	add	a1,a1,1
    80005d18:	fc079ae3          	bnez	a5,80005cec <memcpy+0x94>
    80005d1c:	f61ff06f          	j	80005c7c <memcpy+0x24>
    80005d20:	00008067          	ret
    80005d24:	ff010113          	add	sp,sp,-16
    80005d28:	00813423          	sd	s0,8(sp)
    80005d2c:	04000413          	li	s0,64
    80005d30:	0005b383          	ld	t2,0(a1)
    80005d34:	0085b283          	ld	t0,8(a1)
    80005d38:	0105bf83          	ld	t6,16(a1)
    80005d3c:	0185bf03          	ld	t5,24(a1)
    80005d40:	0205be83          	ld	t4,32(a1)
    80005d44:	0285be03          	ld	t3,40(a1)
    80005d48:	0305b303          	ld	t1,48(a1)
    80005d4c:	0385b803          	ld	a6,56(a1)
    80005d50:	0405b683          	ld	a3,64(a1)
    80005d54:	04870713          	add	a4,a4,72
    80005d58:	40e607b3          	sub	a5,a2,a4
    80005d5c:	fa773c23          	sd	t2,-72(a4)
    80005d60:	fc573023          	sd	t0,-64(a4)
    80005d64:	fdf73423          	sd	t6,-56(a4)
    80005d68:	fde73823          	sd	t5,-48(a4)
    80005d6c:	fdd73c23          	sd	t4,-40(a4)
    80005d70:	ffc73023          	sd	t3,-32(a4)
    80005d74:	fe673423          	sd	t1,-24(a4)
    80005d78:	ff073823          	sd	a6,-16(a4)
    80005d7c:	fed73c23          	sd	a3,-8(a4)
    80005d80:	04858593          	add	a1,a1,72
    80005d84:	faf446e3          	blt	s0,a5,80005d30 <memcpy+0xd8>
    80005d88:	00058693          	mv	a3,a1
    80005d8c:	00070793          	mv	a5,a4
    80005d90:	02c77863          	bgeu	a4,a2,80005dc0 <memcpy+0x168>
    80005d94:	0006b803          	ld	a6,0(a3)
    80005d98:	00878793          	add	a5,a5,8
    80005d9c:	00868693          	add	a3,a3,8
    80005da0:	ff07bc23          	sd	a6,-8(a5)
    80005da4:	fec7e8e3          	bltu	a5,a2,80005d94 <memcpy+0x13c>
    80005da8:	fff60793          	add	a5,a2,-1
    80005dac:	40e787b3          	sub	a5,a5,a4
    80005db0:	ff87f793          	and	a5,a5,-8
    80005db4:	00878793          	add	a5,a5,8
    80005db8:	00f70733          	add	a4,a4,a5
    80005dbc:	00f585b3          	add	a1,a1,a5
    80005dc0:	01176863          	bltu	a4,a7,80005dd0 <memcpy+0x178>
    80005dc4:	00813403          	ld	s0,8(sp)
    80005dc8:	01010113          	add	sp,sp,16
    80005dcc:	00008067          	ret
    80005dd0:	0005c783          	lbu	a5,0(a1)
    80005dd4:	00170713          	add	a4,a4,1
    80005dd8:	00158593          	add	a1,a1,1
    80005ddc:	fef70fa3          	sb	a5,-1(a4)
    80005de0:	fee882e3          	beq	a7,a4,80005dc4 <memcpy+0x16c>
    80005de4:	0005c783          	lbu	a5,0(a1)
    80005de8:	00170713          	add	a4,a4,1
    80005dec:	00158593          	add	a1,a1,1
    80005df0:	fef70fa3          	sb	a5,-1(a4)
    80005df4:	fce89ee3          	bne	a7,a4,80005dd0 <memcpy+0x178>
    80005df8:	fcdff06f          	j	80005dc4 <memcpy+0x16c>

0000000080005dfc <frexpl>:
    80005dfc:	fc010113          	add	sp,sp,-64
    80005e00:	03213023          	sd	s2,32(sp)
    80005e04:	00008937          	lui	s2,0x8
    80005e08:	02813823          	sd	s0,48(sp)
    80005e0c:	02913423          	sd	s1,40(sp)
    80005e10:	01613023          	sd	s6,0(sp)
    80005e14:	02113c23          	sd	ra,56(sp)
    80005e18:	0305d493          	srl	s1,a1,0x30
    80005e1c:	fff90913          	add	s2,s2,-1 # 7fff <__stack_shift+0x7fe8>
    80005e20:	0124f4b3          	and	s1,s1,s2
    80005e24:	00062023          	sw	zero,0(a2)
    80005e28:	00058413          	mv	s0,a1
    80005e2c:	00050b13          	mv	s6,a0
    80005e30:	07248a63          	beq	s1,s2,80005ea4 <frexpl+0xa8>
    80005e34:	01513423          	sd	s5,8(sp)
    80005e38:	00000693          	li	a3,0
    80005e3c:	00060a93          	mv	s5,a2
    80005e40:	00000613          	li	a2,0
    80005e44:	01313c23          	sd	s3,24(sp)
    80005e48:	01413823          	sd	s4,16(sp)
    80005e4c:	00058993          	mv	s3,a1
    80005e50:	00050a13          	mv	s4,a0
    80005e54:	735060ef          	jal	8000cd88 <__eqtf2>
    80005e58:	08050e63          	beqz	a0,80005ef4 <frexpl+0xf8>
    80005e5c:	00000693          	li	a3,0
    80005e60:	06048063          	beqz	s1,80005ec0 <frexpl+0xc4>
    80005e64:	ffffc737          	lui	a4,0xffffc
    80005e68:	f80017b7          	lui	a5,0xf8001
    80005e6c:	0027071b          	addw	a4,a4,2 # ffffffffffffc002 <__heap_end+0xffffffff7f7ea002>
    80005e70:	02479793          	sll	a5,a5,0x24
    80005e74:	00e484bb          	addw	s1,s1,a4
    80005e78:	fff78793          	add	a5,a5,-1 # fffffffff8000fff <__heap_end+0xffffffff777eefff>
    80005e7c:	01fff437          	lui	s0,0x1fff
    80005e80:	00f9f9b3          	and	s3,s3,a5
    80005e84:	00d484bb          	addw	s1,s1,a3
    80005e88:	02541413          	sll	s0,s0,0x25
    80005e8c:	009aa023          	sw	s1,0(s5)
    80005e90:	000a0513          	mv	a0,s4
    80005e94:	0089e5b3          	or	a1,s3,s0
    80005e98:	01013a03          	ld	s4,16(sp)
    80005e9c:	01813983          	ld	s3,24(sp)
    80005ea0:	00813a83          	ld	s5,8(sp)
    80005ea4:	03813083          	ld	ra,56(sp)
    80005ea8:	03013403          	ld	s0,48(sp)
    80005eac:	02813483          	ld	s1,40(sp)
    80005eb0:	02013903          	ld	s2,32(sp)
    80005eb4:	00013b03          	ld	s6,0(sp)
    80005eb8:	04010113          	add	sp,sp,64
    80005ebc:	00008067          	ret
    80005ec0:	00009797          	auipc	a5,0x9
    80005ec4:	12078793          	add	a5,a5,288 # 8000efe0 <blanks.1+0x48>
    80005ec8:	0087b683          	ld	a3,8(a5)
    80005ecc:	0007b603          	ld	a2,0(a5)
    80005ed0:	000b0513          	mv	a0,s6
    80005ed4:	00040593          	mv	a1,s0
    80005ed8:	0e4070ef          	jal	8000cfbc <__multf3>
    80005edc:	0305d493          	srl	s1,a1,0x30
    80005ee0:	00058993          	mv	s3,a1
    80005ee4:	00050a13          	mv	s4,a0
    80005ee8:	0124f4b3          	and	s1,s1,s2
    80005eec:	f8e00693          	li	a3,-114
    80005ef0:	f75ff06f          	j	80005e64 <frexpl+0x68>
    80005ef4:	03813083          	ld	ra,56(sp)
    80005ef8:	00040593          	mv	a1,s0
    80005efc:	03013403          	ld	s0,48(sp)
    80005f00:	01813983          	ld	s3,24(sp)
    80005f04:	01013a03          	ld	s4,16(sp)
    80005f08:	00813a83          	ld	s5,8(sp)
    80005f0c:	02813483          	ld	s1,40(sp)
    80005f10:	02013903          	ld	s2,32(sp)
    80005f14:	000b0513          	mv	a0,s6
    80005f18:	00013b03          	ld	s6,0(sp)
    80005f1c:	04010113          	add	sp,sp,64
    80005f20:	00008067          	ret

0000000080005f24 <__register_exitproc>:
    80005f24:	8a818713          	add	a4,gp,-1880 # 80010160 <__atexit>
    80005f28:	00073783          	ld	a5,0(a4)
    80005f2c:	06078063          	beqz	a5,80005f8c <__register_exitproc+0x68>
    80005f30:	0087a703          	lw	a4,8(a5)
    80005f34:	01f00813          	li	a6,31
    80005f38:	08e84863          	blt	a6,a4,80005fc8 <__register_exitproc+0xa4>
    80005f3c:	02050863          	beqz	a0,80005f6c <__register_exitproc+0x48>
    80005f40:	00371813          	sll	a6,a4,0x3
    80005f44:	01078833          	add	a6,a5,a6
    80005f48:	10c83823          	sd	a2,272(a6)
    80005f4c:	3107a883          	lw	a7,784(a5)
    80005f50:	00100613          	li	a2,1
    80005f54:	00e6163b          	sllw	a2,a2,a4
    80005f58:	00c8e8b3          	or	a7,a7,a2
    80005f5c:	3117a823          	sw	a7,784(a5)
    80005f60:	20d83823          	sd	a3,528(a6)
    80005f64:	00200693          	li	a3,2
    80005f68:	02d50a63          	beq	a0,a3,80005f9c <__register_exitproc+0x78>
    80005f6c:	00270693          	add	a3,a4,2
    80005f70:	00369693          	sll	a3,a3,0x3
    80005f74:	0017071b          	addw	a4,a4,1
    80005f78:	00e7a423          	sw	a4,8(a5)
    80005f7c:	00d787b3          	add	a5,a5,a3
    80005f80:	00b7b023          	sd	a1,0(a5)
    80005f84:	00000513          	li	a0,0
    80005f88:	00008067          	ret
    80005f8c:	0000b797          	auipc	a5,0xb
    80005f90:	e0c78793          	add	a5,a5,-500 # 80010d98 <__atexit0>
    80005f94:	00f73023          	sd	a5,0(a4)
    80005f98:	f99ff06f          	j	80005f30 <__register_exitproc+0xc>
    80005f9c:	3147a683          	lw	a3,788(a5)
    80005fa0:	00000513          	li	a0,0
    80005fa4:	00c6e6b3          	or	a3,a3,a2
    80005fa8:	30d7aa23          	sw	a3,788(a5)
    80005fac:	00270693          	add	a3,a4,2
    80005fb0:	00369693          	sll	a3,a3,0x3
    80005fb4:	0017071b          	addw	a4,a4,1
    80005fb8:	00e7a423          	sw	a4,8(a5)
    80005fbc:	00d787b3          	add	a5,a5,a3
    80005fc0:	00b7b023          	sd	a1,0(a5)
    80005fc4:	00008067          	ret
    80005fc8:	fff00513          	li	a0,-1
    80005fcc:	00008067          	ret

0000000080005fd0 <_ldtoa_r>:
    80005fd0:	00009317          	auipc	t1,0x9
    80005fd4:	04030313          	add	t1,t1,64 # 8000f010 <blanks.1+0x78>
    80005fd8:	00033f03          	ld	t5,0(t1)
    80005fdc:	00833e83          	ld	t4,8(t1)
    80005fe0:	01032e03          	lw	t3,16(t1)
    80005fe4:	05053303          	ld	t1,80(a0)
    80005fe8:	f4010113          	add	sp,sp,-192
    80005fec:	0a913423          	sd	s1,168(sp)
    80005ff0:	0b213023          	sd	s2,160(sp)
    80005ff4:	09413823          	sd	s4,144(sp)
    80005ff8:	09513423          	sd	s5,136(sp)
    80005ffc:	09613023          	sd	s6,128(sp)
    80006000:	07713c23          	sd	s7,120(sp)
    80006004:	07813823          	sd	s8,112(sp)
    80006008:	07a13023          	sd	s10,96(sp)
    8000600c:	0a113c23          	sd	ra,184(sp)
    80006010:	0a813823          	sd	s0,176(sp)
    80006014:	09313c23          	sd	s3,152(sp)
    80006018:	07913423          	sd	s9,104(sp)
    8000601c:	03e13c23          	sd	t5,56(sp)
    80006020:	05d13023          	sd	t4,64(sp)
    80006024:	05c12423          	sw	t3,72(sp)
    80006028:	00050a13          	mv	s4,a0
    8000602c:	00058913          	mv	s2,a1
    80006030:	00060493          	mv	s1,a2
    80006034:	00068b13          	mv	s6,a3
    80006038:	00070b93          	mv	s7,a4
    8000603c:	00078a93          	mv	s5,a5
    80006040:	00080d13          	mv	s10,a6
    80006044:	00088c13          	mv	s8,a7
    80006048:	00030863          	beqz	t1,80006058 <_ldtoa_r+0x88>
    8000604c:	00030593          	mv	a1,t1
    80006050:	551010ef          	jal	80007da0 <__freedtoa>
    80006054:	040a3823          	sd	zero,80(s4) # ffffffff80000050 <__heap_end+0xfffffffeff7ee050>
    80006058:	04412783          	lw	a5,68(sp)
    8000605c:	0004a593          	slti	a1,s1,0
    80006060:	00149413          	sll	s0,s1,0x1
    80006064:	4017d71b          	sraw	a4,a5,0x1
    80006068:	0204d993          	srl	s3,s1,0x20
    8000606c:	00e5f5b3          	and	a1,a1,a4
    80006070:	00145413          	srl	s0,s0,0x1
    80006074:	0004a693          	slti	a3,s1,0
    80006078:	00149c93          	sll	s9,s1,0x1
    8000607c:	ffffc737          	lui	a4,0xffffc
    80006080:	0109999b          	sllw	s3,s3,0x10
    80006084:	00b7c7b3          	xor	a5,a5,a1
    80006088:	00dd2023          	sw	a3,0(s10)
    8000608c:	031cdc93          	srl	s9,s9,0x31
    80006090:	f917071b          	addw	a4,a4,-111 # ffffffffffffbf91 <__heap_end+0xffffffff7f7e9f91>
    80006094:	0109d99b          	srlw	s3,s3,0x10
    80006098:	00090613          	mv	a2,s2
    8000609c:	00040693          	mv	a3,s0
    800060a0:	00090513          	mv	a0,s2
    800060a4:	00040593          	mv	a1,s0
    800060a8:	04f12223          	sw	a5,68(sp)
    800060ac:	00ec8d3b          	addw	s10,s9,a4
    800060b0:	03213423          	sd	s2,40(sp)
    800060b4:	02912823          	sw	s1,48(sp)
    800060b8:	03312a23          	sw	s3,52(sp)
    800060bc:	579070ef          	jal	8000de34 <__unordtf2>
    800060c0:	14051463          	bnez	a0,80006208 <_ldtoa_r+0x238>
    800060c4:	00009797          	auipc	a5,0x9
    800060c8:	f2c78793          	add	a5,a5,-212 # 8000eff0 <blanks.1+0x58>
    800060cc:	05b13c23          	sd	s11,88(sp)
    800060d0:	0087bd83          	ld	s11,8(a5)
    800060d4:	0007b603          	ld	a2,0(a5)
    800060d8:	00090513          	mv	a0,s2
    800060dc:	000d8693          	mv	a3,s11
    800060e0:	00040593          	mv	a1,s0
    800060e4:	00c13c23          	sd	a2,24(sp)
    800060e8:	54d070ef          	jal	8000de34 <__unordtf2>
    800060ec:	0a051063          	bnez	a0,8000618c <_ldtoa_r+0x1bc>
    800060f0:	01813603          	ld	a2,24(sp)
    800060f4:	000d8693          	mv	a3,s11
    800060f8:	00090513          	mv	a0,s2
    800060fc:	00040593          	mv	a1,s0
    80006100:	5e9060ef          	jal	8000cee8 <__letf2>
    80006104:	08a05463          	blez	a0,8000618c <_ldtoa_r+0x1bc>
    80006108:	05813d83          	ld	s11,88(sp)
    8000610c:	00300793          	li	a5,3
    80006110:	02f12223          	sw	a5,36(sp)
    80006114:	000b0793          	mv	a5,s6
    80006118:	02410713          	add	a4,sp,36
    8000611c:	01813023          	sd	s8,0(sp)
    80006120:	000a8893          	mv	a7,s5
    80006124:	000b8813          	mv	a6,s7
    80006128:	02810693          	add	a3,sp,40
    8000612c:	000d0613          	mv	a2,s10
    80006130:	03810593          	add	a1,sp,56
    80006134:	000a0513          	mv	a0,s4
    80006138:	1ac000ef          	jal	800062e4 <__gdtoa>
    8000613c:	000aa703          	lw	a4,0(s5)
    80006140:	ffff87b7          	lui	a5,0xffff8
    80006144:	00f71863          	bne	a4,a5,80006154 <_ldtoa_r+0x184>
    80006148:	800007b7          	lui	a5,0x80000
    8000614c:	fff78793          	add	a5,a5,-1 # ffffffff7fffffff <__heap_end+0xfffffffeff7edfff>
    80006150:	00faa023          	sw	a5,0(s5)
    80006154:	0b813083          	ld	ra,184(sp)
    80006158:	0b013403          	ld	s0,176(sp)
    8000615c:	0a813483          	ld	s1,168(sp)
    80006160:	0a013903          	ld	s2,160(sp)
    80006164:	09813983          	ld	s3,152(sp)
    80006168:	09013a03          	ld	s4,144(sp)
    8000616c:	08813a83          	ld	s5,136(sp)
    80006170:	08013b03          	ld	s6,128(sp)
    80006174:	07813b83          	ld	s7,120(sp)
    80006178:	07013c03          	ld	s8,112(sp)
    8000617c:	06813c83          	ld	s9,104(sp)
    80006180:	06013d03          	ld	s10,96(sp)
    80006184:	0c010113          	add	sp,sp,192
    80006188:	00008067          	ret
    8000618c:	00009797          	auipc	a5,0x9
    80006190:	e7478793          	add	a5,a5,-396 # 8000f000 <blanks.1+0x68>
    80006194:	0007b603          	ld	a2,0(a5)
    80006198:	0087b683          	ld	a3,8(a5)
    8000619c:	00090513          	mv	a0,s2
    800061a0:	00040593          	mv	a1,s0
    800061a4:	471060ef          	jal	8000ce14 <__getf2>
    800061a8:	02054063          	bltz	a0,800061c8 <_ldtoa_r+0x1f8>
    800061ac:	000107b7          	lui	a5,0x10
    800061b0:	00f9e9b3          	or	s3,s3,a5
    800061b4:	00100793          	li	a5,1
    800061b8:	05813d83          	ld	s11,88(sp)
    800061bc:	02f12223          	sw	a5,36(sp)
    800061c0:	03312a23          	sw	s3,52(sp)
    800061c4:	f51ff06f          	j	80006114 <_ldtoa_r+0x144>
    800061c8:	00000613          	li	a2,0
    800061cc:	00000693          	li	a3,0
    800061d0:	00090513          	mv	a0,s2
    800061d4:	00048593          	mv	a1,s1
    800061d8:	3b1060ef          	jal	8000cd88 <__eqtf2>
    800061dc:	00051863          	bnez	a0,800061ec <_ldtoa_r+0x21c>
    800061e0:	05813d83          	ld	s11,88(sp)
    800061e4:	02012223          	sw	zero,36(sp)
    800061e8:	f2dff06f          	j	80006114 <_ldtoa_r+0x144>
    800061ec:	ffffc737          	lui	a4,0xffffc
    800061f0:	f927071b          	addw	a4,a4,-110 # ffffffffffffbf92 <__heap_end+0xffffffff7f7e9f92>
    800061f4:	00200793          	li	a5,2
    800061f8:	05813d83          	ld	s11,88(sp)
    800061fc:	02f12223          	sw	a5,36(sp)
    80006200:	00ec8d3b          	addw	s10,s9,a4
    80006204:	f11ff06f          	j	80006114 <_ldtoa_r+0x144>
    80006208:	00400793          	li	a5,4
    8000620c:	02f12223          	sw	a5,36(sp)
    80006210:	f05ff06f          	j	80006114 <_ldtoa_r+0x144>

0000000080006214 <_ldcheck>:
    80006214:	fd010113          	add	sp,sp,-48
    80006218:	00913c23          	sd	s1,24(sp)
    8000621c:	00853483          	ld	s1,8(a0)
    80006220:	01213823          	sd	s2,16(sp)
    80006224:	00053903          	ld	s2,0(a0)
    80006228:	00149493          	sll	s1,s1,0x1
    8000622c:	0014d493          	srl	s1,s1,0x1
    80006230:	00090613          	mv	a2,s2
    80006234:	00048693          	mv	a3,s1
    80006238:	00090513          	mv	a0,s2
    8000623c:	00048593          	mv	a1,s1
    80006240:	02113423          	sd	ra,40(sp)
    80006244:	3f1070ef          	jal	8000de34 <__unordtf2>
    80006248:	08051263          	bnez	a0,800062cc <_ldcheck+0xb8>
    8000624c:	00009797          	auipc	a5,0x9
    80006250:	da478793          	add	a5,a5,-604 # 8000eff0 <blanks.1+0x58>
    80006254:	01313423          	sd	s3,8(sp)
    80006258:	01413023          	sd	s4,0(sp)
    8000625c:	0087b983          	ld	s3,8(a5)
    80006260:	0007ba03          	ld	s4,0(a5)
    80006264:	00090513          	mv	a0,s2
    80006268:	00098693          	mv	a3,s3
    8000626c:	000a0613          	mv	a2,s4
    80006270:	00048593          	mv	a1,s1
    80006274:	02813023          	sd	s0,32(sp)
    80006278:	00100413          	li	s0,1
    8000627c:	3b9070ef          	jal	8000de34 <__unordtf2>
    80006280:	02050863          	beqz	a0,800062b0 <_ldcheck+0x9c>
    80006284:	02813083          	ld	ra,40(sp)
    80006288:	00144513          	xor	a0,s0,1
    8000628c:	02013403          	ld	s0,32(sp)
    80006290:	00151513          	sll	a0,a0,0x1
    80006294:	00813983          	ld	s3,8(sp)
    80006298:	00013a03          	ld	s4,0(sp)
    8000629c:	01813483          	ld	s1,24(sp)
    800062a0:	01013903          	ld	s2,16(sp)
    800062a4:	00257513          	and	a0,a0,2
    800062a8:	03010113          	add	sp,sp,48
    800062ac:	00008067          	ret
    800062b0:	000a0613          	mv	a2,s4
    800062b4:	00098693          	mv	a3,s3
    800062b8:	00090513          	mv	a0,s2
    800062bc:	00048593          	mv	a1,s1
    800062c0:	429060ef          	jal	8000cee8 <__letf2>
    800062c4:	00152413          	slti	s0,a0,1
    800062c8:	fbdff06f          	j	80006284 <_ldcheck+0x70>
    800062cc:	02813083          	ld	ra,40(sp)
    800062d0:	01813483          	ld	s1,24(sp)
    800062d4:	01013903          	ld	s2,16(sp)
    800062d8:	00100513          	li	a0,1
    800062dc:	03010113          	add	sp,sp,48
    800062e0:	00008067          	ret

00000000800062e4 <__gdtoa>:
    800062e4:	ed010113          	add	sp,sp,-304
    800062e8:	0f813023          	sd	s8,224(sp)
    800062ec:	00072c03          	lw	s8,0(a4)
    800062f0:	11213823          	sd	s2,272(sp)
    800062f4:	11413023          	sd	s4,256(sp)
    800062f8:	fcfc7e13          	and	t3,s8,-49
    800062fc:	12113423          	sd	ra,296(sp)
    80006300:	01c72023          	sw	t3,0(a4)
    80006304:	00070a13          	mv	s4,a4
    80006308:	13013703          	ld	a4,304(sp)
    8000630c:	00fc7e13          	and	t3,s8,15
    80006310:	00300e93          	li	t4,3
    80006314:	00e13023          	sd	a4,0(sp)
    80006318:	02b13023          	sd	a1,32(sp)
    8000631c:	00c13823          	sd	a2,16(sp)
    80006320:	00d13423          	sd	a3,8(sp)
    80006324:	01013c23          	sd	a6,24(sp)
    80006328:	00088913          	mv	s2,a7
    8000632c:	7bde0663          	beq	t3,t4,80006ad8 <__gdtoa+0x7f4>
    80006330:	11313423          	sd	s3,264(sp)
    80006334:	0d913c23          	sd	s9,216(sp)
    80006338:	00cc7993          	and	s3,s8,12
    8000633c:	6e099863          	bnez	s3,80006a2c <__gdtoa+0x748>
    80006340:	12813023          	sd	s0,288(sp)
    80006344:	00050413          	mv	s0,a0
    80006348:	740e0263          	beqz	t3,80006a8c <__gdtoa+0x7a8>
    8000634c:	0f613823          	sd	s6,240(sp)
    80006350:	0005ab03          	lw	s6,0(a1)
    80006354:	0db13423          	sd	s11,200(sp)
    80006358:	10913c23          	sd	s1,280(sp)
    8000635c:	02000693          	li	a3,32
    80006360:	00078d93          	mv	s11,a5
    80006364:	00000593          	li	a1,0
    80006368:	02000793          	li	a5,32
    8000636c:	0166d863          	bge	a3,s6,8000637c <__gdtoa+0x98>
    80006370:	0017979b          	sllw	a5,a5,0x1
    80006374:	0015859b          	addw	a1,a1,1
    80006378:	ff67cce3          	blt	a5,s6,80006370 <__gdtoa+0x8c>
    8000637c:	00040513          	mv	a0,s0
    80006380:	595010ef          	jal	80008114 <_Balloc>
    80006384:	00050493          	mv	s1,a0
    80006388:	2a0508e3          	beqz	a0,80006e38 <__gdtoa+0xb54>
    8000638c:	00813783          	ld	a5,8(sp)
    80006390:	fffb051b          	addw	a0,s6,-1 # 7fffffff <__heap_size+0x7f7fffff>
    80006394:	4055551b          	sraw	a0,a0,0x5
    80006398:	00251593          	sll	a1,a0,0x2
    8000639c:	0f513c23          	sd	s5,248(sp)
    800063a0:	0da13823          	sd	s10,208(sp)
    800063a4:	00b785b3          	add	a1,a5,a1
    800063a8:	01848693          	add	a3,s1,24
    800063ac:	0007a703          	lw	a4,0(a5)
    800063b0:	00478793          	add	a5,a5,4
    800063b4:	00468693          	add	a3,a3,4
    800063b8:	fee6ae23          	sw	a4,-4(a3)
    800063bc:	fef5f8e3          	bgeu	a1,a5,800063ac <__gdtoa+0xc8>
    800063c0:	00813783          	ld	a5,8(sp)
    800063c4:	00158593          	add	a1,a1,1
    800063c8:	00400693          	li	a3,4
    800063cc:	00178793          	add	a5,a5,1
    800063d0:	00f5e663          	bltu	a1,a5,800063dc <__gdtoa+0xf8>
    800063d4:	00251513          	sll	a0,a0,0x2
    800063d8:	00450693          	add	a3,a0,4
    800063dc:	4026d793          	sra	a5,a3,0x2
    800063e0:	00078d1b          	sext.w	s10,a5
    800063e4:	00d486b3          	add	a3,s1,a3
    800063e8:	00c0006f          	j	800063f4 <__gdtoa+0x110>
    800063ec:	ffc68693          	add	a3,a3,-4
    800063f0:	740d0863          	beqz	s10,80006b40 <__gdtoa+0x85c>
    800063f4:	0146a783          	lw	a5,20(a3)
    800063f8:	000d0a93          	mv	s5,s10
    800063fc:	fffd0d1b          	addw	s10,s10,-1
    80006400:	fe0786e3          	beqz	a5,800063ec <__gdtoa+0x108>
    80006404:	004d0793          	add	a5,s10,4
    80006408:	00279793          	sll	a5,a5,0x2
    8000640c:	00f487b3          	add	a5,s1,a5
    80006410:	0087a503          	lw	a0,8(a5)
    80006414:	0154aa23          	sw	s5,20(s1)
    80006418:	005a9a9b          	sllw	s5,s5,0x5
    8000641c:	078020ef          	jal	80008494 <__hi0bits>
    80006420:	40aa8d3b          	subw	s10,s5,a0
    80006424:	00048513          	mv	a0,s1
    80006428:	489010ef          	jal	800080b0 <__trailz_D2A>
    8000642c:	01013783          	ld	a5,16(sp)
    80006430:	0aa12e23          	sw	a0,188(sp)
    80006434:	02f13c23          	sd	a5,56(sp)
    80006438:	74051463          	bnez	a0,80006b80 <__gdtoa+0x89c>
    8000643c:	0144a683          	lw	a3,20(s1)
    80006440:	62068663          	beqz	a3,80006a6c <__gdtoa+0x788>
    80006444:	0bc10593          	add	a1,sp,188
    80006448:	00048513          	mv	a0,s1
    8000644c:	0f713423          	sd	s7,232(sp)
    80006450:	2d5020ef          	jal	80008f24 <__b2d>
    80006454:	00c51793          	sll	a5,a0,0xc
    80006458:	3ff00637          	lui	a2,0x3ff00
    8000645c:	02c7d793          	srl	a5,a5,0x2c
    80006460:	03813703          	ld	a4,56(sp)
    80006464:	fff00a93          	li	s5,-1
    80006468:	00c7e6b3          	or	a3,a5,a2
    8000646c:	020ada93          	srl	s5,s5,0x20
    80006470:	02069693          	sll	a3,a3,0x20
    80006474:	00aafab3          	and	s5,s5,a0
    80006478:	00daeab3          	or	s5,s5,a3
    8000647c:	01a7073b          	addw	a4,a4,s10
    80006480:	00c7e7b3          	or	a5,a5,a2
    80006484:	04e12023          	sw	a4,64(sp)
    80006488:	0000a597          	auipc	a1,0xa
    8000648c:	c585b583          	ld	a1,-936(a1) # 800100e0 <environ+0x8>
    80006490:	fff7071b          	addw	a4,a4,-1
    80006494:	000a8513          	mv	a0,s5
    80006498:	00070c93          	mv	s9,a4
    8000649c:	02e13423          	sd	a4,40(sp)
    800064a0:	04f13423          	sd	a5,72(sp)
    800064a4:	39c060ef          	jal	8000c840 <__subdf3>
    800064a8:	0000a597          	auipc	a1,0xa
    800064ac:	c405b583          	ld	a1,-960(a1) # 800100e8 <environ+0x10>
    800064b0:	050060ef          	jal	8000c500 <__muldf3>
    800064b4:	0000a597          	auipc	a1,0xa
    800064b8:	c3c5b583          	ld	a1,-964(a1) # 800100f0 <environ+0x18>
    800064bc:	6ac050ef          	jal	8000bb68 <__adddf3>
    800064c0:	00050b93          	mv	s7,a0
    800064c4:	000c8513          	mv	a0,s9
    800064c8:	041060ef          	jal	8000cd08 <__floatsidf>
    800064cc:	0000a597          	auipc	a1,0xa
    800064d0:	c2c5b583          	ld	a1,-980(a1) # 800100f8 <environ+0x20>
    800064d4:	02c060ef          	jal	8000c500 <__muldf3>
    800064d8:	00050593          	mv	a1,a0
    800064dc:	000b8513          	mv	a0,s7
    800064e0:	688050ef          	jal	8000bb68 <__adddf3>
    800064e4:	02813703          	ld	a4,40(sp)
    800064e8:	00050b93          	mv	s7,a0
    800064ec:	00070693          	mv	a3,a4
    800064f0:	00075863          	bgez	a4,80006500 <__gdtoa+0x21c>
    800064f4:	04012703          	lw	a4,64(sp)
    800064f8:	00100693          	li	a3,1
    800064fc:	40e686bb          	subw	a3,a3,a4
    80006500:	bcb6869b          	addw	a3,a3,-1077
    80006504:	00068513          	mv	a0,a3
    80006508:	02d05263          	blez	a3,8000652c <__gdtoa+0x248>
    8000650c:	7fc060ef          	jal	8000cd08 <__floatsidf>
    80006510:	0000a597          	auipc	a1,0xa
    80006514:	bf05b583          	ld	a1,-1040(a1) # 80010100 <environ+0x28>
    80006518:	7e9050ef          	jal	8000c500 <__muldf3>
    8000651c:	00050593          	mv	a1,a0
    80006520:	000b8513          	mv	a0,s7
    80006524:	644050ef          	jal	8000bb68 <__adddf3>
    80006528:	00050b93          	mv	s7,a0
    8000652c:	000b8513          	mv	a0,s7
    80006530:	774060ef          	jal	8000cca4 <__fixdfsi>
    80006534:	0005071b          	sext.w	a4,a0
    80006538:	00000593          	li	a1,0
    8000653c:	000b8513          	mv	a0,s7
    80006540:	02e12823          	sw	a4,48(sp)
    80006544:	02e13423          	sd	a4,40(sp)
    80006548:	70d050ef          	jal	8000c454 <__ledf2>
    8000654c:	2e054ce3          	bltz	a0,80007044 <__gdtoa+0xd60>
    80006550:	04813783          	ld	a5,72(sp)
    80006554:	02813503          	ld	a0,40(sp)
    80006558:	014c969b          	sllw	a3,s9,0x14
    8000655c:	419d0cbb          	subw	s9,s10,s9
    80006560:	00f686bb          	addw	a3,a3,a5
    80006564:	020a9a93          	sll	s5,s5,0x20
    80006568:	fffc871b          	addw	a4,s9,-1
    8000656c:	02069693          	sll	a3,a3,0x20
    80006570:	020ada93          	srl	s5,s5,0x20
    80006574:	0005061b          	sext.w	a2,a0
    80006578:	01600593          	li	a1,22
    8000657c:	02e13823          	sd	a4,48(sp)
    80006580:	000c8793          	mv	a5,s9
    80006584:	00daeab3          	or	s5,s5,a3
    80006588:	5cc5e063          	bltu	a1,a2,80006b48 <__gdtoa+0x864>
    8000658c:	00009617          	auipc	a2,0x9
    80006590:	afc60613          	add	a2,a2,-1284 # 8000f088 <__mprec_tens>
    80006594:	00351693          	sll	a3,a0,0x3
    80006598:	00d606b3          	add	a3,a2,a3
    8000659c:	0006b503          	ld	a0,0(a3)
    800065a0:	000a8593          	mv	a1,s5
    800065a4:	05912423          	sw	s9,72(sp)
    800065a8:	601050ef          	jal	8000c3a8 <__gedf2>
    800065ac:	000c8793          	mv	a5,s9
    800065b0:	0ea04ae3          	bgtz	a0,80006ea4 <__gdtoa+0xbc0>
    800065b4:	06013423          	sd	zero,104(sp)
    800065b8:	00000b93          	li	s7,0
    800065bc:	01904863          	bgtz	s9,800065cc <__gdtoa+0x2e8>
    800065c0:	00100693          	li	a3,1
    800065c4:	41968bbb          	subw	s7,a3,s9
    800065c8:	02013823          	sd	zero,48(sp)
    800065cc:	02813783          	ld	a5,40(sp)
    800065d0:	03013703          	ld	a4,48(sp)
    800065d4:	04013823          	sd	zero,80(sp)
    800065d8:	04f13c23          	sd	a5,88(sp)
    800065dc:	00e7873b          	addw	a4,a5,a4
    800065e0:	02e13823          	sd	a4,48(sp)
    800065e4:	00900693          	li	a3,9
    800065e8:	5bb6ee63          	bltu	a3,s11,80006ba4 <__gdtoa+0x8c0>
    800065ec:	00500693          	li	a3,5
    800065f0:	09b6c6e3          	blt	a3,s11,80006e7c <__gdtoa+0xb98>
    800065f4:	04012783          	lw	a5,64(sp)
    800065f8:	00400613          	li	a2,4
    800065fc:	3fd78c9b          	addw	s9,a5,1021
    80006600:	7f8cb793          	sltiu	a5,s9,2040
    80006604:	06f13823          	sd	a5,112(sp)
    80006608:	00cd9463          	bne	s11,a2,80006610 <__gdtoa+0x32c>
    8000660c:	7590006f          	j	80007564 <__gdtoa+0x1280>
    80006610:	00dd9463          	bne	s11,a3,80006618 <__gdtoa+0x334>
    80006614:	7450006f          	j	80007558 <__gdtoa+0x1274>
    80006618:	00200693          	li	a3,2
    8000661c:	00dd9463          	bne	s11,a3,80006624 <__gdtoa+0x340>
    80006620:	7510006f          	j	80007570 <__gdtoa+0x128c>
    80006624:	00300693          	li	a3,3
    80006628:	06013023          	sd	zero,96(sp)
    8000662c:	58dd9663          	bne	s11,a3,80006bb8 <__gdtoa+0x8d4>
    80006630:	05813783          	ld	a5,88(sp)
    80006634:	01813703          	ld	a4,24(sp)
    80006638:	00e7873b          	addw	a4,a5,a4
    8000663c:	0017079b          	addw	a5,a4,1
    80006640:	04f13423          	sd	a5,72(sp)
    80006644:	06e13c23          	sd	a4,120(sp)
    80006648:	48f05ce3          	blez	a5,800072e0 <__gdtoa+0xffc>
    8000664c:	00078693          	mv	a3,a5
    80006650:	00078593          	mv	a1,a5
    80006654:	00040513          	mv	a0,s0
    80006658:	0ad12e23          	sw	a3,188(sp)
    8000665c:	61c010ef          	jal	80007c78 <__rv_alloc_D2A>
    80006660:	00050c93          	mv	s9,a0
    80006664:	4a050c63          	beqz	a0,80006b1c <__gdtoa+0x838>
    80006668:	02013783          	ld	a5,32(sp)
    8000666c:	00c7a783          	lw	a5,12(a5)
    80006670:	fff7879b          	addw	a5,a5,-1
    80006674:	04f13023          	sd	a5,64(sp)
    80006678:	58078663          	beqz	a5,80006c04 <__gdtoa+0x920>
    8000667c:	7e07ca63          	bltz	a5,80006e70 <__gdtoa+0xb8c>
    80006680:	100c7313          	and	t1,s8,256
    80006684:	56031863          	bnez	t1,80006bf4 <__gdtoa+0x910>
    80006688:	03813783          	ld	a5,56(sp)
    8000668c:	0007c863          	bltz	a5,8000669c <__gdtoa+0x3b8>
    80006690:	05813783          	ld	a5,88(sp)
    80006694:	00e00693          	li	a3,14
    80006698:	02f6d0e3          	bge	a3,a5,80006eb8 <__gdtoa+0xbd4>
    8000669c:	06013783          	ld	a5,96(sp)
    800066a0:	7c078063          	beqz	a5,80006e60 <__gdtoa+0xb7c>
    800066a4:	02013783          	ld	a5,32(sp)
    800066a8:	41ab083b          	subw	a6,s6,s10
    800066ac:	0018061b          	addw	a2,a6,1
    800066b0:	0047a683          	lw	a3,4(a5)
    800066b4:	03813783          	ld	a5,56(sp)
    800066b8:	0ac12e23          	sw	a2,188(sp)
    800066bc:	4107883b          	subw	a6,a5,a6
    800066c0:	46d85ce3          	bge	a6,a3,80007338 <__gdtoa+0x1054>
    800066c4:	ffdd861b          	addw	a2,s11,-3
    800066c8:	ffd67613          	and	a2,a2,-3
    800066cc:	0006061b          	sext.w	a2,a2
    800066d0:	380600e3          	beqz	a2,80007250 <__gdtoa+0xf6c>
    800066d4:	40d786bb          	subw	a3,a5,a3
    800066d8:	0016859b          	addw	a1,a3,1
    800066dc:	0ab12e23          	sw	a1,188(sp)
    800066e0:	00100613          	li	a2,1
    800066e4:	00058693          	mv	a3,a1
    800066e8:	01b65c63          	bge	a2,s11,80006700 <__gdtoa+0x41c>
    800066ec:	04813783          	ld	a5,72(sp)
    800066f0:	00f05863          	blez	a5,80006700 <__gdtoa+0x41c>
    800066f4:	04813783          	ld	a5,72(sp)
    800066f8:	00b7d463          	bge	a5,a1,80006700 <__gdtoa+0x41c>
    800066fc:	37c0106f          	j	80007a78 <__gdtoa+0x1794>
    80006700:	03013783          	ld	a5,48(sp)
    80006704:	05013c03          	ld	s8,80(sp)
    80006708:	000b8b13          	mv	s6,s7
    8000670c:	00f687bb          	addw	a5,a3,a5
    80006710:	02f13823          	sd	a5,48(sp)
    80006714:	01768bbb          	addw	s7,a3,s7
    80006718:	00100593          	li	a1,1
    8000671c:	00040513          	mv	a0,s0
    80006720:	6d1010ef          	jal	800085f0 <__i2b>
    80006724:	00050a93          	mv	s5,a0
    80006728:	3e050a63          	beqz	a0,80006b1c <__gdtoa+0x838>
    8000672c:	020b0863          	beqz	s6,8000675c <__gdtoa+0x478>
    80006730:	03013783          	ld	a5,48(sp)
    80006734:	02f05463          	blez	a5,8000675c <__gdtoa+0x478>
    80006738:	000b0693          	mv	a3,s6
    8000673c:	0167d463          	bge	a5,s6,80006744 <__gdtoa+0x460>
    80006740:	00078693          	mv	a3,a5
    80006744:	03013783          	ld	a5,48(sp)
    80006748:	0ad12e23          	sw	a3,188(sp)
    8000674c:	40db8bbb          	subw	s7,s7,a3
    80006750:	40d787bb          	subw	a5,a5,a3
    80006754:	40db0b3b          	subw	s6,s6,a3
    80006758:	02f13823          	sd	a5,48(sp)
    8000675c:	05013783          	ld	a5,80(sp)
    80006760:	02078463          	beqz	a5,80006788 <__gdtoa+0x4a4>
    80006764:	06013783          	ld	a5,96(sp)
    80006768:	00078463          	beqz	a5,80006770 <__gdtoa+0x48c>
    8000676c:	480c14e3          	bnez	s8,800073f4 <__gdtoa+0x1110>
    80006770:	05013603          	ld	a2,80(sp)
    80006774:	00048593          	mv	a1,s1
    80006778:	00040513          	mv	a0,s0
    8000677c:	160020ef          	jal	800088dc <__pow5mult>
    80006780:	00050493          	mv	s1,a0
    80006784:	38050c63          	beqz	a0,80006b1c <__gdtoa+0x838>
    80006788:	00100593          	li	a1,1
    8000678c:	00040513          	mv	a0,s0
    80006790:	661010ef          	jal	800085f0 <__i2b>
    80006794:	00050313          	mv	t1,a0
    80006798:	38050263          	beqz	a0,80006b1c <__gdtoa+0x838>
    8000679c:	02813783          	ld	a5,40(sp)
    800067a0:	340796e3          	bnez	a5,800072ec <__gdtoa+0x1008>
    800067a4:	00100693          	li	a3,1
    800067a8:	07b6d4e3          	bge	a3,s11,80007010 <__gdtoa+0xd2c>
    800067ac:	01f00513          	li	a0,31
    800067b0:	03013783          	ld	a5,48(sp)
    800067b4:	40f509bb          	subw	s3,a0,a5
    800067b8:	ffc9899b          	addw	s3,s3,-4
    800067bc:	01f9f993          	and	s3,s3,31
    800067c0:	0b312e23          	sw	s3,188(sp)
    800067c4:	0179863b          	addw	a2,s3,s7
    800067c8:	00098793          	mv	a5,s3
    800067cc:	16c040e3          	bgtz	a2,8000712c <__gdtoa+0xe48>
    800067d0:	03013703          	ld	a4,48(sp)
    800067d4:	00f7063b          	addw	a2,a4,a5
    800067d8:	32c04863          	bgtz	a2,80006b08 <__gdtoa+0x824>
    800067dc:	06813783          	ld	a5,104(sp)
    800067e0:	160798e3          	bnez	a5,80007150 <__gdtoa+0xe6c>
    800067e4:	04813783          	ld	a5,72(sp)
    800067e8:	28f058e3          	blez	a5,80007278 <__gdtoa+0xf94>
    800067ec:	06013783          	ld	a5,96(sp)
    800067f0:	1a078ce3          	beqz	a5,800071a8 <__gdtoa+0xec4>
    800067f4:	0169863b          	addw	a2,s3,s6
    800067f8:	52c048e3          	bgtz	a2,80007528 <__gdtoa+0x1244>
    800067fc:	02813783          	ld	a5,40(sp)
    80006800:	000a8b93          	mv	s7,s5
    80006804:	5a0792e3          	bnez	a5,800075a8 <__gdtoa+0x12c4>
    80006808:	000c8d13          	mv	s10,s9
    8000680c:	01913c23          	sd	s9,24(sp)
    80006810:	04813983          	ld	s3,72(sp)
    80006814:	00100693          	li	a3,1
    80006818:	00030c93          	mv	s9,t1
    8000681c:	03413023          	sd	s4,32(sp)
    80006820:	03213423          	sd	s2,40(sp)
    80006824:	0b00006f          	j	800068d4 <__gdtoa+0x5f0>
    80006828:	00040513          	mv	a0,s0
    8000682c:	195010ef          	jal	800081c0 <_Bfree>
    80006830:	640b40e3          	bltz	s6,80007670 <__gdtoa+0x138c>
    80006834:	016deb33          	or	s6,s11,s6
    80006838:	000b0b1b          	sext.w	s6,s6
    8000683c:	000b1a63          	bnez	s6,80006850 <__gdtoa+0x56c>
    80006840:	00813783          	ld	a5,8(sp)
    80006844:	0007a783          	lw	a5,0(a5)
    80006848:	0017f793          	and	a5,a5,1
    8000684c:	620782e3          	beqz	a5,80007670 <__gdtoa+0x138c>
    80006850:	04013783          	ld	a5,64(sp)
    80006854:	00200713          	li	a4,2
    80006858:	00e78463          	beq	a5,a4,80006860 <__gdtoa+0x57c>
    8000685c:	1440106f          	j	800079a0 <__gdtoa+0x16bc>
    80006860:	014d0023          	sb	s4,0(s10)
    80006864:	0bc12783          	lw	a5,188(sp)
    80006868:	001d0d13          	add	s10,s10,1
    8000686c:	01379463          	bne	a5,s3,80006874 <__gdtoa+0x590>
    80006870:	04c0106f          	j	800078bc <__gdtoa+0x15d8>
    80006874:	00048593          	mv	a1,s1
    80006878:	00000693          	li	a3,0
    8000687c:	00a00613          	li	a2,10
    80006880:	00040513          	mv	a0,s0
    80006884:	161010ef          	jal	800081e4 <__multadd>
    80006888:	00050493          	mv	s1,a0
    8000688c:	28050863          	beqz	a0,80006b1c <__gdtoa+0x838>
    80006890:	00000693          	li	a3,0
    80006894:	00a00613          	li	a2,10
    80006898:	000a8593          	mv	a1,s5
    8000689c:	00040513          	mv	a0,s0
    800068a0:	7f7a8c63          	beq	s5,s7,80007098 <__gdtoa+0xdb4>
    800068a4:	141010ef          	jal	800081e4 <__multadd>
    800068a8:	00050a93          	mv	s5,a0
    800068ac:	26050863          	beqz	a0,80006b1c <__gdtoa+0x838>
    800068b0:	000b8593          	mv	a1,s7
    800068b4:	00000693          	li	a3,0
    800068b8:	00a00613          	li	a2,10
    800068bc:	00040513          	mv	a0,s0
    800068c0:	125010ef          	jal	800081e4 <__multadd>
    800068c4:	00050b93          	mv	s7,a0
    800068c8:	24050a63          	beqz	a0,80006b1c <__gdtoa+0x838>
    800068cc:	0bc12683          	lw	a3,188(sp)
    800068d0:	0016869b          	addw	a3,a3,1
    800068d4:	000c8593          	mv	a1,s9
    800068d8:	00048513          	mv	a0,s1
    800068dc:	0ad12e23          	sw	a3,188(sp)
    800068e0:	4e4010ef          	jal	80007dc4 <__quorem_D2A>
    800068e4:	03050a1b          	addw	s4,a0,48
    800068e8:	000a8593          	mv	a1,s5
    800068ec:	00050913          	mv	s2,a0
    800068f0:	00048513          	mv	a0,s1
    800068f4:	2dc020ef          	jal	80008bd0 <__mcmp>
    800068f8:	000c8593          	mv	a1,s9
    800068fc:	00050b13          	mv	s6,a0
    80006900:	000b8613          	mv	a2,s7
    80006904:	00040513          	mv	a0,s0
    80006908:	320020ef          	jal	80008c28 <__mdiff>
    8000690c:	000a0c13          	mv	s8,s4
    80006910:	00050593          	mv	a1,a0
    80006914:	20050463          	beqz	a0,80006b1c <__gdtoa+0x838>
    80006918:	01052783          	lw	a5,16(a0)
    8000691c:	f00796e3          	bnez	a5,80006828 <__gdtoa+0x544>
    80006920:	00a13823          	sd	a0,16(sp)
    80006924:	00048513          	mv	a0,s1
    80006928:	2a8020ef          	jal	80008bd0 <__mcmp>
    8000692c:	01013583          	ld	a1,16(sp)
    80006930:	00050693          	mv	a3,a0
    80006934:	00040513          	mv	a0,s0
    80006938:	00d13823          	sd	a3,16(sp)
    8000693c:	085010ef          	jal	800081c0 <_Bfree>
    80006940:	01013683          	ld	a3,16(sp)
    80006944:	00dde733          	or	a4,s11,a3
    80006948:	0007071b          	sext.w	a4,a4
    8000694c:	00070463          	beqz	a4,80006954 <__gdtoa+0x670>
    80006950:	2840106f          	j	80007bd4 <__gdtoa+0x18f0>
    80006954:	00813783          	ld	a5,8(sp)
    80006958:	0007a783          	lw	a5,0(a5)
    8000695c:	0017f793          	and	a5,a5,1
    80006960:	74079663          	bnez	a5,800070ac <__gdtoa+0xdc8>
    80006964:	04013783          	ld	a5,64(sp)
    80006968:	00079463          	bnez	a5,80006970 <__gdtoa+0x68c>
    8000696c:	1400106f          	j	80007aac <__gdtoa+0x17c8>
    80006970:	ef6048e3          	bgtz	s6,80006860 <__gdtoa+0x57c>
    80006974:	0144a603          	lw	a2,20(s1)
    80006978:	00100693          	li	a3,1
    8000697c:	000a0813          	mv	a6,s4
    80006980:	000c8313          	mv	t1,s9
    80006984:	02013a03          	ld	s4,32(sp)
    80006988:	01813c83          	ld	s9,24(sp)
    8000698c:	02813903          	ld	s2,40(sp)
    80006990:	00070993          	mv	s3,a4
    80006994:	00c6c463          	blt	a3,a2,8000699c <__gdtoa+0x6b8>
    80006998:	2080106f          	j	80007ba0 <__gdtoa+0x18bc>
    8000699c:	04013783          	ld	a5,64(sp)
    800069a0:	00200693          	li	a3,2
    800069a4:	00080b13          	mv	s6,a6
    800069a8:	00030d93          	mv	s11,t1
    800069ac:	02d79463          	bne	a5,a3,800069d4 <__gdtoa+0x6f0>
    800069b0:	1c40106f          	j	80007b74 <__gdtoa+0x1890>
    800069b4:	031010ef          	jal	800081e4 <__multadd>
    800069b8:	000d8593          	mv	a1,s11
    800069bc:	00050493          	mv	s1,a0
    800069c0:	14050e63          	beqz	a0,80006b1c <__gdtoa+0x838>
    800069c4:	400010ef          	jal	80007dc4 <__quorem_D2A>
    800069c8:	03050b1b          	addw	s6,a0,48
    800069cc:	000c0d13          	mv	s10,s8
    800069d0:	00098b93          	mv	s7,s3
    800069d4:	000b8593          	mv	a1,s7
    800069d8:	000d8513          	mv	a0,s11
    800069dc:	1f4020ef          	jal	80008bd0 <__mcmp>
    800069e0:	00050793          	mv	a5,a0
    800069e4:	00000693          	li	a3,0
    800069e8:	00a00613          	li	a2,10
    800069ec:	000b8593          	mv	a1,s7
    800069f0:	00040513          	mv	a0,s0
    800069f4:	001d0c13          	add	s8,s10,1
    800069f8:	00f04463          	bgtz	a5,80006a00 <__gdtoa+0x71c>
    800069fc:	1600106f          	j	80007b5c <__gdtoa+0x1878>
    80006a00:	ff6c0fa3          	sb	s6,-1(s8)
    80006a04:	7e0010ef          	jal	800081e4 <__multadd>
    80006a08:	00050993          	mv	s3,a0
    80006a0c:	00000693          	li	a3,0
    80006a10:	00a00613          	li	a2,10
    80006a14:	00048593          	mv	a1,s1
    80006a18:	00040513          	mv	a0,s0
    80006a1c:	10098063          	beqz	s3,80006b1c <__gdtoa+0x838>
    80006a20:	f97a9ae3          	bne	s5,s7,800069b4 <__gdtoa+0x6d0>
    80006a24:	00098a93          	mv	s5,s3
    80006a28:	f8dff06f          	j	800069b4 <__gdtoa+0x6d0>
    80006a2c:	00400793          	li	a5,4
    80006a30:	10fe1463          	bne	t3,a5,80006b38 <__gdtoa+0x854>
    80006a34:	00013603          	ld	a2,0(sp)
    80006a38:	10813983          	ld	s3,264(sp)
    80006a3c:	0d813c83          	ld	s9,216(sp)
    80006a40:	12813083          	ld	ra,296(sp)
    80006a44:	11013903          	ld	s2,272(sp)
    80006a48:	10013a03          	ld	s4,256(sp)
    80006a4c:	0e013c03          	ld	s8,224(sp)
    80006a50:	ffff87b7          	lui	a5,0xffff8
    80006a54:	00f8a023          	sw	a5,0(a7)
    80006a58:	00300693          	li	a3,3
    80006a5c:	00008597          	auipc	a1,0x8
    80006a60:	eac58593          	add	a1,a1,-340 # 8000e908 <__tbss_end+0x850>
    80006a64:	13010113          	add	sp,sp,304
    80006a68:	27c0106f          	j	80007ce4 <__nrv_alloc_D2A>
    80006a6c:	00048593          	mv	a1,s1
    80006a70:	00040513          	mv	a0,s0
    80006a74:	74c010ef          	jal	800081c0 <_Bfree>
    80006a78:	11813483          	ld	s1,280(sp)
    80006a7c:	0f813a83          	ld	s5,248(sp)
    80006a80:	0f013b03          	ld	s6,240(sp)
    80006a84:	0d013d03          	ld	s10,208(sp)
    80006a88:	0c813d83          	ld	s11,200(sp)
    80006a8c:	00013603          	ld	a2,0(sp)
    80006a90:	00100793          	li	a5,1
    80006a94:	00040513          	mv	a0,s0
    80006a98:	00f92023          	sw	a5,0(s2)
    80006a9c:	00100693          	li	a3,1
    80006aa0:	00008597          	auipc	a1,0x8
    80006aa4:	e5058593          	add	a1,a1,-432 # 8000e8f0 <__tbss_end+0x838>
    80006aa8:	23c010ef          	jal	80007ce4 <__nrv_alloc_D2A>
    80006aac:	12013403          	ld	s0,288(sp)
    80006ab0:	00050c93          	mv	s9,a0
    80006ab4:	12813083          	ld	ra,296(sp)
    80006ab8:	10813983          	ld	s3,264(sp)
    80006abc:	11013903          	ld	s2,272(sp)
    80006ac0:	10013a03          	ld	s4,256(sp)
    80006ac4:	0e013c03          	ld	s8,224(sp)
    80006ac8:	000c8513          	mv	a0,s9
    80006acc:	0d813c83          	ld	s9,216(sp)
    80006ad0:	13010113          	add	sp,sp,304
    80006ad4:	00008067          	ret
    80006ad8:	00013603          	ld	a2,0(sp)
    80006adc:	12813083          	ld	ra,296(sp)
    80006ae0:	11013903          	ld	s2,272(sp)
    80006ae4:	10013a03          	ld	s4,256(sp)
    80006ae8:	0e013c03          	ld	s8,224(sp)
    80006aec:	ffff87b7          	lui	a5,0xffff8
    80006af0:	00f8a023          	sw	a5,0(a7)
    80006af4:	00800693          	li	a3,8
    80006af8:	00008597          	auipc	a1,0x8
    80006afc:	e0058593          	add	a1,a1,-512 # 8000e8f8 <__tbss_end+0x840>
    80006b00:	13010113          	add	sp,sp,304
    80006b04:	1e00106f          	j	80007ce4 <__nrv_alloc_D2A>
    80006b08:	00030593          	mv	a1,t1
    80006b0c:	00040513          	mv	a0,s0
    80006b10:	71d010ef          	jal	80008a2c <__lshift>
    80006b14:	00050313          	mv	t1,a0
    80006b18:	cc0512e3          	bnez	a0,800067dc <__gdtoa+0x4f8>
    80006b1c:	12013403          	ld	s0,288(sp)
    80006b20:	11813483          	ld	s1,280(sp)
    80006b24:	0f813a83          	ld	s5,248(sp)
    80006b28:	0f013b03          	ld	s6,240(sp)
    80006b2c:	0e813b83          	ld	s7,232(sp)
    80006b30:	0d013d03          	ld	s10,208(sp)
    80006b34:	0c813d83          	ld	s11,200(sp)
    80006b38:	00000c93          	li	s9,0
    80006b3c:	f79ff06f          	j	80006ab4 <__gdtoa+0x7d0>
    80006b40:	0004aa23          	sw	zero,20(s1)
    80006b44:	8e1ff06f          	j	80006424 <__gdtoa+0x140>
    80006b48:	00100713          	li	a4,1
    80006b4c:	06e13423          	sd	a4,104(sp)
    80006b50:	03013703          	ld	a4,48(sp)
    80006b54:	00000b93          	li	s7,0
    80006b58:	2e074c63          	bltz	a4,80006e50 <__gdtoa+0xb6c>
    80006b5c:	02813783          	ld	a5,40(sp)
    80006b60:	a607d6e3          	bgez	a5,800065cc <__gdtoa+0x2e8>
    80006b64:	02813783          	ld	a5,40(sp)
    80006b68:	02013423          	sd	zero,40(sp)
    80006b6c:	40f0073b          	negw	a4,a5
    80006b70:	40fb8bbb          	subw	s7,s7,a5
    80006b74:	04e13823          	sd	a4,80(sp)
    80006b78:	04f13c23          	sd	a5,88(sp)
    80006b7c:	a69ff06f          	j	800065e4 <__gdtoa+0x300>
    80006b80:	00050593          	mv	a1,a0
    80006b84:	00048513          	mv	a0,s1
    80006b88:	440010ef          	jal	80007fc8 <__rshift_D2A>
    80006b8c:	0bc12683          	lw	a3,188(sp)
    80006b90:	01013783          	ld	a5,16(sp)
    80006b94:	40dd0d3b          	subw	s10,s10,a3
    80006b98:	00f687bb          	addw	a5,a3,a5
    80006b9c:	02f13c23          	sd	a5,56(sp)
    80006ba0:	89dff06f          	j	8000643c <__gdtoa+0x158>
    80006ba4:	04012783          	lw	a5,64(sp)
    80006ba8:	00000d93          	li	s11,0
    80006bac:	3fd78c9b          	addw	s9,a5,1021 # ffffffffffff83fd <__heap_end+0xffffffff7f7e63fd>
    80006bb0:	7f8cb793          	sltiu	a5,s9,2040
    80006bb4:	06f13823          	sd	a5,112(sp)
    80006bb8:	000b0513          	mv	a0,s6
    80006bbc:	14c060ef          	jal	8000cd08 <__floatsidf>
    80006bc0:	00009597          	auipc	a1,0x9
    80006bc4:	5485b583          	ld	a1,1352(a1) # 80010108 <environ+0x30>
    80006bc8:	139050ef          	jal	8000c500 <__muldf3>
    80006bcc:	0d8060ef          	jal	8000cca4 <__fixdfsi>
    80006bd0:	00100793          	li	a5,1
    80006bd4:	0035059b          	addw	a1,a0,3
    80006bd8:	06f13023          	sd	a5,96(sp)
    80006bdc:	fff00793          	li	a5,-1
    80006be0:	00058693          	mv	a3,a1
    80006be4:	00013c23          	sd	zero,24(sp)
    80006be8:	06f13c23          	sd	a5,120(sp)
    80006bec:	04f13423          	sd	a5,72(sp)
    80006bf0:	a65ff06f          	j	80006654 <__gdtoa+0x370>
    80006bf4:	04013783          	ld	a5,64(sp)
    80006bf8:	00300693          	li	a3,3
    80006bfc:	40f687bb          	subw	a5,a3,a5
    80006c00:	04f13023          	sd	a5,64(sp)
    80006c04:	04813c03          	ld	s8,72(sp)
    80006c08:	00e00613          	li	a2,14
    80006c0c:	000c069b          	sext.w	a3,s8
    80006c10:	a6d66ce3          	bltu	a2,a3,80006688 <__gdtoa+0x3a4>
    80006c14:	07013703          	ld	a4,112(sp)
    80006c18:	a60708e3          	beqz	a4,80006688 <__gdtoa+0x3a4>
    80006c1c:	05813703          	ld	a4,88(sp)
    80006c20:	04013683          	ld	a3,64(sp)
    80006c24:	00d766b3          	or	a3,a4,a3
    80006c28:	0006869b          	sext.w	a3,a3
    80006c2c:	a4069ee3          	bnez	a3,80006688 <__gdtoa+0x3a4>
    80006c30:	06813703          	ld	a4,104(sp)
    80006c34:	0a012e23          	sw	zero,188(sp)
    80006c38:	05513023          	sd	s5,64(sp)
    80006c3c:	00070c63          	beqz	a4,80006c54 <__gdtoa+0x970>
    80006c40:	00009597          	auipc	a1,0x9
    80006c44:	4d05b583          	ld	a1,1232(a1) # 80010110 <environ+0x38>
    80006c48:	000a8513          	mv	a0,s5
    80006c4c:	009050ef          	jal	8000c454 <__ledf2>
    80006c50:	480546e3          	bltz	a0,800078dc <__gdtoa+0x15f8>
    80006c54:	000a8593          	mv	a1,s5
    80006c58:	000a8513          	mv	a0,s5
    80006c5c:	70d040ef          	jal	8000bb68 <__adddf3>
    80006c60:	00009597          	auipc	a1,0x9
    80006c64:	4c85b583          	ld	a1,1224(a1) # 80010128 <environ+0x50>
    80006c68:	701040ef          	jal	8000bb68 <__adddf3>
    80006c6c:	02055613          	srl	a2,a0,0x20
    80006c70:	fcc006b7          	lui	a3,0xfcc00
    80006c74:	00c686bb          	addw	a3,a3,a2
    80006c78:	fff00613          	li	a2,-1
    80006c7c:	02065613          	srl	a2,a2,0x20
    80006c80:	02069693          	sll	a3,a3,0x20
    80006c84:	00a67633          	and	a2,a2,a0
    80006c88:	00d667b3          	or	a5,a2,a3
    80006c8c:	06f13823          	sd	a5,112(sp)
    80006c90:	04813783          	ld	a5,72(sp)
    80006c94:	7e078a63          	beqz	a5,80007488 <__gdtoa+0x11a4>
    80006c98:	04813783          	ld	a5,72(sp)
    80006c9c:	08013423          	sd	zero,136(sp)
    80006ca0:	09513823          	sd	s5,144(sp)
    80006ca4:	08f13023          	sd	a5,128(sp)
    80006ca8:	08013783          	ld	a5,128(sp)
    80006cac:	06013703          	ld	a4,96(sp)
    80006cb0:	00008617          	auipc	a2,0x8
    80006cb4:	3d860613          	add	a2,a2,984 # 8000f088 <__mprec_tens>
    80006cb8:	fff7869b          	addw	a3,a5,-1
    80006cbc:	00369693          	sll	a3,a3,0x3
    80006cc0:	00d606b3          	add	a3,a2,a3
    80006cc4:	0006b583          	ld	a1,0(a3) # fffffffffcc00000 <__heap_end+0xffffffff7c3ee000>
    80006cc8:	28070ce3          	beqz	a4,80007760 <__gdtoa+0x147c>
    80006ccc:	00009517          	auipc	a0,0x9
    80006cd0:	46c53503          	ld	a0,1132(a0) # 80010138 <environ+0x60>
    80006cd4:	0ac13023          	sd	a2,160(sp)
    80006cd8:	2f8050ef          	jal	8000bfd0 <__divdf3>
    80006cdc:	07013583          	ld	a1,112(sp)
    80006ce0:	001c8c13          	add	s8,s9,1
    80006ce4:	35d050ef          	jal	8000c840 <__subdf3>
    80006ce8:	09013a83          	ld	s5,144(sp)
    80006cec:	00050593          	mv	a1,a0
    80006cf0:	06b13823          	sd	a1,112(sp)
    80006cf4:	000a8513          	mv	a0,s5
    80006cf8:	7ad050ef          	jal	8000cca4 <__fixdfsi>
    80006cfc:	08a12823          	sw	a0,144(sp)
    80006d00:	008060ef          	jal	8000cd08 <__floatsidf>
    80006d04:	00050593          	mv	a1,a0
    80006d08:	000a8513          	mv	a0,s5
    80006d0c:	335050ef          	jal	8000c840 <__subdf3>
    80006d10:	09012303          	lw	t1,144(sp)
    80006d14:	00050a93          	mv	s5,a0
    80006d18:	00050593          	mv	a1,a0
    80006d1c:	07013503          	ld	a0,112(sp)
    80006d20:	0303031b          	addw	t1,t1,48
    80006d24:	006c8023          	sb	t1,0(s9)
    80006d28:	680050ef          	jal	8000c3a8 <__gedf2>
    80006d2c:	4ea04ce3          	bgtz	a0,80007a24 <__gdtoa+0x1740>
    80006d30:	00008617          	auipc	a2,0x8
    80006d34:	35860613          	add	a2,a2,856 # 8000f088 <__mprec_tens>
    80006d38:	09713823          	sd	s7,144(sp)
    80006d3c:	09313c23          	sd	s3,152(sp)
    80006d40:	08013b83          	ld	s7,128(sp)
    80006d44:	07013983          	ld	s3,112(sp)
    80006d48:	08c13023          	sd	a2,128(sp)
    80006d4c:	06813823          	sd	s0,112(sp)
    80006d50:	0680006f          	j	80006db8 <__gdtoa+0xad4>
    80006d54:	0bc12783          	lw	a5,188(sp)
    80006d58:	0017871b          	addw	a4,a5,1
    80006d5c:	0ae12e23          	sw	a4,188(sp)
    80006d60:	4f775ae3          	bge	a4,s7,80007a54 <__gdtoa+0x1770>
    80006d64:	79c050ef          	jal	8000c500 <__muldf3>
    80006d68:	00009797          	auipc	a5,0x9
    80006d6c:	3b078793          	add	a5,a5,944 # 80010118 <environ+0x40>
    80006d70:	0007b583          	ld	a1,0(a5)
    80006d74:	00050993          	mv	s3,a0
    80006d78:	000a8513          	mv	a0,s5
    80006d7c:	784050ef          	jal	8000c500 <__muldf3>
    80006d80:	00050a93          	mv	s5,a0
    80006d84:	721050ef          	jal	8000cca4 <__fixdfsi>
    80006d88:	00050413          	mv	s0,a0
    80006d8c:	77d050ef          	jal	8000cd08 <__floatsidf>
    80006d90:	00050593          	mv	a1,a0
    80006d94:	000a8513          	mv	a0,s5
    80006d98:	2a9050ef          	jal	8000c840 <__subdf3>
    80006d9c:	001c0c13          	add	s8,s8,1
    80006da0:	0304079b          	addw	a5,s0,48 # 1fff030 <__heap_size+0x17ff030>
    80006da4:	fefc0fa3          	sb	a5,-1(s8)
    80006da8:	00098593          	mv	a1,s3
    80006dac:	00050a93          	mv	s5,a0
    80006db0:	6a4050ef          	jal	8000c454 <__ledf2>
    80006db4:	460546e3          	bltz	a0,80007a20 <__gdtoa+0x173c>
    80006db8:	00009797          	auipc	a5,0x9
    80006dbc:	35878793          	add	a5,a5,856 # 80010110 <environ+0x38>
    80006dc0:	0007b503          	ld	a0,0(a5)
    80006dc4:	000a8593          	mv	a1,s5
    80006dc8:	279050ef          	jal	8000c840 <__subdf3>
    80006dcc:	00050593          	mv	a1,a0
    80006dd0:	00098513          	mv	a0,s3
    80006dd4:	5d4050ef          	jal	8000c3a8 <__gedf2>
    80006dd8:	00050793          	mv	a5,a0
    80006ddc:	00009717          	auipc	a4,0x9
    80006de0:	33c70713          	add	a4,a4,828 # 80010118 <environ+0x40>
    80006de4:	00073583          	ld	a1,0(a4)
    80006de8:	00098513          	mv	a0,s3
    80006dec:	f6f054e3          	blez	a5,80006d54 <__gdtoa+0xa70>
    80006df0:	08813783          	ld	a5,136(sp)
    80006df4:	07013403          	ld	s0,112(sp)
    80006df8:	fffc4a83          	lbu	s5,-1(s8)
    80006dfc:	0017879b          	addw	a5,a5,1
    80006e00:	00f12823          	sw	a5,16(sp)
    80006e04:	03900613          	li	a2,57
    80006e08:	0100006f          	j	80006e18 <__gdtoa+0xb34>
    80006e0c:	14fc80e3          	beq	s9,a5,8000774c <__gdtoa+0x1468>
    80006e10:	fff7ca83          	lbu	s5,-1(a5)
    80006e14:	00078c13          	mv	s8,a5
    80006e18:	fffc0793          	add	a5,s8,-1
    80006e1c:	feca88e3          	beq	s5,a2,80006e0c <__gdtoa+0xb28>
    80006e20:	001a861b          	addw	a2,s5,1
    80006e24:	0ff67613          	zext.b	a2,a2
    80006e28:	01012d83          	lw	s11,16(sp)
    80006e2c:	00c78023          	sb	a2,0(a5)
    80006e30:	02000993          	li	s3,32
    80006e34:	1900006f          	j	80006fc4 <__gdtoa+0xce0>
    80006e38:	12013403          	ld	s0,288(sp)
    80006e3c:	11813483          	ld	s1,280(sp)
    80006e40:	0f013b03          	ld	s6,240(sp)
    80006e44:	0c813d83          	ld	s11,200(sp)
    80006e48:	00000c93          	li	s9,0
    80006e4c:	c69ff06f          	j	80006ab4 <__gdtoa+0x7d0>
    80006e50:	00100693          	li	a3,1
    80006e54:	40f68bbb          	subw	s7,a3,a5
    80006e58:	02013823          	sd	zero,48(sp)
    80006e5c:	d01ff06f          	j	80006b5c <__gdtoa+0x878>
    80006e60:	05013c03          	ld	s8,80(sp)
    80006e64:	000b8b13          	mv	s6,s7
    80006e68:	00000a93          	li	s5,0
    80006e6c:	8c1ff06f          	j	8000672c <__gdtoa+0x448>
    80006e70:	00200793          	li	a5,2
    80006e74:	04f13023          	sd	a5,64(sp)
    80006e78:	809ff06f          	j	80006680 <__gdtoa+0x39c>
    80006e7c:	ffcd8d9b          	addw	s11,s11,-4
    80006e80:	00400613          	li	a2,4
    80006e84:	1ecd8263          	beq	s11,a2,80007068 <__gdtoa+0xd84>
    80006e88:	6cdd8063          	beq	s11,a3,80007548 <__gdtoa+0x1264>
    80006e8c:	00200693          	li	a3,2
    80006e90:	06013823          	sd	zero,112(sp)
    80006e94:	06013023          	sd	zero,96(sp)
    80006e98:	1cdd8e63          	beq	s11,a3,80007074 <__gdtoa+0xd90>
    80006e9c:	00300d93          	li	s11,3
    80006ea0:	f90ff06f          	j	80006630 <__gdtoa+0x34c>
    80006ea4:	02813703          	ld	a4,40(sp)
    80006ea8:	06013423          	sd	zero,104(sp)
    80006eac:	fff7071b          	addw	a4,a4,-1
    80006eb0:	02e13423          	sd	a4,40(sp)
    80006eb4:	c9dff06f          	j	80006b50 <__gdtoa+0x86c>
    80006eb8:	00379693          	sll	a3,a5,0x3
    80006ebc:	00008797          	auipc	a5,0x8
    80006ec0:	1cc78793          	add	a5,a5,460 # 8000f088 <__mprec_tens>
    80006ec4:	00d787b3          	add	a5,a5,a3
    80006ec8:	0007bb03          	ld	s6,0(a5)
    80006ecc:	01813783          	ld	a5,24(sp)
    80006ed0:	4a07c663          	bltz	a5,8000737c <__gdtoa+0x1098>
    80006ed4:	00100793          	li	a5,1
    80006ed8:	000b0593          	mv	a1,s6
    80006edc:	000a8513          	mv	a0,s5
    80006ee0:	0af12e23          	sw	a5,188(sp)
    80006ee4:	0ec050ef          	jal	8000bfd0 <__divdf3>
    80006ee8:	5bd050ef          	jal	8000cca4 <__fixdfsi>
    80006eec:	00050d1b          	sext.w	s10,a0
    80006ef0:	619050ef          	jal	8000cd08 <__floatsidf>
    80006ef4:	000b0593          	mv	a1,s6
    80006ef8:	608050ef          	jal	8000c500 <__muldf3>
    80006efc:	00050593          	mv	a1,a0
    80006f00:	000a8513          	mv	a0,s5
    80006f04:	13d050ef          	jal	8000c840 <__subdf3>
    80006f08:	05813783          	ld	a5,88(sp)
    80006f0c:	030d0b9b          	addw	s7,s10,48
    80006f10:	017c8023          	sb	s7,0(s9)
    80006f14:	00178d9b          	addw	s11,a5,1
    80006f18:	00000593          	li	a1,0
    80006f1c:	01b12823          	sw	s11,16(sp)
    80006f20:	00050a93          	mv	s5,a0
    80006f24:	001c8c13          	add	s8,s9,1
    80006f28:	3fc050ef          	jal	8000c324 <__eqdf2>
    80006f2c:	08050c63          	beqz	a0,80006fc4 <__gdtoa+0xce0>
    80006f30:	01313c23          	sd	s3,24(sp)
    80006f34:	00009b97          	auipc	s7,0x9
    80006f38:	1e4bbb83          	ld	s7,484(s7) # 80010118 <environ+0x40>
    80006f3c:	04813983          	ld	s3,72(sp)
    80006f40:	00813423          	sd	s0,8(sp)
    80006f44:	0540006f          	j	80006f98 <__gdtoa+0xcb4>
    80006f48:	0ae12e23          	sw	a4,188(sp)
    80006f4c:	5b4050ef          	jal	8000c500 <__muldf3>
    80006f50:	000b0593          	mv	a1,s6
    80006f54:	00050a93          	mv	s5,a0
    80006f58:	078050ef          	jal	8000bfd0 <__divdf3>
    80006f5c:	549050ef          	jal	8000cca4 <__fixdfsi>
    80006f60:	00050d1b          	sext.w	s10,a0
    80006f64:	5a5050ef          	jal	8000cd08 <__floatsidf>
    80006f68:	000b0593          	mv	a1,s6
    80006f6c:	594050ef          	jal	8000c500 <__muldf3>
    80006f70:	00050593          	mv	a1,a0
    80006f74:	000a8513          	mv	a0,s5
    80006f78:	0c9050ef          	jal	8000c840 <__subdf3>
    80006f7c:	001c0c13          	add	s8,s8,1
    80006f80:	030d079b          	addw	a5,s10,48
    80006f84:	fefc0fa3          	sb	a5,-1(s8)
    80006f88:	00000593          	li	a1,0
    80006f8c:	00050a93          	mv	s5,a0
    80006f90:	394050ef          	jal	8000c324 <__eqdf2>
    80006f94:	3c050e63          	beqz	a0,80007370 <__gdtoa+0x108c>
    80006f98:	0bc12783          	lw	a5,188(sp)
    80006f9c:	000b8593          	mv	a1,s7
    80006fa0:	000a8513          	mv	a0,s5
    80006fa4:	0017871b          	addw	a4,a5,1
    80006fa8:	fb3790e3          	bne	a5,s3,80006f48 <__gdtoa+0xc64>
    80006fac:	04013703          	ld	a4,64(sp)
    80006fb0:	00813403          	ld	s0,8(sp)
    80006fb4:	74070063          	beqz	a4,800076f4 <__gdtoa+0x1410>
    80006fb8:	00100793          	li	a5,1
    80006fbc:	01000993          	li	s3,16
    80006fc0:	18f706e3          	beq	a4,a5,8000794c <__gdtoa+0x1668>
    80006fc4:	00048593          	mv	a1,s1
    80006fc8:	00040513          	mv	a0,s0
    80006fcc:	1f4010ef          	jal	800081c0 <_Bfree>
    80006fd0:	00013783          	ld	a5,0(sp)
    80006fd4:	000c0023          	sb	zero,0(s8)
    80006fd8:	01b92023          	sw	s11,0(s2)
    80006fdc:	00078463          	beqz	a5,80006fe4 <__gdtoa+0xd00>
    80006fe0:	0187b023          	sd	s8,0(a5)
    80006fe4:	000a2783          	lw	a5,0(s4)
    80006fe8:	12013403          	ld	s0,288(sp)
    80006fec:	11813483          	ld	s1,280(sp)
    80006ff0:	00f9e7b3          	or	a5,s3,a5
    80006ff4:	0f813a83          	ld	s5,248(sp)
    80006ff8:	0f013b03          	ld	s6,240(sp)
    80006ffc:	0e813b83          	ld	s7,232(sp)
    80007000:	0d013d03          	ld	s10,208(sp)
    80007004:	0c813d83          	ld	s11,200(sp)
    80007008:	00fa2023          	sw	a5,0(s4)
    8000700c:	aa9ff06f          	j	80006ab4 <__gdtoa+0x7d0>
    80007010:	f8dd1e63          	bne	s10,a3,800067ac <__gdtoa+0x4c8>
    80007014:	02013783          	ld	a5,32(sp)
    80007018:	01013703          	ld	a4,16(sp)
    8000701c:	0047a783          	lw	a5,4(a5)
    80007020:	0017879b          	addw	a5,a5,1
    80007024:	f8e7d463          	bge	a5,a4,800067ac <__gdtoa+0x4c8>
    80007028:	03013783          	ld	a5,48(sp)
    8000702c:	001b8b9b          	addw	s7,s7,1
    80007030:	0017879b          	addw	a5,a5,1
    80007034:	02f13823          	sd	a5,48(sp)
    80007038:	00100793          	li	a5,1
    8000703c:	02f13423          	sd	a5,40(sp)
    80007040:	f6cff06f          	j	800067ac <__gdtoa+0x4c8>
    80007044:	03012503          	lw	a0,48(sp)
    80007048:	4c1050ef          	jal	8000cd08 <__floatsidf>
    8000704c:	000b8593          	mv	a1,s7
    80007050:	2d4050ef          	jal	8000c324 <__eqdf2>
    80007054:	ce050e63          	beqz	a0,80006550 <__gdtoa+0x26c>
    80007058:	03012783          	lw	a5,48(sp)
    8000705c:	fff7879b          	addw	a5,a5,-1
    80007060:	02f13423          	sd	a5,40(sp)
    80007064:	cecff06f          	j	80006550 <__gdtoa+0x26c>
    80007068:	00100793          	li	a5,1
    8000706c:	06013823          	sd	zero,112(sp)
    80007070:	06f13023          	sd	a5,96(sp)
    80007074:	01813783          	ld	a5,24(sp)
    80007078:	0007859b          	sext.w	a1,a5
    8000707c:	00f04463          	bgtz	a5,80007084 <__gdtoa+0xda0>
    80007080:	00100593          	li	a1,1
    80007084:	00058693          	mv	a3,a1
    80007088:	06b13c23          	sd	a1,120(sp)
    8000708c:	04b13423          	sd	a1,72(sp)
    80007090:	00b13c23          	sd	a1,24(sp)
    80007094:	dc0ff06f          	j	80006654 <__gdtoa+0x370>
    80007098:	14c010ef          	jal	800081e4 <__multadd>
    8000709c:	00050a93          	mv	s5,a0
    800070a0:	a6050ee3          	beqz	a0,80006b1c <__gdtoa+0x838>
    800070a4:	00050b93          	mv	s7,a0
    800070a8:	825ff06f          	j	800068cc <__gdtoa+0x5e8>
    800070ac:	fa0b5a63          	bgez	s6,80006860 <__gdtoa+0x57c>
    800070b0:	04013783          	ld	a5,64(sp)
    800070b4:	000a0813          	mv	a6,s4
    800070b8:	000c8313          	mv	t1,s9
    800070bc:	02013a03          	ld	s4,32(sp)
    800070c0:	01813c83          	ld	s9,24(sp)
    800070c4:	02813903          	ld	s2,40(sp)
    800070c8:	00070993          	mv	s3,a4
    800070cc:	2c0792e3          	bnez	a5,80007b90 <__gdtoa+0x18ac>
    800070d0:	0144a603          	lw	a2,20(s1)
    800070d4:	00100693          	li	a3,1
    800070d8:	01000993          	li	s3,16
    800070dc:	001d0c13          	add	s8,s10,1
    800070e0:	26c6d6e3          	bge	a3,a2,80007b4c <__gdtoa+0x1868>
    800070e4:	000a8b13          	mv	s6,s5
    800070e8:	010d0023          	sb	a6,0(s10)
    800070ec:	000b8a93          	mv	s5,s7
    800070f0:	00030593          	mv	a1,t1
    800070f4:	00040513          	mv	a0,s0
    800070f8:	0c8010ef          	jal	800081c0 <_Bfree>
    800070fc:	05813783          	ld	a5,88(sp)
    80007100:	00178d9b          	addw	s11,a5,1
    80007104:	ec0a80e3          	beqz	s5,80006fc4 <__gdtoa+0xce0>
    80007108:	000b0a63          	beqz	s6,8000711c <__gdtoa+0xe38>
    8000710c:	015b0863          	beq	s6,s5,8000711c <__gdtoa+0xe38>
    80007110:	000b0593          	mv	a1,s6
    80007114:	00040513          	mv	a0,s0
    80007118:	0a8010ef          	jal	800081c0 <_Bfree>
    8000711c:	000a8593          	mv	a1,s5
    80007120:	00040513          	mv	a0,s0
    80007124:	09c010ef          	jal	800081c0 <_Bfree>
    80007128:	e9dff06f          	j	80006fc4 <__gdtoa+0xce0>
    8000712c:	00048593          	mv	a1,s1
    80007130:	00040513          	mv	a0,s0
    80007134:	00613823          	sd	t1,16(sp)
    80007138:	0f5010ef          	jal	80008a2c <__lshift>
    8000713c:	00050493          	mv	s1,a0
    80007140:	9c050ee3          	beqz	a0,80006b1c <__gdtoa+0x838>
    80007144:	0bc12783          	lw	a5,188(sp)
    80007148:	01013303          	ld	t1,16(sp)
    8000714c:	e84ff06f          	j	800067d0 <__gdtoa+0x4ec>
    80007150:	00030593          	mv	a1,t1
    80007154:	00048513          	mv	a0,s1
    80007158:	00613823          	sd	t1,16(sp)
    8000715c:	275010ef          	jal	80008bd0 <__mcmp>
    80007160:	01013303          	ld	t1,16(sp)
    80007164:	e8055063          	bgez	a0,800067e4 <__gdtoa+0x500>
    80007168:	05813783          	ld	a5,88(sp)
    8000716c:	00048593          	mv	a1,s1
    80007170:	00000693          	li	a3,0
    80007174:	fff7879b          	addw	a5,a5,-1
    80007178:	00a00613          	li	a2,10
    8000717c:	00040513          	mv	a0,s0
    80007180:	04f13c23          	sd	a5,88(sp)
    80007184:	060010ef          	jal	800081e4 <__multadd>
    80007188:	00050493          	mv	s1,a0
    8000718c:	980508e3          	beqz	a0,80006b1c <__gdtoa+0x838>
    80007190:	06013783          	ld	a5,96(sp)
    80007194:	01013303          	ld	t1,16(sp)
    80007198:	040790e3          	bnez	a5,800079d8 <__gdtoa+0x16f4>
    8000719c:	07813783          	ld	a5,120(sp)
    800071a0:	1af05e63          	blez	a5,8000735c <__gdtoa+0x1078>
    800071a4:	04f13423          	sd	a5,72(sp)
    800071a8:	04813983          	ld	s3,72(sp)
    800071ac:	000c8d13          	mv	s10,s9
    800071b0:	00100693          	li	a3,1
    800071b4:	00030b13          	mv	s6,t1
    800071b8:	0180006f          	j	800071d0 <__gdtoa+0xeec>
    800071bc:	028010ef          	jal	800081e4 <__multadd>
    800071c0:	00050493          	mv	s1,a0
    800071c4:	94050ce3          	beqz	a0,80006b1c <__gdtoa+0x838>
    800071c8:	0bc12683          	lw	a3,188(sp)
    800071cc:	0016869b          	addw	a3,a3,1
    800071d0:	000b0593          	mv	a1,s6
    800071d4:	00048513          	mv	a0,s1
    800071d8:	0ad12e23          	sw	a3,188(sp)
    800071dc:	3e9000ef          	jal	80007dc4 <__quorem_D2A>
    800071e0:	0305081b          	addw	a6,a0,48
    800071e4:	010d0023          	sb	a6,0(s10)
    800071e8:	0bc12783          	lw	a5,188(sp)
    800071ec:	00000693          	li	a3,0
    800071f0:	00a00613          	li	a2,10
    800071f4:	00048593          	mv	a1,s1
    800071f8:	00040513          	mv	a0,s0
    800071fc:	001d0d13          	add	s10,s10,1
    80007200:	fb37cee3          	blt	a5,s3,800071bc <__gdtoa+0xed8>
    80007204:	000b0313          	mv	t1,s6
    80007208:	00000b13          	li	s6,0
    8000720c:	04013783          	ld	a5,64(sp)
    80007210:	3e078463          	beqz	a5,800075f8 <__gdtoa+0x1314>
    80007214:	00200693          	li	a3,2
    80007218:	0144a603          	lw	a2,20(s1)
    8000721c:	42d78063          	beq	a5,a3,8000763c <__gdtoa+0x1358>
    80007220:	00100693          	li	a3,1
    80007224:	2cc6cc63          	blt	a3,a2,800074fc <__gdtoa+0x1218>
    80007228:	0184a683          	lw	a3,24(s1)
    8000722c:	2c069863          	bnez	a3,800074fc <__gdtoa+0x1218>
    80007230:	00d036b3          	snez	a3,a3
    80007234:	00469993          	sll	s3,a3,0x4
    80007238:	03000593          	li	a1,48
    8000723c:	fffd4783          	lbu	a5,-1(s10)
    80007240:	000d0c13          	mv	s8,s10
    80007244:	fffd0d13          	add	s10,s10,-1
    80007248:	feb78ae3          	beq	a5,a1,8000723c <__gdtoa+0xf58>
    8000724c:	ea5ff06f          	j	800070f0 <__gdtoa+0xe0c>
    80007250:	04813703          	ld	a4,72(sp)
    80007254:	05013603          	ld	a2,80(sp)
    80007258:	fff7069b          	addw	a3,a4,-1
    8000725c:	14d64e63          	blt	a2,a3,800073b8 <__gdtoa+0x10d4>
    80007260:	40d60c3b          	subw	s8,a2,a3
    80007264:	70075e63          	bgez	a4,80007980 <__gdtoa+0x169c>
    80007268:	04813783          	ld	a5,72(sp)
    8000726c:	0a012e23          	sw	zero,188(sp)
    80007270:	40fb8b3b          	subw	s6,s7,a5
    80007274:	ca4ff06f          	j	80006718 <__gdtoa+0x434>
    80007278:	00200793          	li	a5,2
    8000727c:	d7b7d863          	bge	a5,s11,800067ec <__gdtoa+0x508>
    80007280:	00030593          	mv	a1,t1
    80007284:	00000693          	li	a3,0
    80007288:	00500613          	li	a2,5
    8000728c:	00040513          	mv	a0,s0
    80007290:	755000ef          	jal	800081e4 <__multadd>
    80007294:	00050593          	mv	a1,a0
    80007298:	880502e3          	beqz	a0,80006b1c <__gdtoa+0x838>
    8000729c:	04813783          	ld	a5,72(sp)
    800072a0:	22079663          	bnez	a5,800074cc <__gdtoa+0x11e8>
    800072a4:	00a13423          	sd	a0,8(sp)
    800072a8:	00048513          	mv	a0,s1
    800072ac:	125010ef          	jal	80008bd0 <__mcmp>
    800072b0:	05813783          	ld	a5,88(sp)
    800072b4:	00813583          	ld	a1,8(sp)
    800072b8:	00278d9b          	addw	s11,a5,2
    800072bc:	20a05863          	blez	a0,800074cc <__gdtoa+0x11e8>
    800072c0:	03100793          	li	a5,49
    800072c4:	001c8c13          	add	s8,s9,1
    800072c8:	00fc8023          	sb	a5,0(s9)
    800072cc:	02000993          	li	s3,32
    800072d0:	00040513          	mv	a0,s0
    800072d4:	6ed000ef          	jal	800081c0 <_Bfree>
    800072d8:	ce0a86e3          	beqz	s5,80006fc4 <__gdtoa+0xce0>
    800072dc:	e41ff06f          	j	8000711c <__gdtoa+0xe38>
    800072e0:	00100693          	li	a3,1
    800072e4:	00100593          	li	a1,1
    800072e8:	b6cff06f          	j	80006654 <__gdtoa+0x370>
    800072ec:	00050593          	mv	a1,a0
    800072f0:	00078613          	mv	a2,a5
    800072f4:	00040513          	mv	a0,s0
    800072f8:	5e4010ef          	jal	800088dc <__pow5mult>
    800072fc:	00050313          	mv	t1,a0
    80007300:	80050ee3          	beqz	a0,80006b1c <__gdtoa+0x838>
    80007304:	00100693          	li	a3,1
    80007308:	27b6d863          	bge	a3,s11,80007578 <__gdtoa+0x1294>
    8000730c:	01432783          	lw	a5,20(t1)
    80007310:	00613823          	sd	t1,16(sp)
    80007314:	fff7879b          	addw	a5,a5,-1
    80007318:	00478793          	add	a5,a5,4
    8000731c:	00279793          	sll	a5,a5,0x2
    80007320:	00f307b3          	add	a5,t1,a5
    80007324:	0087a503          	lw	a0,8(a5)
    80007328:	16c010ef          	jal	80008494 <__hi0bits>
    8000732c:	01013303          	ld	t1,16(sp)
    80007330:	03313423          	sd	s3,40(sp)
    80007334:	c7cff06f          	j	800067b0 <__gdtoa+0x4cc>
    80007338:	00100693          	li	a3,1
    8000733c:	f1b6cae3          	blt	a3,s11,80007250 <__gdtoa+0xf6c>
    80007340:	03013783          	ld	a5,48(sp)
    80007344:	000b8b13          	mv	s6,s7
    80007348:	05013c03          	ld	s8,80(sp)
    8000734c:	00f607bb          	addw	a5,a2,a5
    80007350:	02f13823          	sd	a5,48(sp)
    80007354:	01760bbb          	addw	s7,a2,s7
    80007358:	bc0ff06f          	j	80006718 <__gdtoa+0x434>
    8000735c:	00200793          	li	a5,2
    80007360:	7db7c463          	blt	a5,s11,80007b28 <__gdtoa+0x1844>
    80007364:	07813783          	ld	a5,120(sp)
    80007368:	04f13423          	sd	a5,72(sp)
    8000736c:	e3dff06f          	j	800071a8 <__gdtoa+0xec4>
    80007370:	01813983          	ld	s3,24(sp)
    80007374:	00813403          	ld	s0,8(sp)
    80007378:	c4dff06f          	j	80006fc4 <__gdtoa+0xce0>
    8000737c:	04813783          	ld	a5,72(sp)
    80007380:	b4f04ae3          	bgtz	a5,80006ed4 <__gdtoa+0xbf0>
    80007384:	14079063          	bnez	a5,800074c4 <__gdtoa+0x11e0>
    80007388:	00009597          	auipc	a1,0x9
    8000738c:	da85b583          	ld	a1,-600(a1) # 80010130 <environ+0x58>
    80007390:	000b0513          	mv	a0,s6
    80007394:	16c050ef          	jal	8000c500 <__muldf3>
    80007398:	000a8593          	mv	a1,s5
    8000739c:	00c050ef          	jal	8000c3a8 <__gedf2>
    800073a0:	12055263          	bgez	a0,800074c4 <__gdtoa+0x11e0>
    800073a4:	05813783          	ld	a5,88(sp)
    800073a8:	00000593          	li	a1,0
    800073ac:	00000a93          	li	s5,0
    800073b0:	00278d9b          	addw	s11,a5,2
    800073b4:	f0dff06f          	j	800072c0 <__gdtoa+0xfdc>
    800073b8:	05013783          	ld	a5,80(sp)
    800073bc:	03013703          	ld	a4,48(sp)
    800073c0:	000b8b13          	mv	s6,s7
    800073c4:	40f6863b          	subw	a2,a3,a5
    800073c8:	02813783          	ld	a5,40(sp)
    800073cc:	00000c13          	li	s8,0
    800073d0:	04d13823          	sd	a3,80(sp)
    800073d4:	00f607bb          	addw	a5,a2,a5
    800073d8:	02f13423          	sd	a5,40(sp)
    800073dc:	04813783          	ld	a5,72(sp)
    800073e0:	00e7873b          	addw	a4,a5,a4
    800073e4:	0af12e23          	sw	a5,188(sp)
    800073e8:	02e13823          	sd	a4,48(sp)
    800073ec:	00fb8bbb          	addw	s7,s7,a5
    800073f0:	b28ff06f          	j	80006718 <__gdtoa+0x434>
    800073f4:	000a8593          	mv	a1,s5
    800073f8:	000c0613          	mv	a2,s8
    800073fc:	00040513          	mv	a0,s0
    80007400:	4dc010ef          	jal	800088dc <__pow5mult>
    80007404:	00050a93          	mv	s5,a0
    80007408:	f0050a63          	beqz	a0,80006b1c <__gdtoa+0x838>
    8000740c:	00050593          	mv	a1,a0
    80007410:	00048613          	mv	a2,s1
    80007414:	00040513          	mv	a0,s0
    80007418:	288010ef          	jal	800086a0 <__multiply>
    8000741c:	02a13c23          	sd	a0,56(sp)
    80007420:	ee050e63          	beqz	a0,80006b1c <__gdtoa+0x838>
    80007424:	00048593          	mv	a1,s1
    80007428:	00040513          	mv	a0,s0
    8000742c:	595000ef          	jal	800081c0 <_Bfree>
    80007430:	05013783          	ld	a5,80(sp)
    80007434:	4187873b          	subw	a4,a5,s8
    80007438:	03813783          	ld	a5,56(sp)
    8000743c:	04e13823          	sd	a4,80(sp)
    80007440:	00078493          	mv	s1,a5
    80007444:	b4070263          	beqz	a4,80006788 <__gdtoa+0x4a4>
    80007448:	b28ff06f          	j	80006770 <__gdtoa+0x48c>
    8000744c:	000a8593          	mv	a1,s5
    80007450:	000a8513          	mv	a0,s5
    80007454:	714040ef          	jal	8000bb68 <__adddf3>
    80007458:	00009597          	auipc	a1,0x9
    8000745c:	cd05b583          	ld	a1,-816(a1) # 80010128 <environ+0x50>
    80007460:	708040ef          	jal	8000bb68 <__adddf3>
    80007464:	02055613          	srl	a2,a0,0x20
    80007468:	fcc006b7          	lui	a3,0xfcc00
    8000746c:	00c686bb          	addw	a3,a3,a2
    80007470:	fff00613          	li	a2,-1
    80007474:	02065613          	srl	a2,a2,0x20
    80007478:	02069693          	sll	a3,a3,0x20
    8000747c:	00a67633          	and	a2,a2,a0
    80007480:	00d667b3          	or	a5,a2,a3
    80007484:	06f13823          	sd	a5,112(sp)
    80007488:	04013503          	ld	a0,64(sp)
    8000748c:	00009597          	auipc	a1,0x9
    80007490:	ca45b583          	ld	a1,-860(a1) # 80010130 <environ+0x58>
    80007494:	3ac050ef          	jal	8000c840 <__subdf3>
    80007498:	07013c03          	ld	s8,112(sp)
    8000749c:	00050a93          	mv	s5,a0
    800074a0:	000c0593          	mv	a1,s8
    800074a4:	705040ef          	jal	8000c3a8 <__gedf2>
    800074a8:	4ca04463          	bgtz	a0,80007970 <__gdtoa+0x168c>
    800074ac:	fff00593          	li	a1,-1
    800074b0:	03f59593          	sll	a1,a1,0x3f
    800074b4:	00bc45b3          	xor	a1,s8,a1
    800074b8:	000a8513          	mv	a0,s5
    800074bc:	799040ef          	jal	8000c454 <__ledf2>
    800074c0:	48055a63          	bgez	a0,80007954 <__gdtoa+0x1670>
    800074c4:	00000593          	li	a1,0
    800074c8:	00000a93          	li	s5,0
    800074cc:	01813783          	ld	a5,24(sp)
    800074d0:	000c8c13          	mv	s8,s9
    800074d4:	01000993          	li	s3,16
    800074d8:	40f00dbb          	negw	s11,a5
    800074dc:	df5ff06f          	j	800072d0 <__gdtoa+0xfec>
    800074e0:	000a8b13          	mv	s6,s5
    800074e4:	000d0693          	mv	a3,s10
    800074e8:	001d0c13          	add	s8,s10,1
    800074ec:	000b8a93          	mv	s5,s7
    800074f0:	03900613          	li	a2,57
    800074f4:	000c0d13          	mv	s10,s8
    800074f8:	00c68023          	sb	a2,0(a3) # fffffffffcc00000 <__heap_end+0xffffffff7c3ee000>
    800074fc:	03900593          	li	a1,57
    80007500:	0080006f          	j	80007508 <__gdtoa+0x1224>
    80007504:	15ac8863          	beq	s9,s10,80007654 <__gdtoa+0x1370>
    80007508:	fffd4603          	lbu	a2,-1(s10)
    8000750c:	000d0c13          	mv	s8,s10
    80007510:	fffd0d13          	add	s10,s10,-1
    80007514:	feb608e3          	beq	a2,a1,80007504 <__gdtoa+0x1220>
    80007518:	0016061b          	addw	a2,a2,1
    8000751c:	00cd0023          	sb	a2,0(s10)
    80007520:	02000993          	li	s3,32
    80007524:	bcdff06f          	j	800070f0 <__gdtoa+0xe0c>
    80007528:	000a8593          	mv	a1,s5
    8000752c:	00040513          	mv	a0,s0
    80007530:	00613823          	sd	t1,16(sp)
    80007534:	4f8010ef          	jal	80008a2c <__lshift>
    80007538:	01013303          	ld	t1,16(sp)
    8000753c:	00050a93          	mv	s5,a0
    80007540:	aa051e63          	bnez	a0,800067fc <__gdtoa+0x518>
    80007544:	dd8ff06f          	j	80006b1c <__gdtoa+0x838>
    80007548:	00100793          	li	a5,1
    8000754c:	06013823          	sd	zero,112(sp)
    80007550:	06f13023          	sd	a5,96(sp)
    80007554:	8dcff06f          	j	80006630 <__gdtoa+0x34c>
    80007558:	00100793          	li	a5,1
    8000755c:	06f13023          	sd	a5,96(sp)
    80007560:	8d0ff06f          	j	80006630 <__gdtoa+0x34c>
    80007564:	00100793          	li	a5,1
    80007568:	06f13023          	sd	a5,96(sp)
    8000756c:	b09ff06f          	j	80007074 <__gdtoa+0xd90>
    80007570:	06013023          	sd	zero,96(sp)
    80007574:	b01ff06f          	j	80007074 <__gdtoa+0xd90>
    80007578:	d8dd1ae3          	bne	s10,a3,8000730c <__gdtoa+0x1028>
    8000757c:	02013783          	ld	a5,32(sp)
    80007580:	01013703          	ld	a4,16(sp)
    80007584:	0047a783          	lw	a5,4(a5)
    80007588:	0017879b          	addw	a5,a5,1
    8000758c:	d8e7d0e3          	bge	a5,a4,8000730c <__gdtoa+0x1028>
    80007590:	03013783          	ld	a5,48(sp)
    80007594:	001b8b9b          	addw	s7,s7,1
    80007598:	00100993          	li	s3,1
    8000759c:	0017879b          	addw	a5,a5,1
    800075a0:	02f13823          	sd	a5,48(sp)
    800075a4:	d69ff06f          	j	8000730c <__gdtoa+0x1028>
    800075a8:	008aa583          	lw	a1,8(s5)
    800075ac:	00040513          	mv	a0,s0
    800075b0:	00613823          	sd	t1,16(sp)
    800075b4:	361000ef          	jal	80008114 <_Balloc>
    800075b8:	00050993          	mv	s3,a0
    800075bc:	d6050063          	beqz	a0,80006b1c <__gdtoa+0x838>
    800075c0:	014aa603          	lw	a2,20(s5)
    800075c4:	010a8593          	add	a1,s5,16
    800075c8:	01050513          	add	a0,a0,16
    800075cc:	00260613          	add	a2,a2,2
    800075d0:	00261613          	sll	a2,a2,0x2
    800075d4:	e84fe0ef          	jal	80005c58 <memcpy>
    800075d8:	00100613          	li	a2,1
    800075dc:	00098593          	mv	a1,s3
    800075e0:	00040513          	mv	a0,s0
    800075e4:	448010ef          	jal	80008a2c <__lshift>
    800075e8:	01013303          	ld	t1,16(sp)
    800075ec:	00050b93          	mv	s7,a0
    800075f0:	a0051c63          	bnez	a0,80006808 <__gdtoa+0x524>
    800075f4:	d28ff06f          	j	80006b1c <__gdtoa+0x838>
    800075f8:	00048593          	mv	a1,s1
    800075fc:	00100613          	li	a2,1
    80007600:	00040513          	mv	a0,s0
    80007604:	00613423          	sd	t1,8(sp)
    80007608:	01013823          	sd	a6,16(sp)
    8000760c:	420010ef          	jal	80008a2c <__lshift>
    80007610:	00050493          	mv	s1,a0
    80007614:	d0050463          	beqz	a0,80006b1c <__gdtoa+0x838>
    80007618:	00813303          	ld	t1,8(sp)
    8000761c:	00030593          	mv	a1,t1
    80007620:	5b0010ef          	jal	80008bd0 <__mcmp>
    80007624:	00813303          	ld	t1,8(sp)
    80007628:	eca04ae3          	bgtz	a0,800074fc <__gdtoa+0x1218>
    8000762c:	00051863          	bnez	a0,8000763c <__gdtoa+0x1358>
    80007630:	01013803          	ld	a6,16(sp)
    80007634:	00187813          	and	a6,a6,1
    80007638:	ec0812e3          	bnez	a6,800074fc <__gdtoa+0x1218>
    8000763c:	0144a603          	lw	a2,20(s1)
    80007640:	00100693          	li	a3,1
    80007644:	01000993          	li	s3,16
    80007648:	bec6c8e3          	blt	a3,a2,80007238 <__gdtoa+0xf54>
    8000764c:	0184a683          	lw	a3,24(s1)
    80007650:	be1ff06f          	j	80007230 <__gdtoa+0xf4c>
    80007654:	05813783          	ld	a5,88(sp)
    80007658:	02000993          	li	s3,32
    8000765c:	0017879b          	addw	a5,a5,1
    80007660:	04f13c23          	sd	a5,88(sp)
    80007664:	03100793          	li	a5,49
    80007668:	00fc8023          	sb	a5,0(s9)
    8000766c:	a85ff06f          	j	800070f0 <__gdtoa+0xe0c>
    80007670:	04013783          	ld	a5,64(sp)
    80007674:	00090993          	mv	s3,s2
    80007678:	000a0813          	mv	a6,s4
    8000767c:	000c8313          	mv	t1,s9
    80007680:	02013a03          	ld	s4,32(sp)
    80007684:	01813c83          	ld	s9,24(sp)
    80007688:	02813903          	ld	s2,40(sp)
    8000768c:	00078c63          	beqz	a5,800076a4 <__gdtoa+0x13c0>
    80007690:	0144a603          	lw	a2,20(s1)
    80007694:	00100693          	li	a3,1
    80007698:	b0c6c263          	blt	a3,a2,8000699c <__gdtoa+0x6b8>
    8000769c:	0184a683          	lw	a3,24(s1)
    800076a0:	ae069e63          	bnez	a3,8000699c <__gdtoa+0x6b8>
    800076a4:	00048593          	mv	a1,s1
    800076a8:	00100613          	li	a2,1
    800076ac:	00040513          	mv	a0,s0
    800076b0:	00613423          	sd	t1,8(sp)
    800076b4:	01013823          	sd	a6,16(sp)
    800076b8:	374010ef          	jal	80008a2c <__lshift>
    800076bc:	00050493          	mv	s1,a0
    800076c0:	c4050e63          	beqz	a0,80006b1c <__gdtoa+0x838>
    800076c4:	00813303          	ld	t1,8(sp)
    800076c8:	00030593          	mv	a1,t1
    800076cc:	504010ef          	jal	80008bd0 <__mcmp>
    800076d0:	00813303          	ld	t1,8(sp)
    800076d4:	01013803          	ld	a6,16(sp)
    800076d8:	44a05e63          	blez	a0,80007b34 <__gdtoa+0x1850>
    800076dc:	03900693          	li	a3,57
    800076e0:	e0d800e3          	beq	a6,a3,800074e0 <__gdtoa+0x11fc>
    800076e4:	02000793          	li	a5,32
    800076e8:	0319881b          	addw	a6,s3,49
    800076ec:	04f13023          	sd	a5,64(sp)
    800076f0:	9e1ff06f          	j	800070d0 <__gdtoa+0xdec>
    800076f4:	000a8593          	mv	a1,s5
    800076f8:	470040ef          	jal	8000bb68 <__adddf3>
    800076fc:	000b0593          	mv	a1,s6
    80007700:	fffc4a83          	lbu	s5,-1(s8)
    80007704:	00050993          	mv	s3,a0
    80007708:	4a1040ef          	jal	8000c3a8 <__gedf2>
    8000770c:	eea04c63          	bgtz	a0,80006e04 <__gdtoa+0xb20>
    80007710:	000b0593          	mv	a1,s6
    80007714:	00098513          	mv	a0,s3
    80007718:	40d040ef          	jal	8000c324 <__eqdf2>
    8000771c:	00051663          	bnez	a0,80007728 <__gdtoa+0x1444>
    80007720:	001d7d13          	and	s10,s10,1
    80007724:	ee0d1063          	bnez	s10,80006e04 <__gdtoa+0xb20>
    80007728:	000c0793          	mv	a5,s8
    8000772c:	01000993          	li	s3,16
    80007730:	03000593          	li	a1,48
    80007734:	fff7c703          	lbu	a4,-1(a5)
    80007738:	00078c13          	mv	s8,a5
    8000773c:	fff78793          	add	a5,a5,-1
    80007740:	feb70ae3          	beq	a4,a1,80007734 <__gdtoa+0x1450>
    80007744:	01012d83          	lw	s11,16(sp)
    80007748:	87dff06f          	j	80006fc4 <__gdtoa+0xce0>
    8000774c:	01012703          	lw	a4,16(sp)
    80007750:	03100613          	li	a2,49
    80007754:	0017071b          	addw	a4,a4,1
    80007758:	00e12823          	sw	a4,16(sp)
    8000775c:	eccff06f          	j	80006e28 <__gdtoa+0xb44>
    80007760:	07013503          	ld	a0,112(sp)
    80007764:	0ac13423          	sd	a2,168(sp)
    80007768:	000a8b13          	mv	s6,s5
    8000776c:	595040ef          	jal	8000c500 <__muldf3>
    80007770:	0a813603          	ld	a2,168(sp)
    80007774:	00090793          	mv	a5,s2
    80007778:	08a13823          	sd	a0,144(sp)
    8000777c:	00100693          	li	a3,1
    80007780:	00000513          	li	a0,0
    80007784:	07513823          	sd	s5,112(sp)
    80007788:	0a913023          	sd	s1,160(sp)
    8000778c:	000a0a93          	mv	s5,s4
    80007790:	08013483          	ld	s1,128(sp)
    80007794:	00040a13          	mv	s4,s0
    80007798:	000b0913          	mv	s2,s6
    8000779c:	0ad12e23          	sw	a3,188(sp)
    800077a0:	000c8c13          	mv	s8,s9
    800077a4:	09313c23          	sd	s3,152(sp)
    800077a8:	00050413          	mv	s0,a0
    800077ac:	08c13023          	sd	a2,128(sp)
    800077b0:	00078b13          	mv	s6,a5
    800077b4:	0140006f          	j	800077c8 <__gdtoa+0x14e4>
    800077b8:	0ac12e23          	sw	a2,188(sp)
    800077bc:	545040ef          	jal	8000c500 <__muldf3>
    800077c0:	00050913          	mv	s2,a0
    800077c4:	00100413          	li	s0,1
    800077c8:	00090513          	mv	a0,s2
    800077cc:	4d8050ef          	jal	8000cca4 <__fixdfsi>
    800077d0:	0005069b          	sext.w	a3,a0
    800077d4:	00068993          	mv	s3,a3
    800077d8:	00068e63          	beqz	a3,800077f4 <__gdtoa+0x1510>
    800077dc:	52c050ef          	jal	8000cd08 <__floatsidf>
    800077e0:	00050593          	mv	a1,a0
    800077e4:	00090513          	mv	a0,s2
    800077e8:	058050ef          	jal	8000c840 <__subdf3>
    800077ec:	00050913          	mv	s2,a0
    800077f0:	00100413          	li	s0,1
    800077f4:	0309879b          	addw	a5,s3,48
    800077f8:	001c0c13          	add	s8,s8,1
    800077fc:	0ff7f793          	zext.b	a5,a5
    80007800:	fefc0fa3          	sb	a5,-1(s8)
    80007804:	0bc12683          	lw	a3,188(sp)
    80007808:	00009717          	auipc	a4,0x9
    8000780c:	91070713          	add	a4,a4,-1776 # 80010118 <environ+0x40>
    80007810:	00073583          	ld	a1,0(a4)
    80007814:	00090513          	mv	a0,s2
    80007818:	0016861b          	addw	a2,a3,1
    8000781c:	f8969ee3          	bne	a3,s1,800077b8 <__gdtoa+0x14d4>
    80007820:	00040513          	mv	a0,s0
    80007824:	000a0413          	mv	s0,s4
    80007828:	000a8a13          	mv	s4,s5
    8000782c:	00078a93          	mv	s5,a5
    80007830:	000b0793          	mv	a5,s6
    80007834:	09813983          	ld	s3,152(sp)
    80007838:	00090b13          	mv	s6,s2
    8000783c:	0a013483          	ld	s1,160(sp)
    80007840:	08013603          	ld	a2,128(sp)
    80007844:	00078913          	mv	s2,a5
    80007848:	00050463          	beqz	a0,80007850 <__gdtoa+0x156c>
    8000784c:	07613823          	sd	s6,112(sp)
    80007850:	09013503          	ld	a0,144(sp)
    80007854:	00009597          	auipc	a1,0x9
    80007858:	8e45b583          	ld	a1,-1820(a1) # 80010138 <environ+0x60>
    8000785c:	08c13023          	sd	a2,128(sp)
    80007860:	308040ef          	jal	8000bb68 <__adddf3>
    80007864:	07013b03          	ld	s6,112(sp)
    80007868:	000b0593          	mv	a1,s6
    8000786c:	3e9040ef          	jal	8000c454 <__ledf2>
    80007870:	1c054a63          	bltz	a0,80007a44 <__gdtoa+0x1760>
    80007874:	09013583          	ld	a1,144(sp)
    80007878:	00009517          	auipc	a0,0x9
    8000787c:	8c053503          	ld	a0,-1856(a0) # 80010138 <environ+0x60>
    80007880:	7c1040ef          	jal	8000c840 <__subdf3>
    80007884:	000b0593          	mv	a1,s6
    80007888:	321040ef          	jal	8000c3a8 <__gedf2>
    8000788c:	08013603          	ld	a2,128(sp)
    80007890:	24a04e63          	bgtz	a0,80007aec <__gdtoa+0x1808>
    80007894:	03813783          	ld	a5,56(sp)
    80007898:	04013a83          	ld	s5,64(sp)
    8000789c:	2607cc63          	bltz	a5,80007b14 <__gdtoa+0x1830>
    800078a0:	01813783          	ld	a5,24(sp)
    800078a4:	04013023          	sd	zero,64(sp)
    800078a8:	00063b03          	ld	s6,0(a2)
    800078ac:	e207d463          	bgez	a5,80006ed4 <__gdtoa+0xbf0>
    800078b0:	04813783          	ld	a5,72(sp)
    800078b4:	e2079063          	bnez	a5,80006ed4 <__gdtoa+0xbf0>
    800078b8:	ad1ff06f          	j	80007388 <__gdtoa+0x10a4>
    800078bc:	000a0813          	mv	a6,s4
    800078c0:	000c8313          	mv	t1,s9
    800078c4:	000a8b13          	mv	s6,s5
    800078c8:	01813c83          	ld	s9,24(sp)
    800078cc:	02013a03          	ld	s4,32(sp)
    800078d0:	02813903          	ld	s2,40(sp)
    800078d4:	000b8a93          	mv	s5,s7
    800078d8:	935ff06f          	j	8000720c <__gdtoa+0xf28>
    800078dc:	b60c08e3          	beqz	s8,8000744c <__gdtoa+0x1168>
    800078e0:	07813c03          	ld	s8,120(sp)
    800078e4:	07805863          	blez	s8,80007954 <__gdtoa+0x1670>
    800078e8:	00009597          	auipc	a1,0x9
    800078ec:	8305b583          	ld	a1,-2000(a1) # 80010118 <environ+0x40>
    800078f0:	000a8513          	mv	a0,s5
    800078f4:	40d040ef          	jal	8000c500 <__muldf3>
    800078f8:	00009597          	auipc	a1,0x9
    800078fc:	8285b583          	ld	a1,-2008(a1) # 80010120 <environ+0x48>
    80007900:	08a13823          	sd	a0,144(sp)
    80007904:	00050a93          	mv	s5,a0
    80007908:	3f9040ef          	jal	8000c500 <__muldf3>
    8000790c:	00009597          	auipc	a1,0x9
    80007910:	81c5b583          	ld	a1,-2020(a1) # 80010128 <environ+0x50>
    80007914:	254040ef          	jal	8000bb68 <__adddf3>
    80007918:	02055613          	srl	a2,a0,0x20
    8000791c:	fcc006b7          	lui	a3,0xfcc00
    80007920:	00c686bb          	addw	a3,a3,a2
    80007924:	fff00613          	li	a2,-1
    80007928:	02065613          	srl	a2,a2,0x20
    8000792c:	02069693          	sll	a3,a3,0x20
    80007930:	00a67633          	and	a2,a2,a0
    80007934:	00d667b3          	or	a5,a2,a3
    80007938:	06f13823          	sd	a5,112(sp)
    8000793c:	fff00793          	li	a5,-1
    80007940:	09813023          	sd	s8,128(sp)
    80007944:	08f13423          	sd	a5,136(sp)
    80007948:	b60ff06f          	j	80006ca8 <__gdtoa+0x9c4>
    8000794c:	fffc4a83          	lbu	s5,-1(s8)
    80007950:	cb4ff06f          	j	80006e04 <__gdtoa+0xb20>
    80007954:	03813783          	ld	a5,56(sp)
    80007958:	04013a83          	ld	s5,64(sp)
    8000795c:	00007617          	auipc	a2,0x7
    80007960:	72c60613          	add	a2,a2,1836 # 8000f088 <__mprec_tens>
    80007964:	f207dee3          	bgez	a5,800078a0 <__gdtoa+0x15bc>
    80007968:	04013023          	sd	zero,64(sp)
    8000796c:	d31fe06f          	j	8000669c <__gdtoa+0x3b8>
    80007970:	00200d93          	li	s11,2
    80007974:	00000593          	li	a1,0
    80007978:	00000a93          	li	s5,0
    8000797c:	945ff06f          	j	800072c0 <__gdtoa+0xfdc>
    80007980:	00070793          	mv	a5,a4
    80007984:	0ae12e23          	sw	a4,188(sp)
    80007988:	03013703          	ld	a4,48(sp)
    8000798c:	000b8b13          	mv	s6,s7
    80007990:	00fb8bbb          	addw	s7,s7,a5
    80007994:	00e7873b          	addw	a4,a5,a4
    80007998:	02e13823          	sd	a4,48(sp)
    8000799c:	d7dfe06f          	j	80006718 <__gdtoa+0x434>
    800079a0:	000a0813          	mv	a6,s4
    800079a4:	03900693          	li	a3,57
    800079a8:	000c8313          	mv	t1,s9
    800079ac:	02013a03          	ld	s4,32(sp)
    800079b0:	01813c83          	ld	s9,24(sp)
    800079b4:	02813903          	ld	s2,40(sp)
    800079b8:	b2d804e3          	beq	a6,a3,800074e0 <__gdtoa+0x11fc>
    800079bc:	001c079b          	addw	a5,s8,1
    800079c0:	000a8b13          	mv	s6,s5
    800079c4:	001d0c13          	add	s8,s10,1
    800079c8:	00fd0023          	sb	a5,0(s10)
    800079cc:	000b8a93          	mv	s5,s7
    800079d0:	02000993          	li	s3,32
    800079d4:	f1cff06f          	j	800070f0 <__gdtoa+0xe0c>
    800079d8:	000a8593          	mv	a1,s5
    800079dc:	00000693          	li	a3,0
    800079e0:	00a00613          	li	a2,10
    800079e4:	00040513          	mv	a0,s0
    800079e8:	7fc000ef          	jal	800081e4 <__multadd>
    800079ec:	00050a93          	mv	s5,a0
    800079f0:	00051463          	bnez	a0,800079f8 <__gdtoa+0x1714>
    800079f4:	928ff06f          	j	80006b1c <__gdtoa+0x838>
    800079f8:	07813783          	ld	a5,120(sp)
    800079fc:	01013303          	ld	t1,16(sp)
    80007a00:	00f05663          	blez	a5,80007a0c <__gdtoa+0x1728>
    80007a04:	04f13423          	sd	a5,72(sp)
    80007a08:	dedfe06f          	j	800067f4 <__gdtoa+0x510>
    80007a0c:	00200793          	li	a5,2
    80007a10:	11b7cc63          	blt	a5,s11,80007b28 <__gdtoa+0x1844>
    80007a14:	07813783          	ld	a5,120(sp)
    80007a18:	04f13423          	sd	a5,72(sp)
    80007a1c:	dd9fe06f          	j	800067f4 <__gdtoa+0x510>
    80007a20:	07013403          	ld	s0,112(sp)
    80007a24:	00000593          	li	a1,0
    80007a28:	000a8513          	mv	a0,s5
    80007a2c:	0f9040ef          	jal	8000c324 <__eqdf2>
    80007a30:	08813783          	ld	a5,136(sp)
    80007a34:	00a039b3          	snez	s3,a0
    80007a38:	00499993          	sll	s3,s3,0x4
    80007a3c:	00178d93          	add	s11,a5,1
    80007a40:	d84ff06f          	j	80006fc4 <__gdtoa+0xce0>
    80007a44:	08813783          	ld	a5,136(sp)
    80007a48:	0017879b          	addw	a5,a5,1
    80007a4c:	00f12823          	sw	a5,16(sp)
    80007a50:	bb4ff06f          	j	80006e04 <__gdtoa+0xb20>
    80007a54:	03813783          	ld	a5,56(sp)
    80007a58:	09013b83          	ld	s7,144(sp)
    80007a5c:	09813983          	ld	s3,152(sp)
    80007a60:	07013403          	ld	s0,112(sp)
    80007a64:	08013603          	ld	a2,128(sp)
    80007a68:	04013a83          	ld	s5,64(sp)
    80007a6c:	e207dae3          	bgez	a5,800078a0 <__gdtoa+0x15bc>
    80007a70:	04013023          	sd	zero,64(sp)
    80007a74:	c31fe06f          	j	800066a4 <__gdtoa+0x3c0>
    80007a78:	04813703          	ld	a4,72(sp)
    80007a7c:	05013603          	ld	a2,80(sp)
    80007a80:	fff7069b          	addw	a3,a4,-1
    80007a84:	00068793          	mv	a5,a3
    80007a88:	92d648e3          	blt	a2,a3,800073b8 <__gdtoa+0x10d4>
    80007a8c:	03013683          	ld	a3,48(sp)
    80007a90:	000b8b13          	mv	s6,s7
    80007a94:	40f60c3b          	subw	s8,a2,a5
    80007a98:	00d706bb          	addw	a3,a4,a3
    80007a9c:	02d13823          	sd	a3,48(sp)
    80007aa0:	0ae12e23          	sw	a4,188(sp)
    80007aa4:	00eb8bbb          	addw	s7,s7,a4
    80007aa8:	c71fe06f          	j	80006718 <__gdtoa+0x434>
    80007aac:	03900693          	li	a3,57
    80007ab0:	00090993          	mv	s3,s2
    80007ab4:	000a0813          	mv	a6,s4
    80007ab8:	000c8313          	mv	t1,s9
    80007abc:	02013a03          	ld	s4,32(sp)
    80007ac0:	01813c83          	ld	s9,24(sp)
    80007ac4:	02813903          	ld	s2,40(sp)
    80007ac8:	a0dc0ce3          	beq	s8,a3,800074e0 <__gdtoa+0x11fc>
    80007acc:	0f605463          	blez	s6,80007bb4 <__gdtoa+0x18d0>
    80007ad0:	0319881b          	addw	a6,s3,49
    80007ad4:	02000993          	li	s3,32
    80007ad8:	000a8b13          	mv	s6,s5
    80007adc:	001d0c13          	add	s8,s10,1
    80007ae0:	010d0023          	sb	a6,0(s10)
    80007ae4:	000b8a93          	mv	s5,s7
    80007ae8:	e08ff06f          	j	800070f0 <__gdtoa+0xe0c>
    80007aec:	00000593          	li	a1,0
    80007af0:	000b0513          	mv	a0,s6
    80007af4:	031040ef          	jal	8000c324 <__eqdf2>
    80007af8:	08813703          	ld	a4,136(sp)
    80007afc:	00a039b3          	snez	s3,a0
    80007b00:	00499993          	sll	s3,s3,0x4
    80007b04:	0017071b          	addw	a4,a4,1
    80007b08:	000c0793          	mv	a5,s8
    80007b0c:	00e12823          	sw	a4,16(sp)
    80007b10:	c21ff06f          	j	80007730 <__gdtoa+0x144c>
    80007b14:	05013c03          	ld	s8,80(sp)
    80007b18:	04013023          	sd	zero,64(sp)
    80007b1c:	000b8b13          	mv	s6,s7
    80007b20:	00000a93          	li	s5,0
    80007b24:	c09fe06f          	j	8000672c <__gdtoa+0x448>
    80007b28:	07813783          	ld	a5,120(sp)
    80007b2c:	04f13423          	sd	a5,72(sp)
    80007b30:	f50ff06f          	j	80007280 <__gdtoa+0xf9c>
    80007b34:	00051663          	bnez	a0,80007b40 <__gdtoa+0x185c>
    80007b38:	00187693          	and	a3,a6,1
    80007b3c:	ba0690e3          	bnez	a3,800076dc <__gdtoa+0x13f8>
    80007b40:	02000793          	li	a5,32
    80007b44:	04f13023          	sd	a5,64(sp)
    80007b48:	d88ff06f          	j	800070d0 <__gdtoa+0xdec>
    80007b4c:	0184a683          	lw	a3,24(s1)
    80007b50:	d8069a63          	bnez	a3,800070e4 <__gdtoa+0xe00>
    80007b54:	04013983          	ld	s3,64(sp)
    80007b58:	d8cff06f          	j	800070e4 <__gdtoa+0xe00>
    80007b5c:	03900693          	li	a3,57
    80007b60:	000d8313          	mv	t1,s11
    80007b64:	00db0e63          	beq	s6,a3,80007b80 <__gdtoa+0x189c>
    80007b68:	001b081b          	addw	a6,s6,1
    80007b6c:	02000993          	li	s3,32
    80007b70:	d74ff06f          	j	800070e4 <__gdtoa+0xe00>
    80007b74:	01000993          	li	s3,16
    80007b78:	001d0c13          	add	s8,s10,1
    80007b7c:	d68ff06f          	j	800070e4 <__gdtoa+0xe00>
    80007b80:	000a8b13          	mv	s6,s5
    80007b84:	000d0693          	mv	a3,s10
    80007b88:	000b8a93          	mv	s5,s7
    80007b8c:	965ff06f          	j	800074f0 <__gdtoa+0x120c>
    80007b90:	0144a603          	lw	a2,20(s1)
    80007b94:	00100693          	li	a3,1
    80007b98:	00c6d463          	bge	a3,a2,80007ba0 <__gdtoa+0x18bc>
    80007b9c:	e01fe06f          	j	8000699c <__gdtoa+0x6b8>
    80007ba0:	0184a683          	lw	a3,24(s1)
    80007ba4:	00068463          	beqz	a3,80007bac <__gdtoa+0x18c8>
    80007ba8:	df5fe06f          	j	8000699c <__gdtoa+0x6b8>
    80007bac:	001d0c13          	add	s8,s10,1
    80007bb0:	d34ff06f          	j	800070e4 <__gdtoa+0xe00>
    80007bb4:	0144a603          	lw	a2,20(s1)
    80007bb8:	00100693          	li	a3,1
    80007bbc:	01000993          	li	s3,16
    80007bc0:	f0c6cce3          	blt	a3,a2,80007ad8 <__gdtoa+0x17f4>
    80007bc4:	0184a983          	lw	s3,24(s1)
    80007bc8:	013039b3          	snez	s3,s3
    80007bcc:	00499993          	sll	s3,s3,0x4
    80007bd0:	f09ff06f          	j	80007ad8 <__gdtoa+0x17f4>
    80007bd4:	020b4663          	bltz	s6,80007c00 <__gdtoa+0x191c>
    80007bd8:	016de7b3          	or	a5,s11,s6
    80007bdc:	0007879b          	sext.w	a5,a5
    80007be0:	00079a63          	bnez	a5,80007bf4 <__gdtoa+0x1910>
    80007be4:	00813783          	ld	a5,8(sp)
    80007be8:	0007a783          	lw	a5,0(a5)
    80007bec:	0017f793          	and	a5,a5,1
    80007bf0:	00078863          	beqz	a5,80007c00 <__gdtoa+0x191c>
    80007bf4:	00d04463          	bgtz	a3,80007bfc <__gdtoa+0x1918>
    80007bf8:	c69fe06f          	j	80006860 <__gdtoa+0x57c>
    80007bfc:	c55fe06f          	j	80006850 <__gdtoa+0x56c>
    80007c00:	04013783          	ld	a5,64(sp)
    80007c04:	00090993          	mv	s3,s2
    80007c08:	000a0813          	mv	a6,s4
    80007c0c:	000c8313          	mv	t1,s9
    80007c10:	02013a03          	ld	s4,32(sp)
    80007c14:	01813c83          	ld	s9,24(sp)
    80007c18:	02813903          	ld	s2,40(sp)
    80007c1c:	02078863          	beqz	a5,80007c4c <__gdtoa+0x1968>
    80007c20:	0144a583          	lw	a1,20(s1)
    80007c24:	00100613          	li	a2,1
    80007c28:	00b65463          	bge	a2,a1,80007c30 <__gdtoa+0x194c>
    80007c2c:	d71fe06f          	j	8000699c <__gdtoa+0x6b8>
    80007c30:	0184a603          	lw	a2,24(s1)
    80007c34:	00060463          	beqz	a2,80007c3c <__gdtoa+0x1958>
    80007c38:	d65fe06f          	j	8000699c <__gdtoa+0x6b8>
    80007c3c:	a6d044e3          	bgtz	a3,800076a4 <__gdtoa+0x13c0>
    80007c40:	00000993          	li	s3,0
    80007c44:	001d0c13          	add	s8,s10,1
    80007c48:	c9cff06f          	j	800070e4 <__gdtoa+0xe00>
    80007c4c:	c8d05263          	blez	a3,800070d0 <__gdtoa+0xdec>
    80007c50:	a55ff06f          	j	800076a4 <__gdtoa+0x13c0>

0000000080007c54 <__rv_alloc_D2A.part.0>:
    80007c54:	ff010113          	add	sp,sp,-16
    80007c58:	00007697          	auipc	a3,0x7
    80007c5c:	cb868693          	add	a3,a3,-840 # 8000e910 <__tbss_end+0x858>
    80007c60:	00000613          	li	a2,0
    80007c64:	03900593          	li	a1,57
    80007c68:	00007517          	auipc	a0,0x7
    80007c6c:	cc050513          	add	a0,a0,-832 # 8000e928 <__tbss_end+0x870>
    80007c70:	00113423          	sd	ra,8(sp)
    80007c74:	208020ef          	jal	80009e7c <__assert_func>

0000000080007c78 <__rv_alloc_D2A>:
    80007c78:	ff010113          	add	sp,sp,-16
    80007c7c:	00813023          	sd	s0,0(sp)
    80007c80:	00113423          	sd	ra,8(sp)
    80007c84:	01f00693          	li	a3,31
    80007c88:	00050413          	mv	s0,a0
    80007c8c:	00100713          	li	a4,1
    80007c90:	00400793          	li	a5,4
    80007c94:	04b6f063          	bgeu	a3,a1,80007cd4 <__rv_alloc_D2A+0x5c>
    80007c98:	0017979b          	sllw	a5,a5,0x1
    80007c9c:	01c78693          	add	a3,a5,28
    80007ca0:	0007061b          	sext.w	a2,a4
    80007ca4:	0017071b          	addw	a4,a4,1
    80007ca8:	fed5f8e3          	bgeu	a1,a3,80007c98 <__rv_alloc_D2A+0x20>
    80007cac:	0006059b          	sext.w	a1,a2
    80007cb0:	04b42c23          	sw	a1,88(s0)
    80007cb4:	00040513          	mv	a0,s0
    80007cb8:	45c000ef          	jal	80008114 <_Balloc>
    80007cbc:	02050263          	beqz	a0,80007ce0 <__rv_alloc_D2A+0x68>
    80007cc0:	00813083          	ld	ra,8(sp)
    80007cc4:	04a43823          	sd	a0,80(s0)
    80007cc8:	00013403          	ld	s0,0(sp)
    80007ccc:	01010113          	add	sp,sp,16
    80007cd0:	00008067          	ret
    80007cd4:	04052c23          	sw	zero,88(a0)
    80007cd8:	00000593          	li	a1,0
    80007cdc:	fd9ff06f          	j	80007cb4 <__rv_alloc_D2A+0x3c>
    80007ce0:	f75ff0ef          	jal	80007c54 <__rv_alloc_D2A.part.0>

0000000080007ce4 <__nrv_alloc_D2A>:
    80007ce4:	fe010113          	add	sp,sp,-32
    80007ce8:	00813823          	sd	s0,16(sp)
    80007cec:	00913423          	sd	s1,8(sp)
    80007cf0:	01213023          	sd	s2,0(sp)
    80007cf4:	00113c23          	sd	ra,24(sp)
    80007cf8:	01f00813          	li	a6,31
    80007cfc:	00050493          	mv	s1,a0
    80007d00:	00058413          	mv	s0,a1
    80007d04:	00060913          	mv	s2,a2
    80007d08:	00100713          	li	a4,1
    80007d0c:	00400793          	li	a5,4
    80007d10:	06d87c63          	bgeu	a6,a3,80007d88 <__nrv_alloc_D2A+0xa4>
    80007d14:	0017979b          	sllw	a5,a5,0x1
    80007d18:	01c78813          	add	a6,a5,28
    80007d1c:	0007059b          	sext.w	a1,a4
    80007d20:	0017071b          	addw	a4,a4,1
    80007d24:	ff06f8e3          	bgeu	a3,a6,80007d14 <__nrv_alloc_D2A+0x30>
    80007d28:	0005859b          	sext.w	a1,a1
    80007d2c:	04b4ac23          	sw	a1,88(s1)
    80007d30:	00048513          	mv	a0,s1
    80007d34:	3e0000ef          	jal	80008114 <_Balloc>
    80007d38:	06050263          	beqz	a0,80007d9c <__nrv_alloc_D2A+0xb8>
    80007d3c:	04a4b823          	sd	a0,80(s1)
    80007d40:	00044783          	lbu	a5,0(s0)
    80007d44:	00140593          	add	a1,s0,1
    80007d48:	00f50023          	sb	a5,0(a0)
    80007d4c:	04078463          	beqz	a5,80007d94 <__nrv_alloc_D2A+0xb0>
    80007d50:	00050793          	mv	a5,a0
    80007d54:	0005c703          	lbu	a4,0(a1)
    80007d58:	00178793          	add	a5,a5,1
    80007d5c:	00158593          	add	a1,a1,1
    80007d60:	00e78023          	sb	a4,0(a5)
    80007d64:	fe0718e3          	bnez	a4,80007d54 <__nrv_alloc_D2A+0x70>
    80007d68:	00090463          	beqz	s2,80007d70 <__nrv_alloc_D2A+0x8c>
    80007d6c:	00f93023          	sd	a5,0(s2)
    80007d70:	01813083          	ld	ra,24(sp)
    80007d74:	01013403          	ld	s0,16(sp)
    80007d78:	00813483          	ld	s1,8(sp)
    80007d7c:	00013903          	ld	s2,0(sp)
    80007d80:	02010113          	add	sp,sp,32
    80007d84:	00008067          	ret
    80007d88:	04052c23          	sw	zero,88(a0)
    80007d8c:	00000593          	li	a1,0
    80007d90:	fa1ff06f          	j	80007d30 <__nrv_alloc_D2A+0x4c>
    80007d94:	00050793          	mv	a5,a0
    80007d98:	fd1ff06f          	j	80007d68 <__nrv_alloc_D2A+0x84>
    80007d9c:	eb9ff0ef          	jal	80007c54 <__rv_alloc_D2A.part.0>

0000000080007da0 <__freedtoa>:
    80007da0:	05852783          	lw	a5,88(a0)
    80007da4:	00100713          	li	a4,1
    80007da8:	00f7173b          	sllw	a4,a4,a5
    80007dac:	02079793          	sll	a5,a5,0x20
    80007db0:	02071713          	sll	a4,a4,0x20
    80007db4:	0207d793          	srl	a5,a5,0x20
    80007db8:	00e7e7b3          	or	a5,a5,a4
    80007dbc:	00f5b423          	sd	a5,8(a1)
    80007dc0:	4000006f          	j	800081c0 <_Bfree>

0000000080007dc4 <__quorem_D2A>:
    80007dc4:	fc010113          	add	sp,sp,-64
    80007dc8:	02913423          	sd	s1,40(sp)
    80007dcc:	01452783          	lw	a5,20(a0)
    80007dd0:	0145a483          	lw	s1,20(a1)
    80007dd4:	02113c23          	sd	ra,56(sp)
    80007dd8:	1c97ce63          	blt	a5,s1,80007fb4 <__quorem_D2A+0x1f0>
    80007ddc:	fff4849b          	addw	s1,s1,-1
    80007de0:	00249313          	sll	t1,s1,0x2
    80007de4:	02813823          	sd	s0,48(sp)
    80007de8:	01858413          	add	s0,a1,24
    80007dec:	03213023          	sd	s2,32(sp)
    80007df0:	01313c23          	sd	s3,24(sp)
    80007df4:	00640933          	add	s2,s0,t1
    80007df8:	01850993          	add	s3,a0,24
    80007dfc:	01513423          	sd	s5,8(sp)
    80007e00:	00698333          	add	t1,s3,t1
    80007e04:	00092a83          	lw	s5,0(s2)
    80007e08:	00032783          	lw	a5,0(t1)
    80007e0c:	01613023          	sd	s6,0(sp)
    80007e10:	001a871b          	addw	a4,s5,1
    80007e14:	02e7db3b          	divuw	s6,a5,a4
    80007e18:	01413823          	sd	s4,16(sp)
    80007e1c:	00050a13          	mv	s4,a0
    80007e20:	000b0a93          	mv	s5,s6
    80007e24:	0ae7ee63          	bltu	a5,a4,80007ee0 <__quorem_D2A+0x11c>
    80007e28:	00010837          	lui	a6,0x10
    80007e2c:	00040513          	mv	a0,s0
    80007e30:	00098893          	mv	a7,s3
    80007e34:	00000f13          	li	t5,0
    80007e38:	00000e93          	li	t4,0
    80007e3c:	fff80813          	add	a6,a6,-1 # ffff <__stack_shift+0xffe8>
    80007e40:	00052703          	lw	a4,0(a0)
    80007e44:	0008a603          	lw	a2,0(a7)
    80007e48:	00488893          	add	a7,a7,4
    80007e4c:	010776b3          	and	a3,a4,a6
    80007e50:	036686bb          	mulw	a3,a3,s6
    80007e54:	0107571b          	srlw	a4,a4,0x10
    80007e58:	010677b3          	and	a5,a2,a6
    80007e5c:	01065e1b          	srlw	t3,a2,0x10
    80007e60:	00450513          	add	a0,a0,4
    80007e64:	0367073b          	mulw	a4,a4,s6
    80007e68:	01e686bb          	addw	a3,a3,t5
    80007e6c:	00d87633          	and	a2,a6,a3
    80007e70:	40c787bb          	subw	a5,a5,a2
    80007e74:	41d787bb          	subw	a5,a5,t4
    80007e78:	0106d69b          	srlw	a3,a3,0x10
    80007e7c:	0107d61b          	srlw	a2,a5,0x10
    80007e80:	00167613          	and	a2,a2,1
    80007e84:	00f877b3          	and	a5,a6,a5
    80007e88:	00d7073b          	addw	a4,a4,a3
    80007e8c:	00e876b3          	and	a3,a6,a4
    80007e90:	00d6063b          	addw	a2,a2,a3
    80007e94:	40ce06bb          	subw	a3,t3,a2
    80007e98:	0106961b          	sllw	a2,a3,0x10
    80007e9c:	00c7e7b3          	or	a5,a5,a2
    80007ea0:	0106d69b          	srlw	a3,a3,0x10
    80007ea4:	fef8ae23          	sw	a5,-4(a7)
    80007ea8:	01075f1b          	srlw	t5,a4,0x10
    80007eac:	0016fe93          	and	t4,a3,1
    80007eb0:	f8a978e3          	bgeu	s2,a0,80007e40 <__quorem_D2A+0x7c>
    80007eb4:	00032783          	lw	a5,0(t1)
    80007eb8:	02079463          	bnez	a5,80007ee0 <__quorem_D2A+0x11c>
    80007ebc:	ffc30313          	add	t1,t1,-4
    80007ec0:	0069e863          	bltu	s3,t1,80007ed0 <__quorem_D2A+0x10c>
    80007ec4:	0180006f          	j	80007edc <__quorem_D2A+0x118>
    80007ec8:	fff4849b          	addw	s1,s1,-1
    80007ecc:	0069f863          	bgeu	s3,t1,80007edc <__quorem_D2A+0x118>
    80007ed0:	00032783          	lw	a5,0(t1)
    80007ed4:	ffc30313          	add	t1,t1,-4
    80007ed8:	fe0788e3          	beqz	a5,80007ec8 <__quorem_D2A+0x104>
    80007edc:	009a2a23          	sw	s1,20(s4)
    80007ee0:	000a0513          	mv	a0,s4
    80007ee4:	4ed000ef          	jal	80008bd0 <__mcmp>
    80007ee8:	0a054063          	bltz	a0,80007f88 <__quorem_D2A+0x1c4>
    80007eec:	00010537          	lui	a0,0x10
    80007ef0:	00098613          	mv	a2,s3
    80007ef4:	00000593          	li	a1,0
    80007ef8:	fff50513          	add	a0,a0,-1 # ffff <__stack_shift+0xffe8>
    80007efc:	00062703          	lw	a4,0(a2)
    80007f00:	00042683          	lw	a3,0(s0)
    80007f04:	00460613          	add	a2,a2,4
    80007f08:	00a777b3          	and	a5,a4,a0
    80007f0c:	00a6f833          	and	a6,a3,a0
    80007f10:	410787bb          	subw	a5,a5,a6
    80007f14:	40b787bb          	subw	a5,a5,a1
    80007f18:	0107d59b          	srlw	a1,a5,0x10
    80007f1c:	0015f593          	and	a1,a1,1
    80007f20:	0106d69b          	srlw	a3,a3,0x10
    80007f24:	00b686bb          	addw	a3,a3,a1
    80007f28:	0107571b          	srlw	a4,a4,0x10
    80007f2c:	40d7073b          	subw	a4,a4,a3
    80007f30:	0107169b          	sllw	a3,a4,0x10
    80007f34:	00f577b3          	and	a5,a0,a5
    80007f38:	00d7e7b3          	or	a5,a5,a3
    80007f3c:	0107571b          	srlw	a4,a4,0x10
    80007f40:	00440413          	add	s0,s0,4
    80007f44:	fef62e23          	sw	a5,-4(a2)
    80007f48:	00177593          	and	a1,a4,1
    80007f4c:	fa8978e3          	bgeu	s2,s0,80007efc <__quorem_D2A+0x138>
    80007f50:	00249793          	sll	a5,s1,0x2
    80007f54:	00f987b3          	add	a5,s3,a5
    80007f58:	0007a703          	lw	a4,0(a5)
    80007f5c:	02071463          	bnez	a4,80007f84 <__quorem_D2A+0x1c0>
    80007f60:	ffc78793          	add	a5,a5,-4
    80007f64:	00f9e863          	bltu	s3,a5,80007f74 <__quorem_D2A+0x1b0>
    80007f68:	0180006f          	j	80007f80 <__quorem_D2A+0x1bc>
    80007f6c:	fff4849b          	addw	s1,s1,-1
    80007f70:	00f9f863          	bgeu	s3,a5,80007f80 <__quorem_D2A+0x1bc>
    80007f74:	0007a703          	lw	a4,0(a5)
    80007f78:	ffc78793          	add	a5,a5,-4
    80007f7c:	fe0708e3          	beqz	a4,80007f6c <__quorem_D2A+0x1a8>
    80007f80:	009a2a23          	sw	s1,20(s4)
    80007f84:	001a8b1b          	addw	s6,s5,1
    80007f88:	03013403          	ld	s0,48(sp)
    80007f8c:	03813083          	ld	ra,56(sp)
    80007f90:	02013903          	ld	s2,32(sp)
    80007f94:	01813983          	ld	s3,24(sp)
    80007f98:	01013a03          	ld	s4,16(sp)
    80007f9c:	00813a83          	ld	s5,8(sp)
    80007fa0:	02813483          	ld	s1,40(sp)
    80007fa4:	000b051b          	sext.w	a0,s6
    80007fa8:	00013b03          	ld	s6,0(sp)
    80007fac:	04010113          	add	sp,sp,64
    80007fb0:	00008067          	ret
    80007fb4:	03813083          	ld	ra,56(sp)
    80007fb8:	02813483          	ld	s1,40(sp)
    80007fbc:	00000513          	li	a0,0
    80007fc0:	04010113          	add	sp,sp,64
    80007fc4:	00008067          	ret

0000000080007fc8 <__rshift_D2A>:
    80007fc8:	01452703          	lw	a4,20(a0)
    80007fcc:	4055de13          	sra	t3,a1,0x5
    80007fd0:	00ee4863          	blt	t3,a4,80007fe0 <__rshift_D2A+0x18>
    80007fd4:	00052a23          	sw	zero,20(a0)
    80007fd8:	00052c23          	sw	zero,24(a0)
    80007fdc:	00008067          	ret
    80007fe0:	01850313          	add	t1,a0,24
    80007fe4:	00271813          	sll	a6,a4,0x2
    80007fe8:	002e1793          	sll	a5,t3,0x2
    80007fec:	01f5f593          	and	a1,a1,31
    80007ff0:	01030833          	add	a6,t1,a6
    80007ff4:	00f307b3          	add	a5,t1,a5
    80007ff8:	06058263          	beqz	a1,8000805c <__rshift_D2A+0x94>
    80007ffc:	0007a603          	lw	a2,0(a5)
    80008000:	02000e93          	li	t4,32
    80008004:	00478793          	add	a5,a5,4
    80008008:	00b656bb          	srlw	a3,a2,a1
    8000800c:	40be8ebb          	subw	t4,t4,a1
    80008010:	0907f663          	bgeu	a5,a6,8000809c <__rshift_D2A+0xd4>
    80008014:	00030893          	mv	a7,t1
    80008018:	0007a603          	lw	a2,0(a5)
    8000801c:	00488893          	add	a7,a7,4
    80008020:	00478793          	add	a5,a5,4
    80008024:	01d6163b          	sllw	a2,a2,t4
    80008028:	00c6e6b3          	or	a3,a3,a2
    8000802c:	fed8ae23          	sw	a3,-4(a7)
    80008030:	ffc7a603          	lw	a2,-4(a5)
    80008034:	00b656bb          	srlw	a3,a2,a1
    80008038:	ff07e0e3          	bltu	a5,a6,80008018 <__rshift_D2A+0x50>
    8000803c:	41c70733          	sub	a4,a4,t3
    80008040:	00271713          	sll	a4,a4,0x2
    80008044:	ffc70713          	add	a4,a4,-4
    80008048:	00e30733          	add	a4,t1,a4
    8000804c:	00d72023          	sw	a3,0(a4)
    80008050:	02068a63          	beqz	a3,80008084 <__rshift_D2A+0xbc>
    80008054:	00470713          	add	a4,a4,4
    80008058:	02c0006f          	j	80008084 <__rshift_D2A+0xbc>
    8000805c:	00030693          	mv	a3,t1
    80008060:	f707fae3          	bgeu	a5,a6,80007fd4 <__rshift_D2A+0xc>
    80008064:	0007a603          	lw	a2,0(a5)
    80008068:	00478793          	add	a5,a5,4
    8000806c:	00468693          	add	a3,a3,4
    80008070:	fec6ae23          	sw	a2,-4(a3)
    80008074:	ff07e8e3          	bltu	a5,a6,80008064 <__rshift_D2A+0x9c>
    80008078:	41c70733          	sub	a4,a4,t3
    8000807c:	00271713          	sll	a4,a4,0x2
    80008080:	00e30733          	add	a4,t1,a4
    80008084:	40670733          	sub	a4,a4,t1
    80008088:	40275713          	sra	a4,a4,0x2
    8000808c:	0007071b          	sext.w	a4,a4
    80008090:	00e52a23          	sw	a4,20(a0)
    80008094:	f40702e3          	beqz	a4,80007fd8 <__rshift_D2A+0x10>
    80008098:	00008067          	ret
    8000809c:	00d52c23          	sw	a3,24(a0)
    800080a0:	f2068ae3          	beqz	a3,80007fd4 <__rshift_D2A+0xc>
    800080a4:	00030713          	mv	a4,t1
    800080a8:	00470713          	add	a4,a4,4
    800080ac:	fd9ff06f          	j	80008084 <__rshift_D2A+0xbc>

00000000800080b0 <__trailz_D2A>:
    800080b0:	01452703          	lw	a4,20(a0)
    800080b4:	fe010113          	add	sp,sp,-32
    800080b8:	01850513          	add	a0,a0,24
    800080bc:	00271713          	sll	a4,a4,0x2
    800080c0:	00813823          	sd	s0,16(sp)
    800080c4:	00113c23          	sd	ra,24(sp)
    800080c8:	00e50733          	add	a4,a0,a4
    800080cc:	00000413          	li	s0,0
    800080d0:	00e56a63          	bltu	a0,a4,800080e4 <__trailz_D2A+0x34>
    800080d4:	02c0006f          	j	80008100 <__trailz_D2A+0x50>
    800080d8:	00450513          	add	a0,a0,4
    800080dc:	0204041b          	addw	s0,s0,32
    800080e0:	02e57063          	bgeu	a0,a4,80008100 <__trailz_D2A+0x50>
    800080e4:	00052783          	lw	a5,0(a0)
    800080e8:	fe0788e3          	beqz	a5,800080d8 <__trailz_D2A+0x28>
    800080ec:	00e57a63          	bgeu	a0,a4,80008100 <__trailz_D2A+0x50>
    800080f0:	00c10513          	add	a0,sp,12
    800080f4:	00f12623          	sw	a5,12(sp)
    800080f8:	414000ef          	jal	8000850c <__lo0bits>
    800080fc:	0085043b          	addw	s0,a0,s0
    80008100:	01813083          	ld	ra,24(sp)
    80008104:	00040513          	mv	a0,s0
    80008108:	01013403          	ld	s0,16(sp)
    8000810c:	02010113          	add	sp,sp,32
    80008110:	00008067          	ret

0000000080008114 <_Balloc>:
    80008114:	06853783          	ld	a5,104(a0)
    80008118:	fe010113          	add	sp,sp,-32
    8000811c:	00813823          	sd	s0,16(sp)
    80008120:	00913423          	sd	s1,8(sp)
    80008124:	00113c23          	sd	ra,24(sp)
    80008128:	00050493          	mv	s1,a0
    8000812c:	00058413          	mv	s0,a1
    80008130:	02078a63          	beqz	a5,80008164 <_Balloc+0x50>
    80008134:	00341713          	sll	a4,s0,0x3
    80008138:	00e787b3          	add	a5,a5,a4
    8000813c:	0007b503          	ld	a0,0(a5)
    80008140:	04050263          	beqz	a0,80008184 <_Balloc+0x70>
    80008144:	00053703          	ld	a4,0(a0)
    80008148:	00e7b023          	sd	a4,0(a5)
    8000814c:	00053823          	sd	zero,16(a0)
    80008150:	01813083          	ld	ra,24(sp)
    80008154:	01013403          	ld	s0,16(sp)
    80008158:	00813483          	ld	s1,8(sp)
    8000815c:	02010113          	add	sp,sp,32
    80008160:	00008067          	ret
    80008164:	04100613          	li	a2,65
    80008168:	00800593          	li	a1,8
    8000816c:	57d010ef          	jal	80009ee8 <_calloc_r>
    80008170:	06a4b423          	sd	a0,104(s1)
    80008174:	00050793          	mv	a5,a0
    80008178:	fa051ee3          	bnez	a0,80008134 <_Balloc+0x20>
    8000817c:	00000513          	li	a0,0
    80008180:	fd1ff06f          	j	80008150 <_Balloc+0x3c>
    80008184:	00100793          	li	a5,1
    80008188:	008797bb          	sllw	a5,a5,s0
    8000818c:	0007861b          	sext.w	a2,a5
    80008190:	00760613          	add	a2,a2,7
    80008194:	02041413          	sll	s0,s0,0x20
    80008198:	02079793          	sll	a5,a5,0x20
    8000819c:	02045413          	srl	s0,s0,0x20
    800081a0:	00261613          	sll	a2,a2,0x2
    800081a4:	00100593          	li	a1,1
    800081a8:	00048513          	mv	a0,s1
    800081ac:	00f46433          	or	s0,s0,a5
    800081b0:	539010ef          	jal	80009ee8 <_calloc_r>
    800081b4:	fc0504e3          	beqz	a0,8000817c <_Balloc+0x68>
    800081b8:	00853423          	sd	s0,8(a0)
    800081bc:	f91ff06f          	j	8000814c <_Balloc+0x38>

00000000800081c0 <_Bfree>:
    800081c0:	02058063          	beqz	a1,800081e0 <_Bfree+0x20>
    800081c4:	0085a703          	lw	a4,8(a1)
    800081c8:	06853783          	ld	a5,104(a0)
    800081cc:	00371713          	sll	a4,a4,0x3
    800081d0:	00e787b3          	add	a5,a5,a4
    800081d4:	0007b703          	ld	a4,0(a5)
    800081d8:	00e5b023          	sd	a4,0(a1)
    800081dc:	00b7b023          	sd	a1,0(a5)
    800081e0:	00008067          	ret

00000000800081e4 <__multadd>:
    800081e4:	fd010113          	add	sp,sp,-48
    800081e8:	02813023          	sd	s0,32(sp)
    800081ec:	0145a403          	lw	s0,20(a1)
    800081f0:	00010337          	lui	t1,0x10
    800081f4:	01213823          	sd	s2,16(sp)
    800081f8:	01313423          	sd	s3,8(sp)
    800081fc:	02113423          	sd	ra,40(sp)
    80008200:	00913c23          	sd	s1,24(sp)
    80008204:	00058913          	mv	s2,a1
    80008208:	00050993          	mv	s3,a0
    8000820c:	01858813          	add	a6,a1,24
    80008210:	00000893          	li	a7,0
    80008214:	fff30313          	add	t1,t1,-1 # ffff <__stack_shift+0xffe8>
    80008218:	00082783          	lw	a5,0(a6)
    8000821c:	00480813          	add	a6,a6,4
    80008220:	0018889b          	addw	a7,a7,1
    80008224:	0067f733          	and	a4,a5,t1
    80008228:	02c7073b          	mulw	a4,a4,a2
    8000822c:	0107d79b          	srlw	a5,a5,0x10
    80008230:	02c787bb          	mulw	a5,a5,a2
    80008234:	00d7073b          	addw	a4,a4,a3
    80008238:	0107569b          	srlw	a3,a4,0x10
    8000823c:	00e37733          	and	a4,t1,a4
    80008240:	00d787bb          	addw	a5,a5,a3
    80008244:	0107969b          	sllw	a3,a5,0x10
    80008248:	00e6873b          	addw	a4,a3,a4
    8000824c:	fee82e23          	sw	a4,-4(a6)
    80008250:	0107d49b          	srlw	s1,a5,0x10
    80008254:	0107d69b          	srlw	a3,a5,0x10
    80008258:	fc88c0e3          	blt	a7,s0,80008218 <__multadd+0x34>
    8000825c:	02068263          	beqz	a3,80008280 <__multadd+0x9c>
    80008260:	00c92783          	lw	a5,12(s2)
    80008264:	02f45e63          	bge	s0,a5,800082a0 <__multadd+0xbc>
    80008268:	00440793          	add	a5,s0,4
    8000826c:	00279793          	sll	a5,a5,0x2
    80008270:	00f907b3          	add	a5,s2,a5
    80008274:	0097a423          	sw	s1,8(a5)
    80008278:	0014041b          	addw	s0,s0,1
    8000827c:	00892a23          	sw	s0,20(s2)
    80008280:	02813083          	ld	ra,40(sp)
    80008284:	02013403          	ld	s0,32(sp)
    80008288:	01813483          	ld	s1,24(sp)
    8000828c:	00813983          	ld	s3,8(sp)
    80008290:	00090513          	mv	a0,s2
    80008294:	01013903          	ld	s2,16(sp)
    80008298:	03010113          	add	sp,sp,48
    8000829c:	00008067          	ret
    800082a0:	00892583          	lw	a1,8(s2)
    800082a4:	00098513          	mv	a0,s3
    800082a8:	01413023          	sd	s4,0(sp)
    800082ac:	0015859b          	addw	a1,a1,1
    800082b0:	e65ff0ef          	jal	80008114 <_Balloc>
    800082b4:	00050a13          	mv	s4,a0
    800082b8:	04050e63          	beqz	a0,80008314 <__multadd+0x130>
    800082bc:	01492603          	lw	a2,20(s2)
    800082c0:	01090593          	add	a1,s2,16
    800082c4:	01050513          	add	a0,a0,16
    800082c8:	00260613          	add	a2,a2,2
    800082cc:	00261613          	sll	a2,a2,0x2
    800082d0:	989fd0ef          	jal	80005c58 <memcpy>
    800082d4:	00892703          	lw	a4,8(s2)
    800082d8:	0689b783          	ld	a5,104(s3)
    800082dc:	00371713          	sll	a4,a4,0x3
    800082e0:	00e787b3          	add	a5,a5,a4
    800082e4:	0007b703          	ld	a4,0(a5)
    800082e8:	00e93023          	sd	a4,0(s2)
    800082ec:	0127b023          	sd	s2,0(a5)
    800082f0:	00440793          	add	a5,s0,4
    800082f4:	000a0913          	mv	s2,s4
    800082f8:	00279793          	sll	a5,a5,0x2
    800082fc:	00f907b3          	add	a5,s2,a5
    80008300:	00013a03          	ld	s4,0(sp)
    80008304:	0014041b          	addw	s0,s0,1
    80008308:	0097a423          	sw	s1,8(a5)
    8000830c:	00892a23          	sw	s0,20(s2)
    80008310:	f71ff06f          	j	80008280 <__multadd+0x9c>
    80008314:	00006697          	auipc	a3,0x6
    80008318:	5fc68693          	add	a3,a3,1532 # 8000e910 <__tbss_end+0x858>
    8000831c:	00000613          	li	a2,0
    80008320:	0ba00593          	li	a1,186
    80008324:	00006517          	auipc	a0,0x6
    80008328:	66450513          	add	a0,a0,1636 # 8000e988 <__tbss_end+0x8d0>
    8000832c:	351010ef          	jal	80009e7c <__assert_func>

0000000080008330 <__s2b>:
    80008330:	fc010113          	add	sp,sp,-64
    80008334:	02813823          	sd	s0,48(sp)
    80008338:	02913423          	sd	s1,40(sp)
    8000833c:	03213023          	sd	s2,32(sp)
    80008340:	01313c23          	sd	s3,24(sp)
    80008344:	01413823          	sd	s4,16(sp)
    80008348:	00068493          	mv	s1,a3
    8000834c:	00058413          	mv	s0,a1
    80008350:	0086869b          	addw	a3,a3,8
    80008354:	00900593          	li	a1,9
    80008358:	02113c23          	sd	ra,56(sp)
    8000835c:	00900793          	li	a5,9
    80008360:	02b6c6bb          	divw	a3,a3,a1
    80008364:	00050913          	mv	s2,a0
    80008368:	00060a13          	mv	s4,a2
    8000836c:	00070993          	mv	s3,a4
    80008370:	0e97dc63          	bge	a5,s1,80008468 <__s2b+0x138>
    80008374:	00100793          	li	a5,1
    80008378:	00000593          	li	a1,0
    8000837c:	0017979b          	sllw	a5,a5,0x1
    80008380:	0015859b          	addw	a1,a1,1
    80008384:	fed7cce3          	blt	a5,a3,8000837c <__s2b+0x4c>
    80008388:	00090513          	mv	a0,s2
    8000838c:	d89ff0ef          	jal	80008114 <_Balloc>
    80008390:	00050593          	mv	a1,a0
    80008394:	0c050e63          	beqz	a0,80008470 <__s2b+0x140>
    80008398:	00100793          	li	a5,1
    8000839c:	00f52a23          	sw	a5,20(a0)
    800083a0:	01352c23          	sw	s3,24(a0)
    800083a4:	00900793          	li	a5,9
    800083a8:	0b47da63          	bge	a5,s4,8000845c <__s2b+0x12c>
    800083ac:	020a1793          	sll	a5,s4,0x20
    800083b0:	01613023          	sd	s6,0(sp)
    800083b4:	0207d793          	srl	a5,a5,0x20
    800083b8:	00940b13          	add	s6,s0,9
    800083bc:	01513423          	sd	s5,8(sp)
    800083c0:	00f40433          	add	s0,s0,a5
    800083c4:	000a0a9b          	sext.w	s5,s4
    800083c8:	000b0993          	mv	s3,s6
    800083cc:	0009c683          	lbu	a3,0(s3)
    800083d0:	00a00613          	li	a2,10
    800083d4:	00090513          	mv	a0,s2
    800083d8:	fd06869b          	addw	a3,a3,-48
    800083dc:	e09ff0ef          	jal	800081e4 <__multadd>
    800083e0:	00198993          	add	s3,s3,1
    800083e4:	00050593          	mv	a1,a0
    800083e8:	fe8992e3          	bne	s3,s0,800083cc <__s2b+0x9c>
    800083ec:	ff8a8a9b          	addw	s5,s5,-8
    800083f0:	020a9a93          	sll	s5,s5,0x20
    800083f4:	020ada93          	srl	s5,s5,0x20
    800083f8:	015b0433          	add	s0,s6,s5
    800083fc:	00813a83          	ld	s5,8(sp)
    80008400:	00013b03          	ld	s6,0(sp)
    80008404:	029a5a63          	bge	s4,s1,80008438 <__s2b+0x108>
    80008408:	414484bb          	subw	s1,s1,s4
    8000840c:	02049493          	sll	s1,s1,0x20
    80008410:	0204d493          	srl	s1,s1,0x20
    80008414:	009404b3          	add	s1,s0,s1
    80008418:	00044683          	lbu	a3,0(s0)
    8000841c:	00a00613          	li	a2,10
    80008420:	00090513          	mv	a0,s2
    80008424:	fd06869b          	addw	a3,a3,-48
    80008428:	dbdff0ef          	jal	800081e4 <__multadd>
    8000842c:	00140413          	add	s0,s0,1
    80008430:	00050593          	mv	a1,a0
    80008434:	fe9412e3          	bne	s0,s1,80008418 <__s2b+0xe8>
    80008438:	03813083          	ld	ra,56(sp)
    8000843c:	03013403          	ld	s0,48(sp)
    80008440:	02813483          	ld	s1,40(sp)
    80008444:	02013903          	ld	s2,32(sp)
    80008448:	01813983          	ld	s3,24(sp)
    8000844c:	01013a03          	ld	s4,16(sp)
    80008450:	00058513          	mv	a0,a1
    80008454:	04010113          	add	sp,sp,64
    80008458:	00008067          	ret
    8000845c:	00a40413          	add	s0,s0,10
    80008460:	00900a13          	li	s4,9
    80008464:	fa1ff06f          	j	80008404 <__s2b+0xd4>
    80008468:	00000593          	li	a1,0
    8000846c:	f1dff06f          	j	80008388 <__s2b+0x58>
    80008470:	00006697          	auipc	a3,0x6
    80008474:	4a068693          	add	a3,a3,1184 # 8000e910 <__tbss_end+0x858>
    80008478:	00000613          	li	a2,0
    8000847c:	0d300593          	li	a1,211
    80008480:	00006517          	auipc	a0,0x6
    80008484:	50850513          	add	a0,a0,1288 # 8000e988 <__tbss_end+0x8d0>
    80008488:	01513423          	sd	s5,8(sp)
    8000848c:	01613023          	sd	s6,0(sp)
    80008490:	1ed010ef          	jal	80009e7c <__assert_func>

0000000080008494 <__hi0bits>:
    80008494:	00050793          	mv	a5,a0
    80008498:	00010737          	lui	a4,0x10
    8000849c:	00000513          	li	a0,0
    800084a0:	00e7f663          	bgeu	a5,a4,800084ac <__hi0bits+0x18>
    800084a4:	0107979b          	sllw	a5,a5,0x10
    800084a8:	01000513          	li	a0,16
    800084ac:	01000737          	lui	a4,0x1000
    800084b0:	00e7f663          	bgeu	a5,a4,800084bc <__hi0bits+0x28>
    800084b4:	0087979b          	sllw	a5,a5,0x8
    800084b8:	0085051b          	addw	a0,a0,8
    800084bc:	10000737          	lui	a4,0x10000
    800084c0:	00e7f663          	bgeu	a5,a4,800084cc <__hi0bits+0x38>
    800084c4:	0047979b          	sllw	a5,a5,0x4
    800084c8:	0045051b          	addw	a0,a0,4
    800084cc:	40000737          	lui	a4,0x40000
    800084d0:	00e7e863          	bltu	a5,a4,800084e0 <__hi0bits+0x4c>
    800084d4:	0207c263          	bltz	a5,800084f8 <__hi0bits+0x64>
    800084d8:	0015051b          	addw	a0,a0,1
    800084dc:	00008067          	ret
    800084e0:	02279693          	sll	a3,a5,0x22
    800084e4:	0027971b          	sllw	a4,a5,0x2
    800084e8:	0006ca63          	bltz	a3,800084fc <__hi0bits+0x68>
    800084ec:	02171793          	sll	a5,a4,0x21
    800084f0:	0007ca63          	bltz	a5,80008504 <__hi0bits+0x70>
    800084f4:	02000513          	li	a0,32
    800084f8:	00008067          	ret
    800084fc:	0025051b          	addw	a0,a0,2
    80008500:	00008067          	ret
    80008504:	0035051b          	addw	a0,a0,3
    80008508:	00008067          	ret

000000008000850c <__lo0bits>:
    8000850c:	00052783          	lw	a5,0(a0)
    80008510:	00050713          	mv	a4,a0
    80008514:	0077f693          	and	a3,a5,7
    80008518:	00078613          	mv	a2,a5
    8000851c:	02068463          	beqz	a3,80008544 <__lo0bits+0x38>
    80008520:	0017f693          	and	a3,a5,1
    80008524:	00000513          	li	a0,0
    80008528:	04069e63          	bnez	a3,80008584 <__lo0bits+0x78>
    8000852c:	00267613          	and	a2,a2,2
    80008530:	0a060863          	beqz	a2,800085e0 <__lo0bits+0xd4>
    80008534:	0017d79b          	srlw	a5,a5,0x1
    80008538:	00f72023          	sw	a5,0(a4) # 40000000 <__heap_size+0x3f800000>
    8000853c:	00100513          	li	a0,1
    80008540:	00008067          	ret
    80008544:	03079693          	sll	a3,a5,0x30
    80008548:	0306d693          	srl	a3,a3,0x30
    8000854c:	00000513          	li	a0,0
    80008550:	06068e63          	beqz	a3,800085cc <__lo0bits+0xc0>
    80008554:	0ff7f693          	zext.b	a3,a5
    80008558:	06068063          	beqz	a3,800085b8 <__lo0bits+0xac>
    8000855c:	00f7f693          	and	a3,a5,15
    80008560:	04068263          	beqz	a3,800085a4 <__lo0bits+0x98>
    80008564:	0037f693          	and	a3,a5,3
    80008568:	02068463          	beqz	a3,80008590 <__lo0bits+0x84>
    8000856c:	0017f693          	and	a3,a5,1
    80008570:	00069c63          	bnez	a3,80008588 <__lo0bits+0x7c>
    80008574:	0017d79b          	srlw	a5,a5,0x1
    80008578:	0015051b          	addw	a0,a0,1
    8000857c:	00079663          	bnez	a5,80008588 <__lo0bits+0x7c>
    80008580:	02000513          	li	a0,32
    80008584:	00008067          	ret
    80008588:	00f72023          	sw	a5,0(a4)
    8000858c:	00008067          	ret
    80008590:	0027d79b          	srlw	a5,a5,0x2
    80008594:	0017f693          	and	a3,a5,1
    80008598:	0025051b          	addw	a0,a0,2
    8000859c:	fe0696e3          	bnez	a3,80008588 <__lo0bits+0x7c>
    800085a0:	fd5ff06f          	j	80008574 <__lo0bits+0x68>
    800085a4:	0047d79b          	srlw	a5,a5,0x4
    800085a8:	0037f693          	and	a3,a5,3
    800085ac:	0045051b          	addw	a0,a0,4
    800085b0:	fa069ee3          	bnez	a3,8000856c <__lo0bits+0x60>
    800085b4:	fddff06f          	j	80008590 <__lo0bits+0x84>
    800085b8:	0087d79b          	srlw	a5,a5,0x8
    800085bc:	00f7f693          	and	a3,a5,15
    800085c0:	0085051b          	addw	a0,a0,8
    800085c4:	fa0690e3          	bnez	a3,80008564 <__lo0bits+0x58>
    800085c8:	fddff06f          	j	800085a4 <__lo0bits+0x98>
    800085cc:	0107d79b          	srlw	a5,a5,0x10
    800085d0:	0ff7f693          	zext.b	a3,a5
    800085d4:	01000513          	li	a0,16
    800085d8:	f80692e3          	bnez	a3,8000855c <__lo0bits+0x50>
    800085dc:	fddff06f          	j	800085b8 <__lo0bits+0xac>
    800085e0:	0027d79b          	srlw	a5,a5,0x2
    800085e4:	00f72023          	sw	a5,0(a4)
    800085e8:	00200513          	li	a0,2
    800085ec:	00008067          	ret

00000000800085f0 <__i2b>:
    800085f0:	06853783          	ld	a5,104(a0)
    800085f4:	fe010113          	add	sp,sp,-32
    800085f8:	00813823          	sd	s0,16(sp)
    800085fc:	00913423          	sd	s1,8(sp)
    80008600:	00113c23          	sd	ra,24(sp)
    80008604:	00050413          	mv	s0,a0
    80008608:	00058493          	mv	s1,a1
    8000860c:	02078c63          	beqz	a5,80008644 <__i2b+0x54>
    80008610:	0087b503          	ld	a0,8(a5)
    80008614:	06050263          	beqz	a0,80008678 <__i2b+0x88>
    80008618:	00053703          	ld	a4,0(a0)
    8000861c:	00e7b423          	sd	a4,8(a5)
    80008620:	01813083          	ld	ra,24(sp)
    80008624:	01013403          	ld	s0,16(sp)
    80008628:	00100793          	li	a5,1
    8000862c:	02079793          	sll	a5,a5,0x20
    80008630:	00952c23          	sw	s1,24(a0)
    80008634:	00f53823          	sd	a5,16(a0)
    80008638:	00813483          	ld	s1,8(sp)
    8000863c:	02010113          	add	sp,sp,32
    80008640:	00008067          	ret
    80008644:	04100613          	li	a2,65
    80008648:	00800593          	li	a1,8
    8000864c:	09d010ef          	jal	80009ee8 <_calloc_r>
    80008650:	06a43423          	sd	a0,104(s0)
    80008654:	00050793          	mv	a5,a0
    80008658:	fa051ce3          	bnez	a0,80008610 <__i2b+0x20>
    8000865c:	00006697          	auipc	a3,0x6
    80008660:	2b468693          	add	a3,a3,692 # 8000e910 <__tbss_end+0x858>
    80008664:	00000613          	li	a2,0
    80008668:	14500593          	li	a1,325
    8000866c:	00006517          	auipc	a0,0x6
    80008670:	31c50513          	add	a0,a0,796 # 8000e988 <__tbss_end+0x8d0>
    80008674:	009010ef          	jal	80009e7c <__assert_func>
    80008678:	02400613          	li	a2,36
    8000867c:	00100593          	li	a1,1
    80008680:	00040513          	mv	a0,s0
    80008684:	065010ef          	jal	80009ee8 <_calloc_r>
    80008688:	fc050ae3          	beqz	a0,8000865c <__i2b+0x6c>
    8000868c:	00100793          	li	a5,1
    80008690:	02179793          	sll	a5,a5,0x21
    80008694:	00178793          	add	a5,a5,1
    80008698:	00f53423          	sd	a5,8(a0)
    8000869c:	f85ff06f          	j	80008620 <__i2b+0x30>

00000000800086a0 <__multiply>:
    800086a0:	fd010113          	add	sp,sp,-48
    800086a4:	01213823          	sd	s2,16(sp)
    800086a8:	01313423          	sd	s3,8(sp)
    800086ac:	01462903          	lw	s2,20(a2)
    800086b0:	0145a983          	lw	s3,20(a1)
    800086b4:	00913c23          	sd	s1,24(sp)
    800086b8:	01413023          	sd	s4,0(sp)
    800086bc:	02113423          	sd	ra,40(sp)
    800086c0:	02813023          	sd	s0,32(sp)
    800086c4:	00058a13          	mv	s4,a1
    800086c8:	00060493          	mv	s1,a2
    800086cc:	0129cc63          	blt	s3,s2,800086e4 <__multiply+0x44>
    800086d0:	00090793          	mv	a5,s2
    800086d4:	00058493          	mv	s1,a1
    800086d8:	00098913          	mv	s2,s3
    800086dc:	00060a13          	mv	s4,a2
    800086e0:	00078993          	mv	s3,a5
    800086e4:	00c4a783          	lw	a5,12(s1)
    800086e8:	0139043b          	addw	s0,s2,s3
    800086ec:	0084a583          	lw	a1,8(s1)
    800086f0:	0087d463          	bge	a5,s0,800086f8 <__multiply+0x58>
    800086f4:	0015859b          	addw	a1,a1,1
    800086f8:	a1dff0ef          	jal	80008114 <_Balloc>
    800086fc:	1c050263          	beqz	a0,800088c0 <__multiply+0x220>
    80008700:	01850313          	add	t1,a0,24
    80008704:	00241893          	sll	a7,s0,0x2
    80008708:	011308b3          	add	a7,t1,a7
    8000870c:	00030793          	mv	a5,t1
    80008710:	01137863          	bgeu	t1,a7,80008720 <__multiply+0x80>
    80008714:	0007a023          	sw	zero,0(a5)
    80008718:	00478793          	add	a5,a5,4
    8000871c:	ff17ece3          	bltu	a5,a7,80008714 <__multiply+0x74>
    80008720:	018a0813          	add	a6,s4,24
    80008724:	00299e13          	sll	t3,s3,0x2
    80008728:	01848e93          	add	t4,s1,24
    8000872c:	00291593          	sll	a1,s2,0x2
    80008730:	01c80e33          	add	t3,a6,t3
    80008734:	00be85b3          	add	a1,t4,a1
    80008738:	13c87a63          	bgeu	a6,t3,8000886c <__multiply+0x1cc>
    8000873c:	01948793          	add	a5,s1,25
    80008740:	00400f13          	li	t5,4
    80008744:	16f5f463          	bgeu	a1,a5,800088ac <__multiply+0x20c>
    80008748:	000106b7          	lui	a3,0x10
    8000874c:	fff68693          	add	a3,a3,-1 # ffff <__stack_shift+0xffe8>
    80008750:	0180006f          	j	80008768 <__multiply+0xc8>
    80008754:	010fdf9b          	srlw	t6,t6,0x10
    80008758:	080f9a63          	bnez	t6,800087ec <__multiply+0x14c>
    8000875c:	00480813          	add	a6,a6,4
    80008760:	00430313          	add	t1,t1,4
    80008764:	11c87463          	bgeu	a6,t3,8000886c <__multiply+0x1cc>
    80008768:	00082f83          	lw	t6,0(a6)
    8000876c:	00dff3b3          	and	t2,t6,a3
    80008770:	fe0382e3          	beqz	t2,80008754 <__multiply+0xb4>
    80008774:	00030293          	mv	t0,t1
    80008778:	000e8f93          	mv	t6,t4
    8000877c:	00000493          	li	s1,0
    80008780:	000fa783          	lw	a5,0(t6)
    80008784:	0002a603          	lw	a2,0(t0) # 80001608 <memset+0xb4>
    80008788:	00428293          	add	t0,t0,4
    8000878c:	00d7f733          	and	a4,a5,a3
    80008790:	0277073b          	mulw	a4,a4,t2
    80008794:	0107d79b          	srlw	a5,a5,0x10
    80008798:	00d67933          	and	s2,a2,a3
    8000879c:	0106561b          	srlw	a2,a2,0x10
    800087a0:	004f8f93          	add	t6,t6,4
    800087a4:	027787bb          	mulw	a5,a5,t2
    800087a8:	0127073b          	addw	a4,a4,s2
    800087ac:	0097073b          	addw	a4,a4,s1
    800087b0:	0107549b          	srlw	s1,a4,0x10
    800087b4:	00e6f733          	and	a4,a3,a4
    800087b8:	00c787bb          	addw	a5,a5,a2
    800087bc:	009787bb          	addw	a5,a5,s1
    800087c0:	0107961b          	sllw	a2,a5,0x10
    800087c4:	00c76733          	or	a4,a4,a2
    800087c8:	fee2ae23          	sw	a4,-4(t0)
    800087cc:	0107d49b          	srlw	s1,a5,0x10
    800087d0:	0107d71b          	srlw	a4,a5,0x10
    800087d4:	fabfe6e3          	bltu	t6,a1,80008780 <__multiply+0xe0>
    800087d8:	01e307b3          	add	a5,t1,t5
    800087dc:	00e7a023          	sw	a4,0(a5)
    800087e0:	00082f83          	lw	t6,0(a6)
    800087e4:	010fdf9b          	srlw	t6,t6,0x10
    800087e8:	f60f8ae3          	beqz	t6,8000875c <__multiply+0xbc>
    800087ec:	00032703          	lw	a4,0(t1)
    800087f0:	00030293          	mv	t0,t1
    800087f4:	000e8613          	mv	a2,t4
    800087f8:	00070393          	mv	t2,a4
    800087fc:	00000493          	li	s1,0
    80008800:	00062783          	lw	a5,0(a2)
    80008804:	0103d99b          	srlw	s3,t2,0x10
    80008808:	00d77733          	and	a4,a4,a3
    8000880c:	00d7f7b3          	and	a5,a5,a3
    80008810:	03f787bb          	mulw	a5,a5,t6
    80008814:	0042a383          	lw	t2,4(t0)
    80008818:	00428293          	add	t0,t0,4
    8000881c:	00460613          	add	a2,a2,4
    80008820:	00d3f933          	and	s2,t2,a3
    80008824:	009787bb          	addw	a5,a5,s1
    80008828:	013787bb          	addw	a5,a5,s3
    8000882c:	0107949b          	sllw	s1,a5,0x10
    80008830:	00976733          	or	a4,a4,s1
    80008834:	fee2ae23          	sw	a4,-4(t0)
    80008838:	ffe65703          	lhu	a4,-2(a2)
    8000883c:	0107d79b          	srlw	a5,a5,0x10
    80008840:	03f7073b          	mulw	a4,a4,t6
    80008844:	0127073b          	addw	a4,a4,s2
    80008848:	00f707bb          	addw	a5,a4,a5
    8000884c:	0007871b          	sext.w	a4,a5
    80008850:	0107d49b          	srlw	s1,a5,0x10
    80008854:	fab666e3          	bltu	a2,a1,80008800 <__multiply+0x160>
    80008858:	01e30733          	add	a4,t1,t5
    8000885c:	00f72023          	sw	a5,0(a4)
    80008860:	00480813          	add	a6,a6,4
    80008864:	00430313          	add	t1,t1,4
    80008868:	f1c860e3          	bltu	a6,t3,80008768 <__multiply+0xc8>
    8000886c:	00804863          	bgtz	s0,8000887c <__multiply+0x1dc>
    80008870:	0180006f          	j	80008888 <__multiply+0x1e8>
    80008874:	fff4041b          	addw	s0,s0,-1
    80008878:	00040863          	beqz	s0,80008888 <__multiply+0x1e8>
    8000887c:	ffc8a783          	lw	a5,-4(a7)
    80008880:	ffc88893          	add	a7,a7,-4
    80008884:	fe0788e3          	beqz	a5,80008874 <__multiply+0x1d4>
    80008888:	02813083          	ld	ra,40(sp)
    8000888c:	00852a23          	sw	s0,20(a0)
    80008890:	02013403          	ld	s0,32(sp)
    80008894:	01813483          	ld	s1,24(sp)
    80008898:	01013903          	ld	s2,16(sp)
    8000889c:	00813983          	ld	s3,8(sp)
    800088a0:	00013a03          	ld	s4,0(sp)
    800088a4:	03010113          	add	sp,sp,48
    800088a8:	00008067          	ret
    800088ac:	409587b3          	sub	a5,a1,s1
    800088b0:	fe778793          	add	a5,a5,-25
    800088b4:	ffc7f793          	and	a5,a5,-4
    800088b8:	00478f13          	add	t5,a5,4
    800088bc:	e8dff06f          	j	80008748 <__multiply+0xa8>
    800088c0:	00006697          	auipc	a3,0x6
    800088c4:	05068693          	add	a3,a3,80 # 8000e910 <__tbss_end+0x858>
    800088c8:	00000613          	li	a2,0
    800088cc:	16200593          	li	a1,354
    800088d0:	00006517          	auipc	a0,0x6
    800088d4:	0b850513          	add	a0,a0,184 # 8000e988 <__tbss_end+0x8d0>
    800088d8:	5a4010ef          	jal	80009e7c <__assert_func>

00000000800088dc <__pow5mult>:
    800088dc:	fd010113          	add	sp,sp,-48
    800088e0:	02813023          	sd	s0,32(sp)
    800088e4:	01213823          	sd	s2,16(sp)
    800088e8:	01313423          	sd	s3,8(sp)
    800088ec:	02113423          	sd	ra,40(sp)
    800088f0:	00367793          	and	a5,a2,3
    800088f4:	00060413          	mv	s0,a2
    800088f8:	00050993          	mv	s3,a0
    800088fc:	00058913          	mv	s2,a1
    80008900:	0a079c63          	bnez	a5,800089b8 <__pow5mult+0xdc>
    80008904:	40245413          	sra	s0,s0,0x2
    80008908:	06040a63          	beqz	s0,8000897c <__pow5mult+0xa0>
    8000890c:	00913c23          	sd	s1,24(sp)
    80008910:	0609b483          	ld	s1,96(s3)
    80008914:	0c048663          	beqz	s1,800089e0 <__pow5mult+0x104>
    80008918:	00147793          	and	a5,s0,1
    8000891c:	02079063          	bnez	a5,8000893c <__pow5mult+0x60>
    80008920:	40145413          	sra	s0,s0,0x1
    80008924:	04040a63          	beqz	s0,80008978 <__pow5mult+0x9c>
    80008928:	0004b503          	ld	a0,0(s1)
    8000892c:	06050663          	beqz	a0,80008998 <__pow5mult+0xbc>
    80008930:	00050493          	mv	s1,a0
    80008934:	00147793          	and	a5,s0,1
    80008938:	fe0784e3          	beqz	a5,80008920 <__pow5mult+0x44>
    8000893c:	00048613          	mv	a2,s1
    80008940:	00090593          	mv	a1,s2
    80008944:	00098513          	mv	a0,s3
    80008948:	d59ff0ef          	jal	800086a0 <__multiply>
    8000894c:	02090063          	beqz	s2,8000896c <__pow5mult+0x90>
    80008950:	00892703          	lw	a4,8(s2)
    80008954:	0689b783          	ld	a5,104(s3)
    80008958:	00371713          	sll	a4,a4,0x3
    8000895c:	00e787b3          	add	a5,a5,a4
    80008960:	0007b703          	ld	a4,0(a5)
    80008964:	00e93023          	sd	a4,0(s2)
    80008968:	0127b023          	sd	s2,0(a5)
    8000896c:	40145413          	sra	s0,s0,0x1
    80008970:	00050913          	mv	s2,a0
    80008974:	fa041ae3          	bnez	s0,80008928 <__pow5mult+0x4c>
    80008978:	01813483          	ld	s1,24(sp)
    8000897c:	02813083          	ld	ra,40(sp)
    80008980:	02013403          	ld	s0,32(sp)
    80008984:	00813983          	ld	s3,8(sp)
    80008988:	00090513          	mv	a0,s2
    8000898c:	01013903          	ld	s2,16(sp)
    80008990:	03010113          	add	sp,sp,48
    80008994:	00008067          	ret
    80008998:	00048613          	mv	a2,s1
    8000899c:	00048593          	mv	a1,s1
    800089a0:	00098513          	mv	a0,s3
    800089a4:	cfdff0ef          	jal	800086a0 <__multiply>
    800089a8:	00a4b023          	sd	a0,0(s1)
    800089ac:	00053023          	sd	zero,0(a0)
    800089b0:	00050493          	mv	s1,a0
    800089b4:	f81ff06f          	j	80008934 <__pow5mult+0x58>
    800089b8:	fff7879b          	addw	a5,a5,-1
    800089bc:	00006717          	auipc	a4,0x6
    800089c0:	66c70713          	add	a4,a4,1644 # 8000f028 <p05.0>
    800089c4:	00279793          	sll	a5,a5,0x2
    800089c8:	00f707b3          	add	a5,a4,a5
    800089cc:	0007a603          	lw	a2,0(a5)
    800089d0:	00000693          	li	a3,0
    800089d4:	811ff0ef          	jal	800081e4 <__multadd>
    800089d8:	00050913          	mv	s2,a0
    800089dc:	f29ff06f          	j	80008904 <__pow5mult+0x28>
    800089e0:	00100593          	li	a1,1
    800089e4:	00098513          	mv	a0,s3
    800089e8:	f2cff0ef          	jal	80008114 <_Balloc>
    800089ec:	00050493          	mv	s1,a0
    800089f0:	02050063          	beqz	a0,80008a10 <__pow5mult+0x134>
    800089f4:	27100793          	li	a5,625
    800089f8:	00f52c23          	sw	a5,24(a0)
    800089fc:	00100793          	li	a5,1
    80008a00:	00f52a23          	sw	a5,20(a0)
    80008a04:	06a9b023          	sd	a0,96(s3)
    80008a08:	00053023          	sd	zero,0(a0)
    80008a0c:	f0dff06f          	j	80008918 <__pow5mult+0x3c>
    80008a10:	00006697          	auipc	a3,0x6
    80008a14:	f0068693          	add	a3,a3,-256 # 8000e910 <__tbss_end+0x858>
    80008a18:	00000613          	li	a2,0
    80008a1c:	14500593          	li	a1,325
    80008a20:	00006517          	auipc	a0,0x6
    80008a24:	f6850513          	add	a0,a0,-152 # 8000e988 <__tbss_end+0x8d0>
    80008a28:	454010ef          	jal	80009e7c <__assert_func>

0000000080008a2c <__lshift>:
    80008a2c:	fc010113          	add	sp,sp,-64
    80008a30:	02813823          	sd	s0,48(sp)
    80008a34:	0145a403          	lw	s0,20(a1)
    80008a38:	00c5a783          	lw	a5,12(a1)
    80008a3c:	01513423          	sd	s5,8(sp)
    80008a40:	40565a9b          	sraw	s5,a2,0x5
    80008a44:	008a843b          	addw	s0,s5,s0
    80008a48:	02913423          	sd	s1,40(sp)
    80008a4c:	03213023          	sd	s2,32(sp)
    80008a50:	01313c23          	sd	s3,24(sp)
    80008a54:	01413823          	sd	s4,16(sp)
    80008a58:	01613023          	sd	s6,0(sp)
    80008a5c:	02113c23          	sd	ra,56(sp)
    80008a60:	0014091b          	addw	s2,s0,1
    80008a64:	00058493          	mv	s1,a1
    80008a68:	00060a13          	mv	s4,a2
    80008a6c:	0085a583          	lw	a1,8(a1)
    80008a70:	00050993          	mv	s3,a0
    80008a74:	40565b13          	sra	s6,a2,0x5
    80008a78:	0127d863          	bge	a5,s2,80008a88 <__lshift+0x5c>
    80008a7c:	0017979b          	sllw	a5,a5,0x1
    80008a80:	0015859b          	addw	a1,a1,1
    80008a84:	ff27cce3          	blt	a5,s2,80008a7c <__lshift+0x50>
    80008a88:	00098513          	mv	a0,s3
    80008a8c:	e88ff0ef          	jal	80008114 <_Balloc>
    80008a90:	12050263          	beqz	a0,80008bb4 <__lshift+0x188>
    80008a94:	01850713          	add	a4,a0,24
    80008a98:	03605663          	blez	s6,80008ac4 <__lshift+0x98>
    80008a9c:	006a869b          	addw	a3,s5,6
    80008aa0:	00269693          	sll	a3,a3,0x2
    80008aa4:	00d506b3          	add	a3,a0,a3
    80008aa8:	00070793          	mv	a5,a4
    80008aac:	00478793          	add	a5,a5,4
    80008ab0:	fe07ae23          	sw	zero,-4(a5)
    80008ab4:	fed79ce3          	bne	a5,a3,80008aac <__lshift+0x80>
    80008ab8:	020a9793          	sll	a5,s5,0x20
    80008abc:	01e7da93          	srl	s5,a5,0x1e
    80008ac0:	01570733          	add	a4,a4,s5
    80008ac4:	0144a883          	lw	a7,20(s1)
    80008ac8:	01848793          	add	a5,s1,24
    80008acc:	01fa7613          	and	a2,s4,31
    80008ad0:	00289893          	sll	a7,a7,0x2
    80008ad4:	011788b3          	add	a7,a5,a7
    80008ad8:	0a060863          	beqz	a2,80008b88 <__lshift+0x15c>
    80008adc:	02000593          	li	a1,32
    80008ae0:	40c585bb          	subw	a1,a1,a2
    80008ae4:	00070313          	mv	t1,a4
    80008ae8:	00000693          	li	a3,0
    80008aec:	0007a803          	lw	a6,0(a5)
    80008af0:	00430313          	add	t1,t1,4
    80008af4:	00478793          	add	a5,a5,4
    80008af8:	00c8183b          	sllw	a6,a6,a2
    80008afc:	0106e6b3          	or	a3,a3,a6
    80008b00:	fed32e23          	sw	a3,-4(t1)
    80008b04:	ffc7a803          	lw	a6,-4(a5)
    80008b08:	00b856bb          	srlw	a3,a6,a1
    80008b0c:	00068813          	mv	a6,a3
    80008b10:	fd17eee3          	bltu	a5,a7,80008aec <__lshift+0xc0>
    80008b14:	01948793          	add	a5,s1,25
    80008b18:	00400613          	li	a2,4
    80008b1c:	00f8ea63          	bltu	a7,a5,80008b30 <__lshift+0x104>
    80008b20:	409887b3          	sub	a5,a7,s1
    80008b24:	fe778793          	add	a5,a5,-25
    80008b28:	ffc7f793          	and	a5,a5,-4
    80008b2c:	00478613          	add	a2,a5,4
    80008b30:	00c70733          	add	a4,a4,a2
    80008b34:	01072023          	sw	a6,0(a4)
    80008b38:	00069463          	bnez	a3,80008b40 <__lshift+0x114>
    80008b3c:	00040913          	mv	s2,s0
    80008b40:	0084a703          	lw	a4,8(s1)
    80008b44:	0689b783          	ld	a5,104(s3)
    80008b48:	03813083          	ld	ra,56(sp)
    80008b4c:	00371713          	sll	a4,a4,0x3
    80008b50:	00e787b3          	add	a5,a5,a4
    80008b54:	0007b703          	ld	a4,0(a5)
    80008b58:	01252a23          	sw	s2,20(a0)
    80008b5c:	03013403          	ld	s0,48(sp)
    80008b60:	00e4b023          	sd	a4,0(s1)
    80008b64:	0097b023          	sd	s1,0(a5)
    80008b68:	02013903          	ld	s2,32(sp)
    80008b6c:	02813483          	ld	s1,40(sp)
    80008b70:	01813983          	ld	s3,24(sp)
    80008b74:	01013a03          	ld	s4,16(sp)
    80008b78:	00813a83          	ld	s5,8(sp)
    80008b7c:	00013b03          	ld	s6,0(sp)
    80008b80:	04010113          	add	sp,sp,64
    80008b84:	00008067          	ret
    80008b88:	0007a683          	lw	a3,0(a5)
    80008b8c:	00478793          	add	a5,a5,4
    80008b90:	00470713          	add	a4,a4,4
    80008b94:	fed72e23          	sw	a3,-4(a4)
    80008b98:	fb17f2e3          	bgeu	a5,a7,80008b3c <__lshift+0x110>
    80008b9c:	0007a683          	lw	a3,0(a5)
    80008ba0:	00478793          	add	a5,a5,4
    80008ba4:	00470713          	add	a4,a4,4
    80008ba8:	fed72e23          	sw	a3,-4(a4)
    80008bac:	fd17eee3          	bltu	a5,a7,80008b88 <__lshift+0x15c>
    80008bb0:	f8dff06f          	j	80008b3c <__lshift+0x110>
    80008bb4:	00006697          	auipc	a3,0x6
    80008bb8:	d5c68693          	add	a3,a3,-676 # 8000e910 <__tbss_end+0x858>
    80008bbc:	00000613          	li	a2,0
    80008bc0:	1de00593          	li	a1,478
    80008bc4:	00006517          	auipc	a0,0x6
    80008bc8:	dc450513          	add	a0,a0,-572 # 8000e988 <__tbss_end+0x8d0>
    80008bcc:	2b0010ef          	jal	80009e7c <__assert_func>

0000000080008bd0 <__mcmp>:
    80008bd0:	0145a783          	lw	a5,20(a1)
    80008bd4:	00050813          	mv	a6,a0
    80008bd8:	01452503          	lw	a0,20(a0)
    80008bdc:	40f5053b          	subw	a0,a0,a5
    80008be0:	04051263          	bnez	a0,80008c24 <__mcmp+0x54>
    80008be4:	00279793          	sll	a5,a5,0x2
    80008be8:	01880813          	add	a6,a6,24
    80008bec:	01858593          	add	a1,a1,24
    80008bf0:	00f80733          	add	a4,a6,a5
    80008bf4:	00f587b3          	add	a5,a1,a5
    80008bf8:	0080006f          	j	80008c00 <__mcmp+0x30>
    80008bfc:	02e87463          	bgeu	a6,a4,80008c24 <__mcmp+0x54>
    80008c00:	ffc72603          	lw	a2,-4(a4)
    80008c04:	ffc7a683          	lw	a3,-4(a5)
    80008c08:	ffc70713          	add	a4,a4,-4
    80008c0c:	ffc78793          	add	a5,a5,-4
    80008c10:	fed606e3          	beq	a2,a3,80008bfc <__mcmp+0x2c>
    80008c14:	00100513          	li	a0,1
    80008c18:	00d67663          	bgeu	a2,a3,80008c24 <__mcmp+0x54>
    80008c1c:	fff00513          	li	a0,-1
    80008c20:	00008067          	ret
    80008c24:	00008067          	ret

0000000080008c28 <__mdiff>:
    80008c28:	0145a703          	lw	a4,20(a1)
    80008c2c:	01462783          	lw	a5,20(a2)
    80008c30:	fe010113          	add	sp,sp,-32
    80008c34:	00813823          	sd	s0,16(sp)
    80008c38:	00913423          	sd	s1,8(sp)
    80008c3c:	00113c23          	sd	ra,24(sp)
    80008c40:	01213023          	sd	s2,0(sp)
    80008c44:	40f7073b          	subw	a4,a4,a5
    80008c48:	00058413          	mv	s0,a1
    80008c4c:	00060493          	mv	s1,a2
    80008c50:	1a071463          	bnez	a4,80008df8 <__mdiff+0x1d0>
    80008c54:	00279693          	sll	a3,a5,0x2
    80008c58:	01858613          	add	a2,a1,24
    80008c5c:	01848713          	add	a4,s1,24
    80008c60:	00d607b3          	add	a5,a2,a3
    80008c64:	00d70733          	add	a4,a4,a3
    80008c68:	0080006f          	j	80008c70 <__mdiff+0x48>
    80008c6c:	1af67263          	bgeu	a2,a5,80008e10 <__mdiff+0x1e8>
    80008c70:	ffc7a583          	lw	a1,-4(a5)
    80008c74:	ffc72683          	lw	a3,-4(a4)
    80008c78:	ffc78793          	add	a5,a5,-4
    80008c7c:	ffc70713          	add	a4,a4,-4
    80008c80:	fed586e3          	beq	a1,a3,80008c6c <__mdiff+0x44>
    80008c84:	00100913          	li	s2,1
    80008c88:	00d5ea63          	bltu	a1,a3,80008c9c <__mdiff+0x74>
    80008c8c:	00048793          	mv	a5,s1
    80008c90:	00000913          	li	s2,0
    80008c94:	00040493          	mv	s1,s0
    80008c98:	00078413          	mv	s0,a5
    80008c9c:	0084a583          	lw	a1,8(s1)
    80008ca0:	c74ff0ef          	jal	80008114 <_Balloc>
    80008ca4:	1a050c63          	beqz	a0,80008e5c <__mdiff+0x234>
    80008ca8:	0144a303          	lw	t1,20(s1)
    80008cac:	01442283          	lw	t0,20(s0)
    80008cb0:	01848f13          	add	t5,s1,24
    80008cb4:	00231e13          	sll	t3,t1,0x2
    80008cb8:	01840813          	add	a6,s0,24
    80008cbc:	00229293          	sll	t0,t0,0x2
    80008cc0:	01850f93          	add	t6,a0,24
    80008cc4:	000108b7          	lui	a7,0x10
    80008cc8:	01252823          	sw	s2,16(a0)
    80008ccc:	01cf0e33          	add	t3,t5,t3
    80008cd0:	005802b3          	add	t0,a6,t0
    80008cd4:	000f8593          	mv	a1,t6
    80008cd8:	000f0e93          	mv	t4,t5
    80008cdc:	00000613          	li	a2,0
    80008ce0:	fff88893          	add	a7,a7,-1 # ffff <__stack_shift+0xffe8>
    80008ce4:	000ea703          	lw	a4,0(t4)
    80008ce8:	00082683          	lw	a3,0(a6)
    80008cec:	00458593          	add	a1,a1,4
    80008cf0:	011777b3          	and	a5,a4,a7
    80008cf4:	0116f3b3          	and	t2,a3,a7
    80008cf8:	407787bb          	subw	a5,a5,t2
    80008cfc:	00c787bb          	addw	a5,a5,a2
    80008d00:	0106d69b          	srlw	a3,a3,0x10
    80008d04:	0107571b          	srlw	a4,a4,0x10
    80008d08:	40d7073b          	subw	a4,a4,a3
    80008d0c:	4107d69b          	sraw	a3,a5,0x10
    80008d10:	00d7073b          	addw	a4,a4,a3
    80008d14:	00f8f7b3          	and	a5,a7,a5
    80008d18:	0107169b          	sllw	a3,a4,0x10
    80008d1c:	00d7e7b3          	or	a5,a5,a3
    80008d20:	0007879b          	sext.w	a5,a5
    80008d24:	00480813          	add	a6,a6,4
    80008d28:	fef5ae23          	sw	a5,-4(a1)
    80008d2c:	004e8e93          	add	t4,t4,4
    80008d30:	4107561b          	sraw	a2,a4,0x10
    80008d34:	fa5868e3          	bltu	a6,t0,80008ce4 <__mdiff+0xbc>
    80008d38:	01940713          	add	a4,s0,25
    80008d3c:	40828433          	sub	s0,t0,s0
    80008d40:	fe740413          	add	s0,s0,-25
    80008d44:	00e2b2b3          	sltu	t0,t0,a4
    80008d48:	0012c893          	xor	a7,t0,1
    80008d4c:	00245413          	srl	s0,s0,0x2
    80008d50:	00400713          	li	a4,4
    80008d54:	0a028863          	beqz	t0,80008e04 <__mdiff+0x1dc>
    80008d58:	00ef0f33          	add	t5,t5,a4
    80008d5c:	00ef8eb3          	add	t4,t6,a4
    80008d60:	00010837          	lui	a6,0x10
    80008d64:	000e8593          	mv	a1,t4
    80008d68:	000f0693          	mv	a3,t5
    80008d6c:	fff80813          	add	a6,a6,-1 # ffff <__stack_shift+0xffe8>
    80008d70:	0dcf7863          	bgeu	t5,t3,80008e40 <__mdiff+0x218>
    80008d74:	0006a783          	lw	a5,0(a3)
    80008d78:	0006089b          	sext.w	a7,a2
    80008d7c:	00458593          	add	a1,a1,4
    80008d80:	0107f733          	and	a4,a5,a6
    80008d84:	00c7073b          	addw	a4,a4,a2
    80008d88:	4107571b          	sraw	a4,a4,0x10
    80008d8c:	0107d61b          	srlw	a2,a5,0x10
    80008d90:	00c7073b          	addw	a4,a4,a2
    80008d94:	011787bb          	addw	a5,a5,a7
    80008d98:	0107161b          	sllw	a2,a4,0x10
    80008d9c:	0107f7b3          	and	a5,a5,a6
    80008da0:	00c7e7b3          	or	a5,a5,a2
    80008da4:	0007879b          	sext.w	a5,a5
    80008da8:	00468693          	add	a3,a3,4
    80008dac:	fef5ae23          	sw	a5,-4(a1)
    80008db0:	4107561b          	sraw	a2,a4,0x10
    80008db4:	fdc6e0e3          	bltu	a3,t3,80008d74 <__mdiff+0x14c>
    80008db8:	fffe0e13          	add	t3,t3,-1
    80008dbc:	41ee0e33          	sub	t3,t3,t5
    80008dc0:	ffce7e13          	and	t3,t3,-4
    80008dc4:	01ce8733          	add	a4,t4,t3
    80008dc8:	00079a63          	bnez	a5,80008ddc <__mdiff+0x1b4>
    80008dcc:	ffc72783          	lw	a5,-4(a4)
    80008dd0:	fff3031b          	addw	t1,t1,-1
    80008dd4:	ffc70713          	add	a4,a4,-4
    80008dd8:	fe078ae3          	beqz	a5,80008dcc <__mdiff+0x1a4>
    80008ddc:	01813083          	ld	ra,24(sp)
    80008de0:	01013403          	ld	s0,16(sp)
    80008de4:	00652a23          	sw	t1,20(a0)
    80008de8:	00813483          	ld	s1,8(sp)
    80008dec:	00013903          	ld	s2,0(sp)
    80008df0:	02010113          	add	sp,sp,32
    80008df4:	00008067          	ret
    80008df8:	00100913          	li	s2,1
    80008dfc:	e80758e3          	bgez	a4,80008c8c <__mdiff+0x64>
    80008e00:	e9dff06f          	j	80008c9c <__mdiff+0x74>
    80008e04:	00140713          	add	a4,s0,1
    80008e08:	00271713          	sll	a4,a4,0x2
    80008e0c:	f4dff06f          	j	80008d58 <__mdiff+0x130>
    80008e10:	00000593          	li	a1,0
    80008e14:	b00ff0ef          	jal	80008114 <_Balloc>
    80008e18:	06050063          	beqz	a0,80008e78 <__mdiff+0x250>
    80008e1c:	01813083          	ld	ra,24(sp)
    80008e20:	01013403          	ld	s0,16(sp)
    80008e24:	00100793          	li	a5,1
    80008e28:	00f52a23          	sw	a5,20(a0)
    80008e2c:	00052c23          	sw	zero,24(a0)
    80008e30:	00813483          	ld	s1,8(sp)
    80008e34:	00013903          	ld	s2,0(sp)
    80008e38:	02010113          	add	sp,sp,32
    80008e3c:	00008067          	ret
    80008e40:	00000713          	li	a4,0
    80008e44:	00089663          	bnez	a7,80008e50 <__mdiff+0x228>
    80008e48:	00ef8733          	add	a4,t6,a4
    80008e4c:	f7dff06f          	j	80008dc8 <__mdiff+0x1a0>
    80008e50:	00241713          	sll	a4,s0,0x2
    80008e54:	00ef8733          	add	a4,t6,a4
    80008e58:	f71ff06f          	j	80008dc8 <__mdiff+0x1a0>
    80008e5c:	00006697          	auipc	a3,0x6
    80008e60:	ab468693          	add	a3,a3,-1356 # 8000e910 <__tbss_end+0x858>
    80008e64:	00000613          	li	a2,0
    80008e68:	24500593          	li	a1,581
    80008e6c:	00006517          	auipc	a0,0x6
    80008e70:	b1c50513          	add	a0,a0,-1252 # 8000e988 <__tbss_end+0x8d0>
    80008e74:	008010ef          	jal	80009e7c <__assert_func>
    80008e78:	00006697          	auipc	a3,0x6
    80008e7c:	a9868693          	add	a3,a3,-1384 # 8000e910 <__tbss_end+0x858>
    80008e80:	00000613          	li	a2,0
    80008e84:	23700593          	li	a1,567
    80008e88:	00006517          	auipc	a0,0x6
    80008e8c:	b0050513          	add	a0,a0,-1280 # 8000e988 <__tbss_end+0x8d0>
    80008e90:	7ed000ef          	jal	80009e7c <__assert_func>

0000000080008e94 <__ulp>:
    80008e94:	7ff007b7          	lui	a5,0x7ff00
    80008e98:	02055513          	srl	a0,a0,0x20
    80008e9c:	00f57533          	and	a0,a0,a5
    80008ea0:	fcc007b7          	lui	a5,0xfcc00
    80008ea4:	00a7873b          	addw	a4,a5,a0
    80008ea8:	00000513          	li	a0,0
    80008eac:	00e05c63          	blez	a4,80008ec4 <__ulp+0x30>
    80008eb0:	02051513          	sll	a0,a0,0x20
    80008eb4:	02071713          	sll	a4,a4,0x20
    80008eb8:	02055513          	srl	a0,a0,0x20
    80008ebc:	00e56533          	or	a0,a0,a4
    80008ec0:	00008067          	ret
    80008ec4:	40e007bb          	negw	a5,a4
    80008ec8:	4147d69b          	sraw	a3,a5,0x14
    80008ecc:	01300713          	li	a4,19
    80008ed0:	02d74263          	blt	a4,a3,80008ef4 <__ulp+0x60>
    80008ed4:	00080737          	lui	a4,0x80
    80008ed8:	00000513          	li	a0,0
    80008edc:	40d7573b          	sraw	a4,a4,a3
    80008ee0:	02051513          	sll	a0,a0,0x20
    80008ee4:	02071713          	sll	a4,a4,0x20
    80008ee8:	02055513          	srl	a0,a0,0x20
    80008eec:	00e56533          	or	a0,a0,a4
    80008ef0:	00008067          	ret
    80008ef4:	fec6879b          	addw	a5,a3,-20
    80008ef8:	01e00713          	li	a4,30
    80008efc:	00100513          	li	a0,1
    80008f00:	00f74663          	blt	a4,a5,80008f0c <__ulp+0x78>
    80008f04:	80000537          	lui	a0,0x80000
    80008f08:	00f5553b          	srlw	a0,a0,a5
    80008f0c:	00000713          	li	a4,0
    80008f10:	02051513          	sll	a0,a0,0x20
    80008f14:	02071713          	sll	a4,a4,0x20
    80008f18:	02055513          	srl	a0,a0,0x20
    80008f1c:	00e56533          	or	a0,a0,a4
    80008f20:	00008067          	ret

0000000080008f24 <__b2d>:
    80008f24:	fd010113          	add	sp,sp,-48
    80008f28:	00913c23          	sd	s1,24(sp)
    80008f2c:	01452483          	lw	s1,20(a0) # ffffffff80000014 <__heap_end+0xfffffffeff7ee014>
    80008f30:	02813023          	sd	s0,32(sp)
    80008f34:	01850413          	add	s0,a0,24
    80008f38:	00249493          	sll	s1,s1,0x2
    80008f3c:	009404b3          	add	s1,s0,s1
    80008f40:	01213823          	sd	s2,16(sp)
    80008f44:	ffc4a903          	lw	s2,-4(s1)
    80008f48:	01313423          	sd	s3,8(sp)
    80008f4c:	01413023          	sd	s4,0(sp)
    80008f50:	00090513          	mv	a0,s2
    80008f54:	00058993          	mv	s3,a1
    80008f58:	02113423          	sd	ra,40(sp)
    80008f5c:	d38ff0ef          	jal	80008494 <__hi0bits>
    80008f60:	02000693          	li	a3,32
    80008f64:	40a687bb          	subw	a5,a3,a0
    80008f68:	00f9a023          	sw	a5,0(s3)
    80008f6c:	00a00793          	li	a5,10
    80008f70:	ffc48a13          	add	s4,s1,-4
    80008f74:	00050713          	mv	a4,a0
    80008f78:	0aa7dc63          	bge	a5,a0,80009030 <__b2d+0x10c>
    80008f7c:	ff55079b          	addw	a5,a0,-11
    80008f80:	05447663          	bgeu	s0,s4,80008fcc <__b2d+0xa8>
    80008f84:	ff84a703          	lw	a4,-8(s1)
    80008f88:	06078463          	beqz	a5,80008ff0 <__b2d+0xcc>
    80008f8c:	40f686bb          	subw	a3,a3,a5
    80008f90:	00d7563b          	srlw	a2,a4,a3
    80008f94:	00f9193b          	sllw	s2,s2,a5
    80008f98:	00c96933          	or	s2,s2,a2
    80008f9c:	3ff00637          	lui	a2,0x3ff00
    80008fa0:	00c96933          	or	s2,s2,a2
    80008fa4:	00f7163b          	sllw	a2,a4,a5
    80008fa8:	ff848793          	add	a5,s1,-8
    80008fac:	02091513          	sll	a0,s2,0x20
    80008fb0:	0006071b          	sext.w	a4,a2
    80008fb4:	04f47463          	bgeu	s0,a5,80008ffc <__b2d+0xd8>
    80008fb8:	ff44a703          	lw	a4,-12(s1)
    80008fbc:	00d7573b          	srlw	a4,a4,a3
    80008fc0:	00c76733          	or	a4,a4,a2
    80008fc4:	0007071b          	sext.w	a4,a4
    80008fc8:	0340006f          	j	80008ffc <__b2d+0xd8>
    80008fcc:	00b00693          	li	a3,11
    80008fd0:	00d50e63          	beq	a0,a3,80008fec <__b2d+0xc8>
    80008fd4:	00f9153b          	sllw	a0,s2,a5
    80008fd8:	3ff007b7          	lui	a5,0x3ff00
    80008fdc:	00f56533          	or	a0,a0,a5
    80008fe0:	02051513          	sll	a0,a0,0x20
    80008fe4:	00000713          	li	a4,0
    80008fe8:	0140006f          	j	80008ffc <__b2d+0xd8>
    80008fec:	00000713          	li	a4,0
    80008ff0:	3ff00537          	lui	a0,0x3ff00
    80008ff4:	00a96533          	or	a0,s2,a0
    80008ff8:	02051513          	sll	a0,a0,0x20
    80008ffc:	02813083          	ld	ra,40(sp)
    80009000:	02013403          	ld	s0,32(sp)
    80009004:	02055513          	srl	a0,a0,0x20
    80009008:	02071713          	sll	a4,a4,0x20
    8000900c:	02075713          	srl	a4,a4,0x20
    80009010:	02051513          	sll	a0,a0,0x20
    80009014:	01813483          	ld	s1,24(sp)
    80009018:	01013903          	ld	s2,16(sp)
    8000901c:	00813983          	ld	s3,8(sp)
    80009020:	00013a03          	ld	s4,0(sp)
    80009024:	00e56533          	or	a0,a0,a4
    80009028:	03010113          	add	sp,sp,48
    8000902c:	00008067          	ret
    80009030:	00b00693          	li	a3,11
    80009034:	40a686bb          	subw	a3,a3,a0
    80009038:	00d957bb          	srlw	a5,s2,a3
    8000903c:	3ff00637          	lui	a2,0x3ff00
    80009040:	00c7e7b3          	or	a5,a5,a2
    80009044:	02079513          	sll	a0,a5,0x20
    80009048:	00000793          	li	a5,0
    8000904c:	01447663          	bgeu	s0,s4,80009058 <__b2d+0x134>
    80009050:	ff84a783          	lw	a5,-8(s1)
    80009054:	00d7d7bb          	srlw	a5,a5,a3
    80009058:	0157071b          	addw	a4,a4,21 # 80015 <__stack_shift+0x7fffe>
    8000905c:	00e9173b          	sllw	a4,s2,a4
    80009060:	00e7e733          	or	a4,a5,a4
    80009064:	0007071b          	sext.w	a4,a4
    80009068:	f95ff06f          	j	80008ffc <__b2d+0xd8>

000000008000906c <__d2b>:
    8000906c:	fc010113          	add	sp,sp,-64
    80009070:	02813823          	sd	s0,48(sp)
    80009074:	00058413          	mv	s0,a1
    80009078:	00100593          	li	a1,1
    8000907c:	03213023          	sd	s2,32(sp)
    80009080:	01413823          	sd	s4,16(sp)
    80009084:	02113c23          	sd	ra,56(sp)
    80009088:	02913423          	sd	s1,40(sp)
    8000908c:	01313c23          	sd	s3,24(sp)
    80009090:	00060a13          	mv	s4,a2
    80009094:	00068913          	mv	s2,a3
    80009098:	87cff0ef          	jal	80008114 <_Balloc>
    8000909c:	10050063          	beqz	a0,8000919c <__d2b+0x130>
    800090a0:	42045793          	sra	a5,s0,0x20
    800090a4:	0147d99b          	srlw	s3,a5,0x14
    800090a8:	7ff9f993          	and	s3,s3,2047
    800090ac:	02c79793          	sll	a5,a5,0x2c
    800090b0:	00050493          	mv	s1,a0
    800090b4:	02c7d793          	srl	a5,a5,0x2c
    800090b8:	00098663          	beqz	s3,800090c4 <__d2b+0x58>
    800090bc:	00100737          	lui	a4,0x100
    800090c0:	00e7e7b3          	or	a5,a5,a4
    800090c4:	00f12623          	sw	a5,12(sp)
    800090c8:	0004041b          	sext.w	s0,s0
    800090cc:	06041063          	bnez	s0,8000912c <__d2b+0xc0>
    800090d0:	00c10513          	add	a0,sp,12
    800090d4:	c38ff0ef          	jal	8000850c <__lo0bits>
    800090d8:	00c12783          	lw	a5,12(sp)
    800090dc:	00100413          	li	s0,1
    800090e0:	0084aa23          	sw	s0,20(s1)
    800090e4:	00f4ac23          	sw	a5,24(s1)
    800090e8:	0205051b          	addw	a0,a0,32 # 3ff00020 <__heap_size+0x3f700020>
    800090ec:	08098663          	beqz	s3,80009178 <__d2b+0x10c>
    800090f0:	bcd9899b          	addw	s3,s3,-1075
    800090f4:	00a989bb          	addw	s3,s3,a0
    800090f8:	03500413          	li	s0,53
    800090fc:	013a2023          	sw	s3,0(s4)
    80009100:	40a4053b          	subw	a0,s0,a0
    80009104:	03813083          	ld	ra,56(sp)
    80009108:	03013403          	ld	s0,48(sp)
    8000910c:	00a92023          	sw	a0,0(s2)
    80009110:	01813983          	ld	s3,24(sp)
    80009114:	02013903          	ld	s2,32(sp)
    80009118:	01013a03          	ld	s4,16(sp)
    8000911c:	00048513          	mv	a0,s1
    80009120:	02813483          	ld	s1,40(sp)
    80009124:	04010113          	add	sp,sp,64
    80009128:	00008067          	ret
    8000912c:	00810513          	add	a0,sp,8
    80009130:	00812423          	sw	s0,8(sp)
    80009134:	bd8ff0ef          	jal	8000850c <__lo0bits>
    80009138:	00c12783          	lw	a5,12(sp)
    8000913c:	00812703          	lw	a4,8(sp)
    80009140:	02050063          	beqz	a0,80009160 <__d2b+0xf4>
    80009144:	02000693          	li	a3,32
    80009148:	40a686bb          	subw	a3,a3,a0
    8000914c:	00d796bb          	sllw	a3,a5,a3
    80009150:	00d76733          	or	a4,a4,a3
    80009154:	00a7d7bb          	srlw	a5,a5,a0
    80009158:	0007071b          	sext.w	a4,a4
    8000915c:	00f12623          	sw	a5,12(sp)
    80009160:	00f03433          	snez	s0,a5
    80009164:	00140413          	add	s0,s0,1
    80009168:	00e4ac23          	sw	a4,24(s1)
    8000916c:	00f4ae23          	sw	a5,28(s1)
    80009170:	0084aa23          	sw	s0,20(s1)
    80009174:	f6099ee3          	bnez	s3,800090f0 <__d2b+0x84>
    80009178:	bce5051b          	addw	a0,a0,-1074
    8000917c:	00241793          	sll	a5,s0,0x2
    80009180:	00aa2023          	sw	a0,0(s4)
    80009184:	00f487b3          	add	a5,s1,a5
    80009188:	0147a503          	lw	a0,20(a5) # 3ff00014 <__heap_size+0x3f700014>
    8000918c:	0054141b          	sllw	s0,s0,0x5
    80009190:	b04ff0ef          	jal	80008494 <__hi0bits>
    80009194:	40a4053b          	subw	a0,s0,a0
    80009198:	f6dff06f          	j	80009104 <__d2b+0x98>
    8000919c:	00005697          	auipc	a3,0x5
    800091a0:	77468693          	add	a3,a3,1908 # 8000e910 <__tbss_end+0x858>
    800091a4:	00000613          	li	a2,0
    800091a8:	30f00593          	li	a1,783
    800091ac:	00005517          	auipc	a0,0x5
    800091b0:	7dc50513          	add	a0,a0,2012 # 8000e988 <__tbss_end+0x8d0>
    800091b4:	4c9000ef          	jal	80009e7c <__assert_func>

00000000800091b8 <__ratio>:
    800091b8:	fd010113          	add	sp,sp,-48
    800091bc:	00913c23          	sd	s1,24(sp)
    800091c0:	00058493          	mv	s1,a1
    800091c4:	00810593          	add	a1,sp,8
    800091c8:	02113423          	sd	ra,40(sp)
    800091cc:	02813023          	sd	s0,32(sp)
    800091d0:	01213823          	sd	s2,16(sp)
    800091d4:	00050913          	mv	s2,a0
    800091d8:	d4dff0ef          	jal	80008f24 <__b2d>
    800091dc:	00c10593          	add	a1,sp,12
    800091e0:	00050413          	mv	s0,a0
    800091e4:	00048513          	mv	a0,s1
    800091e8:	d3dff0ef          	jal	80008f24 <__b2d>
    800091ec:	01492783          	lw	a5,20(s2)
    800091f0:	0144a603          	lw	a2,20(s1)
    800091f4:	00812703          	lw	a4,8(sp)
    800091f8:	00c12683          	lw	a3,12(sp)
    800091fc:	40c787bb          	subw	a5,a5,a2
    80009200:	0057979b          	sllw	a5,a5,0x5
    80009204:	40d7073b          	subw	a4,a4,a3
    80009208:	00e7873b          	addw	a4,a5,a4
    8000920c:	00070793          	mv	a5,a4
    80009210:	00050593          	mv	a1,a0
    80009214:	04e05263          	blez	a4,80009258 <__ratio+0xa0>
    80009218:	02045713          	srl	a4,s0,0x20
    8000921c:	0147979b          	sllw	a5,a5,0x14
    80009220:	00e787bb          	addw	a5,a5,a4
    80009224:	fff00713          	li	a4,-1
    80009228:	02075713          	srl	a4,a4,0x20
    8000922c:	02079793          	sll	a5,a5,0x20
    80009230:	00877733          	and	a4,a4,s0
    80009234:	00f76433          	or	s0,a4,a5
    80009238:	00040513          	mv	a0,s0
    8000923c:	595020ef          	jal	8000bfd0 <__divdf3>
    80009240:	02813083          	ld	ra,40(sp)
    80009244:	02013403          	ld	s0,32(sp)
    80009248:	01813483          	ld	s1,24(sp)
    8000924c:	01013903          	ld	s2,16(sp)
    80009250:	03010113          	add	sp,sp,48
    80009254:	00008067          	ret
    80009258:	02055713          	srl	a4,a0,0x20
    8000925c:	0147979b          	sllw	a5,a5,0x14
    80009260:	40f707bb          	subw	a5,a4,a5
    80009264:	fff00713          	li	a4,-1
    80009268:	02075713          	srl	a4,a4,0x20
    8000926c:	02079793          	sll	a5,a5,0x20
    80009270:	00a775b3          	and	a1,a4,a0
    80009274:	00f5e5b3          	or	a1,a1,a5
    80009278:	fc1ff06f          	j	80009238 <__ratio+0x80>

000000008000927c <_mprec_log10>:
    8000927c:	fe010113          	add	sp,sp,-32
    80009280:	00813823          	sd	s0,16(sp)
    80009284:	00113c23          	sd	ra,24(sp)
    80009288:	01700793          	li	a5,23
    8000928c:	00050413          	mv	s0,a0
    80009290:	02a7de63          	bge	a5,a0,800092cc <_mprec_log10+0x50>
    80009294:	00913423          	sd	s1,8(sp)
    80009298:	00007517          	auipc	a0,0x7
    8000929c:	e7853503          	ld	a0,-392(a0) # 80010110 <environ+0x38>
    800092a0:	00007497          	auipc	s1,0x7
    800092a4:	e784b483          	ld	s1,-392(s1) # 80010118 <environ+0x40>
    800092a8:	00048593          	mv	a1,s1
    800092ac:	fff4041b          	addw	s0,s0,-1
    800092b0:	250030ef          	jal	8000c500 <__muldf3>
    800092b4:	fe041ae3          	bnez	s0,800092a8 <_mprec_log10+0x2c>
    800092b8:	01813083          	ld	ra,24(sp)
    800092bc:	01013403          	ld	s0,16(sp)
    800092c0:	00813483          	ld	s1,8(sp)
    800092c4:	02010113          	add	sp,sp,32
    800092c8:	00008067          	ret
    800092cc:	00351413          	sll	s0,a0,0x3
    800092d0:	00006797          	auipc	a5,0x6
    800092d4:	db878793          	add	a5,a5,-584 # 8000f088 <__mprec_tens>
    800092d8:	01813083          	ld	ra,24(sp)
    800092dc:	008787b3          	add	a5,a5,s0
    800092e0:	01013403          	ld	s0,16(sp)
    800092e4:	0007b503          	ld	a0,0(a5)
    800092e8:	02010113          	add	sp,sp,32
    800092ec:	00008067          	ret

00000000800092f0 <__copybits>:
    800092f0:	01462683          	lw	a3,20(a2) # 3ff00014 <__heap_size+0x3f700014>
    800092f4:	fff5859b          	addw	a1,a1,-1
    800092f8:	4055d59b          	sraw	a1,a1,0x5
    800092fc:	0015859b          	addw	a1,a1,1
    80009300:	01860793          	add	a5,a2,24
    80009304:	00269693          	sll	a3,a3,0x2
    80009308:	00259593          	sll	a1,a1,0x2
    8000930c:	00d786b3          	add	a3,a5,a3
    80009310:	00b505b3          	add	a1,a0,a1
    80009314:	02d7f863          	bgeu	a5,a3,80009344 <__copybits+0x54>
    80009318:	00050713          	mv	a4,a0
    8000931c:	0007a803          	lw	a6,0(a5)
    80009320:	00478793          	add	a5,a5,4
    80009324:	00470713          	add	a4,a4,4 # 100004 <__stack_shift+0xfffed>
    80009328:	ff072e23          	sw	a6,-4(a4)
    8000932c:	fed7e8e3          	bltu	a5,a3,8000931c <__copybits+0x2c>
    80009330:	40c687b3          	sub	a5,a3,a2
    80009334:	fe778793          	add	a5,a5,-25
    80009338:	ffc7f793          	and	a5,a5,-4
    8000933c:	00478793          	add	a5,a5,4
    80009340:	00f50533          	add	a0,a0,a5
    80009344:	00b57863          	bgeu	a0,a1,80009354 <__copybits+0x64>
    80009348:	00450513          	add	a0,a0,4
    8000934c:	fe052e23          	sw	zero,-4(a0)
    80009350:	feb56ce3          	bltu	a0,a1,80009348 <__copybits+0x58>
    80009354:	00008067          	ret

0000000080009358 <__any_on>:
    80009358:	01452703          	lw	a4,20(a0)
    8000935c:	4055d613          	sra	a2,a1,0x5
    80009360:	01850693          	add	a3,a0,24
    80009364:	02c75263          	bge	a4,a2,80009388 <__any_on+0x30>
    80009368:	00271713          	sll	a4,a4,0x2
    8000936c:	00e687b3          	add	a5,a3,a4
    80009370:	04f6f263          	bgeu	a3,a5,800093b4 <__any_on+0x5c>
    80009374:	ffc7a703          	lw	a4,-4(a5)
    80009378:	ffc78793          	add	a5,a5,-4
    8000937c:	fe070ae3          	beqz	a4,80009370 <__any_on+0x18>
    80009380:	00100513          	li	a0,1
    80009384:	00008067          	ret
    80009388:	00261793          	sll	a5,a2,0x2
    8000938c:	00f687b3          	add	a5,a3,a5
    80009390:	fee650e3          	bge	a2,a4,80009370 <__any_on+0x18>
    80009394:	01f5f593          	and	a1,a1,31
    80009398:	fc058ce3          	beqz	a1,80009370 <__any_on+0x18>
    8000939c:	0007a603          	lw	a2,0(a5)
    800093a0:	00100513          	li	a0,1
    800093a4:	00b6573b          	srlw	a4,a2,a1
    800093a8:	00b7173b          	sllw	a4,a4,a1
    800093ac:	fcc702e3          	beq	a4,a2,80009370 <__any_on+0x18>
    800093b0:	00008067          	ret
    800093b4:	00000513          	li	a0,0
    800093b8:	00008067          	ret

00000000800093bc <_realloc_r>:
    800093bc:	fb010113          	add	sp,sp,-80
    800093c0:	03213823          	sd	s2,48(sp)
    800093c4:	04113423          	sd	ra,72(sp)
    800093c8:	00060913          	mv	s2,a2
    800093cc:	1e058c63          	beqz	a1,800095c4 <_realloc_r+0x208>
    800093d0:	04813023          	sd	s0,64(sp)
    800093d4:	02913c23          	sd	s1,56(sp)
    800093d8:	00058413          	mv	s0,a1
    800093dc:	03313423          	sd	s3,40(sp)
    800093e0:	03413023          	sd	s4,32(sp)
    800093e4:	01513c23          	sd	s5,24(sp)
    800093e8:	00050993          	mv	s3,a0
    800093ec:	8f4f90ef          	jal	800024e0 <__malloc_lock>
    800093f0:	ff843783          	ld	a5,-8(s0)
    800093f4:	01790493          	add	s1,s2,23
    800093f8:	02e00713          	li	a4,46
    800093fc:	ff040a93          	add	s5,s0,-16
    80009400:	ffc7fa13          	and	s4,a5,-4
    80009404:	10977663          	bgeu	a4,s1,80009510 <_realloc_r+0x154>
    80009408:	80000737          	lui	a4,0x80000
    8000940c:	ff04f493          	and	s1,s1,-16
    80009410:	fff74713          	not	a4,a4
    80009414:	10976263          	bltu	a4,s1,80009518 <_realloc_r+0x15c>
    80009418:	1124e063          	bltu	s1,s2,80009518 <_realloc_r+0x15c>
    8000941c:	129a5263          	bge	s4,s1,80009540 <_realloc_r+0x184>
    80009420:	01813023          	sd	s8,0(sp)
    80009424:	00006c17          	auipc	s8,0x6
    80009428:	2dcc0c13          	add	s8,s8,732 # 8000f700 <__malloc_av_>
    8000942c:	010c3603          	ld	a2,16(s8)
    80009430:	014a86b3          	add	a3,s5,s4
    80009434:	0086b703          	ld	a4,8(a3)
    80009438:	1cd60863          	beq	a2,a3,80009608 <_realloc_r+0x24c>
    8000943c:	ffe77613          	and	a2,a4,-2
    80009440:	00c68633          	add	a2,a3,a2
    80009444:	00863603          	ld	a2,8(a2)
    80009448:	00167613          	and	a2,a2,1
    8000944c:	14061a63          	bnez	a2,800095a0 <_realloc_r+0x1e4>
    80009450:	ffc77713          	and	a4,a4,-4
    80009454:	00ea0633          	add	a2,s4,a4
    80009458:	0c965863          	bge	a2,s1,80009528 <_realloc_r+0x16c>
    8000945c:	0017f793          	and	a5,a5,1
    80009460:	02079c63          	bnez	a5,80009498 <_realloc_r+0xdc>
    80009464:	01713423          	sd	s7,8(sp)
    80009468:	ff043b83          	ld	s7,-16(s0)
    8000946c:	01613823          	sd	s6,16(sp)
    80009470:	417a8bb3          	sub	s7,s5,s7
    80009474:	008bb783          	ld	a5,8(s7)
    80009478:	ffc7f793          	and	a5,a5,-4
    8000947c:	00f70733          	add	a4,a4,a5
    80009480:	01470b33          	add	s6,a4,s4
    80009484:	329b5c63          	bge	s6,s1,800097bc <_realloc_r+0x400>
    80009488:	00fa0b33          	add	s6,s4,a5
    8000948c:	289b5863          	bge	s6,s1,8000971c <_realloc_r+0x360>
    80009490:	01013b03          	ld	s6,16(sp)
    80009494:	00813b83          	ld	s7,8(sp)
    80009498:	00090593          	mv	a1,s2
    8000949c:	00098513          	mv	a0,s3
    800094a0:	821f80ef          	jal	80001cc0 <_malloc_r>
    800094a4:	00050913          	mv	s2,a0
    800094a8:	40050863          	beqz	a0,800098b8 <_realloc_r+0x4fc>
    800094ac:	ff843783          	ld	a5,-8(s0)
    800094b0:	ff050713          	add	a4,a0,-16
    800094b4:	ffe7f793          	and	a5,a5,-2
    800094b8:	00fa87b3          	add	a5,s5,a5
    800094bc:	24e78663          	beq	a5,a4,80009708 <_realloc_r+0x34c>
    800094c0:	ff8a0613          	add	a2,s4,-8
    800094c4:	04800793          	li	a5,72
    800094c8:	2ec7e463          	bltu	a5,a2,800097b0 <_realloc_r+0x3f4>
    800094cc:	02700713          	li	a4,39
    800094d0:	20c76a63          	bltu	a4,a2,800096e4 <_realloc_r+0x328>
    800094d4:	00050793          	mv	a5,a0
    800094d8:	00040713          	mv	a4,s0
    800094dc:	00073683          	ld	a3,0(a4) # ffffffff80000000 <__heap_end+0xfffffffeff7ee000>
    800094e0:	00d7b023          	sd	a3,0(a5)
    800094e4:	00873683          	ld	a3,8(a4)
    800094e8:	00d7b423          	sd	a3,8(a5)
    800094ec:	01073703          	ld	a4,16(a4)
    800094f0:	00e7b823          	sd	a4,16(a5)
    800094f4:	00040593          	mv	a1,s0
    800094f8:	00098513          	mv	a0,s3
    800094fc:	ca4f80ef          	jal	800019a0 <_free_r>
    80009500:	00098513          	mv	a0,s3
    80009504:	fe1f80ef          	jal	800024e4 <__malloc_unlock>
    80009508:	00013c03          	ld	s8,0(sp)
    8000950c:	06c0006f          	j	80009578 <_realloc_r+0x1bc>
    80009510:	02000493          	li	s1,32
    80009514:	f124f4e3          	bgeu	s1,s2,8000941c <_realloc_r+0x60>
    80009518:	00c00793          	li	a5,12
    8000951c:	00f9a023          	sw	a5,0(s3)
    80009520:	00000913          	li	s2,0
    80009524:	0540006f          	j	80009578 <_realloc_r+0x1bc>
    80009528:	0186b783          	ld	a5,24(a3)
    8000952c:	0106b703          	ld	a4,16(a3)
    80009530:	00013c03          	ld	s8,0(sp)
    80009534:	00060a13          	mv	s4,a2
    80009538:	00f73c23          	sd	a5,24(a4)
    8000953c:	00e7b823          	sd	a4,16(a5)
    80009540:	008ab783          	ld	a5,8(s5)
    80009544:	409a06b3          	sub	a3,s4,s1
    80009548:	01f00613          	li	a2,31
    8000954c:	0017f793          	and	a5,a5,1
    80009550:	014a8733          	add	a4,s5,s4
    80009554:	08d66263          	bltu	a2,a3,800095d8 <_realloc_r+0x21c>
    80009558:	0147e7b3          	or	a5,a5,s4
    8000955c:	00fab423          	sd	a5,8(s5)
    80009560:	00873783          	ld	a5,8(a4)
    80009564:	0017e793          	or	a5,a5,1
    80009568:	00f73423          	sd	a5,8(a4)
    8000956c:	00098513          	mv	a0,s3
    80009570:	f75f80ef          	jal	800024e4 <__malloc_unlock>
    80009574:	00040913          	mv	s2,s0
    80009578:	04013403          	ld	s0,64(sp)
    8000957c:	04813083          	ld	ra,72(sp)
    80009580:	03813483          	ld	s1,56(sp)
    80009584:	02813983          	ld	s3,40(sp)
    80009588:	02013a03          	ld	s4,32(sp)
    8000958c:	01813a83          	ld	s5,24(sp)
    80009590:	00090513          	mv	a0,s2
    80009594:	03013903          	ld	s2,48(sp)
    80009598:	05010113          	add	sp,sp,80
    8000959c:	00008067          	ret
    800095a0:	0017f793          	and	a5,a5,1
    800095a4:	ee079ae3          	bnez	a5,80009498 <_realloc_r+0xdc>
    800095a8:	01713423          	sd	s7,8(sp)
    800095ac:	ff043b83          	ld	s7,-16(s0)
    800095b0:	01613823          	sd	s6,16(sp)
    800095b4:	417a8bb3          	sub	s7,s5,s7
    800095b8:	008bb783          	ld	a5,8(s7)
    800095bc:	ffc7f793          	and	a5,a5,-4
    800095c0:	ec9ff06f          	j	80009488 <_realloc_r+0xcc>
    800095c4:	04813083          	ld	ra,72(sp)
    800095c8:	03013903          	ld	s2,48(sp)
    800095cc:	00060593          	mv	a1,a2
    800095d0:	05010113          	add	sp,sp,80
    800095d4:	eecf806f          	j	80001cc0 <_malloc_r>
    800095d8:	0097e7b3          	or	a5,a5,s1
    800095dc:	00fab423          	sd	a5,8(s5)
    800095e0:	009a85b3          	add	a1,s5,s1
    800095e4:	0016e693          	or	a3,a3,1
    800095e8:	00d5b423          	sd	a3,8(a1)
    800095ec:	00873783          	ld	a5,8(a4)
    800095f0:	01058593          	add	a1,a1,16
    800095f4:	00098513          	mv	a0,s3
    800095f8:	0017e793          	or	a5,a5,1
    800095fc:	00f73423          	sd	a5,8(a4)
    80009600:	ba0f80ef          	jal	800019a0 <_free_r>
    80009604:	f69ff06f          	j	8000956c <_realloc_r+0x1b0>
    80009608:	ffc77713          	and	a4,a4,-4
    8000960c:	014706b3          	add	a3,a4,s4
    80009610:	02048613          	add	a2,s1,32
    80009614:	26c6d063          	bge	a3,a2,80009874 <_realloc_r+0x4b8>
    80009618:	0017f793          	and	a5,a5,1
    8000961c:	e6079ee3          	bnez	a5,80009498 <_realloc_r+0xdc>
    80009620:	01713423          	sd	s7,8(sp)
    80009624:	ff043b83          	ld	s7,-16(s0)
    80009628:	01613823          	sd	s6,16(sp)
    8000962c:	417a8bb3          	sub	s7,s5,s7
    80009630:	008bb783          	ld	a5,8(s7)
    80009634:	ffc7f793          	and	a5,a5,-4
    80009638:	00f70733          	add	a4,a4,a5
    8000963c:	01470b33          	add	s6,a4,s4
    80009640:	e4cb44e3          	blt	s6,a2,80009488 <_realloc_r+0xcc>
    80009644:	018bb783          	ld	a5,24(s7)
    80009648:	010bb703          	ld	a4,16(s7)
    8000964c:	ff8a0613          	add	a2,s4,-8
    80009650:	04800693          	li	a3,72
    80009654:	00f73c23          	sd	a5,24(a4)
    80009658:	00e7b823          	sd	a4,16(a5)
    8000965c:	010b8913          	add	s2,s7,16
    80009660:	28c6e463          	bltu	a3,a2,800098e8 <_realloc_r+0x52c>
    80009664:	02700713          	li	a4,39
    80009668:	00090793          	mv	a5,s2
    8000966c:	02c77263          	bgeu	a4,a2,80009690 <_realloc_r+0x2d4>
    80009670:	00043703          	ld	a4,0(s0)
    80009674:	03700793          	li	a5,55
    80009678:	00ebb823          	sd	a4,16(s7)
    8000967c:	00843703          	ld	a4,8(s0)
    80009680:	00ebbc23          	sd	a4,24(s7)
    80009684:	26c7ea63          	bltu	a5,a2,800098f8 <_realloc_r+0x53c>
    80009688:	01040413          	add	s0,s0,16
    8000968c:	020b8793          	add	a5,s7,32
    80009690:	00043703          	ld	a4,0(s0)
    80009694:	00e7b023          	sd	a4,0(a5)
    80009698:	00843703          	ld	a4,8(s0)
    8000969c:	00e7b423          	sd	a4,8(a5)
    800096a0:	01043703          	ld	a4,16(s0)
    800096a4:	00e7b823          	sd	a4,16(a5)
    800096a8:	009b8733          	add	a4,s7,s1
    800096ac:	409b07b3          	sub	a5,s6,s1
    800096b0:	00ec3823          	sd	a4,16(s8)
    800096b4:	0017e793          	or	a5,a5,1
    800096b8:	00f73423          	sd	a5,8(a4)
    800096bc:	008bb783          	ld	a5,8(s7)
    800096c0:	00098513          	mv	a0,s3
    800096c4:	0017f793          	and	a5,a5,1
    800096c8:	0097e7b3          	or	a5,a5,s1
    800096cc:	00fbb423          	sd	a5,8(s7)
    800096d0:	e15f80ef          	jal	800024e4 <__malloc_unlock>
    800096d4:	01013b03          	ld	s6,16(sp)
    800096d8:	00813b83          	ld	s7,8(sp)
    800096dc:	00013c03          	ld	s8,0(sp)
    800096e0:	e99ff06f          	j	80009578 <_realloc_r+0x1bc>
    800096e4:	00043683          	ld	a3,0(s0)
    800096e8:	03700713          	li	a4,55
    800096ec:	00d53023          	sd	a3,0(a0)
    800096f0:	00843683          	ld	a3,8(s0)
    800096f4:	00d53423          	sd	a3,8(a0)
    800096f8:	14c76e63          	bltu	a4,a2,80009854 <_realloc_r+0x498>
    800096fc:	01040713          	add	a4,s0,16
    80009700:	01050793          	add	a5,a0,16
    80009704:	dd9ff06f          	j	800094dc <_realloc_r+0x120>
    80009708:	ff853783          	ld	a5,-8(a0)
    8000970c:	00013c03          	ld	s8,0(sp)
    80009710:	ffc7f793          	and	a5,a5,-4
    80009714:	00fa0a33          	add	s4,s4,a5
    80009718:	e29ff06f          	j	80009540 <_realloc_r+0x184>
    8000971c:	018bb783          	ld	a5,24(s7)
    80009720:	010bb703          	ld	a4,16(s7)
    80009724:	ff8a0613          	add	a2,s4,-8
    80009728:	04800693          	li	a3,72
    8000972c:	00f73c23          	sd	a5,24(a4)
    80009730:	00e7b823          	sd	a4,16(a5)
    80009734:	010b8913          	add	s2,s7,16
    80009738:	10c6e663          	bltu	a3,a2,80009844 <_realloc_r+0x488>
    8000973c:	02700713          	li	a4,39
    80009740:	00090793          	mv	a5,s2
    80009744:	02c77c63          	bgeu	a4,a2,8000977c <_realloc_r+0x3c0>
    80009748:	00043703          	ld	a4,0(s0)
    8000974c:	03700793          	li	a5,55
    80009750:	00ebb823          	sd	a4,16(s7)
    80009754:	00843703          	ld	a4,8(s0)
    80009758:	00ebbc23          	sd	a4,24(s7)
    8000975c:	14c7f863          	bgeu	a5,a2,800098ac <_realloc_r+0x4f0>
    80009760:	01043783          	ld	a5,16(s0)
    80009764:	02fbb023          	sd	a5,32(s7)
    80009768:	01843783          	ld	a5,24(s0)
    8000976c:	02fbb423          	sd	a5,40(s7)
    80009770:	0ad60c63          	beq	a2,a3,80009828 <_realloc_r+0x46c>
    80009774:	02040413          	add	s0,s0,32
    80009778:	030b8793          	add	a5,s7,48
    8000977c:	00043703          	ld	a4,0(s0)
    80009780:	00e7b023          	sd	a4,0(a5)
    80009784:	00843703          	ld	a4,8(s0)
    80009788:	00e7b423          	sd	a4,8(a5)
    8000978c:	01043703          	ld	a4,16(s0)
    80009790:	00e7b823          	sd	a4,16(a5)
    80009794:	000b0a13          	mv	s4,s6
    80009798:	000b8a93          	mv	s5,s7
    8000979c:	01013b03          	ld	s6,16(sp)
    800097a0:	00813b83          	ld	s7,8(sp)
    800097a4:	00013c03          	ld	s8,0(sp)
    800097a8:	00090413          	mv	s0,s2
    800097ac:	d95ff06f          	j	80009540 <_realloc_r+0x184>
    800097b0:	00040593          	mv	a1,s0
    800097b4:	b98fc0ef          	jal	80005b4c <memmove>
    800097b8:	d3dff06f          	j	800094f4 <_realloc_r+0x138>
    800097bc:	0186b783          	ld	a5,24(a3)
    800097c0:	0106b703          	ld	a4,16(a3)
    800097c4:	ff8a0613          	add	a2,s4,-8
    800097c8:	04800693          	li	a3,72
    800097cc:	00f73c23          	sd	a5,24(a4)
    800097d0:	00e7b823          	sd	a4,16(a5)
    800097d4:	010bb703          	ld	a4,16(s7)
    800097d8:	018bb783          	ld	a5,24(s7)
    800097dc:	010b8913          	add	s2,s7,16
    800097e0:	00f73c23          	sd	a5,24(a4)
    800097e4:	00e7b823          	sd	a4,16(a5)
    800097e8:	04c6ee63          	bltu	a3,a2,80009844 <_realloc_r+0x488>
    800097ec:	02700713          	li	a4,39
    800097f0:	00090793          	mv	a5,s2
    800097f4:	f8c774e3          	bgeu	a4,a2,8000977c <_realloc_r+0x3c0>
    800097f8:	00043703          	ld	a4,0(s0)
    800097fc:	03700793          	li	a5,55
    80009800:	00ebb823          	sd	a4,16(s7)
    80009804:	00843703          	ld	a4,8(s0)
    80009808:	00ebbc23          	sd	a4,24(s7)
    8000980c:	0ac7f063          	bgeu	a5,a2,800098ac <_realloc_r+0x4f0>
    80009810:	01043703          	ld	a4,16(s0)
    80009814:	04800793          	li	a5,72
    80009818:	02ebb023          	sd	a4,32(s7)
    8000981c:	01843703          	ld	a4,24(s0)
    80009820:	02ebb423          	sd	a4,40(s7)
    80009824:	f4f618e3          	bne	a2,a5,80009774 <_realloc_r+0x3b8>
    80009828:	02043703          	ld	a4,32(s0)
    8000982c:	040b8793          	add	a5,s7,64
    80009830:	03040413          	add	s0,s0,48
    80009834:	02ebb823          	sd	a4,48(s7)
    80009838:	ff843703          	ld	a4,-8(s0)
    8000983c:	02ebbc23          	sd	a4,56(s7)
    80009840:	f3dff06f          	j	8000977c <_realloc_r+0x3c0>
    80009844:	00040593          	mv	a1,s0
    80009848:	00090513          	mv	a0,s2
    8000984c:	b00fc0ef          	jal	80005b4c <memmove>
    80009850:	f45ff06f          	j	80009794 <_realloc_r+0x3d8>
    80009854:	01043703          	ld	a4,16(s0)
    80009858:	00e53823          	sd	a4,16(a0)
    8000985c:	01843703          	ld	a4,24(s0)
    80009860:	00e53c23          	sd	a4,24(a0)
    80009864:	06f60463          	beq	a2,a5,800098cc <_realloc_r+0x510>
    80009868:	02040713          	add	a4,s0,32
    8000986c:	02050793          	add	a5,a0,32
    80009870:	c6dff06f          	j	800094dc <_realloc_r+0x120>
    80009874:	009a8ab3          	add	s5,s5,s1
    80009878:	409687b3          	sub	a5,a3,s1
    8000987c:	015c3823          	sd	s5,16(s8)
    80009880:	0017e793          	or	a5,a5,1
    80009884:	00fab423          	sd	a5,8(s5)
    80009888:	ff843783          	ld	a5,-8(s0)
    8000988c:	00098513          	mv	a0,s3
    80009890:	00040913          	mv	s2,s0
    80009894:	0017f793          	and	a5,a5,1
    80009898:	0097e7b3          	or	a5,a5,s1
    8000989c:	fef43c23          	sd	a5,-8(s0)
    800098a0:	c45f80ef          	jal	800024e4 <__malloc_unlock>
    800098a4:	00013c03          	ld	s8,0(sp)
    800098a8:	cd1ff06f          	j	80009578 <_realloc_r+0x1bc>
    800098ac:	01040413          	add	s0,s0,16
    800098b0:	020b8793          	add	a5,s7,32
    800098b4:	ec9ff06f          	j	8000977c <_realloc_r+0x3c0>
    800098b8:	00098513          	mv	a0,s3
    800098bc:	c29f80ef          	jal	800024e4 <__malloc_unlock>
    800098c0:	00000913          	li	s2,0
    800098c4:	00013c03          	ld	s8,0(sp)
    800098c8:	cb1ff06f          	j	80009578 <_realloc_r+0x1bc>
    800098cc:	02043683          	ld	a3,32(s0)
    800098d0:	03040713          	add	a4,s0,48
    800098d4:	03050793          	add	a5,a0,48
    800098d8:	02d53023          	sd	a3,32(a0)
    800098dc:	02843683          	ld	a3,40(s0)
    800098e0:	02d53423          	sd	a3,40(a0)
    800098e4:	bf9ff06f          	j	800094dc <_realloc_r+0x120>
    800098e8:	00040593          	mv	a1,s0
    800098ec:	00090513          	mv	a0,s2
    800098f0:	a5cfc0ef          	jal	80005b4c <memmove>
    800098f4:	db5ff06f          	j	800096a8 <_realloc_r+0x2ec>
    800098f8:	01043783          	ld	a5,16(s0)
    800098fc:	02fbb023          	sd	a5,32(s7)
    80009900:	01843783          	ld	a5,24(s0)
    80009904:	02fbb423          	sd	a5,40(s7)
    80009908:	00d60863          	beq	a2,a3,80009918 <_realloc_r+0x55c>
    8000990c:	02040413          	add	s0,s0,32
    80009910:	030b8793          	add	a5,s7,48
    80009914:	d7dff06f          	j	80009690 <_realloc_r+0x2d4>
    80009918:	02043703          	ld	a4,32(s0)
    8000991c:	040b8793          	add	a5,s7,64
    80009920:	03040413          	add	s0,s0,48
    80009924:	02ebb823          	sd	a4,48(s7)
    80009928:	ff843703          	ld	a4,-8(s0)
    8000992c:	02ebbc23          	sd	a4,56(s7)
    80009930:	d61ff06f          	j	80009690 <_realloc_r+0x2d4>

0000000080009934 <__smakebuf_r>:
    80009934:	01059783          	lh	a5,16(a1)
    80009938:	f6010113          	add	sp,sp,-160
    8000993c:	08813823          	sd	s0,144(sp)
    80009940:	08113c23          	sd	ra,152(sp)
    80009944:	0027f713          	and	a4,a5,2
    80009948:	00058413          	mv	s0,a1
    8000994c:	02070463          	beqz	a4,80009974 <__smakebuf_r+0x40>
    80009950:	07758793          	add	a5,a1,119
    80009954:	00f5b023          	sd	a5,0(a1)
    80009958:	00f5bc23          	sd	a5,24(a1)
    8000995c:	00100793          	li	a5,1
    80009960:	02f5a023          	sw	a5,32(a1)
    80009964:	09813083          	ld	ra,152(sp)
    80009968:	09013403          	ld	s0,144(sp)
    8000996c:	0a010113          	add	sp,sp,160
    80009970:	00008067          	ret
    80009974:	01259583          	lh	a1,18(a1)
    80009978:	08913423          	sd	s1,136(sp)
    8000997c:	09213023          	sd	s2,128(sp)
    80009980:	07313c23          	sd	s3,120(sp)
    80009984:	07413823          	sd	s4,112(sp)
    80009988:	00050493          	mv	s1,a0
    8000998c:	0805c663          	bltz	a1,80009a18 <__smakebuf_r+0xe4>
    80009990:	00810613          	add	a2,sp,8
    80009994:	314000ef          	jal	80009ca8 <_fstat_r>
    80009998:	06054e63          	bltz	a0,80009a14 <__smakebuf_r+0xe0>
    8000999c:	00c12903          	lw	s2,12(sp)
    800099a0:	0000f7b7          	lui	a5,0xf
    800099a4:	000019b7          	lui	s3,0x1
    800099a8:	00f97933          	and	s2,s2,a5
    800099ac:	000027b7          	lui	a5,0x2
    800099b0:	40f90933          	sub	s2,s2,a5
    800099b4:	00193913          	seqz	s2,s2
    800099b8:	40000a13          	li	s4,1024
    800099bc:	80098993          	add	s3,s3,-2048 # 800 <__stack_shift+0x7e9>
    800099c0:	000a0593          	mv	a1,s4
    800099c4:	00048513          	mv	a0,s1
    800099c8:	af8f80ef          	jal	80001cc0 <_malloc_r>
    800099cc:	01041783          	lh	a5,16(s0)
    800099d0:	06050863          	beqz	a0,80009a40 <__smakebuf_r+0x10c>
    800099d4:	0807e793          	or	a5,a5,128
    800099d8:	00a43023          	sd	a0,0(s0)
    800099dc:	00a43c23          	sd	a0,24(s0)
    800099e0:	00f41823          	sh	a5,16(s0)
    800099e4:	03442023          	sw	s4,32(s0)
    800099e8:	0a091063          	bnez	s2,80009a88 <__smakebuf_r+0x154>
    800099ec:	0137e7b3          	or	a5,a5,s3
    800099f0:	09813083          	ld	ra,152(sp)
    800099f4:	00f41823          	sh	a5,16(s0)
    800099f8:	09013403          	ld	s0,144(sp)
    800099fc:	08813483          	ld	s1,136(sp)
    80009a00:	08013903          	ld	s2,128(sp)
    80009a04:	07813983          	ld	s3,120(sp)
    80009a08:	07013a03          	ld	s4,112(sp)
    80009a0c:	0a010113          	add	sp,sp,160
    80009a10:	00008067          	ret
    80009a14:	01041783          	lh	a5,16(s0)
    80009a18:	0807f793          	and	a5,a5,128
    80009a1c:	00000913          	li	s2,0
    80009a20:	04078e63          	beqz	a5,80009a7c <__smakebuf_r+0x148>
    80009a24:	04000a13          	li	s4,64
    80009a28:	000a0593          	mv	a1,s4
    80009a2c:	00048513          	mv	a0,s1
    80009a30:	a90f80ef          	jal	80001cc0 <_malloc_r>
    80009a34:	01041783          	lh	a5,16(s0)
    80009a38:	00000993          	li	s3,0
    80009a3c:	f8051ce3          	bnez	a0,800099d4 <__smakebuf_r+0xa0>
    80009a40:	2007f713          	and	a4,a5,512
    80009a44:	04071e63          	bnez	a4,80009aa0 <__smakebuf_r+0x16c>
    80009a48:	ffc7f793          	and	a5,a5,-4
    80009a4c:	0027e793          	or	a5,a5,2
    80009a50:	07740713          	add	a4,s0,119
    80009a54:	00f41823          	sh	a5,16(s0)
    80009a58:	00100793          	li	a5,1
    80009a5c:	08813483          	ld	s1,136(sp)
    80009a60:	08013903          	ld	s2,128(sp)
    80009a64:	07813983          	ld	s3,120(sp)
    80009a68:	07013a03          	ld	s4,112(sp)
    80009a6c:	00e43023          	sd	a4,0(s0)
    80009a70:	00e43c23          	sd	a4,24(s0)
    80009a74:	02f42023          	sw	a5,32(s0)
    80009a78:	eedff06f          	j	80009964 <__smakebuf_r+0x30>
    80009a7c:	40000a13          	li	s4,1024
    80009a80:	00000993          	li	s3,0
    80009a84:	f3dff06f          	j	800099c0 <__smakebuf_r+0x8c>
    80009a88:	01241583          	lh	a1,18(s0)
    80009a8c:	00048513          	mv	a0,s1
    80009a90:	270000ef          	jal	80009d00 <_isatty_r>
    80009a94:	02051063          	bnez	a0,80009ab4 <__smakebuf_r+0x180>
    80009a98:	01041783          	lh	a5,16(s0)
    80009a9c:	f51ff06f          	j	800099ec <__smakebuf_r+0xb8>
    80009aa0:	08813483          	ld	s1,136(sp)
    80009aa4:	08013903          	ld	s2,128(sp)
    80009aa8:	07813983          	ld	s3,120(sp)
    80009aac:	07013a03          	ld	s4,112(sp)
    80009ab0:	eb5ff06f          	j	80009964 <__smakebuf_r+0x30>
    80009ab4:	01045783          	lhu	a5,16(s0)
    80009ab8:	ffc7f793          	and	a5,a5,-4
    80009abc:	0017e793          	or	a5,a5,1
    80009ac0:	0107979b          	sllw	a5,a5,0x10
    80009ac4:	4107d79b          	sraw	a5,a5,0x10
    80009ac8:	f25ff06f          	j	800099ec <__smakebuf_r+0xb8>

0000000080009acc <__swhatbuf_r>:
    80009acc:	f7010113          	add	sp,sp,-144
    80009ad0:	08813023          	sd	s0,128(sp)
    80009ad4:	00058413          	mv	s0,a1
    80009ad8:	01259583          	lh	a1,18(a1)
    80009adc:	06913c23          	sd	s1,120(sp)
    80009ae0:	07213823          	sd	s2,112(sp)
    80009ae4:	08113423          	sd	ra,136(sp)
    80009ae8:	00060493          	mv	s1,a2
    80009aec:	00068913          	mv	s2,a3
    80009af0:	0405ca63          	bltz	a1,80009b44 <__swhatbuf_r+0x78>
    80009af4:	00810613          	add	a2,sp,8
    80009af8:	1b0000ef          	jal	80009ca8 <_fstat_r>
    80009afc:	04054463          	bltz	a0,80009b44 <__swhatbuf_r+0x78>
    80009b00:	00c12783          	lw	a5,12(sp)
    80009b04:	0000f737          	lui	a4,0xf
    80009b08:	08813083          	ld	ra,136(sp)
    80009b0c:	00e7f7b3          	and	a5,a5,a4
    80009b10:	00002737          	lui	a4,0x2
    80009b14:	40e787b3          	sub	a5,a5,a4
    80009b18:	08013403          	ld	s0,128(sp)
    80009b1c:	0017b793          	seqz	a5,a5
    80009b20:	00f92023          	sw	a5,0(s2)
    80009b24:	40000713          	li	a4,1024
    80009b28:	00e4b023          	sd	a4,0(s1)
    80009b2c:	00001537          	lui	a0,0x1
    80009b30:	07813483          	ld	s1,120(sp)
    80009b34:	07013903          	ld	s2,112(sp)
    80009b38:	80050513          	add	a0,a0,-2048 # 800 <__stack_shift+0x7e9>
    80009b3c:	09010113          	add	sp,sp,144
    80009b40:	00008067          	ret
    80009b44:	01045783          	lhu	a5,16(s0)
    80009b48:	0807f793          	and	a5,a5,128
    80009b4c:	02078863          	beqz	a5,80009b7c <__swhatbuf_r+0xb0>
    80009b50:	08813083          	ld	ra,136(sp)
    80009b54:	08013403          	ld	s0,128(sp)
    80009b58:	00000793          	li	a5,0
    80009b5c:	00f92023          	sw	a5,0(s2)
    80009b60:	04000713          	li	a4,64
    80009b64:	00e4b023          	sd	a4,0(s1)
    80009b68:	07013903          	ld	s2,112(sp)
    80009b6c:	07813483          	ld	s1,120(sp)
    80009b70:	00000513          	li	a0,0
    80009b74:	09010113          	add	sp,sp,144
    80009b78:	00008067          	ret
    80009b7c:	08813083          	ld	ra,136(sp)
    80009b80:	08013403          	ld	s0,128(sp)
    80009b84:	00f92023          	sw	a5,0(s2)
    80009b88:	40000713          	li	a4,1024
    80009b8c:	00e4b023          	sd	a4,0(s1)
    80009b90:	07013903          	ld	s2,112(sp)
    80009b94:	07813483          	ld	s1,120(sp)
    80009b98:	00000513          	li	a0,0
    80009b9c:	09010113          	add	sp,sp,144
    80009ba0:	00008067          	ret

0000000080009ba4 <_setlocale_r>:
    80009ba4:	04060063          	beqz	a2,80009be4 <_setlocale_r+0x40>
    80009ba8:	ff010113          	add	sp,sp,-16
    80009bac:	00005597          	auipc	a1,0x5
    80009bb0:	e3c58593          	add	a1,a1,-452 # 8000e9e8 <__tbss_end+0x930>
    80009bb4:	00060513          	mv	a0,a2
    80009bb8:	00813023          	sd	s0,0(sp)
    80009bbc:	00113423          	sd	ra,8(sp)
    80009bc0:	00060413          	mv	s0,a2
    80009bc4:	18c000ef          	jal	80009d50 <strcmp>
    80009bc8:	02051463          	bnez	a0,80009bf0 <_setlocale_r+0x4c>
    80009bcc:	00005517          	auipc	a0,0x5
    80009bd0:	e1450513          	add	a0,a0,-492 # 8000e9e0 <__tbss_end+0x928>
    80009bd4:	00813083          	ld	ra,8(sp)
    80009bd8:	00013403          	ld	s0,0(sp)
    80009bdc:	01010113          	add	sp,sp,16
    80009be0:	00008067          	ret
    80009be4:	00005517          	auipc	a0,0x5
    80009be8:	dfc50513          	add	a0,a0,-516 # 8000e9e0 <__tbss_end+0x928>
    80009bec:	00008067          	ret
    80009bf0:	00005597          	auipc	a1,0x5
    80009bf4:	df058593          	add	a1,a1,-528 # 8000e9e0 <__tbss_end+0x928>
    80009bf8:	00040513          	mv	a0,s0
    80009bfc:	154000ef          	jal	80009d50 <strcmp>
    80009c00:	fc0506e3          	beqz	a0,80009bcc <_setlocale_r+0x28>
    80009c04:	00005597          	auipc	a1,0x5
    80009c08:	cdc58593          	add	a1,a1,-804 # 8000e8e0 <__tbss_end+0x828>
    80009c0c:	00040513          	mv	a0,s0
    80009c10:	140000ef          	jal	80009d50 <strcmp>
    80009c14:	fa050ce3          	beqz	a0,80009bcc <_setlocale_r+0x28>
    80009c18:	00000513          	li	a0,0
    80009c1c:	fb9ff06f          	j	80009bd4 <_setlocale_r+0x30>

0000000080009c20 <__locale_mb_cur_max>:
    80009c20:	00006517          	auipc	a0,0x6
    80009c24:	45054503          	lbu	a0,1104(a0) # 80010070 <__global_locale+0x160>
    80009c28:	00008067          	ret

0000000080009c2c <setlocale>:
    80009c2c:	04058063          	beqz	a1,80009c6c <setlocale+0x40>
    80009c30:	ff010113          	add	sp,sp,-16
    80009c34:	00813023          	sd	s0,0(sp)
    80009c38:	00058413          	mv	s0,a1
    80009c3c:	00040513          	mv	a0,s0
    80009c40:	00005597          	auipc	a1,0x5
    80009c44:	da858593          	add	a1,a1,-600 # 8000e9e8 <__tbss_end+0x930>
    80009c48:	00113423          	sd	ra,8(sp)
    80009c4c:	104000ef          	jal	80009d50 <strcmp>
    80009c50:	02051463          	bnez	a0,80009c78 <setlocale+0x4c>
    80009c54:	00005517          	auipc	a0,0x5
    80009c58:	d8c50513          	add	a0,a0,-628 # 8000e9e0 <__tbss_end+0x928>
    80009c5c:	00813083          	ld	ra,8(sp)
    80009c60:	00013403          	ld	s0,0(sp)
    80009c64:	01010113          	add	sp,sp,16
    80009c68:	00008067          	ret
    80009c6c:	00005517          	auipc	a0,0x5
    80009c70:	d7450513          	add	a0,a0,-652 # 8000e9e0 <__tbss_end+0x928>
    80009c74:	00008067          	ret
    80009c78:	00005597          	auipc	a1,0x5
    80009c7c:	d6858593          	add	a1,a1,-664 # 8000e9e0 <__tbss_end+0x928>
    80009c80:	00040513          	mv	a0,s0
    80009c84:	0cc000ef          	jal	80009d50 <strcmp>
    80009c88:	fc0506e3          	beqz	a0,80009c54 <setlocale+0x28>
    80009c8c:	00005597          	auipc	a1,0x5
    80009c90:	c5458593          	add	a1,a1,-940 # 8000e8e0 <__tbss_end+0x828>
    80009c94:	00040513          	mv	a0,s0
    80009c98:	0b8000ef          	jal	80009d50 <strcmp>
    80009c9c:	fa050ce3          	beqz	a0,80009c54 <setlocale+0x28>
    80009ca0:	00000513          	li	a0,0
    80009ca4:	fb9ff06f          	j	80009c5c <setlocale+0x30>

0000000080009ca8 <_fstat_r>:
    80009ca8:	ff010113          	add	sp,sp,-16
    80009cac:	00058713          	mv	a4,a1
    80009cb0:	00813023          	sd	s0,0(sp)
    80009cb4:	00060593          	mv	a1,a2
    80009cb8:	00050413          	mv	s0,a0
    80009cbc:	00070513          	mv	a0,a4
    80009cc0:	8a01a023          	sw	zero,-1888(gp) # 80010158 <errno>
    80009cc4:	00113423          	sd	ra,8(sp)
    80009cc8:	461010ef          	jal	8000b928 <_fstat>
    80009ccc:	fff00793          	li	a5,-1
    80009cd0:	00f50a63          	beq	a0,a5,80009ce4 <_fstat_r+0x3c>
    80009cd4:	00813083          	ld	ra,8(sp)
    80009cd8:	00013403          	ld	s0,0(sp)
    80009cdc:	01010113          	add	sp,sp,16
    80009ce0:	00008067          	ret
    80009ce4:	8a01a783          	lw	a5,-1888(gp) # 80010158 <errno>
    80009ce8:	fe0786e3          	beqz	a5,80009cd4 <_fstat_r+0x2c>
    80009cec:	00813083          	ld	ra,8(sp)
    80009cf0:	00f42023          	sw	a5,0(s0)
    80009cf4:	00013403          	ld	s0,0(sp)
    80009cf8:	01010113          	add	sp,sp,16
    80009cfc:	00008067          	ret

0000000080009d00 <_isatty_r>:
    80009d00:	ff010113          	add	sp,sp,-16
    80009d04:	00813023          	sd	s0,0(sp)
    80009d08:	00050413          	mv	s0,a0
    80009d0c:	00058513          	mv	a0,a1
    80009d10:	8a01a023          	sw	zero,-1888(gp) # 80010158 <errno>
    80009d14:	00113423          	sd	ra,8(sp)
    80009d18:	43d010ef          	jal	8000b954 <_isatty>
    80009d1c:	fff00793          	li	a5,-1
    80009d20:	00f50a63          	beq	a0,a5,80009d34 <_isatty_r+0x34>
    80009d24:	00813083          	ld	ra,8(sp)
    80009d28:	00013403          	ld	s0,0(sp)
    80009d2c:	01010113          	add	sp,sp,16
    80009d30:	00008067          	ret
    80009d34:	8a01a783          	lw	a5,-1888(gp) # 80010158 <errno>
    80009d38:	fe0786e3          	beqz	a5,80009d24 <_isatty_r+0x24>
    80009d3c:	00813083          	ld	ra,8(sp)
    80009d40:	00f42023          	sw	a5,0(s0)
    80009d44:	00013403          	ld	s0,0(sp)
    80009d48:	01010113          	add	sp,sp,16
    80009d4c:	00008067          	ret

0000000080009d50 <strcmp>:
    80009d50:	00b56733          	or	a4,a0,a1
    80009d54:	fff00393          	li	t2,-1
    80009d58:	00777713          	and	a4,a4,7
    80009d5c:	0c071c63          	bnez	a4,80009e34 <strcmp+0xe4>
    80009d60:	00006797          	auipc	a5,0x6
    80009d64:	3e07b783          	ld	a5,992(a5) # 80010140 <mask>
    80009d68:	00053603          	ld	a2,0(a0)
    80009d6c:	0005b683          	ld	a3,0(a1)
    80009d70:	00f672b3          	and	t0,a2,a5
    80009d74:	00f66333          	or	t1,a2,a5
    80009d78:	00f282b3          	add	t0,t0,a5
    80009d7c:	0062e2b3          	or	t0,t0,t1
    80009d80:	0c729e63          	bne	t0,t2,80009e5c <strcmp+0x10c>
    80009d84:	04d61663          	bne	a2,a3,80009dd0 <strcmp+0x80>
    80009d88:	00853603          	ld	a2,8(a0)
    80009d8c:	0085b683          	ld	a3,8(a1)
    80009d90:	00f672b3          	and	t0,a2,a5
    80009d94:	00f66333          	or	t1,a2,a5
    80009d98:	00f282b3          	add	t0,t0,a5
    80009d9c:	0062e2b3          	or	t0,t0,t1
    80009da0:	0a729a63          	bne	t0,t2,80009e54 <strcmp+0x104>
    80009da4:	02d61663          	bne	a2,a3,80009dd0 <strcmp+0x80>
    80009da8:	01053603          	ld	a2,16(a0)
    80009dac:	0105b683          	ld	a3,16(a1)
    80009db0:	00f672b3          	and	t0,a2,a5
    80009db4:	00f66333          	or	t1,a2,a5
    80009db8:	00f282b3          	add	t0,t0,a5
    80009dbc:	0062e2b3          	or	t0,t0,t1
    80009dc0:	0a729463          	bne	t0,t2,80009e68 <strcmp+0x118>
    80009dc4:	01850513          	add	a0,a0,24
    80009dc8:	01858593          	add	a1,a1,24
    80009dcc:	f8d60ee3          	beq	a2,a3,80009d68 <strcmp+0x18>
    80009dd0:	03061713          	sll	a4,a2,0x30
    80009dd4:	03069793          	sll	a5,a3,0x30
    80009dd8:	02f71a63          	bne	a4,a5,80009e0c <strcmp+0xbc>
    80009ddc:	02061713          	sll	a4,a2,0x20
    80009de0:	02069793          	sll	a5,a3,0x20
    80009de4:	02f71463          	bne	a4,a5,80009e0c <strcmp+0xbc>
    80009de8:	01061713          	sll	a4,a2,0x10
    80009dec:	01069793          	sll	a5,a3,0x10
    80009df0:	00f71e63          	bne	a4,a5,80009e0c <strcmp+0xbc>
    80009df4:	03065713          	srl	a4,a2,0x30
    80009df8:	0306d793          	srl	a5,a3,0x30
    80009dfc:	40f70533          	sub	a0,a4,a5
    80009e00:	0ff57593          	zext.b	a1,a0
    80009e04:	02059063          	bnez	a1,80009e24 <strcmp+0xd4>
    80009e08:	00008067          	ret
    80009e0c:	03075713          	srl	a4,a4,0x30
    80009e10:	0307d793          	srl	a5,a5,0x30
    80009e14:	40f70533          	sub	a0,a4,a5
    80009e18:	0ff57593          	zext.b	a1,a0
    80009e1c:	00059463          	bnez	a1,80009e24 <strcmp+0xd4>
    80009e20:	00008067          	ret
    80009e24:	0ff77713          	zext.b	a4,a4
    80009e28:	0ff7f793          	zext.b	a5,a5
    80009e2c:	40f70533          	sub	a0,a4,a5
    80009e30:	00008067          	ret
    80009e34:	00054603          	lbu	a2,0(a0)
    80009e38:	0005c683          	lbu	a3,0(a1)
    80009e3c:	00150513          	add	a0,a0,1
    80009e40:	00158593          	add	a1,a1,1
    80009e44:	00d61463          	bne	a2,a3,80009e4c <strcmp+0xfc>
    80009e48:	fe0616e3          	bnez	a2,80009e34 <strcmp+0xe4>
    80009e4c:	40d60533          	sub	a0,a2,a3
    80009e50:	00008067          	ret
    80009e54:	00850513          	add	a0,a0,8
    80009e58:	00858593          	add	a1,a1,8
    80009e5c:	fcd61ce3          	bne	a2,a3,80009e34 <strcmp+0xe4>
    80009e60:	00000513          	li	a0,0
    80009e64:	00008067          	ret
    80009e68:	01050513          	add	a0,a0,16
    80009e6c:	01058593          	add	a1,a1,16
    80009e70:	fcd612e3          	bne	a2,a3,80009e34 <strcmp+0xe4>
    80009e74:	00000513          	li	a0,0
    80009e78:	00008067          	ret

0000000080009e7c <__assert_func>:
    80009e7c:	ff010113          	add	sp,sp,-16
    80009e80:	00068793          	mv	a5,a3
    80009e84:	00006717          	auipc	a4,0x6
    80009e88:	23473703          	ld	a4,564(a4) # 800100b8 <_impure_ptr>
    80009e8c:	00060813          	mv	a6,a2
    80009e90:	00113423          	sd	ra,8(sp)
    80009e94:	01873883          	ld	a7,24(a4)
    80009e98:	00078613          	mv	a2,a5
    80009e9c:	00050693          	mv	a3,a0
    80009ea0:	00058713          	mv	a4,a1
    80009ea4:	00005797          	auipc	a5,0x5
    80009ea8:	b5478793          	add	a5,a5,-1196 # 8000e9f8 <__tbss_end+0x940>
    80009eac:	00080c63          	beqz	a6,80009ec4 <__assert_func+0x48>
    80009eb0:	00005597          	auipc	a1,0x5
    80009eb4:	b5858593          	add	a1,a1,-1192 # 8000ea08 <__tbss_end+0x950>
    80009eb8:	00088513          	mv	a0,a7
    80009ebc:	200000ef          	jal	8000a0bc <fiprintf>
    80009ec0:	450010ef          	jal	8000b310 <abort>
    80009ec4:	00005797          	auipc	a5,0x5
    80009ec8:	a1c78793          	add	a5,a5,-1508 # 8000e8e0 <__tbss_end+0x828>
    80009ecc:	00078813          	mv	a6,a5
    80009ed0:	fe1ff06f          	j	80009eb0 <__assert_func+0x34>

0000000080009ed4 <__assert>:
    80009ed4:	ff010113          	add	sp,sp,-16
    80009ed8:	00060693          	mv	a3,a2
    80009edc:	00000613          	li	a2,0
    80009ee0:	00113423          	sd	ra,8(sp)
    80009ee4:	f99ff0ef          	jal	80009e7c <__assert_func>

0000000080009ee8 <_calloc_r>:
    80009ee8:	02c5b7b3          	mulhu	a5,a1,a2
    80009eec:	ff010113          	add	sp,sp,-16
    80009ef0:	00113423          	sd	ra,8(sp)
    80009ef4:	00813023          	sd	s0,0(sp)
    80009ef8:	02c585b3          	mul	a1,a1,a2
    80009efc:	0a079063          	bnez	a5,80009f9c <_calloc_r+0xb4>
    80009f00:	dc1f70ef          	jal	80001cc0 <_malloc_r>
    80009f04:	00050413          	mv	s0,a0
    80009f08:	0a050063          	beqz	a0,80009fa8 <_calloc_r+0xc0>
    80009f0c:	ff853603          	ld	a2,-8(a0)
    80009f10:	04800713          	li	a4,72
    80009f14:	ffc67613          	and	a2,a2,-4
    80009f18:	ff860613          	add	a2,a2,-8
    80009f1c:	04c76863          	bltu	a4,a2,80009f6c <_calloc_r+0x84>
    80009f20:	02700693          	li	a3,39
    80009f24:	00050793          	mv	a5,a0
    80009f28:	02c6f263          	bgeu	a3,a2,80009f4c <_calloc_r+0x64>
    80009f2c:	00053023          	sd	zero,0(a0)
    80009f30:	00053423          	sd	zero,8(a0)
    80009f34:	03700793          	li	a5,55
    80009f38:	04c7f863          	bgeu	a5,a2,80009f88 <_calloc_r+0xa0>
    80009f3c:	00053823          	sd	zero,16(a0)
    80009f40:	00053c23          	sd	zero,24(a0)
    80009f44:	02050793          	add	a5,a0,32
    80009f48:	06e60c63          	beq	a2,a4,80009fc0 <_calloc_r+0xd8>
    80009f4c:	0007b023          	sd	zero,0(a5)
    80009f50:	0007b423          	sd	zero,8(a5)
    80009f54:	0007b823          	sd	zero,16(a5)
    80009f58:	00813083          	ld	ra,8(sp)
    80009f5c:	00040513          	mv	a0,s0
    80009f60:	00013403          	ld	s0,0(sp)
    80009f64:	01010113          	add	sp,sp,16
    80009f68:	00008067          	ret
    80009f6c:	00000593          	li	a1,0
    80009f70:	de4f70ef          	jal	80001554 <memset>
    80009f74:	00813083          	ld	ra,8(sp)
    80009f78:	00040513          	mv	a0,s0
    80009f7c:	00013403          	ld	s0,0(sp)
    80009f80:	01010113          	add	sp,sp,16
    80009f84:	00008067          	ret
    80009f88:	01050793          	add	a5,a0,16
    80009f8c:	0007b023          	sd	zero,0(a5)
    80009f90:	0007b423          	sd	zero,8(a5)
    80009f94:	0007b823          	sd	zero,16(a5)
    80009f98:	fc1ff06f          	j	80009f58 <_calloc_r+0x70>
    80009f9c:	368010ef          	jal	8000b304 <__errno>
    80009fa0:	00c00793          	li	a5,12
    80009fa4:	00f52023          	sw	a5,0(a0)
    80009fa8:	00000413          	li	s0,0
    80009fac:	00813083          	ld	ra,8(sp)
    80009fb0:	00040513          	mv	a0,s0
    80009fb4:	00013403          	ld	s0,0(sp)
    80009fb8:	01010113          	add	sp,sp,16
    80009fbc:	00008067          	ret
    80009fc0:	02053023          	sd	zero,32(a0)
    80009fc4:	03050793          	add	a5,a0,48
    80009fc8:	02053423          	sd	zero,40(a0)
    80009fcc:	f81ff06f          	j	80009f4c <_calloc_r+0x64>

0000000080009fd0 <_mbtowc_r>:
    80009fd0:	00006797          	auipc	a5,0x6
    80009fd4:	0287b783          	ld	a5,40(a5) # 8000fff8 <__global_locale+0xe8>
    80009fd8:	00078067          	jr	a5

0000000080009fdc <__ascii_mbtowc>:
    80009fdc:	02058063          	beqz	a1,80009ffc <__ascii_mbtowc+0x20>
    80009fe0:	04060263          	beqz	a2,8000a024 <__ascii_mbtowc+0x48>
    80009fe4:	04068863          	beqz	a3,8000a034 <__ascii_mbtowc+0x58>
    80009fe8:	00064783          	lbu	a5,0(a2)
    80009fec:	00f5a023          	sw	a5,0(a1)
    80009ff0:	00064503          	lbu	a0,0(a2)
    80009ff4:	00a03533          	snez	a0,a0
    80009ff8:	00008067          	ret
    80009ffc:	ff010113          	add	sp,sp,-16
    8000a000:	00c10593          	add	a1,sp,12
    8000a004:	02060463          	beqz	a2,8000a02c <__ascii_mbtowc+0x50>
    8000a008:	02068a63          	beqz	a3,8000a03c <__ascii_mbtowc+0x60>
    8000a00c:	00064783          	lbu	a5,0(a2)
    8000a010:	00f5a023          	sw	a5,0(a1)
    8000a014:	00064503          	lbu	a0,0(a2)
    8000a018:	00a03533          	snez	a0,a0
    8000a01c:	01010113          	add	sp,sp,16
    8000a020:	00008067          	ret
    8000a024:	00000513          	li	a0,0
    8000a028:	00008067          	ret
    8000a02c:	00000513          	li	a0,0
    8000a030:	fedff06f          	j	8000a01c <__ascii_mbtowc+0x40>
    8000a034:	ffe00513          	li	a0,-2
    8000a038:	00008067          	ret
    8000a03c:	ffe00513          	li	a0,-2
    8000a040:	fddff06f          	j	8000a01c <__ascii_mbtowc+0x40>

000000008000a044 <_wctomb_r>:
    8000a044:	00006797          	auipc	a5,0x6
    8000a048:	fac7b783          	ld	a5,-84(a5) # 8000fff0 <__global_locale+0xe0>
    8000a04c:	00078067          	jr	a5

000000008000a050 <__ascii_wctomb>:
    8000a050:	0006079b          	sext.w	a5,a2
    8000a054:	02058463          	beqz	a1,8000a07c <__ascii_wctomb+0x2c>
    8000a058:	0ff00713          	li	a4,255
    8000a05c:	00f76863          	bltu	a4,a5,8000a06c <__ascii_wctomb+0x1c>
    8000a060:	00c58023          	sb	a2,0(a1)
    8000a064:	00100513          	li	a0,1
    8000a068:	00008067          	ret
    8000a06c:	08a00793          	li	a5,138
    8000a070:	00f52023          	sw	a5,0(a0)
    8000a074:	fff00513          	li	a0,-1
    8000a078:	00008067          	ret
    8000a07c:	00000513          	li	a0,0
    8000a080:	00008067          	ret

000000008000a084 <_fiprintf_r>:
    8000a084:	fb010113          	add	sp,sp,-80
    8000a088:	02810313          	add	t1,sp,40
    8000a08c:	02d13423          	sd	a3,40(sp)
    8000a090:	00030693          	mv	a3,t1
    8000a094:	00113c23          	sd	ra,24(sp)
    8000a098:	02e13823          	sd	a4,48(sp)
    8000a09c:	02f13c23          	sd	a5,56(sp)
    8000a0a0:	05013023          	sd	a6,64(sp)
    8000a0a4:	05113423          	sd	a7,72(sp)
    8000a0a8:	00613423          	sd	t1,8(sp)
    8000a0ac:	05c000ef          	jal	8000a108 <_vfiprintf_r>
    8000a0b0:	01813083          	ld	ra,24(sp)
    8000a0b4:	05010113          	add	sp,sp,80
    8000a0b8:	00008067          	ret

000000008000a0bc <fiprintf>:
    8000a0bc:	fb010113          	add	sp,sp,-80
    8000a0c0:	02010313          	add	t1,sp,32
    8000a0c4:	02c13023          	sd	a2,32(sp)
    8000a0c8:	02d13423          	sd	a3,40(sp)
    8000a0cc:	00058613          	mv	a2,a1
    8000a0d0:	00030693          	mv	a3,t1
    8000a0d4:	00050593          	mv	a1,a0
    8000a0d8:	00006517          	auipc	a0,0x6
    8000a0dc:	fe053503          	ld	a0,-32(a0) # 800100b8 <_impure_ptr>
    8000a0e0:	00113c23          	sd	ra,24(sp)
    8000a0e4:	02e13823          	sd	a4,48(sp)
    8000a0e8:	02f13c23          	sd	a5,56(sp)
    8000a0ec:	05013023          	sd	a6,64(sp)
    8000a0f0:	05113423          	sd	a7,72(sp)
    8000a0f4:	00613423          	sd	t1,8(sp)
    8000a0f8:	010000ef          	jal	8000a108 <_vfiprintf_r>
    8000a0fc:	01813083          	ld	ra,24(sp)
    8000a100:	05010113          	add	sp,sp,80
    8000a104:	00008067          	ret

000000008000a108 <_vfiprintf_r>:
    8000a108:	e2010113          	add	sp,sp,-480
    8000a10c:	1b313c23          	sd	s3,440(sp)
    8000a110:	1b413823          	sd	s4,432(sp)
    8000a114:	19713c23          	sd	s7,408(sp)
    8000a118:	17b13c23          	sd	s11,376(sp)
    8000a11c:	1c113c23          	sd	ra,472(sp)
    8000a120:	19913423          	sd	s9,392(sp)
    8000a124:	00050a13          	mv	s4,a0
    8000a128:	00058993          	mv	s3,a1
    8000a12c:	00060d93          	mv	s11,a2
    8000a130:	00068b93          	mv	s7,a3
    8000a134:	00050663          	beqz	a0,8000a140 <_vfiprintf_r+0x38>
    8000a138:	04853783          	ld	a5,72(a0)
    8000a13c:	74078ce3          	beqz	a5,8000b094 <_vfiprintf_r+0xf8c>
    8000a140:	01099683          	lh	a3,16(s3)
    8000a144:	0ac9a783          	lw	a5,172(s3)
    8000a148:	03269613          	sll	a2,a3,0x32
    8000a14c:	02064063          	bltz	a2,8000a16c <_vfiprintf_r+0x64>
    8000a150:	ffffe637          	lui	a2,0xffffe
    8000a154:	fff60613          	add	a2,a2,-1 # ffffffffffffdfff <__heap_end+0xffffffff7f7ebfff>
    8000a158:	000025b7          	lui	a1,0x2
    8000a15c:	00b6e6b3          	or	a3,a3,a1
    8000a160:	00c7f7b3          	and	a5,a5,a2
    8000a164:	00d99823          	sh	a3,16(s3)
    8000a168:	0af9a623          	sw	a5,172(s3)
    8000a16c:	03279693          	sll	a3,a5,0x32
    8000a170:	0006d463          	bgez	a3,8000a178 <_vfiprintf_r+0x70>
    8000a174:	0780106f          	j	8000b1ec <_vfiprintf_r+0x10e4>
    8000a178:	01099783          	lh	a5,16(s3)
    8000a17c:	0087f693          	and	a3,a5,8
    8000a180:	30068063          	beqz	a3,8000a480 <_vfiprintf_r+0x378>
    8000a184:	0189b683          	ld	a3,24(s3)
    8000a188:	2e068c63          	beqz	a3,8000a480 <_vfiprintf_r+0x378>
    8000a18c:	01a7f793          	and	a5,a5,26
    8000a190:	00a00693          	li	a3,10
    8000a194:	30d78663          	beq	a5,a3,8000a4a0 <_vfiprintf_r+0x398>
    8000a198:	00000c93          	li	s9,0
    8000a19c:	000d8793          	mv	a5,s11
    8000a1a0:	1b513423          	sd	s5,424(sp)
    8000a1a4:	0f010a93          	add	s5,sp,240
    8000a1a8:	1c813823          	sd	s0,464(sp)
    8000a1ac:	1d213023          	sd	s2,448(sp)
    8000a1b0:	1b613023          	sd	s6,416(sp)
    8000a1b4:	19813823          	sd	s8,400(sp)
    8000a1b8:	000c8d93          	mv	s11,s9
    8000a1bc:	1c913423          	sd	s1,456(sp)
    8000a1c0:	19a13023          	sd	s10,384(sp)
    8000a1c4:	07513823          	sd	s5,112(sp)
    8000a1c8:	08013023          	sd	zero,128(sp)
    8000a1cc:	06012c23          	sw	zero,120(sp)
    8000a1d0:	000a8413          	mv	s0,s5
    8000a1d4:	00013423          	sd	zero,8(sp)
    8000a1d8:	02013c23          	sd	zero,56(sp)
    8000a1dc:	02013823          	sd	zero,48(sp)
    8000a1e0:	04013023          	sd	zero,64(sp)
    8000a1e4:	00005c17          	auipc	s8,0x5
    8000a1e8:	070c0c13          	add	s8,s8,112 # 8000f254 <_ctype_+0x104>
    8000a1ec:	01000913          	li	s2,16
    8000a1f0:	00005b17          	auipc	s6,0x5
    8000a1f4:	1d0b0b13          	add	s6,s6,464 # 8000f3c0 <zeroes.0>
    8000a1f8:	000b8e93          	mv	t4,s7
    8000a1fc:	00078c93          	mv	s9,a5
    8000a200:	000cc783          	lbu	a5,0(s9)
    8000a204:	1e078463          	beqz	a5,8000a3ec <_vfiprintf_r+0x2e4>
    8000a208:	000c8493          	mv	s1,s9
    8000a20c:	02500713          	li	a4,37
    8000a210:	2ce78463          	beq	a5,a4,8000a4d8 <_vfiprintf_r+0x3d0>
    8000a214:	0014c783          	lbu	a5,1(s1)
    8000a218:	00148493          	add	s1,s1,1
    8000a21c:	fe079ae3          	bnez	a5,8000a210 <_vfiprintf_r+0x108>
    8000a220:	41948bbb          	subw	s7,s1,s9
    8000a224:	1c0b8463          	beqz	s7,8000a3ec <_vfiprintf_r+0x2e4>
    8000a228:	07812783          	lw	a5,120(sp)
    8000a22c:	08013703          	ld	a4,128(sp)
    8000a230:	01943023          	sd	s9,0(s0)
    8000a234:	0017879b          	addw	a5,a5,1
    8000a238:	01770733          	add	a4,a4,s7
    8000a23c:	01743423          	sd	s7,8(s0)
    8000a240:	08e13023          	sd	a4,128(sp)
    8000a244:	06f12c23          	sw	a5,120(sp)
    8000a248:	0007871b          	sext.w	a4,a5
    8000a24c:	00700793          	li	a5,7
    8000a250:	01040413          	add	s0,s0,16
    8000a254:	28e7ca63          	blt	a5,a4,8000a4e8 <_vfiprintf_r+0x3e0>
    8000a258:	0004c783          	lbu	a5,0(s1)
    8000a25c:	01bb8dbb          	addw	s11,s7,s11
    8000a260:	18078663          	beqz	a5,8000a3ec <_vfiprintf_r+0x2e4>
    8000a264:	0014c783          	lbu	a5,1(s1)
    8000a268:	00148c93          	add	s9,s1,1
    8000a26c:	060103a3          	sb	zero,103(sp)
    8000a270:	fff00493          	li	s1,-1
    8000a274:	00000713          	li	a4,0
    8000a278:	00000b93          	li	s7,0
    8000a27c:	05a00d13          	li	s10,90
    8000a280:	001c8c93          	add	s9,s9,1
    8000a284:	0007879b          	sext.w	a5,a5
    8000a288:	fe07869b          	addw	a3,a5,-32
    8000a28c:	0006861b          	sext.w	a2,a3
    8000a290:	04cd6c63          	bltu	s10,a2,8000a2e8 <_vfiprintf_r+0x1e0>
    8000a294:	02069613          	sll	a2,a3,0x20
    8000a298:	01e65693          	srl	a3,a2,0x1e
    8000a29c:	018686b3          	add	a3,a3,s8
    8000a2a0:	0006a683          	lw	a3,0(a3)
    8000a2a4:	018686b3          	add	a3,a3,s8
    8000a2a8:	00068067          	jr	a3
    8000a2ac:	00000713          	li	a4,0
    8000a2b0:	00900593          	li	a1,9
    8000a2b4:	000cc603          	lbu	a2,0(s9)
    8000a2b8:	0027169b          	sllw	a3,a4,0x2
    8000a2bc:	00e6873b          	addw	a4,a3,a4
    8000a2c0:	fd07879b          	addw	a5,a5,-48
    8000a2c4:	0017171b          	sllw	a4,a4,0x1
    8000a2c8:	fd06069b          	addw	a3,a2,-48
    8000a2cc:	00e7873b          	addw	a4,a5,a4
    8000a2d0:	001c8c93          	add	s9,s9,1
    8000a2d4:	0006079b          	sext.w	a5,a2
    8000a2d8:	fcd5fee3          	bgeu	a1,a3,8000a2b4 <_vfiprintf_r+0x1ac>
    8000a2dc:	fe07869b          	addw	a3,a5,-32
    8000a2e0:	0006861b          	sext.w	a2,a3
    8000a2e4:	facd78e3          	bgeu	s10,a2,8000a294 <_vfiprintf_r+0x18c>
    8000a2e8:	10078263          	beqz	a5,8000a3ec <_vfiprintf_r+0x2e4>
    8000a2ec:	08f10423          	sb	a5,136(sp)
    8000a2f0:	060103a3          	sb	zero,103(sp)
    8000a2f4:	00100813          	li	a6,1
    8000a2f8:	00100893          	li	a7,1
    8000a2fc:	08810d13          	add	s10,sp,136
    8000a300:	00000493          	li	s1,0
    8000a304:	00000f13          	li	t5,0
    8000a308:	084bff93          	and	t6,s7,132
    8000a30c:	08013783          	ld	a5,128(sp)
    8000a310:	07812603          	lw	a2,120(sp)
    8000a314:	000f9663          	bnez	t6,8000a320 <_vfiprintf_r+0x218>
    8000a318:	410706bb          	subw	a3,a4,a6
    8000a31c:	14d044e3          	bgtz	a3,8000ac64 <_vfiprintf_r+0xb5c>
    8000a320:	06714683          	lbu	a3,103(sp)
    8000a324:	02068863          	beqz	a3,8000a354 <_vfiprintf_r+0x24c>
    8000a328:	06710593          	add	a1,sp,103
    8000a32c:	00b43023          	sd	a1,0(s0)
    8000a330:	0016061b          	addw	a2,a2,1
    8000a334:	00178793          	add	a5,a5,1
    8000a338:	00100593          	li	a1,1
    8000a33c:	00b43423          	sd	a1,8(s0)
    8000a340:	08f13023          	sd	a5,128(sp)
    8000a344:	06c12c23          	sw	a2,120(sp)
    8000a348:	00700693          	li	a3,7
    8000a34c:	01040413          	add	s0,s0,16
    8000a350:	22c6c463          	blt	a3,a2,8000a578 <_vfiprintf_r+0x470>
    8000a354:	020f0863          	beqz	t5,8000a384 <_vfiprintf_r+0x27c>
    8000a358:	06810593          	add	a1,sp,104
    8000a35c:	00b43023          	sd	a1,0(s0)
    8000a360:	0016061b          	addw	a2,a2,1
    8000a364:	00278793          	add	a5,a5,2
    8000a368:	00200593          	li	a1,2
    8000a36c:	00b43423          	sd	a1,8(s0)
    8000a370:	08f13023          	sd	a5,128(sp)
    8000a374:	06c12c23          	sw	a2,120(sp)
    8000a378:	00700693          	li	a3,7
    8000a37c:	01040413          	add	s0,s0,16
    8000a380:	22c6c0e3          	blt	a3,a2,8000ada0 <_vfiprintf_r+0xc98>
    8000a384:	08000693          	li	a3,128
    8000a388:	62df8663          	beq	t6,a3,8000a9b4 <_vfiprintf_r+0x8ac>
    8000a38c:	411484bb          	subw	s1,s1,a7
    8000a390:	74904663          	bgtz	s1,8000aadc <_vfiprintf_r+0x9d4>
    8000a394:	0016059b          	addw	a1,a2,1
    8000a398:	00f887b3          	add	a5,a7,a5
    8000a39c:	01a43023          	sd	s10,0(s0)
    8000a3a0:	01143423          	sd	a7,8(s0)
    8000a3a4:	08f13023          	sd	a5,128(sp)
    8000a3a8:	06b12c23          	sw	a1,120(sp)
    8000a3ac:	00700693          	li	a3,7
    8000a3b0:	01040413          	add	s0,s0,16
    8000a3b4:	02b6c8e3          	blt	a3,a1,8000abe4 <_vfiprintf_r+0xadc>
    8000a3b8:	004bfb93          	and	s7,s7,4
    8000a3bc:	000b8663          	beqz	s7,8000a3c8 <_vfiprintf_r+0x2c0>
    8000a3c0:	410704bb          	subw	s1,a4,a6
    8000a3c4:	229044e3          	bgtz	s1,8000adec <_vfiprintf_r+0xce4>
    8000a3c8:	00070693          	mv	a3,a4
    8000a3cc:	01075463          	bge	a4,a6,8000a3d4 <_vfiprintf_r+0x2cc>
    8000a3d0:	00080693          	mv	a3,a6
    8000a3d4:	01b68dbb          	addw	s11,a3,s11
    8000a3d8:	12079a63          	bnez	a5,8000a50c <_vfiprintf_r+0x404>
    8000a3dc:	000cc783          	lbu	a5,0(s9)
    8000a3e0:	06012c23          	sw	zero,120(sp)
    8000a3e4:	000a8413          	mv	s0,s5
    8000a3e8:	e20790e3          	bnez	a5,8000a208 <_vfiprintf_r+0x100>
    8000a3ec:	08013783          	ld	a5,128(sp)
    8000a3f0:	000d8c93          	mv	s9,s11
    8000a3f4:	12078c63          	beqz	a5,8000a52c <_vfiprintf_r+0x424>
    8000a3f8:	07010613          	add	a2,sp,112
    8000a3fc:	00098593          	mv	a1,s3
    8000a400:	000a0513          	mv	a0,s4
    8000a404:	969fa0ef          	jal	80004d6c <__sprint_r>
    8000a408:	1240006f          	j	8000a52c <_vfiprintf_r+0x424>
    8000a40c:	010beb93          	or	s7,s7,16
    8000a410:	000cc783          	lbu	a5,0(s9)
    8000a414:	000b8b9b          	sext.w	s7,s7
    8000a418:	e69ff06f          	j	8000a280 <_vfiprintf_r+0x178>
    8000a41c:	010beb93          	or	s7,s7,16
    8000a420:	000b8b9b          	sext.w	s7,s7
    8000a424:	020bf793          	and	a5,s7,32
    8000a428:	008e8313          	add	t1,t4,8
    8000a42c:	1a078063          	beqz	a5,8000a5cc <_vfiprintf_r+0x4c4>
    8000a430:	000eb683          	ld	a3,0(t4)
    8000a434:	00068793          	mv	a5,a3
    8000a438:	1a06cc63          	bltz	a3,8000a5f0 <_vfiprintf_r+0x4e8>
    8000a43c:	1c04c663          	bltz	s1,8000a608 <_vfiprintf_r+0x500>
    8000a440:	f7fbfb93          	and	s7,s7,-129
    8000a444:	000b8b9b          	sext.w	s7,s7
    8000a448:	1c079063          	bnez	a5,8000a608 <_vfiprintf_r+0x500>
    8000a44c:	58049ae3          	bnez	s1,8000b1e0 <_vfiprintf_r+0x10d8>
    8000a450:	06714783          	lbu	a5,103(sp)
    8000a454:	00000813          	li	a6,0
    8000a458:	00000893          	li	a7,0
    8000a45c:	00030e93          	mv	t4,t1
    8000a460:	0ec10d13          	add	s10,sp,236
    8000a464:	00078463          	beqz	a5,8000a46c <_vfiprintf_r+0x364>
    8000a468:	0018081b          	addw	a6,a6,1
    8000a46c:	002bff13          	and	t5,s7,2
    8000a470:	e80f0ce3          	beqz	t5,8000a308 <_vfiprintf_r+0x200>
    8000a474:	0028081b          	addw	a6,a6,2
    8000a478:	00200f13          	li	t5,2
    8000a47c:	e8dff06f          	j	8000a308 <_vfiprintf_r+0x200>
    8000a480:	00098593          	mv	a1,s3
    8000a484:	000a0513          	mv	a0,s4
    8000a488:	af4fb0ef          	jal	8000577c <__swsetup_r>
    8000a48c:	560510e3          	bnez	a0,8000b1ec <_vfiprintf_r+0x10e4>
    8000a490:	01099783          	lh	a5,16(s3)
    8000a494:	00a00693          	li	a3,10
    8000a498:	01a7f793          	and	a5,a5,26
    8000a49c:	ced79ee3          	bne	a5,a3,8000a198 <_vfiprintf_r+0x90>
    8000a4a0:	01299783          	lh	a5,18(s3)
    8000a4a4:	ce07cae3          	bltz	a5,8000a198 <_vfiprintf_r+0x90>
    8000a4a8:	1d813083          	ld	ra,472(sp)
    8000a4ac:	18813c83          	ld	s9,392(sp)
    8000a4b0:	000b8693          	mv	a3,s7
    8000a4b4:	000d8613          	mv	a2,s11
    8000a4b8:	19813b83          	ld	s7,408(sp)
    8000a4bc:	17813d83          	ld	s11,376(sp)
    8000a4c0:	00098593          	mv	a1,s3
    8000a4c4:	000a0513          	mv	a0,s4
    8000a4c8:	1b813983          	ld	s3,440(sp)
    8000a4cc:	1b013a03          	ld	s4,432(sp)
    8000a4d0:	1e010113          	add	sp,sp,480
    8000a4d4:	5650006f          	j	8000b238 <__sbprintf>
    8000a4d8:	41948bbb          	subw	s7,s1,s9
    8000a4dc:	d40b96e3          	bnez	s7,8000a228 <_vfiprintf_r+0x120>
    8000a4e0:	0004c783          	lbu	a5,0(s1)
    8000a4e4:	d7dff06f          	j	8000a260 <_vfiprintf_r+0x158>
    8000a4e8:	07010613          	add	a2,sp,112
    8000a4ec:	00098593          	mv	a1,s3
    8000a4f0:	000a0513          	mv	a0,s4
    8000a4f4:	01d13823          	sd	t4,16(sp)
    8000a4f8:	875fa0ef          	jal	80004d6c <__sprint_r>
    8000a4fc:	02051663          	bnez	a0,8000a528 <_vfiprintf_r+0x420>
    8000a500:	01013e83          	ld	t4,16(sp)
    8000a504:	000a8413          	mv	s0,s5
    8000a508:	d51ff06f          	j	8000a258 <_vfiprintf_r+0x150>
    8000a50c:	07010613          	add	a2,sp,112
    8000a510:	00098593          	mv	a1,s3
    8000a514:	000a0513          	mv	a0,s4
    8000a518:	01d13823          	sd	t4,16(sp)
    8000a51c:	851fa0ef          	jal	80004d6c <__sprint_r>
    8000a520:	01013e83          	ld	t4,16(sp)
    8000a524:	ea050ce3          	beqz	a0,8000a3dc <_vfiprintf_r+0x2d4>
    8000a528:	000d8c93          	mv	s9,s11
    8000a52c:	0109d783          	lhu	a5,16(s3)
    8000a530:	1d013403          	ld	s0,464(sp)
    8000a534:	1c813483          	ld	s1,456(sp)
    8000a538:	0407f793          	and	a5,a5,64
    8000a53c:	1c013903          	ld	s2,448(sp)
    8000a540:	1a813a83          	ld	s5,424(sp)
    8000a544:	1a013b03          	ld	s6,416(sp)
    8000a548:	19013c03          	ld	s8,400(sp)
    8000a54c:	18013d03          	ld	s10,384(sp)
    8000a550:	48079ee3          	bnez	a5,8000b1ec <_vfiprintf_r+0x10e4>
    8000a554:	1d813083          	ld	ra,472(sp)
    8000a558:	1b813983          	ld	s3,440(sp)
    8000a55c:	1b013a03          	ld	s4,432(sp)
    8000a560:	19813b83          	ld	s7,408(sp)
    8000a564:	17813d83          	ld	s11,376(sp)
    8000a568:	000c8513          	mv	a0,s9
    8000a56c:	18813c83          	ld	s9,392(sp)
    8000a570:	1e010113          	add	sp,sp,480
    8000a574:	00008067          	ret
    8000a578:	07010613          	add	a2,sp,112
    8000a57c:	00098593          	mv	a1,s3
    8000a580:	000a0513          	mv	a0,s4
    8000a584:	05d13823          	sd	t4,80(sp)
    8000a588:	05113423          	sd	a7,72(sp)
    8000a58c:	03013423          	sd	a6,40(sp)
    8000a590:	02e13023          	sd	a4,32(sp)
    8000a594:	01f13c23          	sd	t6,24(sp)
    8000a598:	01e13823          	sd	t5,16(sp)
    8000a59c:	fd0fa0ef          	jal	80004d6c <__sprint_r>
    8000a5a0:	f80514e3          	bnez	a0,8000a528 <_vfiprintf_r+0x420>
    8000a5a4:	08013783          	ld	a5,128(sp)
    8000a5a8:	07812603          	lw	a2,120(sp)
    8000a5ac:	05013e83          	ld	t4,80(sp)
    8000a5b0:	04813883          	ld	a7,72(sp)
    8000a5b4:	02813803          	ld	a6,40(sp)
    8000a5b8:	02013703          	ld	a4,32(sp)
    8000a5bc:	01813f83          	ld	t6,24(sp)
    8000a5c0:	01013f03          	ld	t5,16(sp)
    8000a5c4:	000a8413          	mv	s0,s5
    8000a5c8:	d8dff06f          	j	8000a354 <_vfiprintf_r+0x24c>
    8000a5cc:	010bf793          	and	a5,s7,16
    8000a5d0:	e60790e3          	bnez	a5,8000a430 <_vfiprintf_r+0x328>
    8000a5d4:	040bf693          	and	a3,s7,64
    8000a5d8:	000ea783          	lw	a5,0(t4)
    8000a5dc:	30068ae3          	beqz	a3,8000b0f0 <_vfiprintf_r+0xfe8>
    8000a5e0:	0107979b          	sllw	a5,a5,0x10
    8000a5e4:	4107d79b          	sraw	a5,a5,0x10
    8000a5e8:	00078693          	mv	a3,a5
    8000a5ec:	e406d8e3          	bgez	a3,8000a43c <_vfiprintf_r+0x334>
    8000a5f0:	02d00693          	li	a3,45
    8000a5f4:	06d103a3          	sb	a3,103(sp)
    8000a5f8:	40f007b3          	neg	a5,a5
    8000a5fc:	0004c663          	bltz	s1,8000a608 <_vfiprintf_r+0x500>
    8000a600:	f7fbfb93          	and	s7,s7,-129
    8000a604:	000b8b9b          	sext.w	s7,s7
    8000a608:	00900693          	li	a3,9
    8000a60c:	20f6e0e3          	bltu	a3,a5,8000b00c <_vfiprintf_r+0xf04>
    8000a610:	0307879b          	addw	a5,a5,48
    8000a614:	0ff7f793          	zext.b	a5,a5
    8000a618:	00030e93          	mv	t4,t1
    8000a61c:	0ef105a3          	sb	a5,235(sp)
    8000a620:	0004881b          	sext.w	a6,s1
    8000a624:	00904463          	bgtz	s1,8000a62c <_vfiprintf_r+0x524>
    8000a628:	00100813          	li	a6,1
    8000a62c:	00100893          	li	a7,1
    8000a630:	0eb10d13          	add	s10,sp,235
    8000a634:	06714783          	lbu	a5,103(sp)
    8000a638:	e20798e3          	bnez	a5,8000a468 <_vfiprintf_r+0x360>
    8000a63c:	e31ff06f          	j	8000a46c <_vfiprintf_r+0x364>
    8000a640:	000ebd03          	ld	s10,0(t4)
    8000a644:	060103a3          	sb	zero,103(sp)
    8000a648:	008e8e93          	add	t4,t4,8
    8000a64c:	260d0ce3          	beqz	s10,8000b0c4 <_vfiprintf_r+0xfbc>
    8000a650:	01d13c23          	sd	t4,24(sp)
    8000a654:	00e13823          	sd	a4,16(sp)
    8000a658:	1804cee3          	bltz	s1,8000aff4 <_vfiprintf_r+0xeec>
    8000a65c:	00048613          	mv	a2,s1
    8000a660:	00000593          	li	a1,0
    8000a664:	000d0513          	mv	a0,s10
    8000a668:	a58fb0ef          	jal	800058c0 <memchr>
    8000a66c:	01013703          	ld	a4,16(sp)
    8000a670:	01813e83          	ld	t4,24(sp)
    8000a674:	00048893          	mv	a7,s1
    8000a678:	00050463          	beqz	a0,8000a680 <_vfiprintf_r+0x578>
    8000a67c:	41a508bb          	subw	a7,a0,s10
    8000a680:	fff8c813          	not	a6,a7
    8000a684:	06714783          	lbu	a5,103(sp)
    8000a688:	43f85813          	sra	a6,a6,0x3f
    8000a68c:	0108f833          	and	a6,a7,a6
    8000a690:	0008081b          	sext.w	a6,a6
    8000a694:	00000493          	li	s1,0
    8000a698:	00000f13          	li	t5,0
    8000a69c:	dc0796e3          	bnez	a5,8000a468 <_vfiprintf_r+0x360>
    8000a6a0:	c69ff06f          	j	8000a308 <_vfiprintf_r+0x200>
    8000a6a4:	000ea783          	lw	a5,0(t4)
    8000a6a8:	060103a3          	sb	zero,103(sp)
    8000a6ac:	008e8e93          	add	t4,t4,8
    8000a6b0:	08f10423          	sb	a5,136(sp)
    8000a6b4:	00100813          	li	a6,1
    8000a6b8:	00100893          	li	a7,1
    8000a6bc:	08810d13          	add	s10,sp,136
    8000a6c0:	c41ff06f          	j	8000a300 <_vfiprintf_r+0x1f8>
    8000a6c4:	000ea703          	lw	a4,0(t4)
    8000a6c8:	008e8e93          	add	t4,t4,8
    8000a6cc:	0c075e63          	bgez	a4,8000a7a8 <_vfiprintf_r+0x6a0>
    8000a6d0:	40e0073b          	negw	a4,a4
    8000a6d4:	004beb93          	or	s7,s7,4
    8000a6d8:	000cc783          	lbu	a5,0(s9)
    8000a6dc:	000b8b9b          	sext.w	s7,s7
    8000a6e0:	ba1ff06f          	j	8000a280 <_vfiprintf_r+0x178>
    8000a6e4:	02b00693          	li	a3,43
    8000a6e8:	000cc783          	lbu	a5,0(s9)
    8000a6ec:	06d103a3          	sb	a3,103(sp)
    8000a6f0:	b91ff06f          	j	8000a280 <_vfiprintf_r+0x178>
    8000a6f4:	080beb93          	or	s7,s7,128
    8000a6f8:	000cc783          	lbu	a5,0(s9)
    8000a6fc:	000b8b9b          	sext.w	s7,s7
    8000a700:	b81ff06f          	j	8000a280 <_vfiprintf_r+0x178>
    8000a704:	000cc783          	lbu	a5,0(s9)
    8000a708:	02a00593          	li	a1,42
    8000a70c:	001c8613          	add	a2,s9,1
    8000a710:	2eb788e3          	beq	a5,a1,8000b200 <_vfiprintf_r+0x10f8>
    8000a714:	fd07869b          	addw	a3,a5,-48
    8000a718:	00900813          	li	a6,9
    8000a71c:	00000593          	li	a1,0
    8000a720:	00900513          	li	a0,9
    8000a724:	00060c93          	mv	s9,a2
    8000a728:	00000493          	li	s1,0
    8000a72c:	b4d86ee3          	bltu	a6,a3,8000a288 <_vfiprintf_r+0x180>
    8000a730:	00064783          	lbu	a5,0(a2)
    8000a734:	0025949b          	sllw	s1,a1,0x2
    8000a738:	00b484bb          	addw	s1,s1,a1
    8000a73c:	0014949b          	sllw	s1,s1,0x1
    8000a740:	00d485bb          	addw	a1,s1,a3
    8000a744:	fd07869b          	addw	a3,a5,-48
    8000a748:	00058493          	mv	s1,a1
    8000a74c:	00160613          	add	a2,a2,1
    8000a750:	fed570e3          	bgeu	a0,a3,8000a730 <_vfiprintf_r+0x628>
    8000a754:	0005c0e3          	bltz	a1,8000af54 <_vfiprintf_r+0xe4c>
    8000a758:	00060c93          	mv	s9,a2
    8000a75c:	b2dff06f          	j	8000a288 <_vfiprintf_r+0x180>
    8000a760:	000a0513          	mv	a0,s4
    8000a764:	01d13c23          	sd	t4,24(sp)
    8000a768:	00e13823          	sd	a4,16(sp)
    8000a76c:	b1cfb0ef          	jal	80005a88 <_localeconv_r>
    8000a770:	00853783          	ld	a5,8(a0)
    8000a774:	00078513          	mv	a0,a5
    8000a778:	04f13023          	sd	a5,64(sp)
    8000a77c:	eb5f60ef          	jal	80001630 <strlen>
    8000a780:	00050793          	mv	a5,a0
    8000a784:	000a0513          	mv	a0,s4
    8000a788:	02f13823          	sd	a5,48(sp)
    8000a78c:	afcfb0ef          	jal	80005a88 <_localeconv_r>
    8000a790:	01053683          	ld	a3,16(a0)
    8000a794:	03013783          	ld	a5,48(sp)
    8000a798:	01013703          	ld	a4,16(sp)
    8000a79c:	02d13c23          	sd	a3,56(sp)
    8000a7a0:	01813e83          	ld	t4,24(sp)
    8000a7a4:	78079463          	bnez	a5,8000af2c <_vfiprintf_r+0xe24>
    8000a7a8:	000cc783          	lbu	a5,0(s9)
    8000a7ac:	ad5ff06f          	j	8000a280 <_vfiprintf_r+0x178>
    8000a7b0:	001beb93          	or	s7,s7,1
    8000a7b4:	000cc783          	lbu	a5,0(s9)
    8000a7b8:	000b8b9b          	sext.w	s7,s7
    8000a7bc:	ac5ff06f          	j	8000a280 <_vfiprintf_r+0x178>
    8000a7c0:	06714683          	lbu	a3,103(sp)
    8000a7c4:	000cc783          	lbu	a5,0(s9)
    8000a7c8:	aa069ce3          	bnez	a3,8000a280 <_vfiprintf_r+0x178>
    8000a7cc:	02000693          	li	a3,32
    8000a7d0:	06d103a3          	sb	a3,103(sp)
    8000a7d4:	aadff06f          	j	8000a280 <_vfiprintf_r+0x178>
    8000a7d8:	010be793          	or	a5,s7,16
    8000a7dc:	0007879b          	sext.w	a5,a5
    8000a7e0:	0207f693          	and	a3,a5,32
    8000a7e4:	008e8613          	add	a2,t4,8
    8000a7e8:	00069663          	bnez	a3,8000a7f4 <_vfiprintf_r+0x6ec>
    8000a7ec:	0107f693          	and	a3,a5,16
    8000a7f0:	70068663          	beqz	a3,8000aefc <_vfiprintf_r+0xdf4>
    8000a7f4:	000eb683          	ld	a3,0(t4)
    8000a7f8:	bff7fb93          	and	s7,a5,-1025
    8000a7fc:	060103a3          	sb	zero,103(sp)
    8000a800:	000b8b9b          	sext.w	s7,s7
    8000a804:	00060e93          	mv	t4,a2
    8000a808:	0a04c663          	bltz	s1,8000a8b4 <_vfiprintf_r+0x7ac>
    8000a80c:	b7f7f793          	and	a5,a5,-1153
    8000a810:	0007879b          	sext.w	a5,a5
    8000a814:	060698e3          	bnez	a3,8000b084 <_vfiprintf_r+0xf7c>
    8000a818:	000b8893          	mv	a7,s7
    8000a81c:	00078b93          	mv	s7,a5
    8000a820:	08049063          	bnez	s1,8000a8a0 <_vfiprintf_r+0x798>
    8000a824:	6a069e63          	bnez	a3,8000aee0 <_vfiprintf_r+0xdd8>
    8000a828:	0018f893          	and	a7,a7,1
    8000a82c:	6c088263          	beqz	a7,8000aef0 <_vfiprintf_r+0xde8>
    8000a830:	03000793          	li	a5,48
    8000a834:	0ef105a3          	sb	a5,235(sp)
    8000a838:	00088813          	mv	a6,a7
    8000a83c:	0eb10d13          	add	s10,sp,235
    8000a840:	df5ff06f          	j	8000a634 <_vfiprintf_r+0x52c>
    8000a844:	000cc783          	lbu	a5,0(s9)
    8000a848:	06c00693          	li	a3,108
    8000a84c:	06d782e3          	beq	a5,a3,8000b0b0 <_vfiprintf_r+0xfa8>
    8000a850:	010beb93          	or	s7,s7,16
    8000a854:	000b8b9b          	sext.w	s7,s7
    8000a858:	a29ff06f          	j	8000a280 <_vfiprintf_r+0x178>
    8000a85c:	010be893          	or	a7,s7,16
    8000a860:	0008889b          	sext.w	a7,a7
    8000a864:	0208f793          	and	a5,a7,32
    8000a868:	008e8313          	add	t1,t4,8
    8000a86c:	00079663          	bnez	a5,8000a878 <_vfiprintf_r+0x770>
    8000a870:	0108f793          	and	a5,a7,16
    8000a874:	6a078063          	beqz	a5,8000af14 <_vfiprintf_r+0xe0c>
    8000a878:	000eb783          	ld	a5,0(t4)
    8000a87c:	060103a3          	sb	zero,103(sp)
    8000a880:	00088b93          	mv	s7,a7
    8000a884:	d804c2e3          	bltz	s1,8000a608 <_vfiprintf_r+0x500>
    8000a888:	f7f8fb93          	and	s7,a7,-129
    8000a88c:	000b8b9b          	sext.w	s7,s7
    8000a890:	d6079ce3          	bnez	a5,8000a608 <_vfiprintf_r+0x500>
    8000a894:	00030e93          	mv	t4,t1
    8000a898:	00100693          	li	a3,1
    8000a89c:	f80484e3          	beqz	s1,8000a824 <_vfiprintf_r+0x71c>
    8000a8a0:	00100793          	li	a5,1
    8000a8a4:	14f680e3          	beq	a3,a5,8000b1e4 <_vfiprintf_r+0x10dc>
    8000a8a8:	00200793          	li	a5,2
    8000a8ac:	06f68ee3          	beq	a3,a5,8000b128 <_vfiprintf_r+0x1020>
    8000a8b0:	00000693          	li	a3,0
    8000a8b4:	0ec10893          	add	a7,sp,236
    8000a8b8:	00088d13          	mv	s10,a7
    8000a8bc:	0076f793          	and	a5,a3,7
    8000a8c0:	03078793          	add	a5,a5,48
    8000a8c4:	fefd0fa3          	sb	a5,-1(s10)
    8000a8c8:	0036d693          	srl	a3,a3,0x3
    8000a8cc:	000d0613          	mv	a2,s10
    8000a8d0:	fffd0d13          	add	s10,s10,-1
    8000a8d4:	fe0694e3          	bnez	a3,8000a8bc <_vfiprintf_r+0x7b4>
    8000a8d8:	001bf693          	and	a3,s7,1
    8000a8dc:	36068a63          	beqz	a3,8000ac50 <_vfiprintf_r+0xb48>
    8000a8e0:	03000693          	li	a3,48
    8000a8e4:	36d78663          	beq	a5,a3,8000ac50 <_vfiprintf_r+0xb48>
    8000a8e8:	ffe60613          	add	a2,a2,-2
    8000a8ec:	fedd0fa3          	sb	a3,-1(s10)
    8000a8f0:	40c888bb          	subw	a7,a7,a2
    8000a8f4:	0004881b          	sext.w	a6,s1
    8000a8f8:	6514c863          	blt	s1,a7,8000af48 <_vfiprintf_r+0xe40>
    8000a8fc:	00060d13          	mv	s10,a2
    8000a900:	d35ff06f          	j	8000a634 <_vfiprintf_r+0x52c>
    8000a904:	000cc783          	lbu	a5,0(s9)
    8000a908:	06800693          	li	a3,104
    8000a90c:	78d78863          	beq	a5,a3,8000b09c <_vfiprintf_r+0xf94>
    8000a910:	040beb93          	or	s7,s7,64
    8000a914:	000b8b9b          	sext.w	s7,s7
    8000a918:	969ff06f          	j	8000a280 <_vfiprintf_r+0x178>
    8000a91c:	020beb93          	or	s7,s7,32
    8000a920:	000cc783          	lbu	a5,0(s9)
    8000a924:	000b8b9b          	sext.w	s7,s7
    8000a928:	959ff06f          	j	8000a280 <_vfiprintf_r+0x178>
    8000a92c:	000087b7          	lui	a5,0x8
    8000a930:	83078793          	add	a5,a5,-2000 # 7830 <__stack_shift+0x7819>
    8000a934:	002beb93          	or	s7,s7,2
    8000a938:	06f11423          	sh	a5,104(sp)
    8000a93c:	00004797          	auipc	a5,0x4
    8000a940:	f7c78793          	add	a5,a5,-132 # 8000e8b8 <__tbss_end+0x800>
    8000a944:	000eb683          	ld	a3,0(t4)
    8000a948:	000b8b9b          	sext.w	s7,s7
    8000a94c:	008e8e93          	add	t4,t4,8
    8000a950:	00f13423          	sd	a5,8(sp)
    8000a954:	060103a3          	sb	zero,103(sp)
    8000a958:	2c04c863          	bltz	s1,8000ac28 <_vfiprintf_r+0xb20>
    8000a95c:	f7fbf793          	and	a5,s7,-129
    8000a960:	0007879b          	sext.w	a5,a5
    8000a964:	2a069c63          	bnez	a3,8000ac1c <_vfiprintf_r+0xb14>
    8000a968:	000b8893          	mv	a7,s7
    8000a96c:	00200693          	li	a3,2
    8000a970:	00078b93          	mv	s7,a5
    8000a974:	eadff06f          	j	8000a820 <_vfiprintf_r+0x718>
    8000a978:	020bf793          	and	a5,s7,32
    8000a97c:	000eb703          	ld	a4,0(t4)
    8000a980:	02079463          	bnez	a5,8000a9a8 <_vfiprintf_r+0x8a0>
    8000a984:	010bf793          	and	a5,s7,16
    8000a988:	02079063          	bnez	a5,8000a9a8 <_vfiprintf_r+0x8a0>
    8000a98c:	040bf793          	and	a5,s7,64
    8000a990:	00079ce3          	bnez	a5,8000b1a8 <_vfiprintf_r+0x10a0>
    8000a994:	200bfb93          	and	s7,s7,512
    8000a998:	040b8ee3          	beqz	s7,8000b1f4 <_vfiprintf_r+0x10ec>
    8000a99c:	01b70023          	sb	s11,0(a4)
    8000a9a0:	008e8e93          	add	t4,t4,8
    8000a9a4:	85dff06f          	j	8000a200 <_vfiprintf_r+0xf8>
    8000a9a8:	01b73023          	sd	s11,0(a4)
    8000a9ac:	008e8e93          	add	t4,t4,8
    8000a9b0:	851ff06f          	j	8000a200 <_vfiprintf_r+0xf8>
    8000a9b4:	410706bb          	subw	a3,a4,a6
    8000a9b8:	9cd05ae3          	blez	a3,8000a38c <_vfiprintf_r+0x284>
    8000a9bc:	01000593          	li	a1,16
    8000a9c0:	00005e17          	auipc	t3,0x5
    8000a9c4:	a00e0e13          	add	t3,t3,-1536 # 8000f3c0 <zeroes.0>
    8000a9c8:	0ad5d463          	bge	a1,a3,8000aa70 <_vfiprintf_r+0x968>
    8000a9cc:	00e13823          	sd	a4,16(sp)
    8000a9d0:	00913c23          	sd	s1,24(sp)
    8000a9d4:	00040713          	mv	a4,s0
    8000a9d8:	01000313          	li	t1,16
    8000a9dc:	00700f13          	li	t5,7
    8000a9e0:	03013023          	sd	a6,32(sp)
    8000a9e4:	03113423          	sd	a7,40(sp)
    8000a9e8:	00068413          	mv	s0,a3
    8000a9ec:	05d13423          	sd	t4,72(sp)
    8000a9f0:	000e0493          	mv	s1,t3
    8000a9f4:	00c0006f          	j	8000aa00 <_vfiprintf_r+0x8f8>
    8000a9f8:	ff04041b          	addw	s0,s0,-16
    8000a9fc:	04835a63          	bge	t1,s0,8000aa50 <_vfiprintf_r+0x948>
    8000aa00:	0016061b          	addw	a2,a2,1
    8000aa04:	01078793          	add	a5,a5,16
    8000aa08:	00973023          	sd	s1,0(a4)
    8000aa0c:	00673423          	sd	t1,8(a4)
    8000aa10:	08f13023          	sd	a5,128(sp)
    8000aa14:	06c12c23          	sw	a2,120(sp)
    8000aa18:	01070713          	add	a4,a4,16
    8000aa1c:	fccf5ee3          	bge	t5,a2,8000a9f8 <_vfiprintf_r+0x8f0>
    8000aa20:	07010613          	add	a2,sp,112
    8000aa24:	00098593          	mv	a1,s3
    8000aa28:	000a0513          	mv	a0,s4
    8000aa2c:	b40fa0ef          	jal	80004d6c <__sprint_r>
    8000aa30:	ae051ce3          	bnez	a0,8000a528 <_vfiprintf_r+0x420>
    8000aa34:	01000313          	li	t1,16
    8000aa38:	ff04041b          	addw	s0,s0,-16
    8000aa3c:	08013783          	ld	a5,128(sp)
    8000aa40:	07812603          	lw	a2,120(sp)
    8000aa44:	000a8713          	mv	a4,s5
    8000aa48:	00700f13          	li	t5,7
    8000aa4c:	fa834ae3          	blt	t1,s0,8000aa00 <_vfiprintf_r+0x8f8>
    8000aa50:	00040693          	mv	a3,s0
    8000aa54:	00048e13          	mv	t3,s1
    8000aa58:	00070413          	mv	s0,a4
    8000aa5c:	02013803          	ld	a6,32(sp)
    8000aa60:	02813883          	ld	a7,40(sp)
    8000aa64:	01013703          	ld	a4,16(sp)
    8000aa68:	04813e83          	ld	t4,72(sp)
    8000aa6c:	01813483          	ld	s1,24(sp)
    8000aa70:	00d787b3          	add	a5,a5,a3
    8000aa74:	0016061b          	addw	a2,a2,1
    8000aa78:	00d43423          	sd	a3,8(s0)
    8000aa7c:	01c43023          	sd	t3,0(s0)
    8000aa80:	08f13023          	sd	a5,128(sp)
    8000aa84:	06c12c23          	sw	a2,120(sp)
    8000aa88:	00700693          	li	a3,7
    8000aa8c:	01040413          	add	s0,s0,16
    8000aa90:	8ec6dee3          	bge	a3,a2,8000a38c <_vfiprintf_r+0x284>
    8000aa94:	07010613          	add	a2,sp,112
    8000aa98:	00098593          	mv	a1,s3
    8000aa9c:	000a0513          	mv	a0,s4
    8000aaa0:	03d13423          	sd	t4,40(sp)
    8000aaa4:	03113023          	sd	a7,32(sp)
    8000aaa8:	01013c23          	sd	a6,24(sp)
    8000aaac:	00e13823          	sd	a4,16(sp)
    8000aab0:	abcfa0ef          	jal	80004d6c <__sprint_r>
    8000aab4:	a6051ae3          	bnez	a0,8000a528 <_vfiprintf_r+0x420>
    8000aab8:	02013883          	ld	a7,32(sp)
    8000aabc:	08013783          	ld	a5,128(sp)
    8000aac0:	07812603          	lw	a2,120(sp)
    8000aac4:	411484bb          	subw	s1,s1,a7
    8000aac8:	02813e83          	ld	t4,40(sp)
    8000aacc:	01813803          	ld	a6,24(sp)
    8000aad0:	01013703          	ld	a4,16(sp)
    8000aad4:	000a8413          	mv	s0,s5
    8000aad8:	8a905ee3          	blez	s1,8000a394 <_vfiprintf_r+0x28c>
    8000aadc:	00005e17          	auipc	t3,0x5
    8000aae0:	8e4e0e13          	add	t3,t3,-1820 # 8000f3c0 <zeroes.0>
    8000aae4:	08995c63          	bge	s2,s1,8000ab7c <_vfiprintf_r+0xa74>
    8000aae8:	00e13823          	sd	a4,16(sp)
    8000aaec:	00700313          	li	t1,7
    8000aaf0:	00040713          	mv	a4,s0
    8000aaf4:	01013c23          	sd	a6,24(sp)
    8000aaf8:	00048413          	mv	s0,s1
    8000aafc:	03113023          	sd	a7,32(sp)
    8000ab00:	03d13423          	sd	t4,40(sp)
    8000ab04:	000b0493          	mv	s1,s6
    8000ab08:	00c0006f          	j	8000ab14 <_vfiprintf_r+0xa0c>
    8000ab0c:	ff04041b          	addw	s0,s0,-16
    8000ab10:	04895863          	bge	s2,s0,8000ab60 <_vfiprintf_r+0xa58>
    8000ab14:	0016061b          	addw	a2,a2,1
    8000ab18:	01078793          	add	a5,a5,16
    8000ab1c:	01673023          	sd	s6,0(a4)
    8000ab20:	01273423          	sd	s2,8(a4)
    8000ab24:	08f13023          	sd	a5,128(sp)
    8000ab28:	06c12c23          	sw	a2,120(sp)
    8000ab2c:	01070713          	add	a4,a4,16
    8000ab30:	fcc35ee3          	bge	t1,a2,8000ab0c <_vfiprintf_r+0xa04>
    8000ab34:	07010613          	add	a2,sp,112
    8000ab38:	00098593          	mv	a1,s3
    8000ab3c:	000a0513          	mv	a0,s4
    8000ab40:	a2cfa0ef          	jal	80004d6c <__sprint_r>
    8000ab44:	9e0512e3          	bnez	a0,8000a528 <_vfiprintf_r+0x420>
    8000ab48:	ff04041b          	addw	s0,s0,-16
    8000ab4c:	08013783          	ld	a5,128(sp)
    8000ab50:	07812603          	lw	a2,120(sp)
    8000ab54:	000a8713          	mv	a4,s5
    8000ab58:	00700313          	li	t1,7
    8000ab5c:	fa894ce3          	blt	s2,s0,8000ab14 <_vfiprintf_r+0xa0c>
    8000ab60:	00048e13          	mv	t3,s1
    8000ab64:	01813803          	ld	a6,24(sp)
    8000ab68:	00040493          	mv	s1,s0
    8000ab6c:	02013883          	ld	a7,32(sp)
    8000ab70:	00070413          	mv	s0,a4
    8000ab74:	02813e83          	ld	t4,40(sp)
    8000ab78:	01013703          	ld	a4,16(sp)
    8000ab7c:	0016061b          	addw	a2,a2,1
    8000ab80:	009787b3          	add	a5,a5,s1
    8000ab84:	01c43023          	sd	t3,0(s0)
    8000ab88:	00943423          	sd	s1,8(s0)
    8000ab8c:	08f13023          	sd	a5,128(sp)
    8000ab90:	06c12c23          	sw	a2,120(sp)
    8000ab94:	00700693          	li	a3,7
    8000ab98:	01040413          	add	s0,s0,16
    8000ab9c:	fec6dc63          	bge	a3,a2,8000a394 <_vfiprintf_r+0x28c>
    8000aba0:	07010613          	add	a2,sp,112
    8000aba4:	00098593          	mv	a1,s3
    8000aba8:	000a0513          	mv	a0,s4
    8000abac:	03d13423          	sd	t4,40(sp)
    8000abb0:	03113023          	sd	a7,32(sp)
    8000abb4:	01013c23          	sd	a6,24(sp)
    8000abb8:	00e13823          	sd	a4,16(sp)
    8000abbc:	9b0fa0ef          	jal	80004d6c <__sprint_r>
    8000abc0:	960514e3          	bnez	a0,8000a528 <_vfiprintf_r+0x420>
    8000abc4:	08013783          	ld	a5,128(sp)
    8000abc8:	07812603          	lw	a2,120(sp)
    8000abcc:	02813e83          	ld	t4,40(sp)
    8000abd0:	02013883          	ld	a7,32(sp)
    8000abd4:	01813803          	ld	a6,24(sp)
    8000abd8:	01013703          	ld	a4,16(sp)
    8000abdc:	000a8413          	mv	s0,s5
    8000abe0:	fb4ff06f          	j	8000a394 <_vfiprintf_r+0x28c>
    8000abe4:	07010613          	add	a2,sp,112
    8000abe8:	00098593          	mv	a1,s3
    8000abec:	000a0513          	mv	a0,s4
    8000abf0:	03d13023          	sd	t4,32(sp)
    8000abf4:	01013c23          	sd	a6,24(sp)
    8000abf8:	00e13823          	sd	a4,16(sp)
    8000abfc:	970fa0ef          	jal	80004d6c <__sprint_r>
    8000ac00:	920514e3          	bnez	a0,8000a528 <_vfiprintf_r+0x420>
    8000ac04:	08013783          	ld	a5,128(sp)
    8000ac08:	02013e83          	ld	t4,32(sp)
    8000ac0c:	01813803          	ld	a6,24(sp)
    8000ac10:	01013703          	ld	a4,16(sp)
    8000ac14:	000a8413          	mv	s0,s5
    8000ac18:	fa0ff06f          	j	8000a3b8 <_vfiprintf_r+0x2b0>
    8000ac1c:	00078b93          	mv	s7,a5
    8000ac20:	00200793          	li	a5,2
    8000ac24:	c80788e3          	beqz	a5,8000a8b4 <_vfiprintf_r+0x7ac>
    8000ac28:	00813603          	ld	a2,8(sp)
    8000ac2c:	0ec10893          	add	a7,sp,236
    8000ac30:	00088d13          	mv	s10,a7
    8000ac34:	00f6f793          	and	a5,a3,15
    8000ac38:	00f607b3          	add	a5,a2,a5
    8000ac3c:	0007c783          	lbu	a5,0(a5)
    8000ac40:	0046d693          	srl	a3,a3,0x4
    8000ac44:	fffd0d13          	add	s10,s10,-1
    8000ac48:	00fd0023          	sb	a5,0(s10)
    8000ac4c:	fe0694e3          	bnez	a3,8000ac34 <_vfiprintf_r+0xb2c>
    8000ac50:	41a888bb          	subw	a7,a7,s10
    8000ac54:	0004881b          	sext.w	a6,s1
    8000ac58:	9d14dee3          	bge	s1,a7,8000a634 <_vfiprintf_r+0x52c>
    8000ac5c:	0008881b          	sext.w	a6,a7
    8000ac60:	9d5ff06f          	j	8000a634 <_vfiprintf_r+0x52c>
    8000ac64:	01000593          	li	a1,16
    8000ac68:	00004317          	auipc	t1,0x4
    8000ac6c:	76830313          	add	t1,t1,1896 # 8000f3d0 <blanks.1>
    8000ac70:	0ad5dc63          	bge	a1,a3,8000ad28 <_vfiprintf_r+0xc20>
    8000ac74:	02e13023          	sd	a4,32(sp)
    8000ac78:	02913423          	sd	s1,40(sp)
    8000ac7c:	00040713          	mv	a4,s0
    8000ac80:	01000e13          	li	t3,16
    8000ac84:	00700393          	li	t2,7
    8000ac88:	01e13823          	sd	t5,16(sp)
    8000ac8c:	01f13c23          	sd	t6,24(sp)
    8000ac90:	05013423          	sd	a6,72(sp)
    8000ac94:	05113823          	sd	a7,80(sp)
    8000ac98:	00068413          	mv	s0,a3
    8000ac9c:	05d13c23          	sd	t4,88(sp)
    8000aca0:	00030493          	mv	s1,t1
    8000aca4:	00c0006f          	j	8000acb0 <_vfiprintf_r+0xba8>
    8000aca8:	ff04041b          	addw	s0,s0,-16
    8000acac:	048e5a63          	bge	t3,s0,8000ad00 <_vfiprintf_r+0xbf8>
    8000acb0:	0016061b          	addw	a2,a2,1
    8000acb4:	01078793          	add	a5,a5,16
    8000acb8:	00973023          	sd	s1,0(a4)
    8000acbc:	01c73423          	sd	t3,8(a4)
    8000acc0:	08f13023          	sd	a5,128(sp)
    8000acc4:	06c12c23          	sw	a2,120(sp)
    8000acc8:	01070713          	add	a4,a4,16
    8000accc:	fcc3dee3          	bge	t2,a2,8000aca8 <_vfiprintf_r+0xba0>
    8000acd0:	07010613          	add	a2,sp,112
    8000acd4:	00098593          	mv	a1,s3
    8000acd8:	000a0513          	mv	a0,s4
    8000acdc:	890fa0ef          	jal	80004d6c <__sprint_r>
    8000ace0:	840514e3          	bnez	a0,8000a528 <_vfiprintf_r+0x420>
    8000ace4:	01000e13          	li	t3,16
    8000ace8:	ff04041b          	addw	s0,s0,-16
    8000acec:	08013783          	ld	a5,128(sp)
    8000acf0:	07812603          	lw	a2,120(sp)
    8000acf4:	000a8713          	mv	a4,s5
    8000acf8:	00700393          	li	t2,7
    8000acfc:	fa8e4ae3          	blt	t3,s0,8000acb0 <_vfiprintf_r+0xba8>
    8000ad00:	00040693          	mv	a3,s0
    8000ad04:	00048313          	mv	t1,s1
    8000ad08:	00070413          	mv	s0,a4
    8000ad0c:	01013f03          	ld	t5,16(sp)
    8000ad10:	01813f83          	ld	t6,24(sp)
    8000ad14:	04813803          	ld	a6,72(sp)
    8000ad18:	05013883          	ld	a7,80(sp)
    8000ad1c:	02013703          	ld	a4,32(sp)
    8000ad20:	05813e83          	ld	t4,88(sp)
    8000ad24:	02813483          	ld	s1,40(sp)
    8000ad28:	00d787b3          	add	a5,a5,a3
    8000ad2c:	0016061b          	addw	a2,a2,1
    8000ad30:	00d43423          	sd	a3,8(s0)
    8000ad34:	00643023          	sd	t1,0(s0)
    8000ad38:	08f13023          	sd	a5,128(sp)
    8000ad3c:	06c12c23          	sw	a2,120(sp)
    8000ad40:	00700693          	li	a3,7
    8000ad44:	01040413          	add	s0,s0,16
    8000ad48:	dcc6dc63          	bge	a3,a2,8000a320 <_vfiprintf_r+0x218>
    8000ad4c:	07010613          	add	a2,sp,112
    8000ad50:	00098593          	mv	a1,s3
    8000ad54:	000a0513          	mv	a0,s4
    8000ad58:	05d13823          	sd	t4,80(sp)
    8000ad5c:	05113423          	sd	a7,72(sp)
    8000ad60:	03013423          	sd	a6,40(sp)
    8000ad64:	02e13023          	sd	a4,32(sp)
    8000ad68:	01f13c23          	sd	t6,24(sp)
    8000ad6c:	01e13823          	sd	t5,16(sp)
    8000ad70:	ffdf90ef          	jal	80004d6c <__sprint_r>
    8000ad74:	fa051a63          	bnez	a0,8000a528 <_vfiprintf_r+0x420>
    8000ad78:	08013783          	ld	a5,128(sp)
    8000ad7c:	07812603          	lw	a2,120(sp)
    8000ad80:	05013e83          	ld	t4,80(sp)
    8000ad84:	04813883          	ld	a7,72(sp)
    8000ad88:	02813803          	ld	a6,40(sp)
    8000ad8c:	02013703          	ld	a4,32(sp)
    8000ad90:	01813f83          	ld	t6,24(sp)
    8000ad94:	01013f03          	ld	t5,16(sp)
    8000ad98:	000a8413          	mv	s0,s5
    8000ad9c:	d84ff06f          	j	8000a320 <_vfiprintf_r+0x218>
    8000ada0:	07010613          	add	a2,sp,112
    8000ada4:	00098593          	mv	a1,s3
    8000ada8:	000a0513          	mv	a0,s4
    8000adac:	05d13423          	sd	t4,72(sp)
    8000adb0:	03113423          	sd	a7,40(sp)
    8000adb4:	03013023          	sd	a6,32(sp)
    8000adb8:	00e13c23          	sd	a4,24(sp)
    8000adbc:	01f13823          	sd	t6,16(sp)
    8000adc0:	fadf90ef          	jal	80004d6c <__sprint_r>
    8000adc4:	f6051263          	bnez	a0,8000a528 <_vfiprintf_r+0x420>
    8000adc8:	08013783          	ld	a5,128(sp)
    8000adcc:	07812603          	lw	a2,120(sp)
    8000add0:	04813e83          	ld	t4,72(sp)
    8000add4:	02813883          	ld	a7,40(sp)
    8000add8:	02013803          	ld	a6,32(sp)
    8000addc:	01813703          	ld	a4,24(sp)
    8000ade0:	01013f83          	ld	t6,16(sp)
    8000ade4:	000a8413          	mv	s0,s5
    8000ade8:	d9cff06f          	j	8000a384 <_vfiprintf_r+0x27c>
    8000adec:	01000613          	li	a2,16
    8000adf0:	07812683          	lw	a3,120(sp)
    8000adf4:	00004317          	auipc	t1,0x4
    8000adf8:	5dc30313          	add	t1,t1,1500 # 8000f3d0 <blanks.1>
    8000adfc:	08965863          	bge	a2,s1,8000ae8c <_vfiprintf_r+0xd84>
    8000ae00:	00e13823          	sd	a4,16(sp)
    8000ae04:	01000b93          	li	s7,16
    8000ae08:	00040713          	mv	a4,s0
    8000ae0c:	00700d13          	li	s10,7
    8000ae10:	00048413          	mv	s0,s1
    8000ae14:	01013c23          	sd	a6,24(sp)
    8000ae18:	03d13023          	sd	t4,32(sp)
    8000ae1c:	00030493          	mv	s1,t1
    8000ae20:	00c0006f          	j	8000ae2c <_vfiprintf_r+0xd24>
    8000ae24:	ff04041b          	addw	s0,s0,-16
    8000ae28:	048bd663          	bge	s7,s0,8000ae74 <_vfiprintf_r+0xd6c>
    8000ae2c:	0016869b          	addw	a3,a3,1
    8000ae30:	01078793          	add	a5,a5,16
    8000ae34:	00973023          	sd	s1,0(a4)
    8000ae38:	01773423          	sd	s7,8(a4)
    8000ae3c:	08f13023          	sd	a5,128(sp)
    8000ae40:	06d12c23          	sw	a3,120(sp)
    8000ae44:	01070713          	add	a4,a4,16
    8000ae48:	fcdd5ee3          	bge	s10,a3,8000ae24 <_vfiprintf_r+0xd1c>
    8000ae4c:	07010613          	add	a2,sp,112
    8000ae50:	00098593          	mv	a1,s3
    8000ae54:	000a0513          	mv	a0,s4
    8000ae58:	f15f90ef          	jal	80004d6c <__sprint_r>
    8000ae5c:	ec051663          	bnez	a0,8000a528 <_vfiprintf_r+0x420>
    8000ae60:	ff04041b          	addw	s0,s0,-16
    8000ae64:	08013783          	ld	a5,128(sp)
    8000ae68:	07812683          	lw	a3,120(sp)
    8000ae6c:	000a8713          	mv	a4,s5
    8000ae70:	fa8bcee3          	blt	s7,s0,8000ae2c <_vfiprintf_r+0xd24>
    8000ae74:	00048313          	mv	t1,s1
    8000ae78:	01813803          	ld	a6,24(sp)
    8000ae7c:	00040493          	mv	s1,s0
    8000ae80:	02013e83          	ld	t4,32(sp)
    8000ae84:	00070413          	mv	s0,a4
    8000ae88:	01013703          	ld	a4,16(sp)
    8000ae8c:	0016861b          	addw	a2,a3,1
    8000ae90:	009787b3          	add	a5,a5,s1
    8000ae94:	00643023          	sd	t1,0(s0)
    8000ae98:	00943423          	sd	s1,8(s0)
    8000ae9c:	08f13023          	sd	a5,128(sp)
    8000aea0:	06c12c23          	sw	a2,120(sp)
    8000aea4:	00700693          	li	a3,7
    8000aea8:	d2c6d063          	bge	a3,a2,8000a3c8 <_vfiprintf_r+0x2c0>
    8000aeac:	07010613          	add	a2,sp,112
    8000aeb0:	00098593          	mv	a1,s3
    8000aeb4:	000a0513          	mv	a0,s4
    8000aeb8:	03d13023          	sd	t4,32(sp)
    8000aebc:	01013c23          	sd	a6,24(sp)
    8000aec0:	00e13823          	sd	a4,16(sp)
    8000aec4:	ea9f90ef          	jal	80004d6c <__sprint_r>
    8000aec8:	e6051063          	bnez	a0,8000a528 <_vfiprintf_r+0x420>
    8000aecc:	08013783          	ld	a5,128(sp)
    8000aed0:	02013e83          	ld	t4,32(sp)
    8000aed4:	01813803          	ld	a6,24(sp)
    8000aed8:	01013703          	ld	a4,16(sp)
    8000aedc:	cecff06f          	j	8000a3c8 <_vfiprintf_r+0x2c0>
    8000aee0:	00000813          	li	a6,0
    8000aee4:	00000893          	li	a7,0
    8000aee8:	0ec10d13          	add	s10,sp,236
    8000aeec:	f48ff06f          	j	8000a634 <_vfiprintf_r+0x52c>
    8000aef0:	00000813          	li	a6,0
    8000aef4:	0ec10d13          	add	s10,sp,236
    8000aef8:	f3cff06f          	j	8000a634 <_vfiprintf_r+0x52c>
    8000aefc:	0407f593          	and	a1,a5,64
    8000af00:	000ea683          	lw	a3,0(t4)
    8000af04:	1c058e63          	beqz	a1,8000b0e0 <_vfiprintf_r+0xfd8>
    8000af08:	03069693          	sll	a3,a3,0x30
    8000af0c:	0306d693          	srl	a3,a3,0x30
    8000af10:	8e9ff06f          	j	8000a7f8 <_vfiprintf_r+0x6f0>
    8000af14:	0408f693          	and	a3,a7,64
    8000af18:	000ea783          	lw	a5,0(t4)
    8000af1c:	1e068e63          	beqz	a3,8000b118 <_vfiprintf_r+0x1010>
    8000af20:	03079793          	sll	a5,a5,0x30
    8000af24:	0307d793          	srl	a5,a5,0x30
    8000af28:	955ff06f          	j	8000a87c <_vfiprintf_r+0x774>
    8000af2c:	000cc783          	lbu	a5,0(s9)
    8000af30:	b4068863          	beqz	a3,8000a280 <_vfiprintf_r+0x178>
    8000af34:	0006c683          	lbu	a3,0(a3)
    8000af38:	b4068463          	beqz	a3,8000a280 <_vfiprintf_r+0x178>
    8000af3c:	400beb93          	or	s7,s7,1024
    8000af40:	000b8b9b          	sext.w	s7,s7
    8000af44:	b3cff06f          	j	8000a280 <_vfiprintf_r+0x178>
    8000af48:	0008881b          	sext.w	a6,a7
    8000af4c:	00060d13          	mv	s10,a2
    8000af50:	ee4ff06f          	j	8000a634 <_vfiprintf_r+0x52c>
    8000af54:	fff00493          	li	s1,-1
    8000af58:	00060c93          	mv	s9,a2
    8000af5c:	b2cff06f          	j	8000a288 <_vfiprintf_r+0x180>
    8000af60:	00004697          	auipc	a3,0x4
    8000af64:	97068693          	add	a3,a3,-1680 # 8000e8d0 <__tbss_end+0x818>
    8000af68:	00d13423          	sd	a3,8(sp)
    8000af6c:	020bf693          	and	a3,s7,32
    8000af70:	008e8613          	add	a2,t4,8
    8000af74:	06069c63          	bnez	a3,8000afec <_vfiprintf_r+0xee4>
    8000af78:	010bf693          	and	a3,s7,16
    8000af7c:	06069863          	bnez	a3,8000afec <_vfiprintf_r+0xee4>
    8000af80:	040bf593          	and	a1,s7,64
    8000af84:	000ea683          	lw	a3,0(t4)
    8000af88:	18058063          	beqz	a1,8000b108 <_vfiprintf_r+0x1000>
    8000af8c:	03069693          	sll	a3,a3,0x30
    8000af90:	0306d693          	srl	a3,a3,0x30
    8000af94:	001bf593          	and	a1,s7,1
    8000af98:	00058e63          	beqz	a1,8000afb4 <_vfiprintf_r+0xeac>
    8000af9c:	00068c63          	beqz	a3,8000afb4 <_vfiprintf_r+0xeac>
    8000afa0:	002beb93          	or	s7,s7,2
    8000afa4:	03000593          	li	a1,48
    8000afa8:	06b10423          	sb	a1,104(sp)
    8000afac:	06f104a3          	sb	a5,105(sp)
    8000afb0:	000b8b9b          	sext.w	s7,s7
    8000afb4:	bffbfb93          	and	s7,s7,-1025
    8000afb8:	000b8b9b          	sext.w	s7,s7
    8000afbc:	00060e93          	mv	t4,a2
    8000afc0:	995ff06f          	j	8000a954 <_vfiprintf_r+0x84c>
    8000afc4:	000b8893          	mv	a7,s7
    8000afc8:	89dff06f          	j	8000a864 <_vfiprintf_r+0x75c>
    8000afcc:	000b8793          	mv	a5,s7
    8000afd0:	811ff06f          	j	8000a7e0 <_vfiprintf_r+0x6d8>
    8000afd4:	00004697          	auipc	a3,0x4
    8000afd8:	8e468693          	add	a3,a3,-1820 # 8000e8b8 <__tbss_end+0x800>
    8000afdc:	00d13423          	sd	a3,8(sp)
    8000afe0:	020bf693          	and	a3,s7,32
    8000afe4:	008e8613          	add	a2,t4,8
    8000afe8:	f80688e3          	beqz	a3,8000af78 <_vfiprintf_r+0xe70>
    8000afec:	000eb683          	ld	a3,0(t4)
    8000aff0:	fa5ff06f          	j	8000af94 <_vfiprintf_r+0xe8c>
    8000aff4:	000d0513          	mv	a0,s10
    8000aff8:	e38f60ef          	jal	80001630 <strlen>
    8000affc:	01013703          	ld	a4,16(sp)
    8000b000:	01813e83          	ld	t4,24(sp)
    8000b004:	0005089b          	sext.w	a7,a0
    8000b008:	e78ff06f          	j	8000a680 <_vfiprintf_r+0x578>
    8000b00c:	0ec10893          	add	a7,sp,236
    8000b010:	03813f83          	ld	t6,56(sp)
    8000b014:	400bfe93          	and	t4,s7,1024
    8000b018:	00000593          	li	a1,0
    8000b01c:	00088613          	mv	a2,a7
    8000b020:	00a00813          	li	a6,10
    8000b024:	00900e13          	li	t3,9
    8000b028:	0ff00f13          	li	t5,255
    8000b02c:	0140006f          	j	8000b040 <_vfiprintf_r+0xf38>
    8000b030:	0307d6b3          	divu	a3,a5,a6
    8000b034:	02fe7a63          	bgeu	t3,a5,8000b068 <_vfiprintf_r+0xf60>
    8000b038:	00068793          	mv	a5,a3
    8000b03c:	000d0613          	mv	a2,s10
    8000b040:	fff60d13          	add	s10,a2,-1
    8000b044:	0015859b          	addw	a1,a1,1 # 2001 <__stack_shift+0x1fea>
    8000b048:	0307f6b3          	remu	a3,a5,a6
    8000b04c:	0306869b          	addw	a3,a3,48
    8000b050:	fed60fa3          	sb	a3,-1(a2)
    8000b054:	fc0e8ee3          	beqz	t4,8000b030 <_vfiprintf_r+0xf28>
    8000b058:	000fc683          	lbu	a3,0(t6)
    8000b05c:	fcb69ae3          	bne	a3,a1,8000b030 <_vfiprintf_r+0xf28>
    8000b060:	fde688e3          	beq	a3,t5,8000b030 <_vfiprintf_r+0xf28>
    8000b064:	0cfe6663          	bltu	t3,a5,8000b130 <_vfiprintf_r+0x1028>
    8000b068:	03f13c23          	sd	t6,56(sp)
    8000b06c:	41a888bb          	subw	a7,a7,s10
    8000b070:	0004881b          	sext.w	a6,s1
    8000b074:	0114d463          	bge	s1,a7,8000b07c <_vfiprintf_r+0xf74>
    8000b078:	0008881b          	sext.w	a6,a7
    8000b07c:	00030e93          	mv	t4,t1
    8000b080:	db4ff06f          	j	8000a634 <_vfiprintf_r+0x52c>
    8000b084:	00078b93          	mv	s7,a5
    8000b088:	00000793          	li	a5,0
    8000b08c:	820784e3          	beqz	a5,8000a8b4 <_vfiprintf_r+0x7ac>
    8000b090:	b99ff06f          	j	8000ac28 <_vfiprintf_r+0xb20>
    8000b094:	90df50ef          	jal	800009a0 <__sinit>
    8000b098:	8a8ff06f          	j	8000a140 <_vfiprintf_r+0x38>
    8000b09c:	200beb93          	or	s7,s7,512
    8000b0a0:	001cc783          	lbu	a5,1(s9)
    8000b0a4:	000b8b9b          	sext.w	s7,s7
    8000b0a8:	001c8c93          	add	s9,s9,1
    8000b0ac:	9d4ff06f          	j	8000a280 <_vfiprintf_r+0x178>
    8000b0b0:	020beb93          	or	s7,s7,32
    8000b0b4:	001cc783          	lbu	a5,1(s9)
    8000b0b8:	000b8b9b          	sext.w	s7,s7
    8000b0bc:	001c8c93          	add	s9,s9,1
    8000b0c0:	9c0ff06f          	j	8000a280 <_vfiprintf_r+0x178>
    8000b0c4:	00600793          	li	a5,6
    8000b0c8:	0004889b          	sext.w	a7,s1
    8000b0cc:	0c97ea63          	bltu	a5,s1,8000b1a0 <_vfiprintf_r+0x1098>
    8000b0d0:	00088813          	mv	a6,a7
    8000b0d4:	00004d17          	auipc	s10,0x4
    8000b0d8:	814d0d13          	add	s10,s10,-2028 # 8000e8e8 <__tbss_end+0x830>
    8000b0dc:	a24ff06f          	j	8000a300 <_vfiprintf_r+0x1f8>
    8000b0e0:	2007f593          	and	a1,a5,512
    8000b0e4:	0c058e63          	beqz	a1,8000b1c0 <_vfiprintf_r+0x10b8>
    8000b0e8:	0ff6f693          	zext.b	a3,a3
    8000b0ec:	f0cff06f          	j	8000a7f8 <_vfiprintf_r+0x6f0>
    8000b0f0:	200bf693          	and	a3,s7,512
    8000b0f4:	0e068263          	beqz	a3,8000b1d8 <_vfiprintf_r+0x10d0>
    8000b0f8:	0187979b          	sllw	a5,a5,0x18
    8000b0fc:	4187d79b          	sraw	a5,a5,0x18
    8000b100:	00078693          	mv	a3,a5
    8000b104:	b34ff06f          	j	8000a438 <_vfiprintf_r+0x330>
    8000b108:	200bf593          	and	a1,s7,512
    8000b10c:	0c058063          	beqz	a1,8000b1cc <_vfiprintf_r+0x10c4>
    8000b110:	0ff6f693          	zext.b	a3,a3
    8000b114:	e81ff06f          	j	8000af94 <_vfiprintf_r+0xe8c>
    8000b118:	2008f693          	and	a3,a7,512
    8000b11c:	08068c63          	beqz	a3,8000b1b4 <_vfiprintf_r+0x10ac>
    8000b120:	0ff7f793          	zext.b	a5,a5
    8000b124:	f58ff06f          	j	8000a87c <_vfiprintf_r+0x774>
    8000b128:	00000693          	li	a3,0
    8000b12c:	afdff06f          	j	8000ac28 <_vfiprintf_r+0xb20>
    8000b130:	02f13423          	sd	a5,40(sp)
    8000b134:	03013783          	ld	a5,48(sp)
    8000b138:	04013583          	ld	a1,64(sp)
    8000b13c:	05113423          	sd	a7,72(sp)
    8000b140:	40fd0d33          	sub	s10,s10,a5
    8000b144:	00078613          	mv	a2,a5
    8000b148:	000d0513          	mv	a0,s10
    8000b14c:	02613c23          	sd	t1,56(sp)
    8000b150:	03d13023          	sd	t4,32(sp)
    8000b154:	00e13c23          	sd	a4,24(sp)
    8000b158:	01f13823          	sd	t6,16(sp)
    8000b15c:	855fa0ef          	jal	800059b0 <strncpy>
    8000b160:	01013f83          	ld	t6,16(sp)
    8000b164:	02813783          	ld	a5,40(sp)
    8000b168:	00a00693          	li	a3,10
    8000b16c:	001fc603          	lbu	a2,1(t6)
    8000b170:	02d7d6b3          	divu	a3,a5,a3
    8000b174:	01813703          	ld	a4,24(sp)
    8000b178:	00c037b3          	snez	a5,a2
    8000b17c:	02013e83          	ld	t4,32(sp)
    8000b180:	03813303          	ld	t1,56(sp)
    8000b184:	04813883          	ld	a7,72(sp)
    8000b188:	00ff8fb3          	add	t6,t6,a5
    8000b18c:	00000593          	li	a1,0
    8000b190:	00a00813          	li	a6,10
    8000b194:	00900e13          	li	t3,9
    8000b198:	0ff00f13          	li	t5,255
    8000b19c:	e9dff06f          	j	8000b038 <_vfiprintf_r+0xf30>
    8000b1a0:	00600893          	li	a7,6
    8000b1a4:	f2dff06f          	j	8000b0d0 <_vfiprintf_r+0xfc8>
    8000b1a8:	01b71023          	sh	s11,0(a4)
    8000b1ac:	008e8e93          	add	t4,t4,8
    8000b1b0:	850ff06f          	j	8000a200 <_vfiprintf_r+0xf8>
    8000b1b4:	02079793          	sll	a5,a5,0x20
    8000b1b8:	0207d793          	srl	a5,a5,0x20
    8000b1bc:	ec0ff06f          	j	8000a87c <_vfiprintf_r+0x774>
    8000b1c0:	02069693          	sll	a3,a3,0x20
    8000b1c4:	0206d693          	srl	a3,a3,0x20
    8000b1c8:	e30ff06f          	j	8000a7f8 <_vfiprintf_r+0x6f0>
    8000b1cc:	02069693          	sll	a3,a3,0x20
    8000b1d0:	0206d693          	srl	a3,a3,0x20
    8000b1d4:	dc1ff06f          	j	8000af94 <_vfiprintf_r+0xe8c>
    8000b1d8:	00078693          	mv	a3,a5
    8000b1dc:	a5cff06f          	j	8000a438 <_vfiprintf_r+0x330>
    8000b1e0:	00030e93          	mv	t4,t1
    8000b1e4:	03000793          	li	a5,48
    8000b1e8:	c34ff06f          	j	8000a61c <_vfiprintf_r+0x514>
    8000b1ec:	fff00c93          	li	s9,-1
    8000b1f0:	b64ff06f          	j	8000a554 <_vfiprintf_r+0x44c>
    8000b1f4:	01b72023          	sw	s11,0(a4)
    8000b1f8:	008e8e93          	add	t4,t4,8
    8000b1fc:	804ff06f          	j	8000a200 <_vfiprintf_r+0xf8>
    8000b200:	000ea783          	lw	a5,0(t4)
    8000b204:	008e8e93          	add	t4,t4,8
    8000b208:	0007849b          	sext.w	s1,a5
    8000b20c:	0007d463          	bgez	a5,8000b214 <_vfiprintf_r+0x110c>
    8000b210:	fff00493          	li	s1,-1
    8000b214:	001cc783          	lbu	a5,1(s9)
    8000b218:	00060c93          	mv	s9,a2
    8000b21c:	864ff06f          	j	8000a280 <_vfiprintf_r+0x178>

000000008000b220 <vfiprintf>:
    8000b220:	00060693          	mv	a3,a2
    8000b224:	00058613          	mv	a2,a1
    8000b228:	00050593          	mv	a1,a0
    8000b22c:	00005517          	auipc	a0,0x5
    8000b230:	e8c53503          	ld	a0,-372(a0) # 800100b8 <_impure_ptr>
    8000b234:	ed5fe06f          	j	8000a108 <_vfiprintf_r>

000000008000b238 <__sbprintf>:
    8000b238:	b3010113          	add	sp,sp,-1232
    8000b23c:	0125d703          	lhu	a4,18(a1)
    8000b240:	0105d783          	lhu	a5,16(a1)
    8000b244:	4c813023          	sd	s0,1216(sp)
    8000b248:	00058413          	mv	s0,a1
    8000b24c:	000105b7          	lui	a1,0x10
    8000b250:	ffd5859b          	addw	a1,a1,-3 # fffd <__stack_shift+0xffe6>
    8000b254:	0ac42e03          	lw	t3,172(s0)
    8000b258:	03043303          	ld	t1,48(s0)
    8000b25c:	04043883          	ld	a7,64(s0)
    8000b260:	0107171b          	sllw	a4,a4,0x10
    8000b264:	00b7f7b3          	and	a5,a5,a1
    8000b268:	00e7e7b3          	or	a5,a5,a4
    8000b26c:	40000813          	li	a6,1024
    8000b270:	00f12823          	sw	a5,16(sp)
    8000b274:	00010593          	mv	a1,sp
    8000b278:	0b010793          	add	a5,sp,176
    8000b27c:	4a913c23          	sd	s1,1208(sp)
    8000b280:	4b213823          	sd	s2,1200(sp)
    8000b284:	4c113423          	sd	ra,1224(sp)
    8000b288:	00050913          	mv	s2,a0
    8000b28c:	0bc12623          	sw	t3,172(sp)
    8000b290:	02613823          	sd	t1,48(sp)
    8000b294:	05113023          	sd	a7,64(sp)
    8000b298:	00f13023          	sd	a5,0(sp)
    8000b29c:	00f13c23          	sd	a5,24(sp)
    8000b2a0:	01012623          	sw	a6,12(sp)
    8000b2a4:	03012023          	sw	a6,32(sp)
    8000b2a8:	02012423          	sw	zero,40(sp)
    8000b2ac:	e5dfe0ef          	jal	8000a108 <_vfiprintf_r>
    8000b2b0:	00050493          	mv	s1,a0
    8000b2b4:	02055c63          	bgez	a0,8000b2ec <__sbprintf+0xb4>
    8000b2b8:	01015783          	lhu	a5,16(sp)
    8000b2bc:	0407f793          	and	a5,a5,64
    8000b2c0:	00078863          	beqz	a5,8000b2d0 <__sbprintf+0x98>
    8000b2c4:	01045783          	lhu	a5,16(s0)
    8000b2c8:	0407e793          	or	a5,a5,64
    8000b2cc:	00f41823          	sh	a5,16(s0)
    8000b2d0:	4c813083          	ld	ra,1224(sp)
    8000b2d4:	4c013403          	ld	s0,1216(sp)
    8000b2d8:	4b013903          	ld	s2,1200(sp)
    8000b2dc:	00048513          	mv	a0,s1
    8000b2e0:	4b813483          	ld	s1,1208(sp)
    8000b2e4:	4d010113          	add	sp,sp,1232
    8000b2e8:	00008067          	ret
    8000b2ec:	00010593          	mv	a1,sp
    8000b2f0:	00090513          	mv	a0,s2
    8000b2f4:	e2df90ef          	jal	80005120 <_fflush_r>
    8000b2f8:	fc0500e3          	beqz	a0,8000b2b8 <__sbprintf+0x80>
    8000b2fc:	fff00493          	li	s1,-1
    8000b300:	fb9ff06f          	j	8000b2b8 <__sbprintf+0x80>

000000008000b304 <__errno>:
    8000b304:	00005517          	auipc	a0,0x5
    8000b308:	db453503          	ld	a0,-588(a0) # 800100b8 <_impure_ptr>
    8000b30c:	00008067          	ret

000000008000b310 <abort>:
    8000b310:	ff010113          	add	sp,sp,-16
    8000b314:	00600513          	li	a0,6
    8000b318:	00113423          	sd	ra,8(sp)
    8000b31c:	2a8000ef          	jal	8000b5c4 <raise>
    8000b320:	00100513          	li	a0,1
    8000b324:	5d8000ef          	jal	8000b8fc <_exit>

000000008000b328 <_init_signal_r>:
    8000b328:	15053783          	ld	a5,336(a0)
    8000b32c:	00078663          	beqz	a5,8000b338 <_init_signal_r+0x10>
    8000b330:	00000513          	li	a0,0
    8000b334:	00008067          	ret
    8000b338:	ff010113          	add	sp,sp,-16
    8000b33c:	10000593          	li	a1,256
    8000b340:	00813023          	sd	s0,0(sp)
    8000b344:	00113423          	sd	ra,8(sp)
    8000b348:	00050413          	mv	s0,a0
    8000b34c:	975f60ef          	jal	80001cc0 <_malloc_r>
    8000b350:	14a43823          	sd	a0,336(s0)
    8000b354:	02050463          	beqz	a0,8000b37c <_init_signal_r+0x54>
    8000b358:	10050793          	add	a5,a0,256
    8000b35c:	00053023          	sd	zero,0(a0)
    8000b360:	00850513          	add	a0,a0,8
    8000b364:	fef51ce3          	bne	a0,a5,8000b35c <_init_signal_r+0x34>
    8000b368:	00000513          	li	a0,0
    8000b36c:	00813083          	ld	ra,8(sp)
    8000b370:	00013403          	ld	s0,0(sp)
    8000b374:	01010113          	add	sp,sp,16
    8000b378:	00008067          	ret
    8000b37c:	fff00513          	li	a0,-1
    8000b380:	fedff06f          	j	8000b36c <_init_signal_r+0x44>

000000008000b384 <_signal_r>:
    8000b384:	fd010113          	add	sp,sp,-48
    8000b388:	00913c23          	sd	s1,24(sp)
    8000b38c:	02113423          	sd	ra,40(sp)
    8000b390:	01f00793          	li	a5,31
    8000b394:	00050493          	mv	s1,a0
    8000b398:	02b7ec63          	bltu	a5,a1,8000b3d0 <_signal_r+0x4c>
    8000b39c:	15053783          	ld	a5,336(a0)
    8000b3a0:	02813023          	sd	s0,32(sp)
    8000b3a4:	00058413          	mv	s0,a1
    8000b3a8:	02078c63          	beqz	a5,8000b3e0 <_signal_r+0x5c>
    8000b3ac:	00341413          	sll	s0,s0,0x3
    8000b3b0:	008787b3          	add	a5,a5,s0
    8000b3b4:	02013403          	ld	s0,32(sp)
    8000b3b8:	0007b503          	ld	a0,0(a5)
    8000b3bc:	00c7b023          	sd	a2,0(a5)
    8000b3c0:	02813083          	ld	ra,40(sp)
    8000b3c4:	01813483          	ld	s1,24(sp)
    8000b3c8:	03010113          	add	sp,sp,48
    8000b3cc:	00008067          	ret
    8000b3d0:	01600793          	li	a5,22
    8000b3d4:	00f52023          	sw	a5,0(a0)
    8000b3d8:	fff00513          	li	a0,-1
    8000b3dc:	fe5ff06f          	j	8000b3c0 <_signal_r+0x3c>
    8000b3e0:	10000593          	li	a1,256
    8000b3e4:	00c13423          	sd	a2,8(sp)
    8000b3e8:	8d9f60ef          	jal	80001cc0 <_malloc_r>
    8000b3ec:	14a4b823          	sd	a0,336(s1)
    8000b3f0:	00813603          	ld	a2,8(sp)
    8000b3f4:	00050793          	mv	a5,a0
    8000b3f8:	00050713          	mv	a4,a0
    8000b3fc:	10050693          	add	a3,a0,256
    8000b400:	00050a63          	beqz	a0,8000b414 <_signal_r+0x90>
    8000b404:	00073023          	sd	zero,0(a4)
    8000b408:	00870713          	add	a4,a4,8
    8000b40c:	fed71ce3          	bne	a4,a3,8000b404 <_signal_r+0x80>
    8000b410:	f9dff06f          	j	8000b3ac <_signal_r+0x28>
    8000b414:	02013403          	ld	s0,32(sp)
    8000b418:	fff00513          	li	a0,-1
    8000b41c:	fa5ff06f          	j	8000b3c0 <_signal_r+0x3c>

000000008000b420 <_raise_r>:
    8000b420:	fe010113          	add	sp,sp,-32
    8000b424:	00913423          	sd	s1,8(sp)
    8000b428:	00113c23          	sd	ra,24(sp)
    8000b42c:	01f00793          	li	a5,31
    8000b430:	00050493          	mv	s1,a0
    8000b434:	0ab7e063          	bltu	a5,a1,8000b4d4 <_raise_r+0xb4>
    8000b438:	15053783          	ld	a5,336(a0)
    8000b43c:	00813823          	sd	s0,16(sp)
    8000b440:	00058413          	mv	s0,a1
    8000b444:	04078463          	beqz	a5,8000b48c <_raise_r+0x6c>
    8000b448:	00359713          	sll	a4,a1,0x3
    8000b44c:	00e787b3          	add	a5,a5,a4
    8000b450:	0007b703          	ld	a4,0(a5)
    8000b454:	02070c63          	beqz	a4,8000b48c <_raise_r+0x6c>
    8000b458:	00100693          	li	a3,1
    8000b45c:	00d70c63          	beq	a4,a3,8000b474 <_raise_r+0x54>
    8000b460:	fff00693          	li	a3,-1
    8000b464:	04d70863          	beq	a4,a3,8000b4b4 <_raise_r+0x94>
    8000b468:	0007b023          	sd	zero,0(a5)
    8000b46c:	00058513          	mv	a0,a1
    8000b470:	000700e7          	jalr	a4
    8000b474:	01013403          	ld	s0,16(sp)
    8000b478:	00000513          	li	a0,0
    8000b47c:	01813083          	ld	ra,24(sp)
    8000b480:	00813483          	ld	s1,8(sp)
    8000b484:	02010113          	add	sp,sp,32
    8000b488:	00008067          	ret
    8000b48c:	00048513          	mv	a0,s1
    8000b490:	440000ef          	jal	8000b8d0 <_getpid_r>
    8000b494:	00040613          	mv	a2,s0
    8000b498:	01013403          	ld	s0,16(sp)
    8000b49c:	01813083          	ld	ra,24(sp)
    8000b4a0:	00050593          	mv	a1,a0
    8000b4a4:	00048513          	mv	a0,s1
    8000b4a8:	00813483          	ld	s1,8(sp)
    8000b4ac:	02010113          	add	sp,sp,32
    8000b4b0:	3c80006f          	j	8000b878 <_kill_r>
    8000b4b4:	01013403          	ld	s0,16(sp)
    8000b4b8:	01813083          	ld	ra,24(sp)
    8000b4bc:	01600793          	li	a5,22
    8000b4c0:	00f52023          	sw	a5,0(a0)
    8000b4c4:	00813483          	ld	s1,8(sp)
    8000b4c8:	00100513          	li	a0,1
    8000b4cc:	02010113          	add	sp,sp,32
    8000b4d0:	00008067          	ret
    8000b4d4:	01600793          	li	a5,22
    8000b4d8:	00f52023          	sw	a5,0(a0)
    8000b4dc:	fff00513          	li	a0,-1
    8000b4e0:	f9dff06f          	j	8000b47c <_raise_r+0x5c>

000000008000b4e4 <__sigtramp_r>:
    8000b4e4:	01f00793          	li	a5,31
    8000b4e8:	0cb7ea63          	bltu	a5,a1,8000b5bc <__sigtramp_r+0xd8>
    8000b4ec:	15053783          	ld	a5,336(a0)
    8000b4f0:	fe010113          	add	sp,sp,-32
    8000b4f4:	00813823          	sd	s0,16(sp)
    8000b4f8:	00913423          	sd	s1,8(sp)
    8000b4fc:	00113c23          	sd	ra,24(sp)
    8000b500:	00058413          	mv	s0,a1
    8000b504:	00050493          	mv	s1,a0
    8000b508:	08078063          	beqz	a5,8000b588 <__sigtramp_r+0xa4>
    8000b50c:	00341713          	sll	a4,s0,0x3
    8000b510:	00e787b3          	add	a5,a5,a4
    8000b514:	0007b703          	ld	a4,0(a5)
    8000b518:	02070c63          	beqz	a4,8000b550 <__sigtramp_r+0x6c>
    8000b51c:	fff00693          	li	a3,-1
    8000b520:	06d70063          	beq	a4,a3,8000b580 <__sigtramp_r+0x9c>
    8000b524:	00100693          	li	a3,1
    8000b528:	04d70063          	beq	a4,a3,8000b568 <__sigtramp_r+0x84>
    8000b52c:	00040513          	mv	a0,s0
    8000b530:	0007b023          	sd	zero,0(a5)
    8000b534:	000700e7          	jalr	a4
    8000b538:	00000513          	li	a0,0
    8000b53c:	01813083          	ld	ra,24(sp)
    8000b540:	01013403          	ld	s0,16(sp)
    8000b544:	00813483          	ld	s1,8(sp)
    8000b548:	02010113          	add	sp,sp,32
    8000b54c:	00008067          	ret
    8000b550:	01813083          	ld	ra,24(sp)
    8000b554:	01013403          	ld	s0,16(sp)
    8000b558:	00813483          	ld	s1,8(sp)
    8000b55c:	00100513          	li	a0,1
    8000b560:	02010113          	add	sp,sp,32
    8000b564:	00008067          	ret
    8000b568:	01813083          	ld	ra,24(sp)
    8000b56c:	01013403          	ld	s0,16(sp)
    8000b570:	00813483          	ld	s1,8(sp)
    8000b574:	00300513          	li	a0,3
    8000b578:	02010113          	add	sp,sp,32
    8000b57c:	00008067          	ret
    8000b580:	00200513          	li	a0,2
    8000b584:	fb9ff06f          	j	8000b53c <__sigtramp_r+0x58>
    8000b588:	10000593          	li	a1,256
    8000b58c:	f34f60ef          	jal	80001cc0 <_malloc_r>
    8000b590:	14a4b823          	sd	a0,336(s1)
    8000b594:	00050793          	mv	a5,a0
    8000b598:	00050e63          	beqz	a0,8000b5b4 <__sigtramp_r+0xd0>
    8000b59c:	00050713          	mv	a4,a0
    8000b5a0:	10050693          	add	a3,a0,256
    8000b5a4:	00073023          	sd	zero,0(a4)
    8000b5a8:	00870713          	add	a4,a4,8
    8000b5ac:	fed71ce3          	bne	a4,a3,8000b5a4 <__sigtramp_r+0xc0>
    8000b5b0:	f5dff06f          	j	8000b50c <__sigtramp_r+0x28>
    8000b5b4:	fff00513          	li	a0,-1
    8000b5b8:	f85ff06f          	j	8000b53c <__sigtramp_r+0x58>
    8000b5bc:	fff00513          	li	a0,-1
    8000b5c0:	00008067          	ret

000000008000b5c4 <raise>:
    8000b5c4:	fe010113          	add	sp,sp,-32
    8000b5c8:	00913423          	sd	s1,8(sp)
    8000b5cc:	00113c23          	sd	ra,24(sp)
    8000b5d0:	01f00793          	li	a5,31
    8000b5d4:	00005497          	auipc	s1,0x5
    8000b5d8:	ae44b483          	ld	s1,-1308(s1) # 800100b8 <_impure_ptr>
    8000b5dc:	08a7ee63          	bltu	a5,a0,8000b678 <raise+0xb4>
    8000b5e0:	1504b783          	ld	a5,336(s1)
    8000b5e4:	00813823          	sd	s0,16(sp)
    8000b5e8:	00050413          	mv	s0,a0
    8000b5ec:	04078263          	beqz	a5,8000b630 <raise+0x6c>
    8000b5f0:	00351713          	sll	a4,a0,0x3
    8000b5f4:	00e787b3          	add	a5,a5,a4
    8000b5f8:	0007b703          	ld	a4,0(a5)
    8000b5fc:	02070a63          	beqz	a4,8000b630 <raise+0x6c>
    8000b600:	00100693          	li	a3,1
    8000b604:	00d70a63          	beq	a4,a3,8000b618 <raise+0x54>
    8000b608:	fff00693          	li	a3,-1
    8000b60c:	04d70663          	beq	a4,a3,8000b658 <raise+0x94>
    8000b610:	0007b023          	sd	zero,0(a5)
    8000b614:	000700e7          	jalr	a4
    8000b618:	01013403          	ld	s0,16(sp)
    8000b61c:	00000513          	li	a0,0
    8000b620:	01813083          	ld	ra,24(sp)
    8000b624:	00813483          	ld	s1,8(sp)
    8000b628:	02010113          	add	sp,sp,32
    8000b62c:	00008067          	ret
    8000b630:	00048513          	mv	a0,s1
    8000b634:	29c000ef          	jal	8000b8d0 <_getpid_r>
    8000b638:	00040613          	mv	a2,s0
    8000b63c:	01013403          	ld	s0,16(sp)
    8000b640:	01813083          	ld	ra,24(sp)
    8000b644:	00050593          	mv	a1,a0
    8000b648:	00048513          	mv	a0,s1
    8000b64c:	00813483          	ld	s1,8(sp)
    8000b650:	02010113          	add	sp,sp,32
    8000b654:	2240006f          	j	8000b878 <_kill_r>
    8000b658:	01013403          	ld	s0,16(sp)
    8000b65c:	01813083          	ld	ra,24(sp)
    8000b660:	01600793          	li	a5,22
    8000b664:	00f4a023          	sw	a5,0(s1)
    8000b668:	00100513          	li	a0,1
    8000b66c:	00813483          	ld	s1,8(sp)
    8000b670:	02010113          	add	sp,sp,32
    8000b674:	00008067          	ret
    8000b678:	01600793          	li	a5,22
    8000b67c:	00f4a023          	sw	a5,0(s1)
    8000b680:	fff00513          	li	a0,-1
    8000b684:	f9dff06f          	j	8000b620 <raise+0x5c>

000000008000b688 <signal>:
    8000b688:	fe010113          	add	sp,sp,-32
    8000b68c:	01213023          	sd	s2,0(sp)
    8000b690:	00113c23          	sd	ra,24(sp)
    8000b694:	01f00793          	li	a5,31
    8000b698:	00005917          	auipc	s2,0x5
    8000b69c:	a2093903          	ld	s2,-1504(s2) # 800100b8 <_impure_ptr>
    8000b6a0:	04a7e263          	bltu	a5,a0,8000b6e4 <signal+0x5c>
    8000b6a4:	00813823          	sd	s0,16(sp)
    8000b6a8:	00050413          	mv	s0,a0
    8000b6ac:	15093503          	ld	a0,336(s2)
    8000b6b0:	00913423          	sd	s1,8(sp)
    8000b6b4:	00058493          	mv	s1,a1
    8000b6b8:	02050e63          	beqz	a0,8000b6f4 <signal+0x6c>
    8000b6bc:	00341413          	sll	s0,s0,0x3
    8000b6c0:	008507b3          	add	a5,a0,s0
    8000b6c4:	0007b503          	ld	a0,0(a5)
    8000b6c8:	01013403          	ld	s0,16(sp)
    8000b6cc:	0097b023          	sd	s1,0(a5)
    8000b6d0:	00813483          	ld	s1,8(sp)
    8000b6d4:	01813083          	ld	ra,24(sp)
    8000b6d8:	00013903          	ld	s2,0(sp)
    8000b6dc:	02010113          	add	sp,sp,32
    8000b6e0:	00008067          	ret
    8000b6e4:	01600793          	li	a5,22
    8000b6e8:	00f92023          	sw	a5,0(s2)
    8000b6ec:	fff00513          	li	a0,-1
    8000b6f0:	fe5ff06f          	j	8000b6d4 <signal+0x4c>
    8000b6f4:	10000593          	li	a1,256
    8000b6f8:	00090513          	mv	a0,s2
    8000b6fc:	dc4f60ef          	jal	80001cc0 <_malloc_r>
    8000b700:	14a93823          	sd	a0,336(s2)
    8000b704:	00050793          	mv	a5,a0
    8000b708:	10050713          	add	a4,a0,256
    8000b70c:	00050a63          	beqz	a0,8000b720 <signal+0x98>
    8000b710:	0007b023          	sd	zero,0(a5)
    8000b714:	00878793          	add	a5,a5,8
    8000b718:	fef71ce3          	bne	a4,a5,8000b710 <signal+0x88>
    8000b71c:	fa1ff06f          	j	8000b6bc <signal+0x34>
    8000b720:	01013403          	ld	s0,16(sp)
    8000b724:	00813483          	ld	s1,8(sp)
    8000b728:	fff00513          	li	a0,-1
    8000b72c:	fa9ff06f          	j	8000b6d4 <signal+0x4c>

000000008000b730 <_init_signal>:
    8000b730:	ff010113          	add	sp,sp,-16
    8000b734:	00813023          	sd	s0,0(sp)
    8000b738:	00005417          	auipc	s0,0x5
    8000b73c:	98043403          	ld	s0,-1664(s0) # 800100b8 <_impure_ptr>
    8000b740:	15043783          	ld	a5,336(s0)
    8000b744:	00113423          	sd	ra,8(sp)
    8000b748:	00078c63          	beqz	a5,8000b760 <_init_signal+0x30>
    8000b74c:	00000513          	li	a0,0
    8000b750:	00813083          	ld	ra,8(sp)
    8000b754:	00013403          	ld	s0,0(sp)
    8000b758:	01010113          	add	sp,sp,16
    8000b75c:	00008067          	ret
    8000b760:	10000593          	li	a1,256
    8000b764:	00040513          	mv	a0,s0
    8000b768:	d58f60ef          	jal	80001cc0 <_malloc_r>
    8000b76c:	14a43823          	sd	a0,336(s0)
    8000b770:	00050c63          	beqz	a0,8000b788 <_init_signal+0x58>
    8000b774:	10050793          	add	a5,a0,256
    8000b778:	00053023          	sd	zero,0(a0)
    8000b77c:	00850513          	add	a0,a0,8
    8000b780:	fef51ce3          	bne	a0,a5,8000b778 <_init_signal+0x48>
    8000b784:	fc9ff06f          	j	8000b74c <_init_signal+0x1c>
    8000b788:	fff00513          	li	a0,-1
    8000b78c:	fc5ff06f          	j	8000b750 <_init_signal+0x20>

000000008000b790 <__sigtramp>:
    8000b790:	fe010113          	add	sp,sp,-32
    8000b794:	00913423          	sd	s1,8(sp)
    8000b798:	00113c23          	sd	ra,24(sp)
    8000b79c:	01f00793          	li	a5,31
    8000b7a0:	00005497          	auipc	s1,0x5
    8000b7a4:	9184b483          	ld	s1,-1768(s1) # 800100b8 <_impure_ptr>
    8000b7a8:	0ca7e463          	bltu	a5,a0,8000b870 <__sigtramp+0xe0>
    8000b7ac:	1504b783          	ld	a5,336(s1)
    8000b7b0:	00813823          	sd	s0,16(sp)
    8000b7b4:	00050413          	mv	s0,a0
    8000b7b8:	08078263          	beqz	a5,8000b83c <__sigtramp+0xac>
    8000b7bc:	00341713          	sll	a4,s0,0x3
    8000b7c0:	00e787b3          	add	a5,a5,a4
    8000b7c4:	0007b703          	ld	a4,0(a5)
    8000b7c8:	02070c63          	beqz	a4,8000b800 <__sigtramp+0x70>
    8000b7cc:	fff00693          	li	a3,-1
    8000b7d0:	06d70063          	beq	a4,a3,8000b830 <__sigtramp+0xa0>
    8000b7d4:	00100693          	li	a3,1
    8000b7d8:	04d70063          	beq	a4,a3,8000b818 <__sigtramp+0x88>
    8000b7dc:	00040513          	mv	a0,s0
    8000b7e0:	0007b023          	sd	zero,0(a5)
    8000b7e4:	000700e7          	jalr	a4
    8000b7e8:	01013403          	ld	s0,16(sp)
    8000b7ec:	00000513          	li	a0,0
    8000b7f0:	01813083          	ld	ra,24(sp)
    8000b7f4:	00813483          	ld	s1,8(sp)
    8000b7f8:	02010113          	add	sp,sp,32
    8000b7fc:	00008067          	ret
    8000b800:	01013403          	ld	s0,16(sp)
    8000b804:	01813083          	ld	ra,24(sp)
    8000b808:	00813483          	ld	s1,8(sp)
    8000b80c:	00100513          	li	a0,1
    8000b810:	02010113          	add	sp,sp,32
    8000b814:	00008067          	ret
    8000b818:	01013403          	ld	s0,16(sp)
    8000b81c:	01813083          	ld	ra,24(sp)
    8000b820:	00813483          	ld	s1,8(sp)
    8000b824:	00300513          	li	a0,3
    8000b828:	02010113          	add	sp,sp,32
    8000b82c:	00008067          	ret
    8000b830:	01013403          	ld	s0,16(sp)
    8000b834:	00200513          	li	a0,2
    8000b838:	fb9ff06f          	j	8000b7f0 <__sigtramp+0x60>
    8000b83c:	10000593          	li	a1,256
    8000b840:	00048513          	mv	a0,s1
    8000b844:	c7cf60ef          	jal	80001cc0 <_malloc_r>
    8000b848:	14a4b823          	sd	a0,336(s1)
    8000b84c:	00050793          	mv	a5,a0
    8000b850:	00050e63          	beqz	a0,8000b86c <__sigtramp+0xdc>
    8000b854:	00050713          	mv	a4,a0
    8000b858:	10050693          	add	a3,a0,256
    8000b85c:	00073023          	sd	zero,0(a4)
    8000b860:	00870713          	add	a4,a4,8
    8000b864:	fee69ce3          	bne	a3,a4,8000b85c <__sigtramp+0xcc>
    8000b868:	f55ff06f          	j	8000b7bc <__sigtramp+0x2c>
    8000b86c:	01013403          	ld	s0,16(sp)
    8000b870:	fff00513          	li	a0,-1
    8000b874:	f7dff06f          	j	8000b7f0 <__sigtramp+0x60>

000000008000b878 <_kill_r>:
    8000b878:	ff010113          	add	sp,sp,-16
    8000b87c:	00058713          	mv	a4,a1
    8000b880:	00813023          	sd	s0,0(sp)
    8000b884:	00060593          	mv	a1,a2
    8000b888:	00050413          	mv	s0,a0
    8000b88c:	00070513          	mv	a0,a4
    8000b890:	8a01a023          	sw	zero,-1888(gp) # 80010158 <errno>
    8000b894:	00113423          	sd	ra,8(sp)
    8000b898:	0c8000ef          	jal	8000b960 <_kill>
    8000b89c:	fff00793          	li	a5,-1
    8000b8a0:	00f50a63          	beq	a0,a5,8000b8b4 <_kill_r+0x3c>
    8000b8a4:	00813083          	ld	ra,8(sp)
    8000b8a8:	00013403          	ld	s0,0(sp)
    8000b8ac:	01010113          	add	sp,sp,16
    8000b8b0:	00008067          	ret
    8000b8b4:	8a01a783          	lw	a5,-1888(gp) # 80010158 <errno>
    8000b8b8:	fe0786e3          	beqz	a5,8000b8a4 <_kill_r+0x2c>
    8000b8bc:	00813083          	ld	ra,8(sp)
    8000b8c0:	00f42023          	sw	a5,0(s0)
    8000b8c4:	00013403          	ld	s0,0(sp)
    8000b8c8:	01010113          	add	sp,sp,16
    8000b8cc:	00008067          	ret

000000008000b8d0 <_getpid_r>:
    8000b8d0:	07c0006f          	j	8000b94c <_getpid>

000000008000b8d4 <_close>:
    8000b8d4:	ff010113          	add	sp,sp,-16
    8000b8d8:	03900693          	li	a3,57
    8000b8dc:	00000613          	li	a2,0
    8000b8e0:	00000593          	li	a1,0
    8000b8e4:	00113423          	sd	ra,8(sp)
    8000b8e8:	174000ef          	jal	8000ba5c <htif_syscall>
    8000b8ec:	00813083          	ld	ra,8(sp)
    8000b8f0:	0005051b          	sext.w	a0,a0
    8000b8f4:	01010113          	add	sp,sp,16
    8000b8f8:	00008067          	ret

000000008000b8fc <_exit>:
    8000b8fc:	0015179b          	sllw	a5,a0,0x1
    8000b900:	0017e793          	or	a5,a5,1
    8000b904:	0007879b          	sext.w	a5,a5
    8000b908:	01079793          	sll	a5,a5,0x10
    8000b90c:	0107d793          	srl	a5,a5,0x10
    8000b910:	00004717          	auipc	a4,0x4
    8000b914:	c7070713          	add	a4,a4,-912 # 8000f580 <tohost>
    8000b918:	00004697          	auipc	a3,0x4
    8000b91c:	c606b823          	sd	zero,-912(a3) # 8000f588 <fromhost>
    8000b920:	00f73023          	sd	a5,0(a4)
    8000b924:	ff5ff06f          	j	8000b918 <_exit+0x1c>

000000008000b928 <_fstat>:
    8000b928:	ff010113          	add	sp,sp,-16
    8000b92c:	05000693          	li	a3,80
    8000b930:	00000613          	li	a2,0
    8000b934:	00113423          	sd	ra,8(sp)
    8000b938:	124000ef          	jal	8000ba5c <htif_syscall>
    8000b93c:	00813083          	ld	ra,8(sp)
    8000b940:	0005051b          	sext.w	a0,a0
    8000b944:	01010113          	add	sp,sp,16
    8000b948:	00008067          	ret

000000008000b94c <_getpid>:
    8000b94c:	00100513          	li	a0,1
    8000b950:	00008067          	ret

000000008000b954 <_isatty>:
    8000b954:	fff5051b          	addw	a0,a0,-1
    8000b958:	00253513          	sltiu	a0,a0,2
    8000b95c:	00008067          	ret

000000008000b960 <_kill>:
    8000b960:	ff010113          	add	sp,sp,-16
    8000b964:	00113423          	sd	ra,8(sp)
    8000b968:	99dff0ef          	jal	8000b304 <__errno>
    8000b96c:	00813083          	ld	ra,8(sp)
    8000b970:	01600793          	li	a5,22
    8000b974:	00f52023          	sw	a5,0(a0)
    8000b978:	fff00513          	li	a0,-1
    8000b97c:	01010113          	add	sp,sp,16
    8000b980:	00008067          	ret

000000008000b984 <_lseek>:
    8000b984:	03e00693          	li	a3,62
    8000b988:	0d40006f          	j	8000ba5c <htif_syscall>

000000008000b98c <_read>:
    8000b98c:	03f00693          	li	a3,63
    8000b990:	0cc0006f          	j	8000ba5c <htif_syscall>

000000008000b994 <_sbrk>:
    8000b994:	81818713          	add	a4,gp,-2024 # 800100d0 <curbrk>
    8000b998:	00073783          	ld	a5,0(a4)
    8000b99c:	00005697          	auipc	a3,0x5
    8000b9a0:	72468693          	add	a3,a3,1828 # 800110c0 <_end>
    8000b9a4:	00a78533          	add	a0,a5,a0
    8000b9a8:	00d56e63          	bltu	a0,a3,8000b9c4 <_sbrk+0x30>
    8000b9ac:	00806697          	auipc	a3,0x806
    8000b9b0:	65468693          	add	a3,a3,1620 # 80812000 <__heap_end>
    8000b9b4:	00d57863          	bgeu	a0,a3,8000b9c4 <_sbrk+0x30>
    8000b9b8:	00a73023          	sd	a0,0(a4)
    8000b9bc:	00078513          	mv	a0,a5
    8000b9c0:	00008067          	ret
    8000b9c4:	ff010113          	add	sp,sp,-16
    8000b9c8:	00113423          	sd	ra,8(sp)
    8000b9cc:	939ff0ef          	jal	8000b304 <__errno>
    8000b9d0:	00813083          	ld	ra,8(sp)
    8000b9d4:	00c00793          	li	a5,12
    8000b9d8:	00f52023          	sw	a5,0(a0)
    8000b9dc:	fff00793          	li	a5,-1
    8000b9e0:	00078513          	mv	a0,a5
    8000b9e4:	01010113          	add	sp,sp,16
    8000b9e8:	00008067          	ret

000000008000b9ec <_write>:
    8000b9ec:	04000693          	li	a3,64
    8000b9f0:	06c0006f          	j	8000ba5c <htif_syscall>

000000008000b9f4 <handle_trap>:
    8000b9f4:	ff010113          	add	sp,sp,-16
    8000b9f8:	02159513          	sll	a0,a1,0x21
    8000b9fc:	00113423          	sd	ra,8(sp)
    8000ba00:	02155513          	srl	a0,a0,0x21
    8000ba04:	0005d463          	bgez	a1,8000ba0c <handle_trap+0x18>
    8000ba08:	40a0053b          	negw	a0,a0
    8000ba0c:	ef1ff0ef          	jal	8000b8fc <_exit>

000000008000ba10 <__init_tls>:
    8000ba10:	ff010113          	add	sp,sp,-16
    8000ba14:	00000613          	li	a2,0
    8000ba18:	00002597          	auipc	a1,0x2
    8000ba1c:	6a058593          	add	a1,a1,1696 # 8000e0b8 <__tbss_end>
    8000ba20:	00020513          	mv	a0,tp
    8000ba24:	00813023          	sd	s0,0(sp)
    8000ba28:	00113423          	sd	ra,8(sp)
    8000ba2c:	00020413          	mv	s0,tp
    8000ba30:	a28fa0ef          	jal	80005c58 <memcpy>
    8000ba34:	00000513          	li	a0,0
    8000ba38:	00a40533          	add	a0,s0,a0
    8000ba3c:	00013403          	ld	s0,0(sp)
    8000ba40:	00813083          	ld	ra,8(sp)
    8000ba44:	00000613          	li	a2,0
    8000ba48:	00000593          	li	a1,0
    8000ba4c:	01010113          	add	sp,sp,16
    8000ba50:	b05f506f          	j	80001554 <memset>

000000008000ba54 <__main>:
    8000ba54:	10500073          	wfi
    8000ba58:	ffdff06f          	j	8000ba54 <__main>

000000008000ba5c <htif_syscall>:
    8000ba5c:	fc010113          	add	sp,sp,-64
    8000ba60:	00d13023          	sd	a3,0(sp)
    8000ba64:	00a13423          	sd	a0,8(sp)
    8000ba68:	fff007b7          	lui	a5,0xfff00
    8000ba6c:	00b13823          	sd	a1,16(sp)
    8000ba70:	0107d793          	srl	a5,a5,0x10
    8000ba74:	00c13c23          	sd	a2,24(sp)
    8000ba78:	00010613          	mv	a2,sp
    8000ba7c:	00f67633          	and	a2,a2,a5
    8000ba80:	8d018713          	add	a4,gp,-1840 # 80010188 <htif_lock>
    8000ba84:	fff00693          	li	a3,-1
    8000ba88:	00072783          	lw	a5,0(a4)
    8000ba8c:	00d72023          	sw	a3,0(a4)
    8000ba90:	0007879b          	sext.w	a5,a5
    8000ba94:	0330000f          	fence	rw,rw
    8000ba98:	fe0798e3          	bnez	a5,8000ba88 <htif_syscall+0x2c>
    8000ba9c:	0110000f          	fence	w,w
    8000baa0:	00004717          	auipc	a4,0x4
    8000baa4:	ae070713          	add	a4,a4,-1312 # 8000f580 <tohost>
    8000baa8:	00c73023          	sd	a2,0(a4)
    8000baac:	00873783          	ld	a5,8(a4)
    8000bab0:	fe078ee3          	beqz	a5,8000baac <htif_syscall+0x50>
    8000bab4:	00004797          	auipc	a5,0x4
    8000bab8:	ac07ba23          	sd	zero,-1324(a5) # 8000f588 <fromhost>
    8000babc:	0310000f          	fence	rw,w
    8000bac0:	8c01a823          	sw	zero,-1840(gp) # 80010188 <htif_lock>
    8000bac4:	0220000f          	fence	r,r
    8000bac8:	00013503          	ld	a0,0(sp)
    8000bacc:	04010113          	add	sp,sp,64
    8000bad0:	00008067          	ret

000000008000bad4 <__libc_init_array>:
    8000bad4:	fe010113          	add	sp,sp,-32
    8000bad8:	00813823          	sd	s0,16(sp)
    8000badc:	01213023          	sd	s2,0(sp)
    8000bae0:	00004797          	auipc	a5,0x4
    8000bae4:	a6878793          	add	a5,a5,-1432 # 8000f548 <__init_array_start>
    8000bae8:	00004417          	auipc	s0,0x4
    8000baec:	a6040413          	add	s0,s0,-1440 # 8000f548 <__init_array_start>
    8000baf0:	00113c23          	sd	ra,24(sp)
    8000baf4:	00913423          	sd	s1,8(sp)
    8000baf8:	40878933          	sub	s2,a5,s0
    8000bafc:	02878063          	beq	a5,s0,8000bb1c <__libc_init_array+0x48>
    8000bb00:	40395913          	sra	s2,s2,0x3
    8000bb04:	00000493          	li	s1,0
    8000bb08:	00043783          	ld	a5,0(s0)
    8000bb0c:	00148493          	add	s1,s1,1
    8000bb10:	00840413          	add	s0,s0,8
    8000bb14:	000780e7          	jalr	a5
    8000bb18:	ff24e8e3          	bltu	s1,s2,8000bb08 <__libc_init_array+0x34>
    8000bb1c:	00004797          	auipc	a5,0x4
    8000bb20:	a3478793          	add	a5,a5,-1484 # 8000f550 <__fini_array_end>
    8000bb24:	00004417          	auipc	s0,0x4
    8000bb28:	a2440413          	add	s0,s0,-1500 # 8000f548 <__init_array_start>
    8000bb2c:	40878933          	sub	s2,a5,s0
    8000bb30:	40395913          	sra	s2,s2,0x3
    8000bb34:	00878e63          	beq	a5,s0,8000bb50 <__libc_init_array+0x7c>
    8000bb38:	00000493          	li	s1,0
    8000bb3c:	00043783          	ld	a5,0(s0)
    8000bb40:	00148493          	add	s1,s1,1
    8000bb44:	00840413          	add	s0,s0,8
    8000bb48:	000780e7          	jalr	a5
    8000bb4c:	ff24e8e3          	bltu	s1,s2,8000bb3c <__libc_init_array+0x68>
    8000bb50:	01813083          	ld	ra,24(sp)
    8000bb54:	01013403          	ld	s0,16(sp)
    8000bb58:	00813483          	ld	s1,8(sp)
    8000bb5c:	00013903          	ld	s2,0(sp)
    8000bb60:	02010113          	add	sp,sp,32
    8000bb64:	00008067          	ret

000000008000bb68 <__adddf3>:
    8000bb68:	fff00693          	li	a3,-1
    8000bb6c:	fe010113          	add	sp,sp,-32
    8000bb70:	00c6d693          	srl	a3,a3,0xc
    8000bb74:	0345d613          	srl	a2,a1,0x34
    8000bb78:	03455713          	srl	a4,a0,0x34
    8000bb7c:	00a6f833          	and	a6,a3,a0
    8000bb80:	00813823          	sd	s0,16(sp)
    8000bb84:	00b6f6b3          	and	a3,a3,a1
    8000bb88:	01213023          	sd	s2,0(sp)
    8000bb8c:	7ff67613          	and	a2,a2,2047
    8000bb90:	7ff77913          	and	s2,a4,2047
    8000bb94:	00113c23          	sd	ra,24(sp)
    8000bb98:	00913423          	sd	s1,8(sp)
    8000bb9c:	03f55413          	srl	s0,a0,0x3f
    8000bba0:	03f5d593          	srl	a1,a1,0x3f
    8000bba4:	00369793          	sll	a5,a3,0x3
    8000bba8:	00381813          	sll	a6,a6,0x3
    8000bbac:	40c906bb          	subw	a3,s2,a2
    8000bbb0:	1ab41063          	bne	s0,a1,8000bd50 <__adddf3+0x1e8>
    8000bbb4:	0006859b          	sext.w	a1,a3
    8000bbb8:	08b05e63          	blez	a1,8000bc54 <__adddf3+0xec>
    8000bbbc:	04061c63          	bnez	a2,8000bc14 <__adddf3+0xac>
    8000bbc0:	04078663          	beqz	a5,8000bc0c <__adddf3+0xa4>
    8000bbc4:	fff6859b          	addw	a1,a3,-1
    8000bbc8:	02059e63          	bnez	a1,8000bc04 <__adddf3+0x9c>
    8000bbcc:	010787b3          	add	a5,a5,a6
    8000bbd0:	00879713          	sll	a4,a5,0x8
    8000bbd4:	12075863          	bgez	a4,8000bd04 <__adddf3+0x19c>
    8000bbd8:	00190913          	add	s2,s2,1
    8000bbdc:	7ff00713          	li	a4,2047
    8000bbe0:	3ce90263          	beq	s2,a4,8000bfa4 <__adddf3+0x43c>
    8000bbe4:	1ff00713          	li	a4,511
    8000bbe8:	03671713          	sll	a4,a4,0x36
    8000bbec:	0017f693          	and	a3,a5,1
    8000bbf0:	fff70713          	add	a4,a4,-1
    8000bbf4:	0017d793          	srl	a5,a5,0x1
    8000bbf8:	00e7f7b3          	and	a5,a5,a4
    8000bbfc:	00d7e7b3          	or	a5,a5,a3
    8000bc00:	1040006f          	j	8000bd04 <__adddf3+0x19c>
    8000bc04:	7ff00713          	li	a4,2047
    8000bc08:	02e91063          	bne	s2,a4,8000bc28 <__adddf3+0xc0>
    8000bc0c:	00080793          	mv	a5,a6
    8000bc10:	0f40006f          	j	8000bd04 <__adddf3+0x19c>
    8000bc14:	7ff00713          	li	a4,2047
    8000bc18:	fee90ae3          	beq	s2,a4,8000bc0c <__adddf3+0xa4>
    8000bc1c:	00100713          	li	a4,1
    8000bc20:	03771713          	sll	a4,a4,0x37
    8000bc24:	00e7e7b3          	or	a5,a5,a4
    8000bc28:	03800693          	li	a3,56
    8000bc2c:	00100713          	li	a4,1
    8000bc30:	00b6ce63          	blt	a3,a1,8000bc4c <__adddf3+0xe4>
    8000bc34:	04000693          	li	a3,64
    8000bc38:	40b686bb          	subw	a3,a3,a1
    8000bc3c:	00d796b3          	sll	a3,a5,a3
    8000bc40:	00b7d733          	srl	a4,a5,a1
    8000bc44:	00d036b3          	snez	a3,a3
    8000bc48:	00d76733          	or	a4,a4,a3
    8000bc4c:	010707b3          	add	a5,a4,a6
    8000bc50:	f81ff06f          	j	8000bbd0 <__adddf3+0x68>
    8000bc54:	06058c63          	beqz	a1,8000bccc <__adddf3+0x164>
    8000bc58:	02091863          	bnez	s2,8000bc88 <__adddf3+0x120>
    8000bc5c:	32080e63          	beqz	a6,8000bf98 <__adddf3+0x430>
    8000bc60:	fff6c693          	not	a3,a3
    8000bc64:	0006869b          	sext.w	a3,a3
    8000bc68:	00069863          	bnez	a3,8000bc78 <__adddf3+0x110>
    8000bc6c:	010787b3          	add	a5,a5,a6
    8000bc70:	00060913          	mv	s2,a2
    8000bc74:	f5dff06f          	j	8000bbd0 <__adddf3+0x68>
    8000bc78:	7ff00713          	li	a4,2047
    8000bc7c:	02e61263          	bne	a2,a4,8000bca0 <__adddf3+0x138>
    8000bc80:	7ff00913          	li	s2,2047
    8000bc84:	0800006f          	j	8000bd04 <__adddf3+0x19c>
    8000bc88:	7ff00713          	li	a4,2047
    8000bc8c:	fee60ae3          	beq	a2,a4,8000bc80 <__adddf3+0x118>
    8000bc90:	00100713          	li	a4,1
    8000bc94:	03771713          	sll	a4,a4,0x37
    8000bc98:	40d006bb          	negw	a3,a3
    8000bc9c:	00e86833          	or	a6,a6,a4
    8000bca0:	03800593          	li	a1,56
    8000bca4:	00100713          	li	a4,1
    8000bca8:	00d5ce63          	blt	a1,a3,8000bcc4 <__adddf3+0x15c>
    8000bcac:	04000713          	li	a4,64
    8000bcb0:	40d7073b          	subw	a4,a4,a3
    8000bcb4:	00e81733          	sll	a4,a6,a4
    8000bcb8:	00d855b3          	srl	a1,a6,a3
    8000bcbc:	00e03733          	snez	a4,a4
    8000bcc0:	00e5e733          	or	a4,a1,a4
    8000bcc4:	00e787b3          	add	a5,a5,a4
    8000bcc8:	fa9ff06f          	j	8000bc70 <__adddf3+0x108>
    8000bccc:	00190713          	add	a4,s2,1
    8000bcd0:	7fe77693          	and	a3,a4,2046
    8000bcd4:	06069263          	bnez	a3,8000bd38 <__adddf3+0x1d0>
    8000bcd8:	04091463          	bnez	s2,8000bd20 <__adddf3+0x1b8>
    8000bcdc:	02080463          	beqz	a6,8000bd04 <__adddf3+0x19c>
    8000bce0:	f20786e3          	beqz	a5,8000bc0c <__adddf3+0xa4>
    8000bce4:	010787b3          	add	a5,a5,a6
    8000bce8:	00879713          	sll	a4,a5,0x8
    8000bcec:	00075c63          	bgez	a4,8000bd04 <__adddf3+0x19c>
    8000bcf0:	fff00713          	li	a4,-1
    8000bcf4:	03771713          	sll	a4,a4,0x37
    8000bcf8:	fff70713          	add	a4,a4,-1
    8000bcfc:	00e7f7b3          	and	a5,a5,a4
    8000bd00:	00100913          	li	s2,1
    8000bd04:	0077f713          	and	a4,a5,7
    8000bd08:	18070e63          	beqz	a4,8000bea4 <__adddf3+0x33c>
    8000bd0c:	00f7f713          	and	a4,a5,15
    8000bd10:	00400693          	li	a3,4
    8000bd14:	18d70863          	beq	a4,a3,8000bea4 <__adddf3+0x33c>
    8000bd18:	00478793          	add	a5,a5,4
    8000bd1c:	1880006f          	j	8000bea4 <__adddf3+0x33c>
    8000bd20:	f60800e3          	beqz	a6,8000bc80 <__adddf3+0x118>
    8000bd24:	28078e63          	beqz	a5,8000bfc0 <__adddf3+0x458>
    8000bd28:	00100793          	li	a5,1
    8000bd2c:	03679793          	sll	a5,a5,0x36
    8000bd30:	7ff00913          	li	s2,2047
    8000bd34:	12c0006f          	j	8000be60 <__adddf3+0x2f8>
    8000bd38:	7ff00693          	li	a3,2047
    8000bd3c:	26d70263          	beq	a4,a3,8000bfa0 <__adddf3+0x438>
    8000bd40:	00f807b3          	add	a5,a6,a5
    8000bd44:	0017d793          	srl	a5,a5,0x1
    8000bd48:	00070913          	mv	s2,a4
    8000bd4c:	fb9ff06f          	j	8000bd04 <__adddf3+0x19c>
    8000bd50:	0006851b          	sext.w	a0,a3
    8000bd54:	06a05c63          	blez	a0,8000bdcc <__adddf3+0x264>
    8000bd58:	04061e63          	bnez	a2,8000bdb4 <__adddf3+0x24c>
    8000bd5c:	ea0788e3          	beqz	a5,8000bc0c <__adddf3+0xa4>
    8000bd60:	fff6851b          	addw	a0,a3,-1
    8000bd64:	00051e63          	bnez	a0,8000bd80 <__adddf3+0x218>
    8000bd68:	40f807b3          	sub	a5,a6,a5
    8000bd6c:	00879713          	sll	a4,a5,0x8
    8000bd70:	f8075ae3          	bgez	a4,8000bd04 <__adddf3+0x19c>
    8000bd74:	00979493          	sll	s1,a5,0x9
    8000bd78:	0094d493          	srl	s1,s1,0x9
    8000bd7c:	1b80006f          	j	8000bf34 <__adddf3+0x3cc>
    8000bd80:	7ff00713          	li	a4,2047
    8000bd84:	e8e904e3          	beq	s2,a4,8000bc0c <__adddf3+0xa4>
    8000bd88:	03800693          	li	a3,56
    8000bd8c:	00100713          	li	a4,1
    8000bd90:	00a6ce63          	blt	a3,a0,8000bdac <__adddf3+0x244>
    8000bd94:	04000693          	li	a3,64
    8000bd98:	40a686bb          	subw	a3,a3,a0
    8000bd9c:	00d796b3          	sll	a3,a5,a3
    8000bda0:	00a7d733          	srl	a4,a5,a0
    8000bda4:	00d036b3          	snez	a3,a3
    8000bda8:	00d76733          	or	a4,a4,a3
    8000bdac:	40e807b3          	sub	a5,a6,a4
    8000bdb0:	fbdff06f          	j	8000bd6c <__adddf3+0x204>
    8000bdb4:	7ff00713          	li	a4,2047
    8000bdb8:	e4e90ae3          	beq	s2,a4,8000bc0c <__adddf3+0xa4>
    8000bdbc:	00100713          	li	a4,1
    8000bdc0:	03771713          	sll	a4,a4,0x37
    8000bdc4:	00e7e7b3          	or	a5,a5,a4
    8000bdc8:	fc1ff06f          	j	8000bd88 <__adddf3+0x220>
    8000bdcc:	06050e63          	beqz	a0,8000be48 <__adddf3+0x2e0>
    8000bdd0:	02091a63          	bnez	s2,8000be04 <__adddf3+0x29c>
    8000bdd4:	1c080c63          	beqz	a6,8000bfac <__adddf3+0x444>
    8000bdd8:	fff6c693          	not	a3,a3
    8000bddc:	0006869b          	sext.w	a3,a3
    8000bde0:	00069a63          	bnez	a3,8000bdf4 <__adddf3+0x28c>
    8000bde4:	410787b3          	sub	a5,a5,a6
    8000bde8:	00060913          	mv	s2,a2
    8000bdec:	00058413          	mv	s0,a1
    8000bdf0:	f7dff06f          	j	8000bd6c <__adddf3+0x204>
    8000bdf4:	7ff00713          	li	a4,2047
    8000bdf8:	02e61263          	bne	a2,a4,8000be1c <__adddf3+0x2b4>
    8000bdfc:	7ff00913          	li	s2,2047
    8000be00:	1b00006f          	j	8000bfb0 <__adddf3+0x448>
    8000be04:	7ff00713          	li	a4,2047
    8000be08:	fee60ae3          	beq	a2,a4,8000bdfc <__adddf3+0x294>
    8000be0c:	00100713          	li	a4,1
    8000be10:	03771713          	sll	a4,a4,0x37
    8000be14:	40d006bb          	negw	a3,a3
    8000be18:	00e86833          	or	a6,a6,a4
    8000be1c:	03800513          	li	a0,56
    8000be20:	00100713          	li	a4,1
    8000be24:	00d54e63          	blt	a0,a3,8000be40 <__adddf3+0x2d8>
    8000be28:	04000713          	li	a4,64
    8000be2c:	40d7073b          	subw	a4,a4,a3
    8000be30:	00e81733          	sll	a4,a6,a4
    8000be34:	00d85533          	srl	a0,a6,a3
    8000be38:	00e03733          	snez	a4,a4
    8000be3c:	00e56733          	or	a4,a0,a4
    8000be40:	40e787b3          	sub	a5,a5,a4
    8000be44:	fa5ff06f          	j	8000bde8 <__adddf3+0x280>
    8000be48:	00190713          	add	a4,s2,1
    8000be4c:	7fe77713          	and	a4,a4,2046
    8000be50:	0c071863          	bnez	a4,8000bf20 <__adddf3+0x3b8>
    8000be54:	02091c63          	bnez	s2,8000be8c <__adddf3+0x324>
    8000be58:	00081863          	bnez	a6,8000be68 <__adddf3+0x300>
    8000be5c:	14079a63          	bnez	a5,8000bfb0 <__adddf3+0x448>
    8000be60:	00000413          	li	s0,0
    8000be64:	0400006f          	j	8000bea4 <__adddf3+0x33c>
    8000be68:	da0782e3          	beqz	a5,8000bc0c <__adddf3+0xa4>
    8000be6c:	40f80733          	sub	a4,a6,a5
    8000be70:	00871693          	sll	a3,a4,0x8
    8000be74:	410787b3          	sub	a5,a5,a6
    8000be78:	1206cc63          	bltz	a3,8000bfb0 <__adddf3+0x448>
    8000be7c:	00070793          	mv	a5,a4
    8000be80:	e80712e3          	bnez	a4,8000bd04 <__adddf3+0x19c>
    8000be84:	00000793          	li	a5,0
    8000be88:	fd9ff06f          	j	8000be60 <__adddf3+0x2f8>
    8000be8c:	e8081ce3          	bnez	a6,8000bd24 <__adddf3+0x1bc>
    8000be90:	12079463          	bnez	a5,8000bfb8 <__adddf3+0x450>
    8000be94:	00100793          	li	a5,1
    8000be98:	00000413          	li	s0,0
    8000be9c:	03679793          	sll	a5,a5,0x36
    8000bea0:	7ff00913          	li	s2,2047
    8000bea4:	00879713          	sll	a4,a5,0x8
    8000bea8:	02075063          	bgez	a4,8000bec8 <__adddf3+0x360>
    8000beac:	00190913          	add	s2,s2,1
    8000beb0:	7ff00713          	li	a4,2047
    8000beb4:	10e90a63          	beq	s2,a4,8000bfc8 <__adddf3+0x460>
    8000beb8:	fff00713          	li	a4,-1
    8000bebc:	03771713          	sll	a4,a4,0x37
    8000bec0:	fff70713          	add	a4,a4,-1
    8000bec4:	00e7f7b3          	and	a5,a5,a4
    8000bec8:	7ff00713          	li	a4,2047
    8000becc:	0037d793          	srl	a5,a5,0x3
    8000bed0:	00e91a63          	bne	s2,a4,8000bee4 <__adddf3+0x37c>
    8000bed4:	00078863          	beqz	a5,8000bee4 <__adddf3+0x37c>
    8000bed8:	00100793          	li	a5,1
    8000bedc:	03379793          	sll	a5,a5,0x33
    8000bee0:	00000413          	li	s0,0
    8000bee4:	7ff00693          	li	a3,2047
    8000bee8:	01813083          	ld	ra,24(sp)
    8000beec:	03491713          	sll	a4,s2,0x34
    8000bef0:	03f41513          	sll	a0,s0,0x3f
    8000bef4:	03469693          	sll	a3,a3,0x34
    8000bef8:	01013403          	ld	s0,16(sp)
    8000befc:	00c79793          	sll	a5,a5,0xc
    8000bf00:	00d77733          	and	a4,a4,a3
    8000bf04:	00c7d793          	srl	a5,a5,0xc
    8000bf08:	00f767b3          	or	a5,a4,a5
    8000bf0c:	00813483          	ld	s1,8(sp)
    8000bf10:	00013903          	ld	s2,0(sp)
    8000bf14:	00a7e533          	or	a0,a5,a0
    8000bf18:	02010113          	add	sp,sp,32
    8000bf1c:	00008067          	ret
    8000bf20:	40f804b3          	sub	s1,a6,a5
    8000bf24:	00849713          	sll	a4,s1,0x8
    8000bf28:	04075463          	bgez	a4,8000bf70 <__adddf3+0x408>
    8000bf2c:	410784b3          	sub	s1,a5,a6
    8000bf30:	00058413          	mv	s0,a1
    8000bf34:	00048513          	mv	a0,s1
    8000bf38:	134020ef          	jal	8000e06c <__clzdi2>
    8000bf3c:	ff85079b          	addw	a5,a0,-8
    8000bf40:	00f494b3          	sll	s1,s1,a5
    8000bf44:	0327ce63          	blt	a5,s2,8000bf80 <__adddf3+0x418>
    8000bf48:	4127853b          	subw	a0,a5,s2
    8000bf4c:	0015051b          	addw	a0,a0,1
    8000bf50:	04000713          	li	a4,64
    8000bf54:	40a7073b          	subw	a4,a4,a0
    8000bf58:	00a4d7b3          	srl	a5,s1,a0
    8000bf5c:	00e494b3          	sll	s1,s1,a4
    8000bf60:	009034b3          	snez	s1,s1
    8000bf64:	0097e7b3          	or	a5,a5,s1
    8000bf68:	00000913          	li	s2,0
    8000bf6c:	d99ff06f          	j	8000bd04 <__adddf3+0x19c>
    8000bf70:	fc0492e3          	bnez	s1,8000bf34 <__adddf3+0x3cc>
    8000bf74:	00000793          	li	a5,0
    8000bf78:	00000913          	li	s2,0
    8000bf7c:	ee5ff06f          	j	8000be60 <__adddf3+0x2f8>
    8000bf80:	40f90933          	sub	s2,s2,a5
    8000bf84:	fff00793          	li	a5,-1
    8000bf88:	03779793          	sll	a5,a5,0x37
    8000bf8c:	fff78793          	add	a5,a5,-1
    8000bf90:	00f4f7b3          	and	a5,s1,a5
    8000bf94:	d71ff06f          	j	8000bd04 <__adddf3+0x19c>
    8000bf98:	00060913          	mv	s2,a2
    8000bf9c:	d69ff06f          	j	8000bd04 <__adddf3+0x19c>
    8000bfa0:	7ff00913          	li	s2,2047
    8000bfa4:	00000793          	li	a5,0
    8000bfa8:	efdff06f          	j	8000bea4 <__adddf3+0x33c>
    8000bfac:	00060913          	mv	s2,a2
    8000bfb0:	00058413          	mv	s0,a1
    8000bfb4:	d51ff06f          	j	8000bd04 <__adddf3+0x19c>
    8000bfb8:	00058413          	mv	s0,a1
    8000bfbc:	cc5ff06f          	j	8000bc80 <__adddf3+0x118>
    8000bfc0:	00080793          	mv	a5,a6
    8000bfc4:	cbdff06f          	j	8000bc80 <__adddf3+0x118>
    8000bfc8:	00000793          	li	a5,0
    8000bfcc:	efdff06f          	j	8000bec8 <__adddf3+0x360>

000000008000bfd0 <__divdf3>:
    8000bfd0:	fc010113          	add	sp,sp,-64
    8000bfd4:	02913423          	sd	s1,40(sp)
    8000bfd8:	03455493          	srl	s1,a0,0x34
    8000bfdc:	03213023          	sd	s2,32(sp)
    8000bfe0:	01313c23          	sd	s3,24(sp)
    8000bfe4:	01413823          	sd	s4,16(sp)
    8000bfe8:	00c51993          	sll	s3,a0,0xc
    8000bfec:	02113c23          	sd	ra,56(sp)
    8000bff0:	02813823          	sd	s0,48(sp)
    8000bff4:	01513423          	sd	s5,8(sp)
    8000bff8:	7ff4f493          	and	s1,s1,2047
    8000bffc:	00058a13          	mv	s4,a1
    8000c000:	00c9d993          	srl	s3,s3,0xc
    8000c004:	03f55913          	srl	s2,a0,0x3f
    8000c008:	08048a63          	beqz	s1,8000c09c <__divdf3+0xcc>
    8000c00c:	7ff00793          	li	a5,2047
    8000c010:	0af48863          	beq	s1,a5,8000c0c0 <__divdf3+0xf0>
    8000c014:	00100793          	li	a5,1
    8000c018:	00399993          	sll	s3,s3,0x3
    8000c01c:	03779793          	sll	a5,a5,0x37
    8000c020:	00f9e9b3          	or	s3,s3,a5
    8000c024:	c0148493          	add	s1,s1,-1023
    8000c028:	00000a93          	li	s5,0
    8000c02c:	034a5793          	srl	a5,s4,0x34
    8000c030:	00ca1413          	sll	s0,s4,0xc
    8000c034:	7ff7f793          	and	a5,a5,2047
    8000c038:	00c45413          	srl	s0,s0,0xc
    8000c03c:	03fa5a13          	srl	s4,s4,0x3f
    8000c040:	0a078063          	beqz	a5,8000c0e0 <__divdf3+0x110>
    8000c044:	7ff00713          	li	a4,2047
    8000c048:	0ae78e63          	beq	a5,a4,8000c104 <__divdf3+0x134>
    8000c04c:	00100713          	li	a4,1
    8000c050:	00341413          	sll	s0,s0,0x3
    8000c054:	03771713          	sll	a4,a4,0x37
    8000c058:	00e46433          	or	s0,s0,a4
    8000c05c:	c0178793          	add	a5,a5,-1023
    8000c060:	00000713          	li	a4,0
    8000c064:	40f484b3          	sub	s1,s1,a5
    8000c068:	002a9793          	sll	a5,s5,0x2
    8000c06c:	00e7e7b3          	or	a5,a5,a4
    8000c070:	fff78793          	add	a5,a5,-1
    8000c074:	00e00613          	li	a2,14
    8000c078:	014946b3          	xor	a3,s2,s4
    8000c07c:	0af66463          	bltu	a2,a5,8000c124 <__divdf3+0x154>
    8000c080:	00003617          	auipc	a2,0x3
    8000c084:	36060613          	add	a2,a2,864 # 8000f3e0 <blanks.1+0x10>
    8000c088:	00279793          	sll	a5,a5,0x2
    8000c08c:	00c787b3          	add	a5,a5,a2
    8000c090:	0007a783          	lw	a5,0(a5)
    8000c094:	00c787b3          	add	a5,a5,a2
    8000c098:	00078067          	jr	a5
    8000c09c:	02098c63          	beqz	s3,8000c0d4 <__divdf3+0x104>
    8000c0a0:	00098513          	mv	a0,s3
    8000c0a4:	7c9010ef          	jal	8000e06c <__clzdi2>
    8000c0a8:	0005079b          	sext.w	a5,a0
    8000c0ac:	c0d00493          	li	s1,-1011
    8000c0b0:	ff85051b          	addw	a0,a0,-8
    8000c0b4:	00a999b3          	sll	s3,s3,a0
    8000c0b8:	40f484b3          	sub	s1,s1,a5
    8000c0bc:	f6dff06f          	j	8000c028 <__divdf3+0x58>
    8000c0c0:	7ff00493          	li	s1,2047
    8000c0c4:	00200a93          	li	s5,2
    8000c0c8:	f60982e3          	beqz	s3,8000c02c <__divdf3+0x5c>
    8000c0cc:	00300a93          	li	s5,3
    8000c0d0:	f5dff06f          	j	8000c02c <__divdf3+0x5c>
    8000c0d4:	00000493          	li	s1,0
    8000c0d8:	00100a93          	li	s5,1
    8000c0dc:	f51ff06f          	j	8000c02c <__divdf3+0x5c>
    8000c0e0:	02040c63          	beqz	s0,8000c118 <__divdf3+0x148>
    8000c0e4:	00040513          	mv	a0,s0
    8000c0e8:	785010ef          	jal	8000e06c <__clzdi2>
    8000c0ec:	0005071b          	sext.w	a4,a0
    8000c0f0:	c0d00793          	li	a5,-1011
    8000c0f4:	ff85051b          	addw	a0,a0,-8
    8000c0f8:	00a41433          	sll	s0,s0,a0
    8000c0fc:	40e787b3          	sub	a5,a5,a4
    8000c100:	f61ff06f          	j	8000c060 <__divdf3+0x90>
    8000c104:	7ff00793          	li	a5,2047
    8000c108:	00200713          	li	a4,2
    8000c10c:	f4040ce3          	beqz	s0,8000c064 <__divdf3+0x94>
    8000c110:	00300713          	li	a4,3
    8000c114:	f51ff06f          	j	8000c064 <__divdf3+0x94>
    8000c118:	00000793          	li	a5,0
    8000c11c:	00100713          	li	a4,1
    8000c120:	f45ff06f          	j	8000c064 <__divdf3+0x94>
    8000c124:	00841613          	sll	a2,s0,0x8
    8000c128:	1289f663          	bgeu	s3,s0,8000c254 <__divdf3+0x284>
    8000c12c:	fff48493          	add	s1,s1,-1
    8000c130:	00000793          	li	a5,0
    8000c134:	02065593          	srl	a1,a2,0x20
    8000c138:	02b9d833          	divu	a6,s3,a1
    8000c13c:	00100713          	li	a4,1
    8000c140:	02071713          	sll	a4,a4,0x20
    8000c144:	f0070713          	add	a4,a4,-256
    8000c148:	00e67733          	and	a4,a2,a4
    8000c14c:	0207d793          	srl	a5,a5,0x20
    8000c150:	02b9f9b3          	remu	s3,s3,a1
    8000c154:	00080413          	mv	s0,a6
    8000c158:	03070533          	mul	a0,a4,a6
    8000c15c:	02099993          	sll	s3,s3,0x20
    8000c160:	0137e7b3          	or	a5,a5,s3
    8000c164:	00a7fe63          	bgeu	a5,a0,8000c180 <__divdf3+0x1b0>
    8000c168:	00f607b3          	add	a5,a2,a5
    8000c16c:	fff80413          	add	s0,a6,-1
    8000c170:	00c7e863          	bltu	a5,a2,8000c180 <__divdf3+0x1b0>
    8000c174:	00a7f663          	bgeu	a5,a0,8000c180 <__divdf3+0x1b0>
    8000c178:	ffe80413          	add	s0,a6,-2
    8000c17c:	00c787b3          	add	a5,a5,a2
    8000c180:	40a787b3          	sub	a5,a5,a0
    8000c184:	02b7d533          	divu	a0,a5,a1
    8000c188:	02b7f7b3          	remu	a5,a5,a1
    8000c18c:	00050593          	mv	a1,a0
    8000c190:	02a70733          	mul	a4,a4,a0
    8000c194:	02079793          	sll	a5,a5,0x20
    8000c198:	02e7f263          	bgeu	a5,a4,8000c1bc <__divdf3+0x1ec>
    8000c19c:	00c78833          	add	a6,a5,a2
    8000c1a0:	00f838b3          	sltu	a7,a6,a5
    8000c1a4:	fff50593          	add	a1,a0,-1
    8000c1a8:	00080793          	mv	a5,a6
    8000c1ac:	00089863          	bnez	a7,8000c1bc <__divdf3+0x1ec>
    8000c1b0:	00e87663          	bgeu	a6,a4,8000c1bc <__divdf3+0x1ec>
    8000c1b4:	ffe50593          	add	a1,a0,-2
    8000c1b8:	00c807b3          	add	a5,a6,a2
    8000c1bc:	02041413          	sll	s0,s0,0x20
    8000c1c0:	40e787b3          	sub	a5,a5,a4
    8000c1c4:	00b46433          	or	s0,s0,a1
    8000c1c8:	00f037b3          	snez	a5,a5
    8000c1cc:	00f46433          	or	s0,s0,a5
    8000c1d0:	3ff48713          	add	a4,s1,1023
    8000c1d4:	0ce05c63          	blez	a4,8000c2ac <__divdf3+0x2dc>
    8000c1d8:	00747793          	and	a5,s0,7
    8000c1dc:	00078a63          	beqz	a5,8000c1f0 <__divdf3+0x220>
    8000c1e0:	00f47793          	and	a5,s0,15
    8000c1e4:	00400613          	li	a2,4
    8000c1e8:	00c78463          	beq	a5,a2,8000c1f0 <__divdf3+0x220>
    8000c1ec:	00440413          	add	s0,s0,4
    8000c1f0:	00741793          	sll	a5,s0,0x7
    8000c1f4:	0007dc63          	bgez	a5,8000c20c <__divdf3+0x23c>
    8000c1f8:	fff00793          	li	a5,-1
    8000c1fc:	03879793          	sll	a5,a5,0x38
    8000c200:	fff78793          	add	a5,a5,-1
    8000c204:	00f47433          	and	s0,s0,a5
    8000c208:	40048713          	add	a4,s1,1024
    8000c20c:	7fe00793          	li	a5,2046
    8000c210:	06e7ca63          	blt	a5,a4,8000c284 <__divdf3+0x2b4>
    8000c214:	00345793          	srl	a5,s0,0x3
    8000c218:	03813083          	ld	ra,56(sp)
    8000c21c:	03013403          	ld	s0,48(sp)
    8000c220:	00c79793          	sll	a5,a5,0xc
    8000c224:	03471713          	sll	a4,a4,0x34
    8000c228:	00c7d793          	srl	a5,a5,0xc
    8000c22c:	00f76733          	or	a4,a4,a5
    8000c230:	03f69513          	sll	a0,a3,0x3f
    8000c234:	02813483          	ld	s1,40(sp)
    8000c238:	02013903          	ld	s2,32(sp)
    8000c23c:	01813983          	ld	s3,24(sp)
    8000c240:	01013a03          	ld	s4,16(sp)
    8000c244:	00813a83          	ld	s5,8(sp)
    8000c248:	00a76533          	or	a0,a4,a0
    8000c24c:	04010113          	add	sp,sp,64
    8000c250:	00008067          	ret
    8000c254:	03f99793          	sll	a5,s3,0x3f
    8000c258:	0019d993          	srl	s3,s3,0x1
    8000c25c:	ed9ff06f          	j	8000c134 <__divdf3+0x164>
    8000c260:	00090693          	mv	a3,s2
    8000c264:	00098413          	mv	s0,s3
    8000c268:	000a8713          	mv	a4,s5
    8000c26c:	00300793          	li	a5,3
    8000c270:	08f70a63          	beq	a4,a5,8000c304 <__divdf3+0x334>
    8000c274:	00100793          	li	a5,1
    8000c278:	0af70063          	beq	a4,a5,8000c318 <__divdf3+0x348>
    8000c27c:	00200793          	li	a5,2
    8000c280:	f4f718e3          	bne	a4,a5,8000c1d0 <__divdf3+0x200>
    8000c284:	00000793          	li	a5,0
    8000c288:	7ff00713          	li	a4,2047
    8000c28c:	f8dff06f          	j	8000c218 <__divdf3+0x248>
    8000c290:	000a0693          	mv	a3,s4
    8000c294:	fd9ff06f          	j	8000c26c <__divdf3+0x29c>
    8000c298:	00100413          	li	s0,1
    8000c29c:	03341413          	sll	s0,s0,0x33
    8000c2a0:	00000693          	li	a3,0
    8000c2a4:	00300713          	li	a4,3
    8000c2a8:	fc5ff06f          	j	8000c26c <__divdf3+0x29c>
    8000c2ac:	00100793          	li	a5,1
    8000c2b0:	40e78733          	sub	a4,a5,a4
    8000c2b4:	03800793          	li	a5,56
    8000c2b8:	06e7c063          	blt	a5,a4,8000c318 <__divdf3+0x348>
    8000c2bc:	04000613          	li	a2,64
    8000c2c0:	00e457b3          	srl	a5,s0,a4
    8000c2c4:	40e6073b          	subw	a4,a2,a4
    8000c2c8:	00e41433          	sll	s0,s0,a4
    8000c2cc:	00803433          	snez	s0,s0
    8000c2d0:	0087e7b3          	or	a5,a5,s0
    8000c2d4:	0077f713          	and	a4,a5,7
    8000c2d8:	00070a63          	beqz	a4,8000c2ec <__divdf3+0x31c>
    8000c2dc:	00f7f713          	and	a4,a5,15
    8000c2e0:	00400613          	li	a2,4
    8000c2e4:	00c70463          	beq	a4,a2,8000c2ec <__divdf3+0x31c>
    8000c2e8:	00478793          	add	a5,a5,4
    8000c2ec:	00879713          	sll	a4,a5,0x8
    8000c2f0:	0037d793          	srl	a5,a5,0x3
    8000c2f4:	02075463          	bgez	a4,8000c31c <__divdf3+0x34c>
    8000c2f8:	00000793          	li	a5,0
    8000c2fc:	00100713          	li	a4,1
    8000c300:	f19ff06f          	j	8000c218 <__divdf3+0x248>
    8000c304:	00100793          	li	a5,1
    8000c308:	03379793          	sll	a5,a5,0x33
    8000c30c:	7ff00713          	li	a4,2047
    8000c310:	00000693          	li	a3,0
    8000c314:	f05ff06f          	j	8000c218 <__divdf3+0x248>
    8000c318:	00000793          	li	a5,0
    8000c31c:	00000713          	li	a4,0
    8000c320:	ef9ff06f          	j	8000c218 <__divdf3+0x248>

000000008000c324 <__eqdf2>:
    8000c324:	fff00793          	li	a5,-1
    8000c328:	03455613          	srl	a2,a0,0x34
    8000c32c:	00c7d793          	srl	a5,a5,0xc
    8000c330:	0345d813          	srl	a6,a1,0x34
    8000c334:	7ff67613          	and	a2,a2,2047
    8000c338:	7ff00693          	li	a3,2047
    8000c33c:	00a7f8b3          	and	a7,a5,a0
    8000c340:	03f55713          	srl	a4,a0,0x3f
    8000c344:	00b7f7b3          	and	a5,a5,a1
    8000c348:	7ff87813          	and	a6,a6,2047
    8000c34c:	03f5d593          	srl	a1,a1,0x3f
    8000c350:	00d61e63          	bne	a2,a3,8000c36c <__eqdf2+0x48>
    8000c354:	00100513          	li	a0,1
    8000c358:	04089663          	bnez	a7,8000c3a4 <__eqdf2+0x80>
    8000c35c:	00100693          	li	a3,1
    8000c360:	02c81863          	bne	a6,a2,8000c390 <__eqdf2+0x6c>
    8000c364:	00078c63          	beqz	a5,8000c37c <__eqdf2+0x58>
    8000c368:	00008067          	ret
    8000c36c:	02d80663          	beq	a6,a3,8000c398 <__eqdf2+0x74>
    8000c370:	00100693          	li	a3,1
    8000c374:	01061e63          	bne	a2,a6,8000c390 <__eqdf2+0x6c>
    8000c378:	00f89c63          	bne	a7,a5,8000c390 <__eqdf2+0x6c>
    8000c37c:	00000693          	li	a3,0
    8000c380:	00b70863          	beq	a4,a1,8000c390 <__eqdf2+0x6c>
    8000c384:	00100693          	li	a3,1
    8000c388:	00061463          	bnez	a2,8000c390 <__eqdf2+0x6c>
    8000c38c:	011036b3          	snez	a3,a7
    8000c390:	00068513          	mv	a0,a3
    8000c394:	00008067          	ret
    8000c398:	00100513          	li	a0,1
    8000c39c:	00100693          	li	a3,1
    8000c3a0:	fe0788e3          	beqz	a5,8000c390 <__eqdf2+0x6c>
    8000c3a4:	00008067          	ret

000000008000c3a8 <__gedf2>:
    8000c3a8:	fff00793          	li	a5,-1
    8000c3ac:	00c7d793          	srl	a5,a5,0xc
    8000c3b0:	03455693          	srl	a3,a0,0x34
    8000c3b4:	00a7f633          	and	a2,a5,a0
    8000c3b8:	03f55713          	srl	a4,a0,0x3f
    8000c3bc:	7ff6f693          	and	a3,a3,2047
    8000c3c0:	0345d513          	srl	a0,a1,0x34
    8000c3c4:	7ff00813          	li	a6,2047
    8000c3c8:	00b7f7b3          	and	a5,a5,a1
    8000c3cc:	7ff57513          	and	a0,a0,2047
    8000c3d0:	03f5d593          	srl	a1,a1,0x3f
    8000c3d4:	01069463          	bne	a3,a6,8000c3dc <__gedf2+0x34>
    8000c3d8:	04061263          	bnez	a2,8000c41c <__gedf2+0x74>
    8000c3dc:	7ff00813          	li	a6,2047
    8000c3e0:	01051463          	bne	a0,a6,8000c3e8 <__gedf2+0x40>
    8000c3e4:	02079c63          	bnez	a5,8000c41c <__gedf2+0x74>
    8000c3e8:	04069a63          	bnez	a3,8000c43c <__gedf2+0x94>
    8000c3ec:	02051c63          	bnez	a0,8000c424 <__gedf2+0x7c>
    8000c3f0:	04061863          	bnez	a2,8000c440 <__gedf2+0x98>
    8000c3f4:	04078263          	beqz	a5,8000c438 <__gedf2+0x90>
    8000c3f8:	00100513          	li	a0,1
    8000c3fc:	02059e63          	bnez	a1,8000c438 <__gedf2+0x90>
    8000c400:	fff00513          	li	a0,-1
    8000c404:	00008067          	ret
    8000c408:	fea6c8e3          	blt	a3,a0,8000c3f8 <__gedf2+0x50>
    8000c40c:	02c7e263          	bltu	a5,a2,8000c430 <__gedf2+0x88>
    8000c410:	00000513          	li	a0,0
    8000c414:	02f67263          	bgeu	a2,a5,8000c438 <__gedf2+0x90>
    8000c418:	fe1ff06f          	j	8000c3f8 <__gedf2+0x50>
    8000c41c:	ffe00513          	li	a0,-2
    8000c420:	00008067          	ret
    8000c424:	fc060ae3          	beqz	a2,8000c3f8 <__gedf2+0x50>
    8000c428:	00e59e63          	bne	a1,a4,8000c444 <__gedf2+0x9c>
    8000c42c:	fcd55ee3          	bge	a0,a3,8000c408 <__gedf2+0x60>
    8000c430:	fff00513          	li	a0,-1
    8000c434:	00058c63          	beqz	a1,8000c44c <__gedf2+0xa4>
    8000c438:	00008067          	ret
    8000c43c:	fe0516e3          	bnez	a0,8000c428 <__gedf2+0x80>
    8000c440:	fe0794e3          	bnez	a5,8000c428 <__gedf2+0x80>
    8000c444:	fff00513          	li	a0,-1
    8000c448:	fe0718e3          	bnez	a4,8000c438 <__gedf2+0x90>
    8000c44c:	00100513          	li	a0,1
    8000c450:	00008067          	ret

000000008000c454 <__ledf2>:
    8000c454:	fff00793          	li	a5,-1
    8000c458:	00c7d793          	srl	a5,a5,0xc
    8000c45c:	03455693          	srl	a3,a0,0x34
    8000c460:	00a7f633          	and	a2,a5,a0
    8000c464:	03f55713          	srl	a4,a0,0x3f
    8000c468:	7ff6f693          	and	a3,a3,2047
    8000c46c:	0345d513          	srl	a0,a1,0x34
    8000c470:	7ff00813          	li	a6,2047
    8000c474:	00b7f7b3          	and	a5,a5,a1
    8000c478:	7ff57513          	and	a0,a0,2047
    8000c47c:	03f5d593          	srl	a1,a1,0x3f
    8000c480:	01069463          	bne	a3,a6,8000c488 <__ledf2+0x34>
    8000c484:	04061263          	bnez	a2,8000c4c8 <__ledf2+0x74>
    8000c488:	7ff00813          	li	a6,2047
    8000c48c:	01051463          	bne	a0,a6,8000c494 <__ledf2+0x40>
    8000c490:	02079c63          	bnez	a5,8000c4c8 <__ledf2+0x74>
    8000c494:	04069a63          	bnez	a3,8000c4e8 <__ledf2+0x94>
    8000c498:	02051c63          	bnez	a0,8000c4d0 <__ledf2+0x7c>
    8000c49c:	04061863          	bnez	a2,8000c4ec <__ledf2+0x98>
    8000c4a0:	04078263          	beqz	a5,8000c4e4 <__ledf2+0x90>
    8000c4a4:	00100513          	li	a0,1
    8000c4a8:	02059e63          	bnez	a1,8000c4e4 <__ledf2+0x90>
    8000c4ac:	fff00513          	li	a0,-1
    8000c4b0:	00008067          	ret
    8000c4b4:	fea6c8e3          	blt	a3,a0,8000c4a4 <__ledf2+0x50>
    8000c4b8:	02c7e263          	bltu	a5,a2,8000c4dc <__ledf2+0x88>
    8000c4bc:	00000513          	li	a0,0
    8000c4c0:	02f67263          	bgeu	a2,a5,8000c4e4 <__ledf2+0x90>
    8000c4c4:	fe1ff06f          	j	8000c4a4 <__ledf2+0x50>
    8000c4c8:	00200513          	li	a0,2
    8000c4cc:	00008067          	ret
    8000c4d0:	fc060ae3          	beqz	a2,8000c4a4 <__ledf2+0x50>
    8000c4d4:	00e59e63          	bne	a1,a4,8000c4f0 <__ledf2+0x9c>
    8000c4d8:	fcd55ee3          	bge	a0,a3,8000c4b4 <__ledf2+0x60>
    8000c4dc:	fff00513          	li	a0,-1
    8000c4e0:	00058c63          	beqz	a1,8000c4f8 <__ledf2+0xa4>
    8000c4e4:	00008067          	ret
    8000c4e8:	fe0516e3          	bnez	a0,8000c4d4 <__ledf2+0x80>
    8000c4ec:	fe0794e3          	bnez	a5,8000c4d4 <__ledf2+0x80>
    8000c4f0:	fff00513          	li	a0,-1
    8000c4f4:	fe0718e3          	bnez	a4,8000c4e4 <__ledf2+0x90>
    8000c4f8:	00100513          	li	a0,1
    8000c4fc:	00008067          	ret

000000008000c500 <__muldf3>:
    8000c500:	fc010113          	add	sp,sp,-64
    8000c504:	03213023          	sd	s2,32(sp)
    8000c508:	03455913          	srl	s2,a0,0x34
    8000c50c:	02913423          	sd	s1,40(sp)
    8000c510:	01313c23          	sd	s3,24(sp)
    8000c514:	01513423          	sd	s5,8(sp)
    8000c518:	00c51493          	sll	s1,a0,0xc
    8000c51c:	02113c23          	sd	ra,56(sp)
    8000c520:	02813823          	sd	s0,48(sp)
    8000c524:	01413823          	sd	s4,16(sp)
    8000c528:	7ff97913          	and	s2,s2,2047
    8000c52c:	00058a93          	mv	s5,a1
    8000c530:	00c4d493          	srl	s1,s1,0xc
    8000c534:	03f55993          	srl	s3,a0,0x3f
    8000c538:	12090063          	beqz	s2,8000c658 <__muldf3+0x158>
    8000c53c:	7ff00793          	li	a5,2047
    8000c540:	12f90e63          	beq	s2,a5,8000c67c <__muldf3+0x17c>
    8000c544:	00100793          	li	a5,1
    8000c548:	00349493          	sll	s1,s1,0x3
    8000c54c:	03779793          	sll	a5,a5,0x37
    8000c550:	00f4e4b3          	or	s1,s1,a5
    8000c554:	c0190913          	add	s2,s2,-1023
    8000c558:	00000a13          	li	s4,0
    8000c55c:	034ad793          	srl	a5,s5,0x34
    8000c560:	00ca9413          	sll	s0,s5,0xc
    8000c564:	7ff7f793          	and	a5,a5,2047
    8000c568:	00c45413          	srl	s0,s0,0xc
    8000c56c:	03fada93          	srl	s5,s5,0x3f
    8000c570:	12078663          	beqz	a5,8000c69c <__muldf3+0x19c>
    8000c574:	7ff00713          	li	a4,2047
    8000c578:	14e78463          	beq	a5,a4,8000c6c0 <__muldf3+0x1c0>
    8000c57c:	00100713          	li	a4,1
    8000c580:	00341413          	sll	s0,s0,0x3
    8000c584:	03771713          	sll	a4,a4,0x37
    8000c588:	00e46433          	or	s0,s0,a4
    8000c58c:	c0178793          	add	a5,a5,-1023
    8000c590:	00000713          	li	a4,0
    8000c594:	00f90933          	add	s2,s2,a5
    8000c598:	002a1793          	sll	a5,s4,0x2
    8000c59c:	00e7e7b3          	or	a5,a5,a4
    8000c5a0:	00a00693          	li	a3,10
    8000c5a4:	00190513          	add	a0,s2,1
    8000c5a8:	1ef6cc63          	blt	a3,a5,8000c7a0 <__muldf3+0x2a0>
    8000c5ac:	00200693          	li	a3,2
    8000c5b0:	0159c9b3          	xor	s3,s3,s5
    8000c5b4:	12f6c663          	blt	a3,a5,8000c6e0 <__muldf3+0x1e0>
    8000c5b8:	fff78793          	add	a5,a5,-1
    8000c5bc:	00100693          	li	a3,1
    8000c5c0:	14f6f263          	bgeu	a3,a5,8000c704 <__muldf3+0x204>
    8000c5c4:	fff00613          	li	a2,-1
    8000c5c8:	02065613          	srl	a2,a2,0x20
    8000c5cc:	0204d693          	srl	a3,s1,0x20
    8000c5d0:	02045793          	srl	a5,s0,0x20
    8000c5d4:	00c4f4b3          	and	s1,s1,a2
    8000c5d8:	00c47433          	and	s0,s0,a2
    8000c5dc:	029405b3          	mul	a1,s0,s1
    8000c5e0:	02868433          	mul	s0,a3,s0
    8000c5e4:	02f686b3          	mul	a3,a3,a5
    8000c5e8:	029787b3          	mul	a5,a5,s1
    8000c5ec:	00878733          	add	a4,a5,s0
    8000c5f0:	0205d793          	srl	a5,a1,0x20
    8000c5f4:	00e787b3          	add	a5,a5,a4
    8000c5f8:	0087f863          	bgeu	a5,s0,8000c608 <__muldf3+0x108>
    8000c5fc:	00100713          	li	a4,1
    8000c600:	02071713          	sll	a4,a4,0x20
    8000c604:	00e686b3          	add	a3,a3,a4
    8000c608:	00c7f733          	and	a4,a5,a2
    8000c60c:	02071713          	sll	a4,a4,0x20
    8000c610:	00c5f5b3          	and	a1,a1,a2
    8000c614:	00b70733          	add	a4,a4,a1
    8000c618:	0207d793          	srl	a5,a5,0x20
    8000c61c:	00971413          	sll	s0,a4,0x9
    8000c620:	00d787b3          	add	a5,a5,a3
    8000c624:	03775713          	srl	a4,a4,0x37
    8000c628:	00979793          	sll	a5,a5,0x9
    8000c62c:	00803433          	snez	s0,s0
    8000c630:	00e46433          	or	s0,s0,a4
    8000c634:	00779713          	sll	a4,a5,0x7
    8000c638:	0087e433          	or	s0,a5,s0
    8000c63c:	00075a63          	bgez	a4,8000c650 <__muldf3+0x150>
    8000c640:	00145793          	srl	a5,s0,0x1
    8000c644:	00147413          	and	s0,s0,1
    8000c648:	0087e433          	or	s0,a5,s0
    8000c64c:	00050913          	mv	s2,a0
    8000c650:	00090513          	mv	a0,s2
    8000c654:	0c80006f          	j	8000c71c <__muldf3+0x21c>
    8000c658:	02048c63          	beqz	s1,8000c690 <__muldf3+0x190>
    8000c65c:	00048513          	mv	a0,s1
    8000c660:	20d010ef          	jal	8000e06c <__clzdi2>
    8000c664:	0005079b          	sext.w	a5,a0
    8000c668:	c0d00913          	li	s2,-1011
    8000c66c:	ff85051b          	addw	a0,a0,-8
    8000c670:	00a494b3          	sll	s1,s1,a0
    8000c674:	40f90933          	sub	s2,s2,a5
    8000c678:	ee1ff06f          	j	8000c558 <__muldf3+0x58>
    8000c67c:	7ff00913          	li	s2,2047
    8000c680:	00200a13          	li	s4,2
    8000c684:	ec048ce3          	beqz	s1,8000c55c <__muldf3+0x5c>
    8000c688:	00300a13          	li	s4,3
    8000c68c:	ed1ff06f          	j	8000c55c <__muldf3+0x5c>
    8000c690:	00000913          	li	s2,0
    8000c694:	00100a13          	li	s4,1
    8000c698:	ec5ff06f          	j	8000c55c <__muldf3+0x5c>
    8000c69c:	02040c63          	beqz	s0,8000c6d4 <__muldf3+0x1d4>
    8000c6a0:	00040513          	mv	a0,s0
    8000c6a4:	1c9010ef          	jal	8000e06c <__clzdi2>
    8000c6a8:	0005071b          	sext.w	a4,a0
    8000c6ac:	c0d00793          	li	a5,-1011
    8000c6b0:	ff85051b          	addw	a0,a0,-8
    8000c6b4:	00a41433          	sll	s0,s0,a0
    8000c6b8:	40e787b3          	sub	a5,a5,a4
    8000c6bc:	ed5ff06f          	j	8000c590 <__muldf3+0x90>
    8000c6c0:	7ff00793          	li	a5,2047
    8000c6c4:	00200713          	li	a4,2
    8000c6c8:	ec0406e3          	beqz	s0,8000c594 <__muldf3+0x94>
    8000c6cc:	00300713          	li	a4,3
    8000c6d0:	ec5ff06f          	j	8000c594 <__muldf3+0x94>
    8000c6d4:	00000793          	li	a5,0
    8000c6d8:	00100713          	li	a4,1
    8000c6dc:	eb9ff06f          	j	8000c594 <__muldf3+0x94>
    8000c6e0:	00100693          	li	a3,1
    8000c6e4:	00f697b3          	sll	a5,a3,a5
    8000c6e8:	5307f693          	and	a3,a5,1328
    8000c6ec:	0c069263          	bnez	a3,8000c7b0 <__muldf3+0x2b0>
    8000c6f0:	2407f693          	and	a3,a5,576
    8000c6f4:	12069663          	bnez	a3,8000c820 <__muldf3+0x320>
    8000c6f8:	0887f793          	and	a5,a5,136
    8000c6fc:	ec0784e3          	beqz	a5,8000c5c4 <__muldf3+0xc4>
    8000c700:	000a8993          	mv	s3,s5
    8000c704:	00200793          	li	a5,2
    8000c708:	10f70663          	beq	a4,a5,8000c814 <__muldf3+0x314>
    8000c70c:	00300793          	li	a5,3
    8000c710:	10f70863          	beq	a4,a5,8000c820 <__muldf3+0x320>
    8000c714:	00100793          	li	a5,1
    8000c718:	10f70e63          	beq	a4,a5,8000c834 <__muldf3+0x334>
    8000c71c:	3ff50713          	add	a4,a0,1023
    8000c720:	08e05e63          	blez	a4,8000c7bc <__muldf3+0x2bc>
    8000c724:	00747793          	and	a5,s0,7
    8000c728:	00078a63          	beqz	a5,8000c73c <__muldf3+0x23c>
    8000c72c:	00f47793          	and	a5,s0,15
    8000c730:	00400693          	li	a3,4
    8000c734:	00d78463          	beq	a5,a3,8000c73c <__muldf3+0x23c>
    8000c738:	00440413          	add	s0,s0,4
    8000c73c:	00741793          	sll	a5,s0,0x7
    8000c740:	0007dc63          	bgez	a5,8000c758 <__muldf3+0x258>
    8000c744:	fff00793          	li	a5,-1
    8000c748:	03879793          	sll	a5,a5,0x38
    8000c74c:	fff78793          	add	a5,a5,-1
    8000c750:	00f47433          	and	s0,s0,a5
    8000c754:	40050713          	add	a4,a0,1024
    8000c758:	7fe00793          	li	a5,2046
    8000c75c:	0ae7cc63          	blt	a5,a4,8000c814 <__muldf3+0x314>
    8000c760:	00345793          	srl	a5,s0,0x3
    8000c764:	03813083          	ld	ra,56(sp)
    8000c768:	03013403          	ld	s0,48(sp)
    8000c76c:	00c79793          	sll	a5,a5,0xc
    8000c770:	03471513          	sll	a0,a4,0x34
    8000c774:	00c7d793          	srl	a5,a5,0xc
    8000c778:	03f99993          	sll	s3,s3,0x3f
    8000c77c:	00f56533          	or	a0,a0,a5
    8000c780:	02813483          	ld	s1,40(sp)
    8000c784:	02013903          	ld	s2,32(sp)
    8000c788:	01013a03          	ld	s4,16(sp)
    8000c78c:	00813a83          	ld	s5,8(sp)
    8000c790:	01356533          	or	a0,a0,s3
    8000c794:	01813983          	ld	s3,24(sp)
    8000c798:	04010113          	add	sp,sp,64
    8000c79c:	00008067          	ret
    8000c7a0:	00f00693          	li	a3,15
    8000c7a4:	06d78e63          	beq	a5,a3,8000c820 <__muldf3+0x320>
    8000c7a8:	00b00693          	li	a3,11
    8000c7ac:	f4d78ae3          	beq	a5,a3,8000c700 <__muldf3+0x200>
    8000c7b0:	00048413          	mv	s0,s1
    8000c7b4:	000a0713          	mv	a4,s4
    8000c7b8:	f4dff06f          	j	8000c704 <__muldf3+0x204>
    8000c7bc:	00100693          	li	a3,1
    8000c7c0:	40e686b3          	sub	a3,a3,a4
    8000c7c4:	03800793          	li	a5,56
    8000c7c8:	06d7c663          	blt	a5,a3,8000c834 <__muldf3+0x334>
    8000c7cc:	04000713          	li	a4,64
    8000c7d0:	40d7073b          	subw	a4,a4,a3
    8000c7d4:	00e41733          	sll	a4,s0,a4
    8000c7d8:	00e03733          	snez	a4,a4
    8000c7dc:	00d457b3          	srl	a5,s0,a3
    8000c7e0:	00e7e7b3          	or	a5,a5,a4
    8000c7e4:	0077f713          	and	a4,a5,7
    8000c7e8:	00070a63          	beqz	a4,8000c7fc <__muldf3+0x2fc>
    8000c7ec:	00f7f713          	and	a4,a5,15
    8000c7f0:	00400693          	li	a3,4
    8000c7f4:	00d70463          	beq	a4,a3,8000c7fc <__muldf3+0x2fc>
    8000c7f8:	00478793          	add	a5,a5,4
    8000c7fc:	00879713          	sll	a4,a5,0x8
    8000c800:	0037d793          	srl	a5,a5,0x3
    8000c804:	02075a63          	bgez	a4,8000c838 <__muldf3+0x338>
    8000c808:	00000793          	li	a5,0
    8000c80c:	00100713          	li	a4,1
    8000c810:	f55ff06f          	j	8000c764 <__muldf3+0x264>
    8000c814:	00000793          	li	a5,0
    8000c818:	7ff00713          	li	a4,2047
    8000c81c:	f49ff06f          	j	8000c764 <__muldf3+0x264>
    8000c820:	00100793          	li	a5,1
    8000c824:	03379793          	sll	a5,a5,0x33
    8000c828:	7ff00713          	li	a4,2047
    8000c82c:	00000993          	li	s3,0
    8000c830:	f35ff06f          	j	8000c764 <__muldf3+0x264>
    8000c834:	00000793          	li	a5,0
    8000c838:	00000713          	li	a4,0
    8000c83c:	f29ff06f          	j	8000c764 <__muldf3+0x264>

000000008000c840 <__subdf3>:
    8000c840:	fff00613          	li	a2,-1
    8000c844:	fe010113          	add	sp,sp,-32
    8000c848:	00c65613          	srl	a2,a2,0xc
    8000c84c:	00a676b3          	and	a3,a2,a0
    8000c850:	03455813          	srl	a6,a0,0x34
    8000c854:	00813823          	sd	s0,16(sp)
    8000c858:	03f55413          	srl	s0,a0,0x3f
    8000c85c:	0345d513          	srl	a0,a1,0x34
    8000c860:	00b677b3          	and	a5,a2,a1
    8000c864:	01213023          	sd	s2,0(sp)
    8000c868:	7ff87813          	and	a6,a6,2047
    8000c86c:	00113c23          	sd	ra,24(sp)
    8000c870:	00913423          	sd	s1,8(sp)
    8000c874:	7ff57513          	and	a0,a0,2047
    8000c878:	7ff00713          	li	a4,2047
    8000c87c:	00080913          	mv	s2,a6
    8000c880:	00369693          	sll	a3,a3,0x3
    8000c884:	03f5d593          	srl	a1,a1,0x3f
    8000c888:	00379793          	sll	a5,a5,0x3
    8000c88c:	00e51463          	bne	a0,a4,8000c894 <__subdf3+0x54>
    8000c890:	00079463          	bnez	a5,8000c898 <__subdf3+0x58>
    8000c894:	0015c593          	xor	a1,a1,1
    8000c898:	40a8063b          	subw	a2,a6,a0
    8000c89c:	0006089b          	sext.w	a7,a2
    8000c8a0:	18859a63          	bne	a1,s0,8000ca34 <__subdf3+0x1f4>
    8000c8a4:	09105e63          	blez	a7,8000c940 <__subdf3+0x100>
    8000c8a8:	04051c63          	bnez	a0,8000c900 <__subdf3+0xc0>
    8000c8ac:	04078663          	beqz	a5,8000c8f8 <__subdf3+0xb8>
    8000c8b0:	fff6089b          	addw	a7,a2,-1
    8000c8b4:	02089e63          	bnez	a7,8000c8f0 <__subdf3+0xb0>
    8000c8b8:	00d787b3          	add	a5,a5,a3
    8000c8bc:	00879713          	sll	a4,a5,0x8
    8000c8c0:	12075863          	bgez	a4,8000c9f0 <__subdf3+0x1b0>
    8000c8c4:	00190913          	add	s2,s2,1
    8000c8c8:	7ff00713          	li	a4,2047
    8000c8cc:	34e90263          	beq	s2,a4,8000cc10 <__subdf3+0x3d0>
    8000c8d0:	1ff00713          	li	a4,511
    8000c8d4:	03671713          	sll	a4,a4,0x36
    8000c8d8:	0017f693          	and	a3,a5,1
    8000c8dc:	fff70713          	add	a4,a4,-1
    8000c8e0:	0017d793          	srl	a5,a5,0x1
    8000c8e4:	00e7f7b3          	and	a5,a5,a4
    8000c8e8:	00d7e7b3          	or	a5,a5,a3
    8000c8ec:	1040006f          	j	8000c9f0 <__subdf3+0x1b0>
    8000c8f0:	7ff00713          	li	a4,2047
    8000c8f4:	02e81063          	bne	a6,a4,8000c914 <__subdf3+0xd4>
    8000c8f8:	00068793          	mv	a5,a3
    8000c8fc:	0f40006f          	j	8000c9f0 <__subdf3+0x1b0>
    8000c900:	7ff00713          	li	a4,2047
    8000c904:	fee80ae3          	beq	a6,a4,8000c8f8 <__subdf3+0xb8>
    8000c908:	00100713          	li	a4,1
    8000c90c:	03771713          	sll	a4,a4,0x37
    8000c910:	00e7e7b3          	or	a5,a5,a4
    8000c914:	03800613          	li	a2,56
    8000c918:	00100713          	li	a4,1
    8000c91c:	01164e63          	blt	a2,a7,8000c938 <__subdf3+0xf8>
    8000c920:	04000613          	li	a2,64
    8000c924:	4116063b          	subw	a2,a2,a7
    8000c928:	00c79633          	sll	a2,a5,a2
    8000c92c:	0117d733          	srl	a4,a5,a7
    8000c930:	00c03633          	snez	a2,a2
    8000c934:	00c76733          	or	a4,a4,a2
    8000c938:	00d707b3          	add	a5,a4,a3
    8000c93c:	f81ff06f          	j	8000c8bc <__subdf3+0x7c>
    8000c940:	06088c63          	beqz	a7,8000c9b8 <__subdf3+0x178>
    8000c944:	02081863          	bnez	a6,8000c974 <__subdf3+0x134>
    8000c948:	2a068e63          	beqz	a3,8000cc04 <__subdf3+0x3c4>
    8000c94c:	fff64613          	not	a2,a2
    8000c950:	0006061b          	sext.w	a2,a2
    8000c954:	00061863          	bnez	a2,8000c964 <__subdf3+0x124>
    8000c958:	00d787b3          	add	a5,a5,a3
    8000c95c:	00050913          	mv	s2,a0
    8000c960:	f5dff06f          	j	8000c8bc <__subdf3+0x7c>
    8000c964:	7ff00713          	li	a4,2047
    8000c968:	02e51263          	bne	a0,a4,8000c98c <__subdf3+0x14c>
    8000c96c:	7ff00913          	li	s2,2047
    8000c970:	0800006f          	j	8000c9f0 <__subdf3+0x1b0>
    8000c974:	7ff00713          	li	a4,2047
    8000c978:	fee50ae3          	beq	a0,a4,8000c96c <__subdf3+0x12c>
    8000c97c:	00100713          	li	a4,1
    8000c980:	03771713          	sll	a4,a4,0x37
    8000c984:	40c0063b          	negw	a2,a2
    8000c988:	00e6e6b3          	or	a3,a3,a4
    8000c98c:	03800593          	li	a1,56
    8000c990:	00100713          	li	a4,1
    8000c994:	00c5ce63          	blt	a1,a2,8000c9b0 <__subdf3+0x170>
    8000c998:	04000713          	li	a4,64
    8000c99c:	40c7073b          	subw	a4,a4,a2
    8000c9a0:	00e69733          	sll	a4,a3,a4
    8000c9a4:	00c6d5b3          	srl	a1,a3,a2
    8000c9a8:	00e03733          	snez	a4,a4
    8000c9ac:	00e5e733          	or	a4,a1,a4
    8000c9b0:	00e787b3          	add	a5,a5,a4
    8000c9b4:	fa9ff06f          	j	8000c95c <__subdf3+0x11c>
    8000c9b8:	00180713          	add	a4,a6,1
    8000c9bc:	7fe77613          	and	a2,a4,2046
    8000c9c0:	04061e63          	bnez	a2,8000ca1c <__subdf3+0x1dc>
    8000c9c4:	04081463          	bnez	a6,8000ca0c <__subdf3+0x1cc>
    8000c9c8:	02068463          	beqz	a3,8000c9f0 <__subdf3+0x1b0>
    8000c9cc:	f20786e3          	beqz	a5,8000c8f8 <__subdf3+0xb8>
    8000c9d0:	00d787b3          	add	a5,a5,a3
    8000c9d4:	00879713          	sll	a4,a5,0x8
    8000c9d8:	00075c63          	bgez	a4,8000c9f0 <__subdf3+0x1b0>
    8000c9dc:	fff00713          	li	a4,-1
    8000c9e0:	03771713          	sll	a4,a4,0x37
    8000c9e4:	fff70713          	add	a4,a4,-1
    8000c9e8:	00e7f7b3          	and	a5,a5,a4
    8000c9ec:	00100913          	li	s2,1
    8000c9f0:	0077f713          	and	a4,a5,7
    8000c9f4:	22070063          	beqz	a4,8000cc14 <__subdf3+0x3d4>
    8000c9f8:	00f7f713          	and	a4,a5,15
    8000c9fc:	00400693          	li	a3,4
    8000ca00:	20d70a63          	beq	a4,a3,8000cc14 <__subdf3+0x3d4>
    8000ca04:	00478793          	add	a5,a5,4
    8000ca08:	20c0006f          	j	8000cc14 <__subdf3+0x3d4>
    8000ca0c:	f60680e3          	beqz	a3,8000c96c <__subdf3+0x12c>
    8000ca10:	16079463          	bnez	a5,8000cb78 <__subdf3+0x338>
    8000ca14:	00068793          	mv	a5,a3
    8000ca18:	f55ff06f          	j	8000c96c <__subdf3+0x12c>
    8000ca1c:	7ff00613          	li	a2,2047
    8000ca20:	1ec70663          	beq	a4,a2,8000cc0c <__subdf3+0x3cc>
    8000ca24:	00f687b3          	add	a5,a3,a5
    8000ca28:	0017d793          	srl	a5,a5,0x1
    8000ca2c:	00070913          	mv	s2,a4
    8000ca30:	fc1ff06f          	j	8000c9f0 <__subdf3+0x1b0>
    8000ca34:	07105c63          	blez	a7,8000caac <__subdf3+0x26c>
    8000ca38:	04051e63          	bnez	a0,8000ca94 <__subdf3+0x254>
    8000ca3c:	ea078ee3          	beqz	a5,8000c8f8 <__subdf3+0xb8>
    8000ca40:	fff6089b          	addw	a7,a2,-1
    8000ca44:	00089e63          	bnez	a7,8000ca60 <__subdf3+0x220>
    8000ca48:	40f687b3          	sub	a5,a3,a5
    8000ca4c:	00879713          	sll	a4,a5,0x8
    8000ca50:	fa0750e3          	bgez	a4,8000c9f0 <__subdf3+0x1b0>
    8000ca54:	00979493          	sll	s1,a5,0x9
    8000ca58:	0094d493          	srl	s1,s1,0x9
    8000ca5c:	1440006f          	j	8000cba0 <__subdf3+0x360>
    8000ca60:	7ff00713          	li	a4,2047
    8000ca64:	e8e80ae3          	beq	a6,a4,8000c8f8 <__subdf3+0xb8>
    8000ca68:	03800613          	li	a2,56
    8000ca6c:	00100713          	li	a4,1
    8000ca70:	01164e63          	blt	a2,a7,8000ca8c <__subdf3+0x24c>
    8000ca74:	04000613          	li	a2,64
    8000ca78:	4116063b          	subw	a2,a2,a7
    8000ca7c:	00c79633          	sll	a2,a5,a2
    8000ca80:	0117d733          	srl	a4,a5,a7
    8000ca84:	00c03633          	snez	a2,a2
    8000ca88:	00c76733          	or	a4,a4,a2
    8000ca8c:	40e687b3          	sub	a5,a3,a4
    8000ca90:	fbdff06f          	j	8000ca4c <__subdf3+0x20c>
    8000ca94:	7ff00713          	li	a4,2047
    8000ca98:	e6e800e3          	beq	a6,a4,8000c8f8 <__subdf3+0xb8>
    8000ca9c:	00100713          	li	a4,1
    8000caa0:	03771713          	sll	a4,a4,0x37
    8000caa4:	00e7e7b3          	or	a5,a5,a4
    8000caa8:	fc1ff06f          	j	8000ca68 <__subdf3+0x228>
    8000caac:	06088e63          	beqz	a7,8000cb28 <__subdf3+0x2e8>
    8000cab0:	02081a63          	bnez	a6,8000cae4 <__subdf3+0x2a4>
    8000cab4:	1c068e63          	beqz	a3,8000cc90 <__subdf3+0x450>
    8000cab8:	fff64613          	not	a2,a2
    8000cabc:	0006061b          	sext.w	a2,a2
    8000cac0:	00061a63          	bnez	a2,8000cad4 <__subdf3+0x294>
    8000cac4:	40d787b3          	sub	a5,a5,a3
    8000cac8:	00050913          	mv	s2,a0
    8000cacc:	00058413          	mv	s0,a1
    8000cad0:	f7dff06f          	j	8000ca4c <__subdf3+0x20c>
    8000cad4:	7ff00713          	li	a4,2047
    8000cad8:	02e51263          	bne	a0,a4,8000cafc <__subdf3+0x2bc>
    8000cadc:	7ff00913          	li	s2,2047
    8000cae0:	1b40006f          	j	8000cc94 <__subdf3+0x454>
    8000cae4:	7ff00713          	li	a4,2047
    8000cae8:	fee50ae3          	beq	a0,a4,8000cadc <__subdf3+0x29c>
    8000caec:	00100713          	li	a4,1
    8000caf0:	03771713          	sll	a4,a4,0x37
    8000caf4:	40c0063b          	negw	a2,a2
    8000caf8:	00e6e6b3          	or	a3,a3,a4
    8000cafc:	03800813          	li	a6,56
    8000cb00:	00100713          	li	a4,1
    8000cb04:	00c84e63          	blt	a6,a2,8000cb20 <__subdf3+0x2e0>
    8000cb08:	04000713          	li	a4,64
    8000cb0c:	40c7073b          	subw	a4,a4,a2
    8000cb10:	00e69733          	sll	a4,a3,a4
    8000cb14:	00c6d833          	srl	a6,a3,a2
    8000cb18:	00e03733          	snez	a4,a4
    8000cb1c:	00e86733          	or	a4,a6,a4
    8000cb20:	40e787b3          	sub	a5,a5,a4
    8000cb24:	fa5ff06f          	j	8000cac8 <__subdf3+0x288>
    8000cb28:	00180713          	add	a4,a6,1
    8000cb2c:	7fe77713          	and	a4,a4,2046
    8000cb30:	04071e63          	bnez	a4,8000cb8c <__subdf3+0x34c>
    8000cb34:	02081c63          	bnez	a6,8000cb6c <__subdf3+0x32c>
    8000cb38:	00069863          	bnez	a3,8000cb48 <__subdf3+0x308>
    8000cb3c:	14079c63          	bnez	a5,8000cc94 <__subdf3+0x454>
    8000cb40:	00000413          	li	s0,0
    8000cb44:	0d00006f          	j	8000cc14 <__subdf3+0x3d4>
    8000cb48:	da0788e3          	beqz	a5,8000c8f8 <__subdf3+0xb8>
    8000cb4c:	40f68733          	sub	a4,a3,a5
    8000cb50:	00871613          	sll	a2,a4,0x8
    8000cb54:	40d787b3          	sub	a5,a5,a3
    8000cb58:	12064e63          	bltz	a2,8000cc94 <__subdf3+0x454>
    8000cb5c:	00070793          	mv	a5,a4
    8000cb60:	e80718e3          	bnez	a4,8000c9f0 <__subdf3+0x1b0>
    8000cb64:	00000793          	li	a5,0
    8000cb68:	fd9ff06f          	j	8000cb40 <__subdf3+0x300>
    8000cb6c:	ea0692e3          	bnez	a3,8000ca10 <__subdf3+0x1d0>
    8000cb70:	00058413          	mv	s0,a1
    8000cb74:	de079ce3          	bnez	a5,8000c96c <__subdf3+0x12c>
    8000cb78:	00100793          	li	a5,1
    8000cb7c:	00000413          	li	s0,0
    8000cb80:	03679793          	sll	a5,a5,0x36
    8000cb84:	7ff00913          	li	s2,2047
    8000cb88:	08c0006f          	j	8000cc14 <__subdf3+0x3d4>
    8000cb8c:	40f684b3          	sub	s1,a3,a5
    8000cb90:	00849713          	sll	a4,s1,0x8
    8000cb94:	04075463          	bgez	a4,8000cbdc <__subdf3+0x39c>
    8000cb98:	40d784b3          	sub	s1,a5,a3
    8000cb9c:	00058413          	mv	s0,a1
    8000cba0:	00048513          	mv	a0,s1
    8000cba4:	4c8010ef          	jal	8000e06c <__clzdi2>
    8000cba8:	ff85079b          	addw	a5,a0,-8
    8000cbac:	00f494b3          	sll	s1,s1,a5
    8000cbb0:	0327ce63          	blt	a5,s2,8000cbec <__subdf3+0x3ac>
    8000cbb4:	4127853b          	subw	a0,a5,s2
    8000cbb8:	0015051b          	addw	a0,a0,1
    8000cbbc:	04000713          	li	a4,64
    8000cbc0:	40a7073b          	subw	a4,a4,a0
    8000cbc4:	00a4d7b3          	srl	a5,s1,a0
    8000cbc8:	00e494b3          	sll	s1,s1,a4
    8000cbcc:	009034b3          	snez	s1,s1
    8000cbd0:	0097e7b3          	or	a5,a5,s1
    8000cbd4:	00000913          	li	s2,0
    8000cbd8:	e19ff06f          	j	8000c9f0 <__subdf3+0x1b0>
    8000cbdc:	fc0492e3          	bnez	s1,8000cba0 <__subdf3+0x360>
    8000cbe0:	00000793          	li	a5,0
    8000cbe4:	00000913          	li	s2,0
    8000cbe8:	f59ff06f          	j	8000cb40 <__subdf3+0x300>
    8000cbec:	40f90933          	sub	s2,s2,a5
    8000cbf0:	fff00793          	li	a5,-1
    8000cbf4:	03779793          	sll	a5,a5,0x37
    8000cbf8:	fff78793          	add	a5,a5,-1
    8000cbfc:	00f4f7b3          	and	a5,s1,a5
    8000cc00:	df1ff06f          	j	8000c9f0 <__subdf3+0x1b0>
    8000cc04:	00050913          	mv	s2,a0
    8000cc08:	de9ff06f          	j	8000c9f0 <__subdf3+0x1b0>
    8000cc0c:	7ff00913          	li	s2,2047
    8000cc10:	00000793          	li	a5,0
    8000cc14:	00879713          	sll	a4,a5,0x8
    8000cc18:	02075063          	bgez	a4,8000cc38 <__subdf3+0x3f8>
    8000cc1c:	00190913          	add	s2,s2,1
    8000cc20:	7ff00713          	li	a4,2047
    8000cc24:	06e90c63          	beq	s2,a4,8000cc9c <__subdf3+0x45c>
    8000cc28:	fff00713          	li	a4,-1
    8000cc2c:	03771713          	sll	a4,a4,0x37
    8000cc30:	fff70713          	add	a4,a4,-1
    8000cc34:	00e7f7b3          	and	a5,a5,a4
    8000cc38:	7ff00713          	li	a4,2047
    8000cc3c:	0037d793          	srl	a5,a5,0x3
    8000cc40:	00e91a63          	bne	s2,a4,8000cc54 <__subdf3+0x414>
    8000cc44:	00078863          	beqz	a5,8000cc54 <__subdf3+0x414>
    8000cc48:	00100793          	li	a5,1
    8000cc4c:	03379793          	sll	a5,a5,0x33
    8000cc50:	00000413          	li	s0,0
    8000cc54:	7ff00693          	li	a3,2047
    8000cc58:	01813083          	ld	ra,24(sp)
    8000cc5c:	03491713          	sll	a4,s2,0x34
    8000cc60:	03f41513          	sll	a0,s0,0x3f
    8000cc64:	03469693          	sll	a3,a3,0x34
    8000cc68:	01013403          	ld	s0,16(sp)
    8000cc6c:	00c79793          	sll	a5,a5,0xc
    8000cc70:	00d77733          	and	a4,a4,a3
    8000cc74:	00c7d793          	srl	a5,a5,0xc
    8000cc78:	00f767b3          	or	a5,a4,a5
    8000cc7c:	00813483          	ld	s1,8(sp)
    8000cc80:	00013903          	ld	s2,0(sp)
    8000cc84:	00a7e533          	or	a0,a5,a0
    8000cc88:	02010113          	add	sp,sp,32
    8000cc8c:	00008067          	ret
    8000cc90:	00050913          	mv	s2,a0
    8000cc94:	00058413          	mv	s0,a1
    8000cc98:	d59ff06f          	j	8000c9f0 <__subdf3+0x1b0>
    8000cc9c:	00000793          	li	a5,0
    8000cca0:	f99ff06f          	j	8000cc38 <__subdf3+0x3f8>

000000008000cca4 <__fixdfsi>:
    8000cca4:	03455693          	srl	a3,a0,0x34
    8000cca8:	00c51793          	sll	a5,a0,0xc
    8000ccac:	7ff6f693          	and	a3,a3,2047
    8000ccb0:	3fe00613          	li	a2,1022
    8000ccb4:	00c7d793          	srl	a5,a5,0xc
    8000ccb8:	03f55713          	srl	a4,a0,0x3f
    8000ccbc:	04d65263          	bge	a2,a3,8000cd00 <__fixdfsi+0x5c>
    8000ccc0:	41d00613          	li	a2,1053
    8000ccc4:	00d65a63          	bge	a2,a3,8000ccd8 <__fixdfsi+0x34>
    8000ccc8:	80000537          	lui	a0,0x80000
    8000cccc:	fff54513          	not	a0,a0
    8000ccd0:	00a7053b          	addw	a0,a4,a0
    8000ccd4:	00008067          	ret
    8000ccd8:	00100613          	li	a2,1
    8000ccdc:	03461613          	sll	a2,a2,0x34
    8000cce0:	00c7e533          	or	a0,a5,a2
    8000cce4:	43300793          	li	a5,1075
    8000cce8:	40d787bb          	subw	a5,a5,a3
    8000ccec:	00f55533          	srl	a0,a0,a5
    8000ccf0:	0005051b          	sext.w	a0,a0
    8000ccf4:	00070863          	beqz	a4,8000cd04 <__fixdfsi+0x60>
    8000ccf8:	40a0053b          	negw	a0,a0
    8000ccfc:	00008067          	ret
    8000cd00:	00000513          	li	a0,0
    8000cd04:	00008067          	ret

000000008000cd08 <__floatsidf>:
    8000cd08:	fe010113          	add	sp,sp,-32
    8000cd0c:	00113c23          	sd	ra,24(sp)
    8000cd10:	00813823          	sd	s0,16(sp)
    8000cd14:	00913423          	sd	s1,8(sp)
    8000cd18:	06050063          	beqz	a0,8000cd78 <__floatsidf+0x70>
    8000cd1c:	0005079b          	sext.w	a5,a0
    8000cd20:	03f55493          	srl	s1,a0,0x3f
    8000cd24:	00055463          	bgez	a0,8000cd2c <__floatsidf+0x24>
    8000cd28:	40f007bb          	negw	a5,a5
    8000cd2c:	02079413          	sll	s0,a5,0x20
    8000cd30:	02045413          	srl	s0,s0,0x20
    8000cd34:	00040513          	mv	a0,s0
    8000cd38:	334010ef          	jal	8000e06c <__clzdi2>
    8000cd3c:	43e00713          	li	a4,1086
    8000cd40:	40a7073b          	subw	a4,a4,a0
    8000cd44:	ff55051b          	addw	a0,a0,-11 # 7ffffff5 <__heap_size+0x7f7ffff5>
    8000cd48:	00a417b3          	sll	a5,s0,a0
    8000cd4c:	01813083          	ld	ra,24(sp)
    8000cd50:	01013403          	ld	s0,16(sp)
    8000cd54:	00c79793          	sll	a5,a5,0xc
    8000cd58:	03471713          	sll	a4,a4,0x34
    8000cd5c:	00c7d793          	srl	a5,a5,0xc
    8000cd60:	03f49513          	sll	a0,s1,0x3f
    8000cd64:	00f76733          	or	a4,a4,a5
    8000cd68:	00813483          	ld	s1,8(sp)
    8000cd6c:	00a76533          	or	a0,a4,a0
    8000cd70:	02010113          	add	sp,sp,32
    8000cd74:	00008067          	ret
    8000cd78:	00000793          	li	a5,0
    8000cd7c:	00000713          	li	a4,0
    8000cd80:	00000493          	li	s1,0
    8000cd84:	fc9ff06f          	j	8000cd4c <__floatsidf+0x44>

000000008000cd88 <__eqtf2>:
    8000cd88:	00008837          	lui	a6,0x8
    8000cd8c:	0305d713          	srl	a4,a1,0x30
    8000cd90:	fff80813          	add	a6,a6,-1 # 7fff <__stack_shift+0x7fe8>
    8000cd94:	fff00793          	li	a5,-1
    8000cd98:	0107d793          	srl	a5,a5,0x10
    8000cd9c:	0306d893          	srl	a7,a3,0x30
    8000cda0:	01077733          	and	a4,a4,a6
    8000cda4:	00f5f333          	and	t1,a1,a5
    8000cda8:	00050e13          	mv	t3,a0
    8000cdac:	00f6f7b3          	and	a5,a3,a5
    8000cdb0:	03f5d593          	srl	a1,a1,0x3f
    8000cdb4:	0108f8b3          	and	a7,a7,a6
    8000cdb8:	03f6d693          	srl	a3,a3,0x3f
    8000cdbc:	01071e63          	bne	a4,a6,8000cdd8 <__eqtf2+0x50>
    8000cdc0:	00a36833          	or	a6,t1,a0
    8000cdc4:	00100513          	li	a0,1
    8000cdc8:	00081663          	bnez	a6,8000cdd4 <__eqtf2+0x4c>
    8000cdcc:	00e88863          	beq	a7,a4,8000cddc <__eqtf2+0x54>
    8000cdd0:	00100513          	li	a0,1
    8000cdd4:	00008067          	ret
    8000cdd8:	01089863          	bne	a7,a6,8000cde8 <__eqtf2+0x60>
    8000cddc:	00c7e833          	or	a6,a5,a2
    8000cde0:	00100513          	li	a0,1
    8000cde4:	fe0818e3          	bnez	a6,8000cdd4 <__eqtf2+0x4c>
    8000cde8:	00100513          	li	a0,1
    8000cdec:	ff1714e3          	bne	a4,a7,8000cdd4 <__eqtf2+0x4c>
    8000cdf0:	fef312e3          	bne	t1,a5,8000cdd4 <__eqtf2+0x4c>
    8000cdf4:	fece10e3          	bne	t3,a2,8000cdd4 <__eqtf2+0x4c>
    8000cdf8:	00d58a63          	beq	a1,a3,8000ce0c <__eqtf2+0x84>
    8000cdfc:	fc071ce3          	bnez	a4,8000cdd4 <__eqtf2+0x4c>
    8000ce00:	01c36333          	or	t1,t1,t3
    8000ce04:	00603533          	snez	a0,t1
    8000ce08:	00008067          	ret
    8000ce0c:	00000513          	li	a0,0
    8000ce10:	00008067          	ret

000000008000ce14 <__getf2>:
    8000ce14:	00008337          	lui	t1,0x8
    8000ce18:	0305d813          	srl	a6,a1,0x30
    8000ce1c:	fff30313          	add	t1,t1,-1 # 7fff <__stack_shift+0x7fe8>
    8000ce20:	fff00713          	li	a4,-1
    8000ce24:	01075713          	srl	a4,a4,0x10
    8000ce28:	0306d793          	srl	a5,a3,0x30
    8000ce2c:	00687833          	and	a6,a6,t1
    8000ce30:	00e5fe33          	and	t3,a1,a4
    8000ce34:	00050893          	mv	a7,a0
    8000ce38:	00e6f733          	and	a4,a3,a4
    8000ce3c:	03f5d593          	srl	a1,a1,0x3f
    8000ce40:	0067f533          	and	a0,a5,t1
    8000ce44:	03f6d693          	srl	a3,a3,0x3f
    8000ce48:	00681663          	bne	a6,t1,8000ce54 <__getf2+0x40>
    8000ce4c:	011e67b3          	or	a5,t3,a7
    8000ce50:	06079a63          	bnez	a5,8000cec4 <__getf2+0xb0>
    8000ce54:	00651663          	bne	a0,t1,8000ce60 <__getf2+0x4c>
    8000ce58:	00c767b3          	or	a5,a4,a2
    8000ce5c:	06079463          	bnez	a5,8000cec4 <__getf2+0xb0>
    8000ce60:	00000793          	li	a5,0
    8000ce64:	00081663          	bnez	a6,8000ce70 <__getf2+0x5c>
    8000ce68:	011e67b3          	or	a5,t3,a7
    8000ce6c:	0017b793          	seqz	a5,a5
    8000ce70:	04051e63          	bnez	a0,8000cecc <__getf2+0xb8>
    8000ce74:	00c76333          	or	t1,a4,a2
    8000ce78:	00078c63          	beqz	a5,8000ce90 <__getf2+0x7c>
    8000ce7c:	02030063          	beqz	t1,8000ce9c <__getf2+0x88>
    8000ce80:	00100513          	li	a0,1
    8000ce84:	00069c63          	bnez	a3,8000ce9c <__getf2+0x88>
    8000ce88:	fff00513          	li	a0,-1
    8000ce8c:	00008067          	ret
    8000ce90:	04031063          	bnez	t1,8000ced0 <__getf2+0xbc>
    8000ce94:	fff00513          	li	a0,-1
    8000ce98:	04058463          	beqz	a1,8000cee0 <__getf2+0xcc>
    8000ce9c:	00008067          	ret
    8000cea0:	fea840e3          	blt	a6,a0,8000ce80 <__getf2+0x6c>
    8000cea4:	ffc768e3          	bltu	a4,t3,8000ce94 <__getf2+0x80>
    8000cea8:	00ee1863          	bne	t3,a4,8000ceb8 <__getf2+0xa4>
    8000ceac:	ff1664e3          	bltu	a2,a7,8000ce94 <__getf2+0x80>
    8000ceb0:	00000513          	li	a0,0
    8000ceb4:	fec8f4e3          	bgeu	a7,a2,8000ce9c <__getf2+0x88>
    8000ceb8:	00100513          	li	a0,1
    8000cebc:	fe0590e3          	bnez	a1,8000ce9c <__getf2+0x88>
    8000cec0:	fc9ff06f          	j	8000ce88 <__getf2+0x74>
    8000cec4:	ffe00513          	li	a0,-2
    8000cec8:	00008067          	ret
    8000cecc:	fa079ae3          	bnez	a5,8000ce80 <__getf2+0x6c>
    8000ced0:	fcb692e3          	bne	a3,a1,8000ce94 <__getf2+0x80>
    8000ced4:	fd0556e3          	bge	a0,a6,8000cea0 <__getf2+0x8c>
    8000ced8:	fff00513          	li	a0,-1
    8000cedc:	fc0690e3          	bnez	a3,8000ce9c <__getf2+0x88>
    8000cee0:	00100513          	li	a0,1
    8000cee4:	00008067          	ret

000000008000cee8 <__letf2>:
    8000cee8:	00008337          	lui	t1,0x8
    8000ceec:	0305d813          	srl	a6,a1,0x30
    8000cef0:	fff30313          	add	t1,t1,-1 # 7fff <__stack_shift+0x7fe8>
    8000cef4:	fff00713          	li	a4,-1
    8000cef8:	01075713          	srl	a4,a4,0x10
    8000cefc:	0306d793          	srl	a5,a3,0x30
    8000cf00:	00687833          	and	a6,a6,t1
    8000cf04:	00e5fe33          	and	t3,a1,a4
    8000cf08:	00050893          	mv	a7,a0
    8000cf0c:	00e6f733          	and	a4,a3,a4
    8000cf10:	03f5d593          	srl	a1,a1,0x3f
    8000cf14:	0067f533          	and	a0,a5,t1
    8000cf18:	03f6d693          	srl	a3,a3,0x3f
    8000cf1c:	00681663          	bne	a6,t1,8000cf28 <__letf2+0x40>
    8000cf20:	011e67b3          	or	a5,t3,a7
    8000cf24:	06079a63          	bnez	a5,8000cf98 <__letf2+0xb0>
    8000cf28:	00651663          	bne	a0,t1,8000cf34 <__letf2+0x4c>
    8000cf2c:	00c767b3          	or	a5,a4,a2
    8000cf30:	06079463          	bnez	a5,8000cf98 <__letf2+0xb0>
    8000cf34:	00000793          	li	a5,0
    8000cf38:	00081663          	bnez	a6,8000cf44 <__letf2+0x5c>
    8000cf3c:	011e67b3          	or	a5,t3,a7
    8000cf40:	0017b793          	seqz	a5,a5
    8000cf44:	04051e63          	bnez	a0,8000cfa0 <__letf2+0xb8>
    8000cf48:	00c76333          	or	t1,a4,a2
    8000cf4c:	00078c63          	beqz	a5,8000cf64 <__letf2+0x7c>
    8000cf50:	02030063          	beqz	t1,8000cf70 <__letf2+0x88>
    8000cf54:	00100513          	li	a0,1
    8000cf58:	00069c63          	bnez	a3,8000cf70 <__letf2+0x88>
    8000cf5c:	fff00513          	li	a0,-1
    8000cf60:	00008067          	ret
    8000cf64:	04031063          	bnez	t1,8000cfa4 <__letf2+0xbc>
    8000cf68:	fff00513          	li	a0,-1
    8000cf6c:	04058463          	beqz	a1,8000cfb4 <__letf2+0xcc>
    8000cf70:	00008067          	ret
    8000cf74:	fea840e3          	blt	a6,a0,8000cf54 <__letf2+0x6c>
    8000cf78:	ffc768e3          	bltu	a4,t3,8000cf68 <__letf2+0x80>
    8000cf7c:	00ee1863          	bne	t3,a4,8000cf8c <__letf2+0xa4>
    8000cf80:	ff1664e3          	bltu	a2,a7,8000cf68 <__letf2+0x80>
    8000cf84:	00000513          	li	a0,0
    8000cf88:	fec8f4e3          	bgeu	a7,a2,8000cf70 <__letf2+0x88>
    8000cf8c:	00100513          	li	a0,1
    8000cf90:	fe0590e3          	bnez	a1,8000cf70 <__letf2+0x88>
    8000cf94:	fc9ff06f          	j	8000cf5c <__letf2+0x74>
    8000cf98:	00200513          	li	a0,2
    8000cf9c:	00008067          	ret
    8000cfa0:	fa079ae3          	bnez	a5,8000cf54 <__letf2+0x6c>
    8000cfa4:	fcb692e3          	bne	a3,a1,8000cf68 <__letf2+0x80>
    8000cfa8:	fd0556e3          	bge	a0,a6,8000cf74 <__letf2+0x8c>
    8000cfac:	fff00513          	li	a0,-1
    8000cfb0:	fc0690e3          	bnez	a3,8000cf70 <__letf2+0x88>
    8000cfb4:	00100513          	li	a0,1
    8000cfb8:	00008067          	ret

000000008000cfbc <__multf3>:
    8000cfbc:	00008737          	lui	a4,0x8
    8000cfc0:	fb010113          	add	sp,sp,-80
    8000cfc4:	0305d793          	srl	a5,a1,0x30
    8000cfc8:	fff70713          	add	a4,a4,-1 # 7fff <__stack_shift+0x7fe8>
    8000cfcc:	04813023          	sd	s0,64(sp)
    8000cfd0:	02913c23          	sd	s1,56(sp)
    8000cfd4:	03313423          	sd	s3,40(sp)
    8000cfd8:	01513c23          	sd	s5,24(sp)
    8000cfdc:	01613823          	sd	s6,16(sp)
    8000cfe0:	01059493          	sll	s1,a1,0x10
    8000cfe4:	04113423          	sd	ra,72(sp)
    8000cfe8:	03213823          	sd	s2,48(sp)
    8000cfec:	03413023          	sd	s4,32(sp)
    8000cff0:	01713423          	sd	s7,8(sp)
    8000cff4:	00e7f7b3          	and	a5,a5,a4
    8000cff8:	00050413          	mv	s0,a0
    8000cffc:	00060b13          	mv	s6,a2
    8000d000:	00068993          	mv	s3,a3
    8000d004:	0104d493          	srl	s1,s1,0x10
    8000d008:	03f5da93          	srl	s5,a1,0x3f
    8000d00c:	2e078463          	beqz	a5,8000d2f4 <__multf3+0x338>
    8000d010:	0007891b          	sext.w	s2,a5
    8000d014:	34e78863          	beq	a5,a4,8000d364 <__multf3+0x3a8>
    8000d018:	00349493          	sll	s1,s1,0x3
    8000d01c:	03d55713          	srl	a4,a0,0x3d
    8000d020:	00976733          	or	a4,a4,s1
    8000d024:	ffffc937          	lui	s2,0xffffc
    8000d028:	00100493          	li	s1,1
    8000d02c:	03349493          	sll	s1,s1,0x33
    8000d030:	00190913          	add	s2,s2,1 # ffffffffffffc001 <__heap_end+0xffffffff7f7ea001>
    8000d034:	009764b3          	or	s1,a4,s1
    8000d038:	00351a13          	sll	s4,a0,0x3
    8000d03c:	01278933          	add	s2,a5,s2
    8000d040:	00000b93          	li	s7,0
    8000d044:	000087b7          	lui	a5,0x8
    8000d048:	0309d613          	srl	a2,s3,0x30
    8000d04c:	fff78793          	add	a5,a5,-1 # 7fff <__stack_shift+0x7fe8>
    8000d050:	01099413          	sll	s0,s3,0x10
    8000d054:	00f67633          	and	a2,a2,a5
    8000d058:	01045413          	srl	s0,s0,0x10
    8000d05c:	03f9d993          	srl	s3,s3,0x3f
    8000d060:	32060a63          	beqz	a2,8000d394 <__multf3+0x3d8>
    8000d064:	0006071b          	sext.w	a4,a2
    8000d068:	3af60063          	beq	a2,a5,8000d408 <__multf3+0x44c>
    8000d06c:	00341413          	sll	s0,s0,0x3
    8000d070:	03db5793          	srl	a5,s6,0x3d
    8000d074:	0087e7b3          	or	a5,a5,s0
    8000d078:	ffffc737          	lui	a4,0xffffc
    8000d07c:	00100413          	li	s0,1
    8000d080:	03341413          	sll	s0,s0,0x33
    8000d084:	00170713          	add	a4,a4,1 # ffffffffffffc001 <__heap_end+0xffffffff7f7ea001>
    8000d088:	0087e433          	or	s0,a5,s0
    8000d08c:	00e60733          	add	a4,a2,a4
    8000d090:	003b1793          	sll	a5,s6,0x3
    8000d094:	00000693          	li	a3,0
    8000d098:	002b9593          	sll	a1,s7,0x2
    8000d09c:	01270733          	add	a4,a4,s2
    8000d0a0:	00d5e5b3          	or	a1,a1,a3
    8000d0a4:	00a00613          	li	a2,10
    8000d0a8:	00170813          	add	a6,a4,1
    8000d0ac:	46b64e63          	blt	a2,a1,8000d528 <__multf3+0x56c>
    8000d0b0:	00200513          	li	a0,2
    8000d0b4:	013ac633          	xor	a2,s5,s3
    8000d0b8:	38b54063          	blt	a0,a1,8000d438 <__multf3+0x47c>
    8000d0bc:	fff58593          	add	a1,a1,-1
    8000d0c0:	00100513          	li	a0,1
    8000d0c4:	38b57c63          	bgeu	a0,a1,8000d45c <__multf3+0x4a0>
    8000d0c8:	fff00693          	li	a3,-1
    8000d0cc:	0206d693          	srl	a3,a3,0x20
    8000d0d0:	008782b3          	add	t0,a5,s0
    8000d0d4:	020a5593          	srl	a1,s4,0x20
    8000d0d8:	0207d513          	srl	a0,a5,0x20
    8000d0dc:	01448333          	add	t1,s1,s4
    8000d0e0:	00f2beb3          	sltu	t4,t0,a5
    8000d0e4:	00da7a33          	and	s4,s4,a3
    8000d0e8:	00d7f7b3          	and	a5,a5,a3
    8000d0ec:	02fa08b3          	mul	a7,s4,a5
    8000d0f0:	00933e33          	sltu	t3,t1,s1
    8000d0f4:	02a586b3          	mul	a3,a1,a0
    8000d0f8:	02f587b3          	mul	a5,a1,a5
    8000d0fc:	03450533          	mul	a0,a0,s4
    8000d100:	00f505b3          	add	a1,a0,a5
    8000d104:	0208d513          	srl	a0,a7,0x20
    8000d108:	00b50533          	add	a0,a0,a1
    8000d10c:	00f57863          	bgeu	a0,a5,8000d11c <__multf3+0x160>
    8000d110:	00100793          	li	a5,1
    8000d114:	02079793          	sll	a5,a5,0x20
    8000d118:	00f686b3          	add	a3,a3,a5
    8000d11c:	fff00793          	li	a5,-1
    8000d120:	0207d793          	srl	a5,a5,0x20
    8000d124:	02055f13          	srl	t5,a0,0x20
    8000d128:	00f57533          	and	a0,a0,a5
    8000d12c:	00f8f8b3          	and	a7,a7,a5
    8000d130:	02051513          	sll	a0,a0,0x20
    8000d134:	02035393          	srl	t2,t1,0x20
    8000d138:	00df0f33          	add	t5,t5,a3
    8000d13c:	01150533          	add	a0,a0,a7
    8000d140:	0202d693          	srl	a3,t0,0x20
    8000d144:	00f378b3          	and	a7,t1,a5
    8000d148:	00f2f7b3          	and	a5,t0,a5
    8000d14c:	02f885b3          	mul	a1,a7,a5
    8000d150:	02f387b3          	mul	a5,t2,a5
    8000d154:	0205df93          	srl	t6,a1,0x20
    8000d158:	02d383b3          	mul	t2,t2,a3
    8000d15c:	031686b3          	mul	a3,a3,a7
    8000d160:	00f686b3          	add	a3,a3,a5
    8000d164:	00df8fb3          	add	t6,t6,a3
    8000d168:	00fff863          	bgeu	t6,a5,8000d178 <__multf3+0x1bc>
    8000d16c:	00100793          	li	a5,1
    8000d170:	02079793          	sll	a5,a5,0x20
    8000d174:	00f383b3          	add	t2,t2,a5
    8000d178:	fff00793          	li	a5,-1
    8000d17c:	0207d793          	srl	a5,a5,0x20
    8000d180:	020fd693          	srl	a3,t6,0x20
    8000d184:	00ffffb3          	and	t6,t6,a5
    8000d188:	00f5f5b3          	and	a1,a1,a5
    8000d18c:	020f9f93          	sll	t6,t6,0x20
    8000d190:	02045893          	srl	a7,s0,0x20
    8000d194:	00bf8fb3          	add	t6,t6,a1
    8000d198:	0204d593          	srl	a1,s1,0x20
    8000d19c:	00f4f4b3          	and	s1,s1,a5
    8000d1a0:	00f477b3          	and	a5,s0,a5
    8000d1a4:	02f48933          	mul	s2,s1,a5
    8000d1a8:	03158433          	mul	s0,a1,a7
    8000d1ac:	02f587b3          	mul	a5,a1,a5
    8000d1b0:	029888b3          	mul	a7,a7,s1
    8000d1b4:	00f885b3          	add	a1,a7,a5
    8000d1b8:	02095893          	srl	a7,s2,0x20
    8000d1bc:	00b888b3          	add	a7,a7,a1
    8000d1c0:	00f8f863          	bgeu	a7,a5,8000d1d0 <__multf3+0x214>
    8000d1c4:	00100793          	li	a5,1
    8000d1c8:	02079793          	sll	a5,a5,0x20
    8000d1cc:	00f40433          	add	s0,s0,a5
    8000d1d0:	0208d593          	srl	a1,a7,0x20
    8000d1d4:	008585b3          	add	a1,a1,s0
    8000d1d8:	fff00413          	li	s0,-1
    8000d1dc:	02045413          	srl	s0,s0,0x20
    8000d1e0:	0088f7b3          	and	a5,a7,s0
    8000d1e4:	02079793          	sll	a5,a5,0x20
    8000d1e8:	00897933          	and	s2,s2,s0
    8000d1ec:	012787b3          	add	a5,a5,s2
    8000d1f0:	00000893          	li	a7,0
    8000d1f4:	000e8463          	beqz	t4,8000d1fc <__multf3+0x240>
    8000d1f8:	00030893          	mv	a7,t1
    8000d1fc:	00000313          	li	t1,0
    8000d200:	000e0463          	beqz	t3,8000d208 <__multf3+0x24c>
    8000d204:	00028313          	mv	t1,t0
    8000d208:	01ef82b3          	add	t0,t6,t5
    8000d20c:	01f2bfb3          	sltu	t6,t0,t6
    8000d210:	01f686b3          	add	a3,a3,t6
    8000d214:	007686b3          	add	a3,a3,t2
    8000d218:	01de7e33          	and	t3,t3,t4
    8000d21c:	01f6bfb3          	sltu	t6,a3,t6
    8000d220:	011688b3          	add	a7,a3,a7
    8000d224:	01cf8fb3          	add	t6,t6,t3
    8000d228:	00d8b6b3          	sltu	a3,a7,a3
    8000d22c:	011308b3          	add	a7,t1,a7
    8000d230:	01f686b3          	add	a3,a3,t6
    8000d234:	0068b333          	sltu	t1,a7,t1
    8000d238:	40a28eb3          	sub	t4,t0,a0
    8000d23c:	01d2be33          	sltu	t3,t0,t4
    8000d240:	00d30333          	add	t1,t1,a3
    8000d244:	41e886b3          	sub	a3,a7,t5
    8000d248:	00d8bfb3          	sltu	t6,a7,a3
    8000d24c:	41c686b3          	sub	a3,a3,t3
    8000d250:	00000e13          	li	t3,0
    8000d254:	01d2f663          	bgeu	t0,t4,8000d260 <__multf3+0x2a4>
    8000d258:	411f0f33          	sub	t5,t5,a7
    8000d25c:	001f3e13          	seqz	t3,t5
    8000d260:	01fe6fb3          	or	t6,t3,t6
    8000d264:	00b30333          	add	t1,t1,a1
    8000d268:	40fe8e33          	sub	t3,t4,a5
    8000d26c:	40b685b3          	sub	a1,a3,a1
    8000d270:	00b6b8b3          	sltu	a7,a3,a1
    8000d274:	01ceb6b3          	sltu	a3,t4,t3
    8000d278:	40d786b3          	sub	a3,a5,a3
    8000d27c:	00000f13          	li	t5,0
    8000d280:	01cef463          	bgeu	t4,t3,8000d288 <__multf3+0x2cc>
    8000d284:	0015bf13          	seqz	t5,a1
    8000d288:	00d585b3          	add	a1,a1,a3
    8000d28c:	00f5b6b3          	sltu	a3,a1,a5
    8000d290:	006686b3          	add	a3,a3,t1
    8000d294:	00de1793          	sll	a5,t3,0xd
    8000d298:	41f686b3          	sub	a3,a3,t6
    8000d29c:	011f6f33          	or	t5,t5,a7
    8000d2a0:	00a7e7b3          	or	a5,a5,a0
    8000d2a4:	41e686b3          	sub	a3,a3,t5
    8000d2a8:	00f037b3          	snez	a5,a5
    8000d2ac:	033e5e13          	srl	t3,t3,0x33
    8000d2b0:	00d69693          	sll	a3,a3,0xd
    8000d2b4:	0335d413          	srl	s0,a1,0x33
    8000d2b8:	01c7e7b3          	or	a5,a5,t3
    8000d2bc:	00d59593          	sll	a1,a1,0xd
    8000d2c0:	00b7e7b3          	or	a5,a5,a1
    8000d2c4:	00b69593          	sll	a1,a3,0xb
    8000d2c8:	0086e433          	or	s0,a3,s0
    8000d2cc:	0205d063          	bgez	a1,8000d2ec <__multf3+0x330>
    8000d2d0:	0017d713          	srl	a4,a5,0x1
    8000d2d4:	0017f793          	and	a5,a5,1
    8000d2d8:	00f76733          	or	a4,a4,a5
    8000d2dc:	03f41793          	sll	a5,s0,0x3f
    8000d2e0:	00f767b3          	or	a5,a4,a5
    8000d2e4:	00145413          	srl	s0,s0,0x1
    8000d2e8:	00080713          	mv	a4,a6
    8000d2ec:	00070813          	mv	a6,a4
    8000d2f0:	1840006f          	j	8000d474 <__multf3+0x4b8>
    8000d2f4:	00956a33          	or	s4,a0,s1
    8000d2f8:	080a0063          	beqz	s4,8000d378 <__multf3+0x3bc>
    8000d2fc:	04048463          	beqz	s1,8000d344 <__multf3+0x388>
    8000d300:	00048513          	mv	a0,s1
    8000d304:	569000ef          	jal	8000e06c <__clzdi2>
    8000d308:	0005051b          	sext.w	a0,a0
    8000d30c:	ff150793          	add	a5,a0,-15
    8000d310:	03d00713          	li	a4,61
    8000d314:	0037869b          	addw	a3,a5,3
    8000d318:	40f707bb          	subw	a5,a4,a5
    8000d31c:	00d494b3          	sll	s1,s1,a3
    8000d320:	00f457b3          	srl	a5,s0,a5
    8000d324:	0097e7b3          	or	a5,a5,s1
    8000d328:	00d414b3          	sll	s1,s0,a3
    8000d32c:	ffffc937          	lui	s2,0xffffc
    8000d330:	01190913          	add	s2,s2,17 # ffffffffffffc011 <__heap_end+0xffffffff7f7ea011>
    8000d334:	00048a13          	mv	s4,s1
    8000d338:	40a90933          	sub	s2,s2,a0
    8000d33c:	00078493          	mv	s1,a5
    8000d340:	d01ff06f          	j	8000d040 <__multf3+0x84>
    8000d344:	529000ef          	jal	8000e06c <__clzdi2>
    8000d348:	0405051b          	addw	a0,a0,64
    8000d34c:	ff150793          	add	a5,a0,-15
    8000d350:	03c00713          	li	a4,60
    8000d354:	faf75ee3          	bge	a4,a5,8000d310 <__multf3+0x354>
    8000d358:	fc37879b          	addw	a5,a5,-61
    8000d35c:	00f417b3          	sll	a5,s0,a5
    8000d360:	fcdff06f          	j	8000d32c <__multf3+0x370>
    8000d364:	00956a33          	or	s4,a0,s1
    8000d368:	020a1063          	bnez	s4,8000d388 <__multf3+0x3cc>
    8000d36c:	00000493          	li	s1,0
    8000d370:	00200b93          	li	s7,2
    8000d374:	cd1ff06f          	j	8000d044 <__multf3+0x88>
    8000d378:	00000493          	li	s1,0
    8000d37c:	00000913          	li	s2,0
    8000d380:	00100b93          	li	s7,1
    8000d384:	cc1ff06f          	j	8000d044 <__multf3+0x88>
    8000d388:	00050a13          	mv	s4,a0
    8000d38c:	00300b93          	li	s7,3
    8000d390:	cb5ff06f          	j	8000d044 <__multf3+0x88>
    8000d394:	008b67b3          	or	a5,s6,s0
    8000d398:	08078263          	beqz	a5,8000d41c <__multf3+0x460>
    8000d39c:	04040463          	beqz	s0,8000d3e4 <__multf3+0x428>
    8000d3a0:	00040513          	mv	a0,s0
    8000d3a4:	4c9000ef          	jal	8000e06c <__clzdi2>
    8000d3a8:	0005051b          	sext.w	a0,a0
    8000d3ac:	ff150793          	add	a5,a0,-15
    8000d3b0:	03d00713          	li	a4,61
    8000d3b4:	0037861b          	addw	a2,a5,3
    8000d3b8:	40f707bb          	subw	a5,a4,a5
    8000d3bc:	00c41433          	sll	s0,s0,a2
    8000d3c0:	00fb57b3          	srl	a5,s6,a5
    8000d3c4:	0087e6b3          	or	a3,a5,s0
    8000d3c8:	00cb1433          	sll	s0,s6,a2
    8000d3cc:	ffffc737          	lui	a4,0xffffc
    8000d3d0:	01170713          	add	a4,a4,17 # ffffffffffffc011 <__heap_end+0xffffffff7f7ea011>
    8000d3d4:	00040793          	mv	a5,s0
    8000d3d8:	40a70733          	sub	a4,a4,a0
    8000d3dc:	00068413          	mv	s0,a3
    8000d3e0:	cb5ff06f          	j	8000d094 <__multf3+0xd8>
    8000d3e4:	000b0513          	mv	a0,s6
    8000d3e8:	485000ef          	jal	8000e06c <__clzdi2>
    8000d3ec:	0405051b          	addw	a0,a0,64
    8000d3f0:	ff150793          	add	a5,a0,-15
    8000d3f4:	03c00713          	li	a4,60
    8000d3f8:	faf75ce3          	bge	a4,a5,8000d3b0 <__multf3+0x3f4>
    8000d3fc:	fc37879b          	addw	a5,a5,-61
    8000d400:	00fb16b3          	sll	a3,s6,a5
    8000d404:	fc9ff06f          	j	8000d3cc <__multf3+0x410>
    8000d408:	008b67b3          	or	a5,s6,s0
    8000d40c:	02079063          	bnez	a5,8000d42c <__multf3+0x470>
    8000d410:	00000413          	li	s0,0
    8000d414:	00200693          	li	a3,2
    8000d418:	c81ff06f          	j	8000d098 <__multf3+0xdc>
    8000d41c:	00000413          	li	s0,0
    8000d420:	00000713          	li	a4,0
    8000d424:	00100693          	li	a3,1
    8000d428:	c71ff06f          	j	8000d098 <__multf3+0xdc>
    8000d42c:	000b0793          	mv	a5,s6
    8000d430:	00300693          	li	a3,3
    8000d434:	c65ff06f          	j	8000d098 <__multf3+0xdc>
    8000d438:	00100513          	li	a0,1
    8000d43c:	00b515b3          	sll	a1,a0,a1
    8000d440:	5305f513          	and	a0,a1,1328
    8000d444:	0e051c63          	bnez	a0,8000d53c <__multf3+0x580>
    8000d448:	2405f893          	and	a7,a1,576
    8000d44c:	1c089663          	bnez	a7,8000d618 <__multf3+0x65c>
    8000d450:	0885f593          	and	a1,a1,136
    8000d454:	c6058ae3          	beqz	a1,8000d0c8 <__multf3+0x10c>
    8000d458:	00098613          	mv	a2,s3
    8000d45c:	00200713          	li	a4,2
    8000d460:	1ae68263          	beq	a3,a4,8000d604 <__multf3+0x648>
    8000d464:	00300713          	li	a4,3
    8000d468:	1ce68463          	beq	a3,a4,8000d630 <__multf3+0x674>
    8000d46c:	00100713          	li	a4,1
    8000d470:	1ce68863          	beq	a3,a4,8000d640 <__multf3+0x684>
    8000d474:	000046b7          	lui	a3,0x4
    8000d478:	fff68693          	add	a3,a3,-1 # 3fff <__stack_shift+0x3fe8>
    8000d47c:	00d806b3          	add	a3,a6,a3
    8000d480:	0cd05663          	blez	a3,8000d54c <__multf3+0x590>
    8000d484:	0077f713          	and	a4,a5,7
    8000d488:	02070063          	beqz	a4,8000d4a8 <__multf3+0x4ec>
    8000d48c:	00f7f713          	and	a4,a5,15
    8000d490:	00400593          	li	a1,4
    8000d494:	00b70a63          	beq	a4,a1,8000d4a8 <__multf3+0x4ec>
    8000d498:	00478713          	add	a4,a5,4
    8000d49c:	00f735b3          	sltu	a1,a4,a5
    8000d4a0:	00b40433          	add	s0,s0,a1
    8000d4a4:	00070793          	mv	a5,a4
    8000d4a8:	00b41713          	sll	a4,s0,0xb
    8000d4ac:	00075e63          	bgez	a4,8000d4c8 <__multf3+0x50c>
    8000d4b0:	fff00713          	li	a4,-1
    8000d4b4:	03471713          	sll	a4,a4,0x34
    8000d4b8:	fff70713          	add	a4,a4,-1
    8000d4bc:	000046b7          	lui	a3,0x4
    8000d4c0:	00e47433          	and	s0,s0,a4
    8000d4c4:	00d806b3          	add	a3,a6,a3
    8000d4c8:	00008737          	lui	a4,0x8
    8000d4cc:	ffe70713          	add	a4,a4,-2 # 7ffe <__stack_shift+0x7fe7>
    8000d4d0:	12d74a63          	blt	a4,a3,8000d604 <__multf3+0x648>
    8000d4d4:	0037d793          	srl	a5,a5,0x3
    8000d4d8:	03d41513          	sll	a0,s0,0x3d
    8000d4dc:	00f56533          	or	a0,a0,a5
    8000d4e0:	00345713          	srl	a4,s0,0x3
    8000d4e4:	04813083          	ld	ra,72(sp)
    8000d4e8:	04013403          	ld	s0,64(sp)
    8000d4ec:	00f6161b          	sllw	a2,a2,0xf
    8000d4f0:	01071593          	sll	a1,a4,0x10
    8000d4f4:	00c6e6b3          	or	a3,a3,a2
    8000d4f8:	03069693          	sll	a3,a3,0x30
    8000d4fc:	0105d593          	srl	a1,a1,0x10
    8000d500:	03813483          	ld	s1,56(sp)
    8000d504:	03013903          	ld	s2,48(sp)
    8000d508:	02813983          	ld	s3,40(sp)
    8000d50c:	02013a03          	ld	s4,32(sp)
    8000d510:	01813a83          	ld	s5,24(sp)
    8000d514:	01013b03          	ld	s6,16(sp)
    8000d518:	00813b83          	ld	s7,8(sp)
    8000d51c:	00d5e5b3          	or	a1,a1,a3
    8000d520:	05010113          	add	sp,sp,80
    8000d524:	00008067          	ret
    8000d528:	00f00713          	li	a4,15
    8000d52c:	10e58263          	beq	a1,a4,8000d630 <__multf3+0x674>
    8000d530:	00b00713          	li	a4,11
    8000d534:	000a8613          	mv	a2,s5
    8000d538:	f2e580e3          	beq	a1,a4,8000d458 <__multf3+0x49c>
    8000d53c:	00048413          	mv	s0,s1
    8000d540:	000a0793          	mv	a5,s4
    8000d544:	000b8693          	mv	a3,s7
    8000d548:	f15ff06f          	j	8000d45c <__multf3+0x4a0>
    8000d54c:	00100593          	li	a1,1
    8000d550:	40d585b3          	sub	a1,a1,a3
    8000d554:	07400713          	li	a4,116
    8000d558:	0eb74463          	blt	a4,a1,8000d640 <__multf3+0x684>
    8000d55c:	03f00693          	li	a3,63
    8000d560:	0005871b          	sext.w	a4,a1
    8000d564:	06b6c663          	blt	a3,a1,8000d5d0 <__multf3+0x614>
    8000d568:	04000693          	li	a3,64
    8000d56c:	40e686bb          	subw	a3,a3,a4
    8000d570:	00d41533          	sll	a0,s0,a3
    8000d574:	00e7d5b3          	srl	a1,a5,a4
    8000d578:	00d796b3          	sll	a3,a5,a3
    8000d57c:	00b56533          	or	a0,a0,a1
    8000d580:	00d036b3          	snez	a3,a3
    8000d584:	00d56533          	or	a0,a0,a3
    8000d588:	00e45733          	srl	a4,s0,a4
    8000d58c:	00757793          	and	a5,a0,7
    8000d590:	02078063          	beqz	a5,8000d5b0 <__multf3+0x5f4>
    8000d594:	00f57793          	and	a5,a0,15
    8000d598:	00400693          	li	a3,4
    8000d59c:	00d78a63          	beq	a5,a3,8000d5b0 <__multf3+0x5f4>
    8000d5a0:	00450793          	add	a5,a0,4
    8000d5a4:	00a7b6b3          	sltu	a3,a5,a0
    8000d5a8:	00d70733          	add	a4,a4,a3
    8000d5ac:	00078513          	mv	a0,a5
    8000d5b0:	00c71793          	sll	a5,a4,0xc
    8000d5b4:	0807cc63          	bltz	a5,8000d64c <__multf3+0x690>
    8000d5b8:	03d71793          	sll	a5,a4,0x3d
    8000d5bc:	00355513          	srl	a0,a0,0x3
    8000d5c0:	00a7e533          	or	a0,a5,a0
    8000d5c4:	00375713          	srl	a4,a4,0x3
    8000d5c8:	00000693          	li	a3,0
    8000d5cc:	f19ff06f          	j	8000d4e4 <__multf3+0x528>
    8000d5d0:	fc07051b          	addw	a0,a4,-64
    8000d5d4:	04000813          	li	a6,64
    8000d5d8:	00a45533          	srl	a0,s0,a0
    8000d5dc:	00000693          	li	a3,0
    8000d5e0:	01058863          	beq	a1,a6,8000d5f0 <__multf3+0x634>
    8000d5e4:	08000693          	li	a3,128
    8000d5e8:	40e686bb          	subw	a3,a3,a4
    8000d5ec:	00d416b3          	sll	a3,s0,a3
    8000d5f0:	00d7e6b3          	or	a3,a5,a3
    8000d5f4:	00d036b3          	snez	a3,a3
    8000d5f8:	00d56533          	or	a0,a0,a3
    8000d5fc:	00000713          	li	a4,0
    8000d600:	f8dff06f          	j	8000d58c <__multf3+0x5d0>
    8000d604:	000086b7          	lui	a3,0x8
    8000d608:	00000713          	li	a4,0
    8000d60c:	00000513          	li	a0,0
    8000d610:	fff68693          	add	a3,a3,-1 # 7fff <__stack_shift+0x7fe8>
    8000d614:	ed1ff06f          	j	8000d4e4 <__multf3+0x528>
    8000d618:	00100713          	li	a4,1
    8000d61c:	02f71713          	sll	a4,a4,0x2f
    8000d620:	000086b7          	lui	a3,0x8
    8000d624:	fff68693          	add	a3,a3,-1 # 7fff <__stack_shift+0x7fe8>
    8000d628:	00000613          	li	a2,0
    8000d62c:	eb9ff06f          	j	8000d4e4 <__multf3+0x528>
    8000d630:	00100713          	li	a4,1
    8000d634:	02f71713          	sll	a4,a4,0x2f
    8000d638:	00000513          	li	a0,0
    8000d63c:	fe5ff06f          	j	8000d620 <__multf3+0x664>
    8000d640:	00000713          	li	a4,0
    8000d644:	00000513          	li	a0,0
    8000d648:	f81ff06f          	j	8000d5c8 <__multf3+0x60c>
    8000d64c:	00000713          	li	a4,0
    8000d650:	00000513          	li	a0,0
    8000d654:	00100693          	li	a3,1
    8000d658:	e8dff06f          	j	8000d4e4 <__multf3+0x528>

000000008000d65c <__subtf3>:
    8000d65c:	fff00893          	li	a7,-1
    8000d660:	fd010113          	add	sp,sp,-48
    8000d664:	0108d893          	srl	a7,a7,0x10
    8000d668:	00008337          	lui	t1,0x8
    8000d66c:	0305de93          	srl	t4,a1,0x30
    8000d670:	fff30313          	add	t1,t1,-1 # 7fff <__stack_shift+0x7fe8>
    8000d674:	0306d813          	srl	a6,a3,0x30
    8000d678:	00913c23          	sd	s1,24(sp)
    8000d67c:	03f6de13          	srl	t3,a3,0x3f
    8000d680:	03f5d493          	srl	s1,a1,0x3f
    8000d684:	0116f6b3          	and	a3,a3,a7
    8000d688:	0115f5b3          	and	a1,a1,a7
    8000d68c:	00359713          	sll	a4,a1,0x3
    8000d690:	03d65893          	srl	a7,a2,0x3d
    8000d694:	03d55593          	srl	a1,a0,0x3d
    8000d698:	01213823          	sd	s2,16(sp)
    8000d69c:	006efeb3          	and	t4,t4,t1
    8000d6a0:	00369693          	sll	a3,a3,0x3
    8000d6a4:	02113423          	sd	ra,40(sp)
    8000d6a8:	02813023          	sd	s0,32(sp)
    8000d6ac:	01313423          	sd	s3,8(sp)
    8000d6b0:	00687833          	and	a6,a6,t1
    8000d6b4:	000e8913          	mv	s2,t4
    8000d6b8:	00e5e5b3          	or	a1,a1,a4
    8000d6bc:	00351513          	sll	a0,a0,0x3
    8000d6c0:	00d8e8b3          	or	a7,a7,a3
    8000d6c4:	00361613          	sll	a2,a2,0x3
    8000d6c8:	00681663          	bne	a6,t1,8000d6d4 <__subtf3+0x78>
    8000d6cc:	00c8e7b3          	or	a5,a7,a2
    8000d6d0:	00079463          	bnez	a5,8000d6d8 <__subtf3+0x7c>
    8000d6d4:	001e4e13          	xor	t3,t3,1
    8000d6d8:	410e873b          	subw	a4,t4,a6
    8000d6dc:	00008337          	lui	t1,0x8
    8000d6e0:	0007069b          	sext.w	a3,a4
    8000d6e4:	fff30313          	add	t1,t1,-1 # 7fff <__stack_shift+0x7fe8>
    8000d6e8:	2c9e1063          	bne	t3,s1,8000d9a8 <__subtf3+0x34c>
    8000d6ec:	12d05c63          	blez	a3,8000d824 <__subtf3+0x1c8>
    8000d6f0:	08081c63          	bnez	a6,8000d788 <__subtf3+0x12c>
    8000d6f4:	00c8e7b3          	or	a5,a7,a2
    8000d6f8:	06078463          	beqz	a5,8000d760 <__subtf3+0x104>
    8000d6fc:	fff7069b          	addw	a3,a4,-1
    8000d700:	04069e63          	bnez	a3,8000d75c <__subtf3+0x100>
    8000d704:	00c50633          	add	a2,a0,a2
    8000d708:	00a637b3          	sltu	a5,a2,a0
    8000d70c:	011585b3          	add	a1,a1,a7
    8000d710:	00060513          	mv	a0,a2
    8000d714:	00f585b3          	add	a1,a1,a5
    8000d718:	00c59793          	sll	a5,a1,0xc
    8000d71c:	0407d263          	bgez	a5,8000d760 <__subtf3+0x104>
    8000d720:	000087b7          	lui	a5,0x8
    8000d724:	00190913          	add	s2,s2,1
    8000d728:	fff78793          	add	a5,a5,-1 # 7fff <__stack_shift+0x7fe8>
    8000d72c:	64f90063          	beq	s2,a5,8000dd6c <__subtf3+0x710>
    8000d730:	fff00793          	li	a5,-1
    8000d734:	03379793          	sll	a5,a5,0x33
    8000d738:	fff78793          	add	a5,a5,-1
    8000d73c:	00f5f733          	and	a4,a1,a5
    8000d740:	00155693          	srl	a3,a0,0x1
    8000d744:	00157793          	and	a5,a0,1
    8000d748:	00f6e6b3          	or	a3,a3,a5
    8000d74c:	03f71793          	sll	a5,a4,0x3f
    8000d750:	00d7e533          	or	a0,a5,a3
    8000d754:	00175593          	srl	a1,a4,0x1
    8000d758:	0080006f          	j	8000d760 <__subtf3+0x104>
    8000d75c:	026e9e63          	bne	t4,t1,8000d798 <__subtf3+0x13c>
    8000d760:	00757793          	and	a5,a0,7
    8000d764:	60078863          	beqz	a5,8000dd74 <__subtf3+0x718>
    8000d768:	00f57793          	and	a5,a0,15
    8000d76c:	00400713          	li	a4,4
    8000d770:	60e78263          	beq	a5,a4,8000dd74 <__subtf3+0x718>
    8000d774:	00450793          	add	a5,a0,4
    8000d778:	00a7b733          	sltu	a4,a5,a0
    8000d77c:	00e585b3          	add	a1,a1,a4
    8000d780:	00078513          	mv	a0,a5
    8000d784:	5f00006f          	j	8000dd74 <__subtf3+0x718>
    8000d788:	fc6e8ce3          	beq	t4,t1,8000d760 <__subtf3+0x104>
    8000d78c:	00100793          	li	a5,1
    8000d790:	03379793          	sll	a5,a5,0x33
    8000d794:	00f8e8b3          	or	a7,a7,a5
    8000d798:	07400793          	li	a5,116
    8000d79c:	06d7ce63          	blt	a5,a3,8000d818 <__subtf3+0x1bc>
    8000d7a0:	03f00793          	li	a5,63
    8000d7a4:	04d7c063          	blt	a5,a3,8000d7e4 <__subtf3+0x188>
    8000d7a8:	04000793          	li	a5,64
    8000d7ac:	40d787bb          	subw	a5,a5,a3
    8000d7b0:	00f89733          	sll	a4,a7,a5
    8000d7b4:	00d65833          	srl	a6,a2,a3
    8000d7b8:	00f617b3          	sll	a5,a2,a5
    8000d7bc:	01076733          	or	a4,a4,a6
    8000d7c0:	00f037b3          	snez	a5,a5
    8000d7c4:	00f76733          	or	a4,a4,a5
    8000d7c8:	00d8d6b3          	srl	a3,a7,a3
    8000d7cc:	00a707b3          	add	a5,a4,a0
    8000d7d0:	00b686b3          	add	a3,a3,a1
    8000d7d4:	00e7b733          	sltu	a4,a5,a4
    8000d7d8:	00078513          	mv	a0,a5
    8000d7dc:	00e685b3          	add	a1,a3,a4
    8000d7e0:	f39ff06f          	j	8000d718 <__subtf3+0xbc>
    8000d7e4:	fc06871b          	addw	a4,a3,-64
    8000d7e8:	04000813          	li	a6,64
    8000d7ec:	00e8d733          	srl	a4,a7,a4
    8000d7f0:	00000793          	li	a5,0
    8000d7f4:	01068863          	beq	a3,a6,8000d804 <__subtf3+0x1a8>
    8000d7f8:	08000793          	li	a5,128
    8000d7fc:	40d787bb          	subw	a5,a5,a3
    8000d800:	00f897b3          	sll	a5,a7,a5
    8000d804:	00c7e7b3          	or	a5,a5,a2
    8000d808:	00f037b3          	snez	a5,a5
    8000d80c:	00f76733          	or	a4,a4,a5
    8000d810:	00000693          	li	a3,0
    8000d814:	fb9ff06f          	j	8000d7cc <__subtf3+0x170>
    8000d818:	00c8e733          	or	a4,a7,a2
    8000d81c:	00e03733          	snez	a4,a4
    8000d820:	ff1ff06f          	j	8000d810 <__subtf3+0x1b4>
    8000d824:	0e068663          	beqz	a3,8000d910 <__subtf3+0x2b4>
    8000d828:	040e9463          	bnez	t4,8000d870 <__subtf3+0x214>
    8000d82c:	00a5e7b3          	or	a5,a1,a0
    8000d830:	02078863          	beqz	a5,8000d860 <__subtf3+0x204>
    8000d834:	fff74713          	not	a4,a4
    8000d838:	0007071b          	sext.w	a4,a4
    8000d83c:	02071063          	bnez	a4,8000d85c <__subtf3+0x200>
    8000d840:	00c50633          	add	a2,a0,a2
    8000d844:	00a637b3          	sltu	a5,a2,a0
    8000d848:	011585b3          	add	a1,a1,a7
    8000d84c:	00060513          	mv	a0,a2
    8000d850:	00f585b3          	add	a1,a1,a5
    8000d854:	00080913          	mv	s2,a6
    8000d858:	ec1ff06f          	j	8000d718 <__subtf3+0xbc>
    8000d85c:	02681463          	bne	a6,t1,8000d884 <__subtf3+0x228>
    8000d860:	00088593          	mv	a1,a7
    8000d864:	00060513          	mv	a0,a2
    8000d868:	00080913          	mv	s2,a6
    8000d86c:	ef5ff06f          	j	8000d760 <__subtf3+0x104>
    8000d870:	fe6808e3          	beq	a6,t1,8000d860 <__subtf3+0x204>
    8000d874:	00100793          	li	a5,1
    8000d878:	03379793          	sll	a5,a5,0x33
    8000d87c:	40e0073b          	negw	a4,a4
    8000d880:	00f5e5b3          	or	a1,a1,a5
    8000d884:	07400793          	li	a5,116
    8000d888:	06e7ce63          	blt	a5,a4,8000d904 <__subtf3+0x2a8>
    8000d88c:	03f00793          	li	a5,63
    8000d890:	04e7c063          	blt	a5,a4,8000d8d0 <__subtf3+0x274>
    8000d894:	04000693          	li	a3,64
    8000d898:	40e686bb          	subw	a3,a3,a4
    8000d89c:	00d597b3          	sll	a5,a1,a3
    8000d8a0:	00e55333          	srl	t1,a0,a4
    8000d8a4:	00d516b3          	sll	a3,a0,a3
    8000d8a8:	0067e7b3          	or	a5,a5,t1
    8000d8ac:	00d036b3          	snez	a3,a3
    8000d8b0:	00d7e7b3          	or	a5,a5,a3
    8000d8b4:	00e5d733          	srl	a4,a1,a4
    8000d8b8:	00c78633          	add	a2,a5,a2
    8000d8bc:	01170733          	add	a4,a4,a7
    8000d8c0:	00f637b3          	sltu	a5,a2,a5
    8000d8c4:	00060513          	mv	a0,a2
    8000d8c8:	00f705b3          	add	a1,a4,a5
    8000d8cc:	f89ff06f          	j	8000d854 <__subtf3+0x1f8>
    8000d8d0:	fc07079b          	addw	a5,a4,-64
    8000d8d4:	04000313          	li	t1,64
    8000d8d8:	00f5d7b3          	srl	a5,a1,a5
    8000d8dc:	00000693          	li	a3,0
    8000d8e0:	00670863          	beq	a4,t1,8000d8f0 <__subtf3+0x294>
    8000d8e4:	08000693          	li	a3,128
    8000d8e8:	40e686bb          	subw	a3,a3,a4
    8000d8ec:	00d596b3          	sll	a3,a1,a3
    8000d8f0:	00a6e6b3          	or	a3,a3,a0
    8000d8f4:	00d036b3          	snez	a3,a3
    8000d8f8:	00d7e7b3          	or	a5,a5,a3
    8000d8fc:	00000713          	li	a4,0
    8000d900:	fb9ff06f          	j	8000d8b8 <__subtf3+0x25c>
    8000d904:	00a5e7b3          	or	a5,a1,a0
    8000d908:	00f037b3          	snez	a5,a5
    8000d90c:	ff1ff06f          	j	8000d8fc <__subtf3+0x2a0>
    8000d910:	001e8713          	add	a4,t4,1
    8000d914:	03171793          	sll	a5,a4,0x31
    8000d918:	0327d793          	srl	a5,a5,0x32
    8000d91c:	06079063          	bnez	a5,8000d97c <__subtf3+0x320>
    8000d920:	00a5e7b3          	or	a5,a1,a0
    8000d924:	040e9263          	bnez	t4,8000d968 <__subtf3+0x30c>
    8000d928:	42078463          	beqz	a5,8000dd50 <__subtf3+0x6f4>
    8000d92c:	00c8e7b3          	or	a5,a7,a2
    8000d930:	e20788e3          	beqz	a5,8000d760 <__subtf3+0x104>
    8000d934:	00c50633          	add	a2,a0,a2
    8000d938:	00a637b3          	sltu	a5,a2,a0
    8000d93c:	011585b3          	add	a1,a1,a7
    8000d940:	00f585b3          	add	a1,a1,a5
    8000d944:	00c59793          	sll	a5,a1,0xc
    8000d948:	00060513          	mv	a0,a2
    8000d94c:	e007dae3          	bgez	a5,8000d760 <__subtf3+0x104>
    8000d950:	fff00793          	li	a5,-1
    8000d954:	03379793          	sll	a5,a5,0x33
    8000d958:	fff78793          	add	a5,a5,-1
    8000d95c:	00f5f5b3          	and	a1,a1,a5
    8000d960:	00100913          	li	s2,1
    8000d964:	dfdff06f          	j	8000d760 <__subtf3+0x104>
    8000d968:	3e078a63          	beqz	a5,8000dd5c <__subtf3+0x700>
    8000d96c:	00c8e633          	or	a2,a7,a2
    8000d970:	2a061463          	bnez	a2,8000dc18 <__subtf3+0x5bc>
    8000d974:	00030913          	mv	s2,t1
    8000d978:	de9ff06f          	j	8000d760 <__subtf3+0x104>
    8000d97c:	3e670663          	beq	a4,t1,8000dd68 <__subtf3+0x70c>
    8000d980:	00c50633          	add	a2,a0,a2
    8000d984:	00a637b3          	sltu	a5,a2,a0
    8000d988:	011585b3          	add	a1,a1,a7
    8000d98c:	00f585b3          	add	a1,a1,a5
    8000d990:	03f59793          	sll	a5,a1,0x3f
    8000d994:	00165613          	srl	a2,a2,0x1
    8000d998:	00c7e533          	or	a0,a5,a2
    8000d99c:	0015d593          	srl	a1,a1,0x1
    8000d9a0:	00070913          	mv	s2,a4
    8000d9a4:	dbdff06f          	j	8000d760 <__subtf3+0x104>
    8000d9a8:	0ed05463          	blez	a3,8000da90 <__subtf3+0x434>
    8000d9ac:	08081863          	bnez	a6,8000da3c <__subtf3+0x3e0>
    8000d9b0:	00c8e7b3          	or	a5,a7,a2
    8000d9b4:	da0786e3          	beqz	a5,8000d760 <__subtf3+0x104>
    8000d9b8:	fff7069b          	addw	a3,a4,-1
    8000d9bc:	02069863          	bnez	a3,8000d9ec <__subtf3+0x390>
    8000d9c0:	40c50633          	sub	a2,a0,a2
    8000d9c4:	00c537b3          	sltu	a5,a0,a2
    8000d9c8:	411585b3          	sub	a1,a1,a7
    8000d9cc:	00060513          	mv	a0,a2
    8000d9d0:	40f585b3          	sub	a1,a1,a5
    8000d9d4:	00c59793          	sll	a5,a1,0xc
    8000d9d8:	d807d4e3          	bgez	a5,8000d760 <__subtf3+0x104>
    8000d9dc:	00d59413          	sll	s0,a1,0xd
    8000d9e0:	00d45413          	srl	s0,s0,0xd
    8000d9e4:	00050993          	mv	s3,a0
    8000d9e8:	2780006f          	j	8000dc60 <__subtf3+0x604>
    8000d9ec:	d66e8ae3          	beq	t4,t1,8000d760 <__subtf3+0x104>
    8000d9f0:	07400793          	li	a5,116
    8000d9f4:	08d7c863          	blt	a5,a3,8000da84 <__subtf3+0x428>
    8000d9f8:	03f00793          	li	a5,63
    8000d9fc:	04d7ca63          	blt	a5,a3,8000da50 <__subtf3+0x3f4>
    8000da00:	04000713          	li	a4,64
    8000da04:	40d7073b          	subw	a4,a4,a3
    8000da08:	00e897b3          	sll	a5,a7,a4
    8000da0c:	00d65833          	srl	a6,a2,a3
    8000da10:	00e61733          	sll	a4,a2,a4
    8000da14:	0107e7b3          	or	a5,a5,a6
    8000da18:	00e03733          	snez	a4,a4
    8000da1c:	00e7e7b3          	or	a5,a5,a4
    8000da20:	00d8d6b3          	srl	a3,a7,a3
    8000da24:	40f507b3          	sub	a5,a0,a5
    8000da28:	00f53733          	sltu	a4,a0,a5
    8000da2c:	40d586b3          	sub	a3,a1,a3
    8000da30:	00078513          	mv	a0,a5
    8000da34:	40e685b3          	sub	a1,a3,a4
    8000da38:	f9dff06f          	j	8000d9d4 <__subtf3+0x378>
    8000da3c:	d26e82e3          	beq	t4,t1,8000d760 <__subtf3+0x104>
    8000da40:	00100793          	li	a5,1
    8000da44:	03379793          	sll	a5,a5,0x33
    8000da48:	00f8e8b3          	or	a7,a7,a5
    8000da4c:	fa5ff06f          	j	8000d9f0 <__subtf3+0x394>
    8000da50:	fc06879b          	addw	a5,a3,-64
    8000da54:	04000813          	li	a6,64
    8000da58:	00f8d7b3          	srl	a5,a7,a5
    8000da5c:	00000713          	li	a4,0
    8000da60:	01068863          	beq	a3,a6,8000da70 <__subtf3+0x414>
    8000da64:	08000713          	li	a4,128
    8000da68:	40d7073b          	subw	a4,a4,a3
    8000da6c:	00e89733          	sll	a4,a7,a4
    8000da70:	00c76733          	or	a4,a4,a2
    8000da74:	00e03733          	snez	a4,a4
    8000da78:	00e7e7b3          	or	a5,a5,a4
    8000da7c:	00000693          	li	a3,0
    8000da80:	fa5ff06f          	j	8000da24 <__subtf3+0x3c8>
    8000da84:	00c8e7b3          	or	a5,a7,a2
    8000da88:	00f037b3          	snez	a5,a5
    8000da8c:	ff1ff06f          	j	8000da7c <__subtf3+0x420>
    8000da90:	0e068863          	beqz	a3,8000db80 <__subtf3+0x524>
    8000da94:	040e9663          	bnez	t4,8000dae0 <__subtf3+0x484>
    8000da98:	00a5e7b3          	or	a5,a1,a0
    8000da9c:	02078a63          	beqz	a5,8000dad0 <__subtf3+0x474>
    8000daa0:	fff74713          	not	a4,a4
    8000daa4:	0007071b          	sext.w	a4,a4
    8000daa8:	02071263          	bnez	a4,8000dacc <__subtf3+0x470>
    8000daac:	40a607b3          	sub	a5,a2,a0
    8000dab0:	40b885b3          	sub	a1,a7,a1
    8000dab4:	00f63633          	sltu	a2,a2,a5
    8000dab8:	00078513          	mv	a0,a5
    8000dabc:	40c585b3          	sub	a1,a1,a2
    8000dac0:	00080913          	mv	s2,a6
    8000dac4:	000e0493          	mv	s1,t3
    8000dac8:	f0dff06f          	j	8000d9d4 <__subtf3+0x378>
    8000dacc:	02681463          	bne	a6,t1,8000daf4 <__subtf3+0x498>
    8000dad0:	00088593          	mv	a1,a7
    8000dad4:	00060513          	mv	a0,a2
    8000dad8:	00080913          	mv	s2,a6
    8000dadc:	0d00006f          	j	8000dbac <__subtf3+0x550>
    8000dae0:	fe6808e3          	beq	a6,t1,8000dad0 <__subtf3+0x474>
    8000dae4:	00100793          	li	a5,1
    8000dae8:	03379793          	sll	a5,a5,0x33
    8000daec:	40e0073b          	negw	a4,a4
    8000daf0:	00f5e5b3          	or	a1,a1,a5
    8000daf4:	07400793          	li	a5,116
    8000daf8:	06e7ce63          	blt	a5,a4,8000db74 <__subtf3+0x518>
    8000dafc:	03f00793          	li	a5,63
    8000db00:	04e7c063          	blt	a5,a4,8000db40 <__subtf3+0x4e4>
    8000db04:	04000693          	li	a3,64
    8000db08:	40e686bb          	subw	a3,a3,a4
    8000db0c:	00d597b3          	sll	a5,a1,a3
    8000db10:	00e55333          	srl	t1,a0,a4
    8000db14:	00d516b3          	sll	a3,a0,a3
    8000db18:	0067e7b3          	or	a5,a5,t1
    8000db1c:	00d036b3          	snez	a3,a3
    8000db20:	00d7e7b3          	or	a5,a5,a3
    8000db24:	00e5d733          	srl	a4,a1,a4
    8000db28:	40f607b3          	sub	a5,a2,a5
    8000db2c:	40e88733          	sub	a4,a7,a4
    8000db30:	00f635b3          	sltu	a1,a2,a5
    8000db34:	00078513          	mv	a0,a5
    8000db38:	40b705b3          	sub	a1,a4,a1
    8000db3c:	f85ff06f          	j	8000dac0 <__subtf3+0x464>
    8000db40:	fc07079b          	addw	a5,a4,-64
    8000db44:	04000313          	li	t1,64
    8000db48:	00f5d7b3          	srl	a5,a1,a5
    8000db4c:	00000693          	li	a3,0
    8000db50:	00670863          	beq	a4,t1,8000db60 <__subtf3+0x504>
    8000db54:	08000693          	li	a3,128
    8000db58:	40e686bb          	subw	a3,a3,a4
    8000db5c:	00d596b3          	sll	a3,a1,a3
    8000db60:	00a6e6b3          	or	a3,a3,a0
    8000db64:	00d036b3          	snez	a3,a3
    8000db68:	00d7e7b3          	or	a5,a5,a3
    8000db6c:	00000713          	li	a4,0
    8000db70:	fb9ff06f          	j	8000db28 <__subtf3+0x4cc>
    8000db74:	00a5e7b3          	or	a5,a1,a0
    8000db78:	00f037b3          	snez	a5,a5
    8000db7c:	ff1ff06f          	j	8000db6c <__subtf3+0x510>
    8000db80:	001e8793          	add	a5,t4,1
    8000db84:	03179713          	sll	a4,a5,0x31
    8000db88:	03275713          	srl	a4,a4,0x32
    8000db8c:	0a071263          	bnez	a4,8000dc30 <__subtf3+0x5d4>
    8000db90:	00c8e7b3          	or	a5,a7,a2
    8000db94:	00a5e733          	or	a4,a1,a0
    8000db98:	060e9263          	bnez	t4,8000dbfc <__subtf3+0x5a0>
    8000db9c:	00071c63          	bnez	a4,8000dbb4 <__subtf3+0x558>
    8000dba0:	26078863          	beqz	a5,8000de10 <__subtf3+0x7b4>
    8000dba4:	00088593          	mv	a1,a7
    8000dba8:	00060513          	mv	a0,a2
    8000dbac:	000e0493          	mv	s1,t3
    8000dbb0:	bb1ff06f          	j	8000d760 <__subtf3+0x104>
    8000dbb4:	ba0786e3          	beqz	a5,8000d760 <__subtf3+0x104>
    8000dbb8:	40c50733          	sub	a4,a0,a2
    8000dbbc:	00e536b3          	sltu	a3,a0,a4
    8000dbc0:	411587b3          	sub	a5,a1,a7
    8000dbc4:	40d787b3          	sub	a5,a5,a3
    8000dbc8:	00c79693          	sll	a3,a5,0xc
    8000dbcc:	0006de63          	bgez	a3,8000dbe8 <__subtf3+0x58c>
    8000dbd0:	40a607b3          	sub	a5,a2,a0
    8000dbd4:	40b885b3          	sub	a1,a7,a1
    8000dbd8:	00f63633          	sltu	a2,a2,a5
    8000dbdc:	00078513          	mv	a0,a5
    8000dbe0:	40c585b3          	sub	a1,a1,a2
    8000dbe4:	fc9ff06f          	j	8000dbac <__subtf3+0x550>
    8000dbe8:	00f76533          	or	a0,a4,a5
    8000dbec:	22050a63          	beqz	a0,8000de20 <__subtf3+0x7c4>
    8000dbf0:	00078593          	mv	a1,a5
    8000dbf4:	00070513          	mv	a0,a4
    8000dbf8:	b69ff06f          	j	8000d760 <__subtf3+0x104>
    8000dbfc:	00071c63          	bnez	a4,8000dc14 <__subtf3+0x5b8>
    8000dc00:	00078c63          	beqz	a5,8000dc18 <__subtf3+0x5bc>
    8000dc04:	00088593          	mv	a1,a7
    8000dc08:	00060513          	mv	a0,a2
    8000dc0c:	000e0493          	mv	s1,t3
    8000dc10:	d65ff06f          	j	8000d974 <__subtf3+0x318>
    8000dc14:	d60780e3          	beqz	a5,8000d974 <__subtf3+0x318>
    8000dc18:	00100593          	li	a1,1
    8000dc1c:	00000493          	li	s1,0
    8000dc20:	03259593          	sll	a1,a1,0x32
    8000dc24:	00000513          	li	a0,0
    8000dc28:	00030913          	mv	s2,t1
    8000dc2c:	1480006f          	j	8000dd74 <__subtf3+0x718>
    8000dc30:	40c507b3          	sub	a5,a0,a2
    8000dc34:	00f53733          	sltu	a4,a0,a5
    8000dc38:	41158433          	sub	s0,a1,a7
    8000dc3c:	40e40433          	sub	s0,s0,a4
    8000dc40:	00c41713          	sll	a4,s0,0xc
    8000dc44:	00078993          	mv	s3,a5
    8000dc48:	08075063          	bgez	a4,8000dcc8 <__subtf3+0x66c>
    8000dc4c:	40a609b3          	sub	s3,a2,a0
    8000dc50:	40b88433          	sub	s0,a7,a1
    8000dc54:	01363633          	sltu	a2,a2,s3
    8000dc58:	40c40433          	sub	s0,s0,a2
    8000dc5c:	000e0493          	mv	s1,t3
    8000dc60:	08040063          	beqz	s0,8000dce0 <__subtf3+0x684>
    8000dc64:	00040513          	mv	a0,s0
    8000dc68:	404000ef          	jal	8000e06c <__clzdi2>
    8000dc6c:	ff45069b          	addw	a3,a0,-12
    8000dc70:	04000593          	li	a1,64
    8000dc74:	40d585bb          	subw	a1,a1,a3
    8000dc78:	00d41433          	sll	s0,s0,a3
    8000dc7c:	00b9d5b3          	srl	a1,s3,a1
    8000dc80:	0085e5b3          	or	a1,a1,s0
    8000dc84:	00d99433          	sll	s0,s3,a3
    8000dc88:	0b26c663          	blt	a3,s2,8000dd34 <__subtf3+0x6d8>
    8000dc8c:	412686bb          	subw	a3,a3,s2
    8000dc90:	0016861b          	addw	a2,a3,1
    8000dc94:	03f00793          	li	a5,63
    8000dc98:	06c7c463          	blt	a5,a2,8000dd00 <__subtf3+0x6a4>
    8000dc9c:	04000713          	li	a4,64
    8000dca0:	40c7073b          	subw	a4,a4,a2
    8000dca4:	00e597b3          	sll	a5,a1,a4
    8000dca8:	00c456b3          	srl	a3,s0,a2
    8000dcac:	00e41733          	sll	a4,s0,a4
    8000dcb0:	00d7e7b3          	or	a5,a5,a3
    8000dcb4:	00e03733          	snez	a4,a4
    8000dcb8:	00e7e533          	or	a0,a5,a4
    8000dcbc:	00c5d5b3          	srl	a1,a1,a2
    8000dcc0:	00000913          	li	s2,0
    8000dcc4:	a9dff06f          	j	8000d760 <__subtf3+0x104>
    8000dcc8:	0087e7b3          	or	a5,a5,s0
    8000dccc:	f8079ae3          	bnez	a5,8000dc60 <__subtf3+0x604>
    8000dcd0:	00000593          	li	a1,0
    8000dcd4:	00000513          	li	a0,0
    8000dcd8:	00000913          	li	s2,0
    8000dcdc:	13c0006f          	j	8000de18 <__subtf3+0x7bc>
    8000dce0:	00098513          	mv	a0,s3
    8000dce4:	388000ef          	jal	8000e06c <__clzdi2>
    8000dce8:	0345069b          	addw	a3,a0,52
    8000dcec:	03f00793          	li	a5,63
    8000dcf0:	f8d7d0e3          	bge	a5,a3,8000dc70 <__subtf3+0x614>
    8000dcf4:	ff45059b          	addw	a1,a0,-12
    8000dcf8:	00b995b3          	sll	a1,s3,a1
    8000dcfc:	f8dff06f          	j	8000dc88 <__subtf3+0x62c>
    8000dd00:	fc16869b          	addw	a3,a3,-63
    8000dd04:	00d5d7b3          	srl	a5,a1,a3
    8000dd08:	04000693          	li	a3,64
    8000dd0c:	00000713          	li	a4,0
    8000dd10:	00d60863          	beq	a2,a3,8000dd20 <__subtf3+0x6c4>
    8000dd14:	08000713          	li	a4,128
    8000dd18:	40c7073b          	subw	a4,a4,a2
    8000dd1c:	00e59733          	sll	a4,a1,a4
    8000dd20:	00e46733          	or	a4,s0,a4
    8000dd24:	00e03733          	snez	a4,a4
    8000dd28:	00e7e533          	or	a0,a5,a4
    8000dd2c:	00000593          	li	a1,0
    8000dd30:	f91ff06f          	j	8000dcc0 <__subtf3+0x664>
    8000dd34:	fff00793          	li	a5,-1
    8000dd38:	03379793          	sll	a5,a5,0x33
    8000dd3c:	fff78793          	add	a5,a5,-1
    8000dd40:	40d90933          	sub	s2,s2,a3
    8000dd44:	00f5f5b3          	and	a1,a1,a5
    8000dd48:	00040513          	mv	a0,s0
    8000dd4c:	a15ff06f          	j	8000d760 <__subtf3+0x104>
    8000dd50:	00088593          	mv	a1,a7
    8000dd54:	00060513          	mv	a0,a2
    8000dd58:	a09ff06f          	j	8000d760 <__subtf3+0x104>
    8000dd5c:	00088593          	mv	a1,a7
    8000dd60:	00060513          	mv	a0,a2
    8000dd64:	c11ff06f          	j	8000d974 <__subtf3+0x318>
    8000dd68:	00070913          	mv	s2,a4
    8000dd6c:	00000593          	li	a1,0
    8000dd70:	00000513          	li	a0,0
    8000dd74:	00c59793          	sll	a5,a1,0xc
    8000dd78:	0207d263          	bgez	a5,8000dd9c <__subtf3+0x740>
    8000dd7c:	000087b7          	lui	a5,0x8
    8000dd80:	00190913          	add	s2,s2,1
    8000dd84:	fff78793          	add	a5,a5,-1 # 7fff <__stack_shift+0x7fe8>
    8000dd88:	0af90063          	beq	s2,a5,8000de28 <__subtf3+0x7cc>
    8000dd8c:	fff00793          	li	a5,-1
    8000dd90:	03379793          	sll	a5,a5,0x33
    8000dd94:	fff78793          	add	a5,a5,-1
    8000dd98:	00f5f5b3          	and	a1,a1,a5
    8000dd9c:	00355793          	srl	a5,a0,0x3
    8000dda0:	03d59513          	sll	a0,a1,0x3d
    8000dda4:	00f56533          	or	a0,a0,a5
    8000dda8:	000087b7          	lui	a5,0x8
    8000ddac:	fff78793          	add	a5,a5,-1 # 7fff <__stack_shift+0x7fe8>
    8000ddb0:	0035d593          	srl	a1,a1,0x3
    8000ddb4:	02f91063          	bne	s2,a5,8000ddd4 <__subtf3+0x778>
    8000ddb8:	00b56533          	or	a0,a0,a1
    8000ddbc:	00000593          	li	a1,0
    8000ddc0:	00050a63          	beqz	a0,8000ddd4 <__subtf3+0x778>
    8000ddc4:	00100593          	li	a1,1
    8000ddc8:	02f59593          	sll	a1,a1,0x2f
    8000ddcc:	00000513          	li	a0,0
    8000ddd0:	00000493          	li	s1,0
    8000ddd4:	03191793          	sll	a5,s2,0x31
    8000ddd8:	02813083          	ld	ra,40(sp)
    8000dddc:	02013403          	ld	s0,32(sp)
    8000dde0:	00f4971b          	sllw	a4,s1,0xf
    8000dde4:	0317d793          	srl	a5,a5,0x31
    8000dde8:	01059593          	sll	a1,a1,0x10
    8000ddec:	00e7e7b3          	or	a5,a5,a4
    8000ddf0:	03079793          	sll	a5,a5,0x30
    8000ddf4:	0105d593          	srl	a1,a1,0x10
    8000ddf8:	01813483          	ld	s1,24(sp)
    8000ddfc:	01013903          	ld	s2,16(sp)
    8000de00:	00813983          	ld	s3,8(sp)
    8000de04:	00f5e5b3          	or	a1,a1,a5
    8000de08:	03010113          	add	sp,sp,48
    8000de0c:	00008067          	ret
    8000de10:	00000593          	li	a1,0
    8000de14:	00000513          	li	a0,0
    8000de18:	00000493          	li	s1,0
    8000de1c:	f59ff06f          	j	8000dd74 <__subtf3+0x718>
    8000de20:	00000593          	li	a1,0
    8000de24:	ff5ff06f          	j	8000de18 <__subtf3+0x7bc>
    8000de28:	00000593          	li	a1,0
    8000de2c:	00000513          	li	a0,0
    8000de30:	f6dff06f          	j	8000dd9c <__subtf3+0x740>

000000008000de34 <__unordtf2>:
    8000de34:	000087b7          	lui	a5,0x8
    8000de38:	fff78793          	add	a5,a5,-1 # 7fff <__stack_shift+0x7fe8>
    8000de3c:	0305d813          	srl	a6,a1,0x30
    8000de40:	0306d713          	srl	a4,a3,0x30
    8000de44:	00f87833          	and	a6,a6,a5
    8000de48:	00f77733          	and	a4,a4,a5
    8000de4c:	00f81c63          	bne	a6,a5,8000de64 <__unordtf2+0x30>
    8000de50:	01059593          	sll	a1,a1,0x10
    8000de54:	0105d593          	srl	a1,a1,0x10
    8000de58:	00a5e5b3          	or	a1,a1,a0
    8000de5c:	00100513          	li	a0,1
    8000de60:	02059263          	bnez	a1,8000de84 <__unordtf2+0x50>
    8000de64:	000087b7          	lui	a5,0x8
    8000de68:	fff78793          	add	a5,a5,-1 # 7fff <__stack_shift+0x7fe8>
    8000de6c:	00000513          	li	a0,0
    8000de70:	00f71a63          	bne	a4,a5,8000de84 <__unordtf2+0x50>
    8000de74:	01069693          	sll	a3,a3,0x10
    8000de78:	0106d693          	srl	a3,a3,0x10
    8000de7c:	00c6e633          	or	a2,a3,a2
    8000de80:	00c03533          	snez	a0,a2
    8000de84:	00008067          	ret

000000008000de88 <__fixtfsi>:
    8000de88:	00159713          	sll	a4,a1,0x1
    8000de8c:	000047b7          	lui	a5,0x4
    8000de90:	03175713          	srl	a4,a4,0x31
    8000de94:	ffe78793          	add	a5,a5,-2 # 3ffe <__stack_shift+0x3fe7>
    8000de98:	03f5d693          	srl	a3,a1,0x3f
    8000de9c:	00000513          	li	a0,0
    8000dea0:	04e7d863          	bge	a5,a4,8000def0 <__fixtfsi+0x68>
    8000dea4:	000047b7          	lui	a5,0x4
    8000dea8:	01d78793          	add	a5,a5,29 # 401d <__stack_shift+0x4006>
    8000deac:	00e7da63          	bge	a5,a4,8000dec0 <__fixtfsi+0x38>
    8000deb0:	80000537          	lui	a0,0x80000
    8000deb4:	fff54513          	not	a0,a0
    8000deb8:	00a6853b          	addw	a0,a3,a0
    8000debc:	00008067          	ret
    8000dec0:	01059513          	sll	a0,a1,0x10
    8000dec4:	00100793          	li	a5,1
    8000dec8:	03079793          	sll	a5,a5,0x30
    8000decc:	01055513          	srl	a0,a0,0x10
    8000ded0:	00f56533          	or	a0,a0,a5
    8000ded4:	000047b7          	lui	a5,0x4
    8000ded8:	02f7879b          	addw	a5,a5,47 # 402f <__stack_shift+0x4018>
    8000dedc:	40e787bb          	subw	a5,a5,a4
    8000dee0:	00f55533          	srl	a0,a0,a5
    8000dee4:	0005051b          	sext.w	a0,a0
    8000dee8:	00068463          	beqz	a3,8000def0 <__fixtfsi+0x68>
    8000deec:	40a0053b          	negw	a0,a0
    8000def0:	00008067          	ret

000000008000def4 <__floatsitf>:
    8000def4:	fe010113          	add	sp,sp,-32
    8000def8:	00113c23          	sd	ra,24(sp)
    8000defc:	00813823          	sd	s0,16(sp)
    8000df00:	00913423          	sd	s1,8(sp)
    8000df04:	06050463          	beqz	a0,8000df6c <__floatsitf+0x78>
    8000df08:	0005079b          	sext.w	a5,a0
    8000df0c:	03f55493          	srl	s1,a0,0x3f
    8000df10:	00055463          	bgez	a0,8000df18 <__floatsitf+0x24>
    8000df14:	40f007bb          	negw	a5,a5
    8000df18:	02079413          	sll	s0,a5,0x20
    8000df1c:	02045413          	srl	s0,s0,0x20
    8000df20:	00040513          	mv	a0,s0
    8000df24:	148000ef          	jal	8000e06c <__clzdi2>
    8000df28:	000045b7          	lui	a1,0x4
    8000df2c:	03e5859b          	addw	a1,a1,62 # 403e <__stack_shift+0x4027>
    8000df30:	40a585bb          	subw	a1,a1,a0
    8000df34:	ff15051b          	addw	a0,a0,-15 # 7ffffff1 <__heap_size+0x7f7ffff1>
    8000df38:	00a417b3          	sll	a5,s0,a0
    8000df3c:	01813083          	ld	ra,24(sp)
    8000df40:	01013403          	ld	s0,16(sp)
    8000df44:	00f4949b          	sllw	s1,s1,0xf
    8000df48:	0095e5b3          	or	a1,a1,s1
    8000df4c:	01079793          	sll	a5,a5,0x10
    8000df50:	03059593          	sll	a1,a1,0x30
    8000df54:	0107d793          	srl	a5,a5,0x10
    8000df58:	00813483          	ld	s1,8(sp)
    8000df5c:	00000513          	li	a0,0
    8000df60:	00b7e5b3          	or	a1,a5,a1
    8000df64:	02010113          	add	sp,sp,32
    8000df68:	00008067          	ret
    8000df6c:	00000793          	li	a5,0
    8000df70:	00000593          	li	a1,0
    8000df74:	00000493          	li	s1,0
    8000df78:	fc5ff06f          	j	8000df3c <__floatsitf+0x48>

000000008000df7c <__extenddftf2>:
    8000df7c:	03455793          	srl	a5,a0,0x34
    8000df80:	7ff7f793          	and	a5,a5,2047
    8000df84:	fe010113          	add	sp,sp,-32
    8000df88:	00178713          	add	a4,a5,1
    8000df8c:	00813823          	sd	s0,16(sp)
    8000df90:	00913423          	sd	s1,8(sp)
    8000df94:	00c51413          	sll	s0,a0,0xc
    8000df98:	00113c23          	sd	ra,24(sp)
    8000df9c:	7fe77713          	and	a4,a4,2046
    8000dfa0:	00c45413          	srl	s0,s0,0xc
    8000dfa4:	03f55493          	srl	s1,a0,0x3f
    8000dfa8:	04070463          	beqz	a4,8000dff0 <__extenddftf2+0x74>
    8000dfac:	00004737          	lui	a4,0x4
    8000dfb0:	c0070713          	add	a4,a4,-1024 # 3c00 <__stack_shift+0x3be9>
    8000dfb4:	00445593          	srl	a1,s0,0x4
    8000dfb8:	00e787b3          	add	a5,a5,a4
    8000dfbc:	03c41413          	sll	s0,s0,0x3c
    8000dfc0:	00f4951b          	sllw	a0,s1,0xf
    8000dfc4:	01813083          	ld	ra,24(sp)
    8000dfc8:	00a7e7b3          	or	a5,a5,a0
    8000dfcc:	00040513          	mv	a0,s0
    8000dfd0:	01013403          	ld	s0,16(sp)
    8000dfd4:	01059593          	sll	a1,a1,0x10
    8000dfd8:	03079793          	sll	a5,a5,0x30
    8000dfdc:	0105d593          	srl	a1,a1,0x10
    8000dfe0:	00813483          	ld	s1,8(sp)
    8000dfe4:	00f5e5b3          	or	a1,a1,a5
    8000dfe8:	02010113          	add	sp,sp,32
    8000dfec:	00008067          	ret
    8000dff0:	04079a63          	bnez	a5,8000e044 <__extenddftf2+0xc8>
    8000dff4:	00000593          	li	a1,0
    8000dff8:	fc0404e3          	beqz	s0,8000dfc0 <__extenddftf2+0x44>
    8000dffc:	00040513          	mv	a0,s0
    8000e000:	06c000ef          	jal	8000e06c <__clzdi2>
    8000e004:	0005071b          	sext.w	a4,a0
    8000e008:	00e00793          	li	a5,14
    8000e00c:	02e7c463          	blt	a5,a4,8000e034 <__extenddftf2+0xb8>
    8000e010:	00f00593          	li	a1,15
    8000e014:	40a585bb          	subw	a1,a1,a0
    8000e018:	0315079b          	addw	a5,a0,49
    8000e01c:	00b455b3          	srl	a1,s0,a1
    8000e020:	00f41433          	sll	s0,s0,a5
    8000e024:	000047b7          	lui	a5,0x4
    8000e028:	c0c7879b          	addw	a5,a5,-1012 # 3c0c <__stack_shift+0x3bf5>
    8000e02c:	40a787bb          	subw	a5,a5,a0
    8000e030:	f91ff06f          	j	8000dfc0 <__extenddftf2+0x44>
    8000e034:	ff15059b          	addw	a1,a0,-15
    8000e038:	00b415b3          	sll	a1,s0,a1
    8000e03c:	00000413          	li	s0,0
    8000e040:	fe5ff06f          	j	8000e024 <__extenddftf2+0xa8>
    8000e044:	00000593          	li	a1,0
    8000e048:	00040c63          	beqz	s0,8000e060 <__extenddftf2+0xe4>
    8000e04c:	00100793          	li	a5,1
    8000e050:	00445593          	srl	a1,s0,0x4
    8000e054:	02f79793          	sll	a5,a5,0x2f
    8000e058:	03c41413          	sll	s0,s0,0x3c
    8000e05c:	00f5e5b3          	or	a1,a1,a5
    8000e060:	000087b7          	lui	a5,0x8
    8000e064:	fff78793          	add	a5,a5,-1 # 7fff <__stack_shift+0x7fe8>
    8000e068:	f59ff06f          	j	8000dfc0 <__extenddftf2+0x44>

000000008000e06c <__clzdi2>:
    8000e06c:	03855793          	srl	a5,a0,0x38
    8000e070:	04079063          	bnez	a5,8000e0b0 <__clzdi2+0x44>
    8000e074:	03800793          	li	a5,56
    8000e078:	ff878793          	add	a5,a5,-8
    8000e07c:	00078863          	beqz	a5,8000e08c <__clzdi2+0x20>
    8000e080:	00f55733          	srl	a4,a0,a5
    8000e084:	0ff77713          	zext.b	a4,a4
    8000e088:	fe0708e3          	beqz	a4,8000e078 <__clzdi2+0xc>
    8000e08c:	04000713          	li	a4,64
    8000e090:	40f70733          	sub	a4,a4,a5
    8000e094:	00f55533          	srl	a0,a0,a5
    8000e098:	00001797          	auipc	a5,0x1
    8000e09c:	38878793          	add	a5,a5,904 # 8000f420 <__clz_tab>
    8000e0a0:	00a787b3          	add	a5,a5,a0
    8000e0a4:	0007c503          	lbu	a0,0(a5)
    8000e0a8:	40a7053b          	subw	a0,a4,a0
    8000e0ac:	00008067          	ret
    8000e0b0:	03800793          	li	a5,56
    8000e0b4:	fd9ff06f          	j	8000e08c <__clzdi2+0x20>
