
rijndael:     file format elf64-littleriscv


Disassembly of section .text:

0000000080000000 <_start>:
    80000000:	00000093          	li	ra,0
    80000004:	00000113          	li	sp,0
    80000008:	00000193          	li	gp,0
    8000000c:	00000213          	li	tp,0
    80000010:	00000293          	li	t0,0
    80000014:	00000313          	li	t1,0
    80000018:	00000393          	li	t2,0
    8000001c:	00000413          	li	s0,0
    80000020:	00000493          	li	s1,0
    80000024:	00000513          	li	a0,0
    80000028:	00000593          	li	a1,0
    8000002c:	00000613          	li	a2,0
    80000030:	00000693          	li	a3,0
    80000034:	00000713          	li	a4,0
    80000038:	00000793          	li	a5,0
    8000003c:	00000813          	li	a6,0
    80000040:	00000893          	li	a7,0
    80000044:	00000913          	li	s2,0
    80000048:	00000993          	li	s3,0
    8000004c:	00000a13          	li	s4,0
    80000050:	00000a93          	li	s5,0
    80000054:	00000b13          	li	s6,0
    80000058:	00000b93          	li	s7,0
    8000005c:	00000c13          	li	s8,0
    80000060:	00000c93          	li	s9,0
    80000064:	00000d13          	li	s10,0
    80000068:	00000d93          	li	s11,0
    8000006c:	00000e13          	li	t3,0
    80000070:	00000e93          	li	t4,0
    80000074:	00000f13          	li	t5,0
    80000078:	00000f93          	li	t6,0
    8000007c:	0001e2b7          	lui	t0,0x1e
    80000080:	0001f197          	auipc	gp,0x1f
    80000084:	07818193          	add	gp,gp,120 # 8001f0f8 <__global_pointer$>
    80000088:	01700293          	li	t0,23
    8000008c:	0081f217          	auipc	tp,0x81f
    80000090:	f7420213          	add	tp,tp,-140 # 8081f000 <__heap_end>
    80000094:	005412b3          	sll	t0,s0,t0
    80000098:	00520233          	add	tp,tp,t0
    8000009c:	008002b7          	lui	t0,0x800
    800000a0:	00028293          	mv	t0,t0
    800000a4:	00520133          	add	sp,tp,t0
    800000a8:	00000297          	auipc	t0,0x0
    800000ac:	04428293          	add	t0,t0,68 # 800000ec <trap_entry>
    800000b0:	67c100ef          	jal	8001072c <__init_tls>
    800000b4:	00000293          	li	t0,0
    800000b8:	00540463          	beq	s0,t0,800000c0 <_start+0xc0>
    800000bc:	1800006f          	j	8000023c <_start_secondary>
    800000c0:	8a018293          	add	t0,gp,-1888 # 8001e998 <r.0>
    800000c4:	e6018313          	add	t1,gp,-416 # 8001ef58 <_end>
    800000c8:	0062f863          	bgeu	t0,t1,800000d8 <_start+0xd8>
    800000cc:	0002b023          	sd	zero,0(t0)
    800000d0:	00828293          	add	t0,t0,8
    800000d4:	fe62ece3          	bltu	t0,t1,800000cc <_start+0xcc>
    800000d8:	00010517          	auipc	a0,0x10
    800000dc:	7ec50513          	add	a0,a0,2028 # 800108c4 <__libc_fini_array>
    800000e0:	710100ef          	jal	800107f0 <atexit>
    800000e4:	74c100ef          	jal	80010830 <__libc_init_array>
    800000e8:	1140006f          	j	800001fc <_start_main>

00000000800000ec <trap_entry>:
    800000ec:	f0010113          	add	sp,sp,-256
    800000f0:	00113423          	sd	ra,8(sp)
    800000f4:	00113823          	sd	ra,16(sp)
    800000f8:	00313c23          	sd	gp,24(sp)
    800000fc:	02413023          	sd	tp,32(sp)
    80000100:	02513423          	sd	t0,40(sp)
    80000104:	02613823          	sd	t1,48(sp)
    80000108:	02713c23          	sd	t2,56(sp)
    8000010c:	04813023          	sd	s0,64(sp)
    80000110:	04913423          	sd	s1,72(sp)
    80000114:	04a13823          	sd	a0,80(sp)
    80000118:	04b13c23          	sd	a1,88(sp)
    8000011c:	06c13023          	sd	a2,96(sp)
    80000120:	06d13423          	sd	a3,104(sp)
    80000124:	06e13823          	sd	a4,112(sp)
    80000128:	06f13c23          	sd	a5,120(sp)
    8000012c:	09013023          	sd	a6,128(sp)
    80000130:	09113423          	sd	a7,136(sp)
    80000134:	09213823          	sd	s2,144(sp)
    80000138:	09313c23          	sd	s3,152(sp)
    8000013c:	0b413023          	sd	s4,160(sp)
    80000140:	0b513423          	sd	s5,168(sp)
    80000144:	0b613823          	sd	s6,176(sp)
    80000148:	0b713c23          	sd	s7,184(sp)
    8000014c:	0d813023          	sd	s8,192(sp)
    80000150:	0d913423          	sd	s9,200(sp)
    80000154:	0da13823          	sd	s10,208(sp)
    80000158:	0db13c23          	sd	s11,216(sp)
    8000015c:	0fc13023          	sd	t3,224(sp)
    80000160:	0fd13423          	sd	t4,232(sp)
    80000164:	0fe13823          	sd	t5,240(sp)
    80000168:	0ff13c23          	sd	t6,248(sp)
    8000016c:	00010693          	mv	a3,sp
    80000170:	5a0100ef          	jal	80010710 <handle_trap>
    80000174:	000022b7          	lui	t0,0x2
    80000178:	8002829b          	addw	t0,t0,-2048 # 1800 <__stack_shift+0x17e9>
    8000017c:	00813083          	ld	ra,8(sp)
    80000180:	01813183          	ld	gp,24(sp)
    80000184:	02013203          	ld	tp,32(sp)
    80000188:	02813283          	ld	t0,40(sp)
    8000018c:	03013303          	ld	t1,48(sp)
    80000190:	03813383          	ld	t2,56(sp)
    80000194:	04013403          	ld	s0,64(sp)
    80000198:	04813483          	ld	s1,72(sp)
    8000019c:	05013503          	ld	a0,80(sp)
    800001a0:	05813583          	ld	a1,88(sp)
    800001a4:	06013603          	ld	a2,96(sp)
    800001a8:	06813683          	ld	a3,104(sp)
    800001ac:	07013703          	ld	a4,112(sp)
    800001b0:	07813783          	ld	a5,120(sp)
    800001b4:	08013803          	ld	a6,128(sp)
    800001b8:	08813883          	ld	a7,136(sp)
    800001bc:	09013903          	ld	s2,144(sp)
    800001c0:	09813983          	ld	s3,152(sp)
    800001c4:	0a013a03          	ld	s4,160(sp)
    800001c8:	0a813a83          	ld	s5,168(sp)
    800001cc:	0b013b03          	ld	s6,176(sp)
    800001d0:	0b813b83          	ld	s7,184(sp)
    800001d4:	0c013c03          	ld	s8,192(sp)
    800001d8:	0c813c83          	ld	s9,200(sp)
    800001dc:	0d013d03          	ld	s10,208(sp)
    800001e0:	0d813d83          	ld	s11,216(sp)
    800001e4:	0e013e03          	ld	t3,224(sp)
    800001e8:	0e813e83          	ld	t4,232(sp)
    800001ec:	0f013f03          	ld	t5,240(sp)
    800001f0:	0f813f83          	ld	t6,248(sp)
    800001f4:	01013103          	ld	sp,16(sp)
    800001f8:	30200073          	mret

00000000800001fc <_start_main>:
    800001fc:	80010113          	add	sp,sp,-2048
    80000200:	7db00693          	li	a3,2011
    80000204:	000015b7          	lui	a1,0x1
    80000208:	8005859b          	addw	a1,a1,-2048 # 800 <__stack_shift+0x7e9>
    8000020c:	00010513          	mv	a0,sp
    80000210:	568100ef          	jal	80010778 <htif_syscall>
    80000214:	00012503          	lw	a0,0(sp)
    80000218:	00810593          	add	a1,sp,8
    8000021c:	b4a1a023          	sw	a0,-1216(gp) # 8001ec38 <argc>
    80000220:	b2b1bc23          	sd	a1,-1224(gp) # 8001ec30 <argv>
    80000224:	fff00293          	li	t0,-1
    80000228:	0110000f          	fence	w,w
    8000022c:	b451a223          	sw	t0,-1212(gp) # 8001ec3c <__boot_sync>
    80000230:	8301b603          	ld	a2,-2000(gp) # 8001e928 <environ>
    80000234:	028000ef          	jal	8000025c <main>
    80000238:	5cc1006f          	j	80010804 <exit>

000000008000023c <_start_secondary>:
    8000023c:	b441a283          	lw	t0,-1212(gp) # 8001ec3c <__boot_sync>
    80000240:	fe028ee3          	beqz	t0,8000023c <_start_secondary>
    80000244:	0220000f          	fence	r,r
    80000248:	b401a503          	lw	a0,-1216(gp) # 8001ec38 <argc>
    8000024c:	b381b583          	ld	a1,-1224(gp) # 8001ec30 <argv>
    80000250:	8301b603          	ld	a2,-2000(gp) # 8001e928 <environ>
    80000254:	51c100ef          	jal	80010770 <__main>
    80000258:	5ac1006f          	j	80010804 <exit>

000000008000025c <main>:
    8000025c:	b9010113          	add	sp,sp,-1136
    80000260:	46113423          	sd	ra,1128(sp)
    80000264:	46813023          	sd	s0,1120(sp)
    80000268:	00500793          	li	a5,5
    8000026c:	04f51663          	bne	a0,a5,800002b8 <main+0x5c>
    80000270:	0185b783          	ld	a5,24(a1)
    80000274:	44913c23          	sd	s1,1112(sp)
    80000278:	45213823          	sd	s2,1104(sp)
    8000027c:	00078783          	lb	a5,0(a5)
    80000280:	0001d917          	auipc	s2,0x1d
    80000284:	40190913          	add	s2,s2,1025 # 8001d681 <_ctype_+0x1>
    80000288:	00200693          	li	a3,2
    8000028c:	00f90733          	add	a4,s2,a5
    80000290:	00074703          	lbu	a4,0(a4)
    80000294:	00058493          	mv	s1,a1
    80000298:	00377713          	and	a4,a4,3
    8000029c:	00d71463          	bne	a4,a3,800002a4 <main+0x48>
    800002a0:	fe07879b          	addw	a5,a5,-32
    800002a4:	fbc7879b          	addw	a5,a5,-68
    800002a8:	00100713          	li	a4,1
    800002ac:	02f77863          	bgeu	a4,a5,800002dc <main+0x80>
    800002b0:	45813483          	ld	s1,1112(sp)
    800002b4:	45013903          	ld	s2,1104(sp)
    800002b8:	0001d517          	auipc	a0,0x1d
    800002bc:	10050513          	add	a0,a0,256 # 8001d3b8 <s_box+0x170>
    800002c0:	289050ef          	jal	80005d48 <puts>
    800002c4:	fff00413          	li	s0,-1
    800002c8:	46813083          	ld	ra,1128(sp)
    800002cc:	00040513          	mv	a0,s0
    800002d0:	46013403          	ld	s0,1120(sp)
    800002d4:	47010113          	add	sp,sp,1136
    800002d8:	00008067          	ret
    800002dc:	0204b583          	ld	a1,32(s1)
    800002e0:	00000793          	li	a5,0
    800002e4:	00000713          	li	a4,0
    800002e8:	00200313          	li	t1,2
    800002ec:	00900893          	li	a7,9
    800002f0:	00500e93          	li	t4,5
    800002f4:	04000e13          	li	t3,64
    800002f8:	00058683          	lb	a3,0(a1)
    800002fc:	08068e63          	beqz	a3,80000398 <main+0x13c>
    80000300:	00d90633          	add	a2,s2,a3
    80000304:	00064603          	lbu	a2,0(a2)
    80000308:	00158593          	add	a1,a1,1
    8000030c:	00068813          	mv	a6,a3
    80000310:	00367613          	and	a2,a2,3
    80000314:	00661863          	bne	a2,t1,80000324 <main+0xc8>
    80000318:	fe06881b          	addw	a6,a3,-32
    8000031c:	0188169b          	sllw	a3,a6,0x18
    80000320:	4186d69b          	sraw	a3,a3,0x18
    80000324:	0ff87613          	zext.b	a2,a6
    80000328:	fd06051b          	addw	a0,a2,-48
    8000032c:	0ff57513          	zext.b	a0,a0
    80000330:	04a8e663          	bltu	a7,a0,8000037c <main+0x120>
    80000334:	0047979b          	sllw	a5,a5,0x4
    80000338:	010787bb          	addw	a5,a5,a6
    8000033c:	fd07879b          	addw	a5,a5,-48
    80000340:	0017069b          	addw	a3,a4,1
    80000344:	00177613          	and	a2,a4,1
    80000348:	0006871b          	sext.w	a4,a3
    8000034c:	00060c63          	beqz	a2,80000364 <main+0x108>
    80000350:	4016d69b          	sraw	a3,a3,0x1
    80000354:	fff6869b          	addw	a3,a3,-1
    80000358:	44068693          	add	a3,a3,1088
    8000035c:	002686b3          	add	a3,a3,sp
    80000360:	bcf68423          	sb	a5,-1080(a3)
    80000364:	f9c71ae3          	bne	a4,t3,800002f8 <main+0x9c>
    80000368:	0005c783          	lbu	a5,0(a1)
    8000036c:	16079663          	bnez	a5,800004d8 <main+0x27c>
    80000370:	45413023          	sd	s4,1088(sp)
    80000374:	04000713          	li	a4,64
    80000378:	03c0006f          	j	800003b4 <main+0x158>
    8000037c:	fbf6061b          	addw	a2,a2,-65
    80000380:	0ff67613          	zext.b	a2,a2
    80000384:	10ceee63          	bltu	t4,a2,800004a0 <main+0x244>
    80000388:	0047979b          	sllw	a5,a5,0x4
    8000038c:	00d787bb          	addw	a5,a5,a3
    80000390:	fc97879b          	addw	a5,a5,-55
    80000394:	fadff06f          	j	80000340 <main+0xe4>
    80000398:	0005c783          	lbu	a5,0(a1)
    8000039c:	12079e63          	bnez	a5,800004d8 <main+0x27c>
    800003a0:	01f00793          	li	a5,31
    800003a4:	10e7dc63          	bge	a5,a4,800004bc <main+0x260>
    800003a8:	00f77793          	and	a5,a4,15
    800003ac:	10079863          	bnez	a5,800004bc <main+0x260>
    800003b0:	45413023          	sd	s4,1088(sp)
    800003b4:	0084b503          	ld	a0,8(s1)
    800003b8:	0001d597          	auipc	a1,0x1d
    800003bc:	0c058593          	add	a1,a1,192 # 8001d478 <s_box+0x230>
    800003c0:	40175413          	sra	s0,a4,0x1
    800003c4:	25c050ef          	jal	80005620 <fopen>
    800003c8:	00050a13          	mv	s4,a0
    800003cc:	12050463          	beqz	a0,800004f4 <main+0x298>
    800003d0:	0104b503          	ld	a0,16(s1)
    800003d4:	0001d597          	auipc	a1,0x1d
    800003d8:	0d458593          	add	a1,a1,212 # 8001d4a8 <s_box+0x260>
    800003dc:	45313423          	sd	s3,1096(sp)
    800003e0:	240050ef          	jal	80005620 <fopen>
    800003e4:	00050993          	mv	s3,a0
    800003e8:	12050863          	beqz	a0,80000518 <main+0x2bc>
    800003ec:	0184b783          	ld	a5,24(s1)
    800003f0:	00200693          	li	a3,2
    800003f4:	00078703          	lb	a4,0(a5)
    800003f8:	00e90933          	add	s2,s2,a4
    800003fc:	00094783          	lbu	a5,0(s2)
    80000400:	0037f793          	and	a5,a5,3
    80000404:	08d78a63          	beq	a5,a3,80000498 <main+0x23c>
    80000408:	04500793          	li	a5,69
    8000040c:	02810693          	add	a3,sp,40
    80000410:	04f70a63          	beq	a4,a5,80000464 <main+0x208>
    80000414:	00040593          	mv	a1,s0
    80000418:	00200613          	li	a2,2
    8000041c:	00810513          	add	a0,sp,8
    80000420:	128000ef          	jal	80000548 <set_key>
    80000424:	0104b703          	ld	a4,16(s1)
    80000428:	0084b683          	ld	a3,8(s1)
    8000042c:	02810613          	add	a2,sp,40
    80000430:	00098593          	mv	a1,s3
    80000434:	000a0513          	mv	a0,s4
    80000438:	6bc040ef          	jal	80004af4 <decfile>
    8000043c:	00050413          	mv	s0,a0
    80000440:	00098513          	mv	a0,s3
    80000444:	1a1040ef          	jal	80004de4 <fclose>
    80000448:	000a0513          	mv	a0,s4
    8000044c:	199040ef          	jal	80004de4 <fclose>
    80000450:	45813483          	ld	s1,1112(sp)
    80000454:	45013903          	ld	s2,1104(sp)
    80000458:	44813983          	ld	s3,1096(sp)
    8000045c:	44013a03          	ld	s4,1088(sp)
    80000460:	e69ff06f          	j	800002c8 <main+0x6c>
    80000464:	00040593          	mv	a1,s0
    80000468:	00100613          	li	a2,1
    8000046c:	00810513          	add	a0,sp,8
    80000470:	0d8000ef          	jal	80000548 <set_key>
    80000474:	0084b683          	ld	a3,8(s1)
    80000478:	02810613          	add	a2,sp,40
    8000047c:	00098593          	mv	a1,s3
    80000480:	000a0513          	mv	a0,s4
    80000484:	3a5030ef          	jal	80004028 <encfile>
    80000488:	00050413          	mv	s0,a0
    8000048c:	00098513          	mv	a0,s3
    80000490:	155040ef          	jal	80004de4 <fclose>
    80000494:	fb5ff06f          	j	80000448 <main+0x1ec>
    80000498:	fe07071b          	addw	a4,a4,-32
    8000049c:	f6dff06f          	j	80000408 <main+0x1ac>
    800004a0:	0001d517          	auipc	a0,0x1d
    800004a4:	f5850513          	add	a0,a0,-168 # 8001d3f8 <s_box+0x1b0>
    800004a8:	0a1050ef          	jal	80005d48 <puts>
    800004ac:	ffe00413          	li	s0,-2
    800004b0:	45813483          	ld	s1,1112(sp)
    800004b4:	45013903          	ld	s2,1104(sp)
    800004b8:	e11ff06f          	j	800002c8 <main+0x6c>
    800004bc:	0001d517          	auipc	a0,0x1d
    800004c0:	f8450513          	add	a0,a0,-124 # 8001d440 <s_box+0x1f8>
    800004c4:	085050ef          	jal	80005d48 <puts>
    800004c8:	ffc00413          	li	s0,-4
    800004cc:	45813483          	ld	s1,1112(sp)
    800004d0:	45013903          	ld	s2,1104(sp)
    800004d4:	df5ff06f          	j	800002c8 <main+0x6c>
    800004d8:	0001d517          	auipc	a0,0x1d
    800004dc:	f4850513          	add	a0,a0,-184 # 8001d420 <s_box+0x1d8>
    800004e0:	069050ef          	jal	80005d48 <puts>
    800004e4:	ffd00413          	li	s0,-3
    800004e8:	45813483          	ld	s1,1112(sp)
    800004ec:	45013903          	ld	s2,1104(sp)
    800004f0:	dd9ff06f          	j	800002c8 <main+0x6c>
    800004f4:	0084b583          	ld	a1,8(s1)
    800004f8:	0001d517          	auipc	a0,0x1d
    800004fc:	f8850513          	add	a0,a0,-120 # 8001d480 <s_box+0x238>
    80000500:	ffb00413          	li	s0,-5
    80000504:	720050ef          	jal	80005c24 <printf>
    80000508:	45813483          	ld	s1,1112(sp)
    8000050c:	45013903          	ld	s2,1104(sp)
    80000510:	44013a03          	ld	s4,1088(sp)
    80000514:	db5ff06f          	j	800002c8 <main+0x6c>
    80000518:	0084b583          	ld	a1,8(s1)
    8000051c:	0001d517          	auipc	a0,0x1d
    80000520:	f9450513          	add	a0,a0,-108 # 8001d4b0 <s_box+0x268>
    80000524:	ffa00413          	li	s0,-6
    80000528:	6fc050ef          	jal	80005c24 <printf>
    8000052c:	f1dff06f          	j	80000448 <main+0x1ec>

0000000080000530 <register_fini>:
    80000530:	00000793          	li	a5,0
    80000534:	00078863          	beqz	a5,80000544 <register_fini+0x14>
    80000538:	00010517          	auipc	a0,0x10
    8000053c:	38c50513          	add	a0,a0,908 # 800108c4 <__libc_fini_array>
    80000540:	2b01006f          	j	800107f0 <atexit>
    80000544:	00008067          	ret

0000000080000548 <set_key>:
    80000548:	0075f793          	and	a5,a1,7
    8000054c:	02079063          	bnez	a5,8000056c <set_key+0x24>
    80000550:	00f00793          	li	a5,15
    80000554:	02b7f663          	bgeu	a5,a1,80000580 <set_key+0x38>
    80000558:	02000793          	li	a5,32
    8000055c:	00b7e863          	bltu	a5,a1,8000056c <set_key+0x24>
    80000560:	00367793          	and	a5,a2,3
    80000564:	00078613          	mv	a2,a5
    80000568:	02079863          	bnez	a5,80000598 <set_key+0x50>
    8000056c:	4106c783          	lbu	a5,1040(a3)
    80000570:	00000513          	li	a0,0
    80000574:	ffc7f793          	and	a5,a5,-4
    80000578:	40f68823          	sb	a5,1040(a3)
    8000057c:	00008067          	ret
    80000580:	fe0596e3          	bnez	a1,8000056c <set_key+0x24>
    80000584:	0006b503          	ld	a0,0(a3)
    80000588:	0025151b          	sllw	a0,a0,0x2
    8000058c:	0105151b          	sllw	a0,a0,0x10
    80000590:	4105551b          	sraw	a0,a0,0x10
    80000594:	00008067          	ret
    80000598:	4106c283          	lbu	t0,1040(a3)
    8000059c:	0025d593          	srl	a1,a1,0x2
    800005a0:	fc010113          	add	sp,sp,-64
    800005a4:	ffc2f293          	and	t0,t0,-4
    800005a8:	00658793          	add	a5,a1,6
    800005ac:	00c2e2b3          	or	t0,t0,a2
    800005b0:	40568823          	sb	t0,1040(a3)
    800005b4:	00b6b023          	sd	a1,0(a3)
    800005b8:	00f6b423          	sd	a5,8(a3)
    800005bc:	02813c23          	sd	s0,56(sp)
    800005c0:	00454e83          	lbu	t4,4(a0)
    800005c4:	00554e03          	lbu	t3,5(a0)
    800005c8:	00654303          	lbu	t1,6(a0)
    800005cc:	00754883          	lbu	a7,7(a0)
    800005d0:	00854803          	lbu	a6,8(a0)
    800005d4:	00a54703          	lbu	a4,10(a0)
    800005d8:	00b54783          	lbu	a5,11(a0)
    800005dc:	00954603          	lbu	a2,9(a0)
    800005e0:	01d10423          	sb	t4,8(sp)
    800005e4:	01c104a3          	sb	t3,9(sp)
    800005e8:	00610523          	sb	t1,10(sp)
    800005ec:	01010623          	sb	a6,12(sp)
    800005f0:	00e10723          	sb	a4,14(sp)
    800005f4:	00f107a3          	sb	a5,15(sp)
    800005f8:	011105a3          	sb	a7,11(sp)
    800005fc:	00c106a3          	sb	a2,13(sp)
    80000600:	00053803          	ld	a6,0(a0)
    80000604:	00813883          	ld	a7,8(sp)
    80000608:	00758e13          	add	t3,a1,7
    8000060c:	0106b823          	sd	a6,16(a3)
    80000610:	0116bc23          	sd	a7,24(a3)
    80000614:	00853303          	ld	t1,8(a0)
    80000618:	002e1e13          	sll	t3,t3,0x2
    8000061c:	40be0e33          	sub	t3,t3,a1
    80000620:	0266b023          	sd	t1,32(a3)
    80000624:	00c54403          	lbu	s0,12(a0)
    80000628:	00d54383          	lbu	t2,13(a0)
    8000062c:	00e54f83          	lbu	t6,14(a0)
    80000630:	00f54f03          	lbu	t5,15(a0)
    80000634:	01054e83          	lbu	t4,16(a0)
    80000638:	01154603          	lbu	a2,17(a0)
    8000063c:	01254703          	lbu	a4,18(a0)
    80000640:	01354783          	lbu	a5,19(a0)
    80000644:	00c106a3          	sb	a2,13(sp)
    80000648:	00810423          	sb	s0,8(sp)
    8000064c:	00f107a3          	sb	a5,15(sp)
    80000650:	007104a3          	sb	t2,9(sp)
    80000654:	01f10523          	sb	t6,10(sp)
    80000658:	01e105a3          	sb	t5,11(sp)
    8000065c:	01d10623          	sb	t4,12(sp)
    80000660:	00e10723          	sb	a4,14(sp)
    80000664:	00813703          	ld	a4,8(sp)
    80000668:	01068793          	add	a5,a3,16
    8000066c:	003e1e13          	sll	t3,t3,0x3
    80000670:	02e6b423          	sd	a4,40(a3)
    80000674:	00600613          	li	a2,6
    80000678:	01c78e33          	add	t3,a5,t3
    8000067c:	4ec58063          	beq	a1,a2,80000b5c <set_key+0x614>
    80000680:	00800613          	li	a2,8
    80000684:	2ec58663          	beq	a1,a2,80000970 <set_key+0x428>
    80000688:	00400613          	li	a2,4
    8000068c:	24c58063          	beq	a1,a2,800008cc <set_key+0x384>
    80000690:	0032f293          	and	t0,t0,3
    80000694:	00100713          	li	a4,1
    80000698:	22e28263          	beq	t0,a4,800008bc <set_key+0x374>
    8000069c:	0086b603          	ld	a2,8(a3)
    800006a0:	0106b583          	ld	a1,16(a3)
    800006a4:	21068793          	add	a5,a3,528
    800006a8:	00561613          	sll	a2,a2,0x5
    800006ac:	00c787b3          	add	a5,a5,a2
    800006b0:	00b7b023          	sd	a1,0(a5)
    800006b4:	0186b603          	ld	a2,24(a3)
    800006b8:	fe078593          	add	a1,a5,-32
    800006bc:	03068513          	add	a0,a3,48
    800006c0:	00c7b423          	sd	a2,8(a5)
    800006c4:	0206b603          	ld	a2,32(a3)
    800006c8:	00c7b823          	sd	a2,16(a5)
    800006cc:	0286b603          	ld	a2,40(a3)
    800006d0:	00c7bc23          	sd	a2,24(a5)
    800006d4:	0086b783          	ld	a5,8(a3)
    800006d8:	1cf77263          	bgeu	a4,a5,8000089c <set_key+0x354>
    800006dc:	00100813          	li	a6,1
    800006e0:	00013797          	auipc	a5,0x13
    800006e4:	a6878793          	add	a5,a5,-1432 # 80013148 <im_tab>
    800006e8:	00053703          	ld	a4,0(a0)
    800006ec:	02050513          	add	a0,a0,32
    800006f0:	fe058593          	add	a1,a1,-32
    800006f4:	00875893          	srl	a7,a4,0x8
    800006f8:	01075613          	srl	a2,a4,0x10
    800006fc:	0ff8f893          	zext.b	a7,a7
    80000700:	0ff67613          	zext.b	a2,a2
    80000704:	10088893          	add	a7,a7,256
    80000708:	20060613          	add	a2,a2,512
    8000070c:	0ff77313          	zext.b	t1,a4
    80000710:	00389893          	sll	a7,a7,0x3
    80000714:	00361613          	sll	a2,a2,0x3
    80000718:	0187571b          	srlw	a4,a4,0x18
    8000071c:	00c78633          	add	a2,a5,a2
    80000720:	00331313          	sll	t1,t1,0x3
    80000724:	011788b3          	add	a7,a5,a7
    80000728:	30070713          	add	a4,a4,768
    8000072c:	00063e03          	ld	t3,0(a2)
    80000730:	0008b883          	ld	a7,0(a7)
    80000734:	00678633          	add	a2,a5,t1
    80000738:	00371713          	sll	a4,a4,0x3
    8000073c:	00063303          	ld	t1,0(a2)
    80000740:	00e78733          	add	a4,a5,a4
    80000744:	00073603          	ld	a2,0(a4)
    80000748:	01c8c733          	xor	a4,a7,t3
    8000074c:	00674733          	xor	a4,a4,t1
    80000750:	00c74733          	xor	a4,a4,a2
    80000754:	02e5b023          	sd	a4,32(a1)
    80000758:	fe853703          	ld	a4,-24(a0)
    8000075c:	00180813          	add	a6,a6,1
    80000760:	00875893          	srl	a7,a4,0x8
    80000764:	01075613          	srl	a2,a4,0x10
    80000768:	0ff8f893          	zext.b	a7,a7
    8000076c:	0ff67613          	zext.b	a2,a2
    80000770:	10088893          	add	a7,a7,256
    80000774:	20060613          	add	a2,a2,512
    80000778:	0ff77313          	zext.b	t1,a4
    8000077c:	00389893          	sll	a7,a7,0x3
    80000780:	00361613          	sll	a2,a2,0x3
    80000784:	0187571b          	srlw	a4,a4,0x18
    80000788:	00c78633          	add	a2,a5,a2
    8000078c:	00331313          	sll	t1,t1,0x3
    80000790:	011788b3          	add	a7,a5,a7
    80000794:	30070713          	add	a4,a4,768
    80000798:	00063e03          	ld	t3,0(a2)
    8000079c:	0008b883          	ld	a7,0(a7)
    800007a0:	00678633          	add	a2,a5,t1
    800007a4:	00371713          	sll	a4,a4,0x3
    800007a8:	00063303          	ld	t1,0(a2)
    800007ac:	00e78733          	add	a4,a5,a4
    800007b0:	00073603          	ld	a2,0(a4)
    800007b4:	01c8c733          	xor	a4,a7,t3
    800007b8:	00674733          	xor	a4,a4,t1
    800007bc:	00c74733          	xor	a4,a4,a2
    800007c0:	02e5b423          	sd	a4,40(a1)
    800007c4:	ff053703          	ld	a4,-16(a0)
    800007c8:	00875893          	srl	a7,a4,0x8
    800007cc:	01075613          	srl	a2,a4,0x10
    800007d0:	0ff8f893          	zext.b	a7,a7
    800007d4:	0ff67613          	zext.b	a2,a2
    800007d8:	10088893          	add	a7,a7,256
    800007dc:	20060613          	add	a2,a2,512
    800007e0:	0ff77313          	zext.b	t1,a4
    800007e4:	00389893          	sll	a7,a7,0x3
    800007e8:	00361613          	sll	a2,a2,0x3
    800007ec:	0187571b          	srlw	a4,a4,0x18
    800007f0:	00c78633          	add	a2,a5,a2
    800007f4:	00331313          	sll	t1,t1,0x3
    800007f8:	011788b3          	add	a7,a5,a7
    800007fc:	30070713          	add	a4,a4,768
    80000800:	00063e03          	ld	t3,0(a2)
    80000804:	0008b883          	ld	a7,0(a7)
    80000808:	00678633          	add	a2,a5,t1
    8000080c:	00371713          	sll	a4,a4,0x3
    80000810:	00063303          	ld	t1,0(a2)
    80000814:	00e78733          	add	a4,a5,a4
    80000818:	00073603          	ld	a2,0(a4)
    8000081c:	01c8c733          	xor	a4,a7,t3
    80000820:	00674733          	xor	a4,a4,t1
    80000824:	00c74733          	xor	a4,a4,a2
    80000828:	02e5b823          	sd	a4,48(a1)
    8000082c:	ff853703          	ld	a4,-8(a0)
    80000830:	00875893          	srl	a7,a4,0x8
    80000834:	01075613          	srl	a2,a4,0x10
    80000838:	0ff8f893          	zext.b	a7,a7
    8000083c:	0ff67613          	zext.b	a2,a2
    80000840:	10088893          	add	a7,a7,256
    80000844:	20060613          	add	a2,a2,512
    80000848:	0ff77313          	zext.b	t1,a4
    8000084c:	00389893          	sll	a7,a7,0x3
    80000850:	00361613          	sll	a2,a2,0x3
    80000854:	0187571b          	srlw	a4,a4,0x18
    80000858:	00c78633          	add	a2,a5,a2
    8000085c:	00331313          	sll	t1,t1,0x3
    80000860:	011788b3          	add	a7,a5,a7
    80000864:	30070713          	add	a4,a4,768
    80000868:	00063e03          	ld	t3,0(a2)
    8000086c:	0008b883          	ld	a7,0(a7)
    80000870:	00678633          	add	a2,a5,t1
    80000874:	00371713          	sll	a4,a4,0x3
    80000878:	00063303          	ld	t1,0(a2)
    8000087c:	00e78733          	add	a4,a5,a4
    80000880:	00073603          	ld	a2,0(a4)
    80000884:	01c8c733          	xor	a4,a7,t3
    80000888:	00674733          	xor	a4,a4,t1
    8000088c:	00c74733          	xor	a4,a4,a2
    80000890:	02e5bc23          	sd	a4,56(a1)
    80000894:	0086b703          	ld	a4,8(a3)
    80000898:	e4e868e3          	bltu	a6,a4,800006e8 <set_key+0x1a0>
    8000089c:	00053783          	ld	a5,0(a0)
    800008a0:	00f5b023          	sd	a5,0(a1)
    800008a4:	00853783          	ld	a5,8(a0)
    800008a8:	00f5b423          	sd	a5,8(a1)
    800008ac:	01053783          	ld	a5,16(a0)
    800008b0:	00f5b823          	sd	a5,16(a1)
    800008b4:	01853783          	ld	a5,24(a0)
    800008b8:	00f5bc23          	sd	a5,24(a1)
    800008bc:	03813403          	ld	s0,56(sp)
    800008c0:	00100513          	li	a0,1
    800008c4:	04010113          	add	sp,sp,64
    800008c8:	00008067          	ret
    800008cc:	00012f97          	auipc	t6,0x12
    800008d0:	794f8f93          	add	t6,t6,1940 # 80013060 <rcon_tab>
    800008d4:	00017617          	auipc	a2,0x17
    800008d8:	87460613          	add	a2,a2,-1932 # 80017148 <fl_tab>
    800008dc:	01075513          	srl	a0,a4,0x10
    800008e0:	0ff57513          	zext.b	a0,a0
    800008e4:	00575593          	srl	a1,a4,0x5
    800008e8:	0ff77f13          	zext.b	t5,a4
    800008ec:	10050513          	add	a0,a0,256
    800008f0:	01875e9b          	srlw	t4,a4,0x18
    800008f4:	7f85f593          	and	a1,a1,2040
    800008f8:	00351513          	sll	a0,a0,0x3
    800008fc:	300f0f13          	add	t5,t5,768
    80000900:	00a60533          	add	a0,a2,a0
    80000904:	200e8e93          	add	t4,t4,512
    80000908:	00b605b3          	add	a1,a2,a1
    8000090c:	003f1f13          	sll	t5,t5,0x3
    80000910:	00053383          	ld	t2,0(a0)
    80000914:	0005b583          	ld	a1,0(a1)
    80000918:	003e9513          	sll	a0,t4,0x3
    8000091c:	01e60f33          	add	t5,a2,t5
    80000920:	00a60533          	add	a0,a2,a0
    80000924:	000f3f03          	ld	t5,0(t5)
    80000928:	00053e83          	ld	t4,0(a0)
    8000092c:	0075c5b3          	xor	a1,a1,t2
    80000930:	000fb503          	ld	a0,0(t6)
    80000934:	01e5c5b3          	xor	a1,a1,t5
    80000938:	01d5c5b3          	xor	a1,a1,t4
    8000093c:	00a5c5b3          	xor	a1,a1,a0
    80000940:	00b84833          	xor	a6,a6,a1
    80000944:	0108c8b3          	xor	a7,a7,a6
    80000948:	01134333          	xor	t1,t1,a7
    8000094c:	00674733          	xor	a4,a4,t1
    80000950:	0307b023          	sd	a6,32(a5)
    80000954:	0317b423          	sd	a7,40(a5)
    80000958:	0267b823          	sd	t1,48(a5)
    8000095c:	02e7bc23          	sd	a4,56(a5)
    80000960:	02078793          	add	a5,a5,32
    80000964:	008f8f93          	add	t6,t6,8
    80000968:	f7c7eae3          	bltu	a5,t3,800008dc <set_key+0x394>
    8000096c:	d25ff06f          	j	80000690 <set_key+0x148>
    80000970:	01053f83          	ld	t6,16(a0)
    80000974:	02913823          	sd	s1,48(sp)
    80000978:	03213423          	sd	s2,40(sp)
    8000097c:	03f6b823          	sd	t6,48(a3)
    80000980:	03313023          	sd	s3,32(sp)
    80000984:	01413c23          	sd	s4,24(sp)
    80000988:	01513823          	sd	s5,16(sp)
    8000098c:	01454a03          	lbu	s4,20(a0)
    80000990:	01554983          	lbu	s3,21(a0)
    80000994:	01654903          	lbu	s2,22(a0)
    80000998:	01754483          	lbu	s1,23(a0)
    8000099c:	01954f03          	lbu	t5,25(a0)
    800009a0:	01a54e83          	lbu	t4,26(a0)
    800009a4:	01b54583          	lbu	a1,27(a0)
    800009a8:	01854403          	lbu	s0,24(a0)
    800009ac:	01410423          	sb	s4,8(sp)
    800009b0:	013104a3          	sb	s3,9(sp)
    800009b4:	01210523          	sb	s2,10(sp)
    800009b8:	009105a3          	sb	s1,11(sp)
    800009bc:	01d10723          	sb	t4,14(sp)
    800009c0:	00b107a3          	sb	a1,15(sp)
    800009c4:	00810623          	sb	s0,12(sp)
    800009c8:	01e106a3          	sb	t5,13(sp)
    800009cc:	00813f03          	ld	t5,8(sp)
    800009d0:	00012397          	auipc	t2,0x12
    800009d4:	69038393          	add	t2,t2,1680 # 80013060 <rcon_tab>
    800009d8:	00016617          	auipc	a2,0x16
    800009dc:	77060613          	add	a2,a2,1904 # 80017148 <fl_tab>
    800009e0:	03e6bc23          	sd	t5,56(a3)
    800009e4:	01853e83          	ld	t4,24(a0)
    800009e8:	05d6b023          	sd	t4,64(a3)
    800009ec:	01c54a83          	lbu	s5,28(a0)
    800009f0:	01d54a03          	lbu	s4,29(a0)
    800009f4:	01f54983          	lbu	s3,31(a0)
    800009f8:	02054903          	lbu	s2,32(a0)
    800009fc:	02154483          	lbu	s1,33(a0)
    80000a00:	02254403          	lbu	s0,34(a0)
    80000a04:	02354583          	lbu	a1,35(a0)
    80000a08:	01e54503          	lbu	a0,30(a0)
    80000a0c:	01510423          	sb	s5,8(sp)
    80000a10:	014104a3          	sb	s4,9(sp)
    80000a14:	00a10523          	sb	a0,10(sp)
    80000a18:	013105a3          	sb	s3,11(sp)
    80000a1c:	01210623          	sb	s2,12(sp)
    80000a20:	009106a3          	sb	s1,13(sp)
    80000a24:	00810723          	sb	s0,14(sp)
    80000a28:	00b107a3          	sb	a1,15(sp)
    80000a2c:	00813403          	ld	s0,8(sp)
    80000a30:	0486b423          	sd	s0,72(a3)
    80000a34:	01045513          	srl	a0,s0,0x10
    80000a38:	0ff57513          	zext.b	a0,a0
    80000a3c:	00545593          	srl	a1,s0,0x5
    80000a40:	0ff47913          	zext.b	s2,s0
    80000a44:	10050513          	add	a0,a0,256
    80000a48:	0184549b          	srlw	s1,s0,0x18
    80000a4c:	7f85f593          	and	a1,a1,2040
    80000a50:	00351513          	sll	a0,a0,0x3
    80000a54:	30090913          	add	s2,s2,768
    80000a58:	00a60533          	add	a0,a2,a0
    80000a5c:	20048493          	add	s1,s1,512
    80000a60:	00b605b3          	add	a1,a2,a1
    80000a64:	00391913          	sll	s2,s2,0x3
    80000a68:	00053983          	ld	s3,0(a0)
    80000a6c:	0005b583          	ld	a1,0(a1)
    80000a70:	00349513          	sll	a0,s1,0x3
    80000a74:	01260933          	add	s2,a2,s2
    80000a78:	00093903          	ld	s2,0(s2)
    80000a7c:	00a60533          	add	a0,a2,a0
    80000a80:	00053483          	ld	s1,0(a0)
    80000a84:	0135c5b3          	xor	a1,a1,s3
    80000a88:	0003b503          	ld	a0,0(t2)
    80000a8c:	0125c5b3          	xor	a1,a1,s2
    80000a90:	0095c5b3          	xor	a1,a1,s1
    80000a94:	00a5c5b3          	xor	a1,a1,a0
    80000a98:	00b84833          	xor	a6,a6,a1
    80000a9c:	0108c8b3          	xor	a7,a7,a6
    80000aa0:	01134333          	xor	t1,t1,a7
    80000aa4:	00674733          	xor	a4,a4,t1
    80000aa8:	00875513          	srl	a0,a4,0x8
    80000aac:	01075593          	srl	a1,a4,0x10
    80000ab0:	0ff57513          	zext.b	a0,a0
    80000ab4:	0ff5f593          	zext.b	a1,a1
    80000ab8:	10050513          	add	a0,a0,256
    80000abc:	20058593          	add	a1,a1,512
    80000ac0:	00351513          	sll	a0,a0,0x3
    80000ac4:	00359593          	sll	a1,a1,0x3
    80000ac8:	0ff77913          	zext.b	s2,a4
    80000acc:	0187549b          	srlw	s1,a4,0x18
    80000ad0:	00b605b3          	add	a1,a2,a1
    80000ad4:	30048493          	add	s1,s1,768
    80000ad8:	00a60533          	add	a0,a2,a0
    80000adc:	00391913          	sll	s2,s2,0x3
    80000ae0:	0005b983          	ld	s3,0(a1)
    80000ae4:	00053503          	ld	a0,0(a0)
    80000ae8:	00349593          	sll	a1,s1,0x3
    80000aec:	01260933          	add	s2,a2,s2
    80000af0:	00b605b3          	add	a1,a2,a1
    80000af4:	00093903          	ld	s2,0(s2)
    80000af8:	0005b483          	ld	s1,0(a1)
    80000afc:	013545b3          	xor	a1,a0,s3
    80000b00:	0125c5b3          	xor	a1,a1,s2
    80000b04:	0095c5b3          	xor	a1,a1,s1
    80000b08:	00bfcfb3          	xor	t6,t6,a1
    80000b0c:	01ff4f33          	xor	t5,t5,t6
    80000b10:	01eeceb3          	xor	t4,t4,t5
    80000b14:	01d44433          	xor	s0,s0,t4
    80000b18:	0507b023          	sd	a6,64(a5)
    80000b1c:	0517b423          	sd	a7,72(a5)
    80000b20:	0467b823          	sd	t1,80(a5)
    80000b24:	04e7bc23          	sd	a4,88(a5)
    80000b28:	07f7b023          	sd	t6,96(a5)
    80000b2c:	07e7b423          	sd	t5,104(a5)
    80000b30:	07d7b823          	sd	t4,112(a5)
    80000b34:	0687bc23          	sd	s0,120(a5)
    80000b38:	04078793          	add	a5,a5,64
    80000b3c:	00838393          	add	t2,t2,8
    80000b40:	efc7eae3          	bltu	a5,t3,80000a34 <set_key+0x4ec>
    80000b44:	03013483          	ld	s1,48(sp)
    80000b48:	02813903          	ld	s2,40(sp)
    80000b4c:	02013983          	ld	s3,32(sp)
    80000b50:	01813a03          	ld	s4,24(sp)
    80000b54:	01013a83          	ld	s5,16(sp)
    80000b58:	b39ff06f          	j	80000690 <set_key+0x148>
    80000b5c:	01053f83          	ld	t6,16(a0)
    80000b60:	02913823          	sd	s1,48(sp)
    80000b64:	03213423          	sd	s2,40(sp)
    80000b68:	03313023          	sd	s3,32(sp)
    80000b6c:	01413c23          	sd	s4,24(sp)
    80000b70:	03f6b823          	sd	t6,48(a3)
    80000b74:	01854403          	lbu	s0,24(a0)
    80000b78:	01454a03          	lbu	s4,20(a0)
    80000b7c:	01554983          	lbu	s3,21(a0)
    80000b80:	01654903          	lbu	s2,22(a0)
    80000b84:	01754483          	lbu	s1,23(a0)
    80000b88:	01954f03          	lbu	t5,25(a0)
    80000b8c:	01a54e83          	lbu	t4,26(a0)
    80000b90:	01b54583          	lbu	a1,27(a0)
    80000b94:	01410423          	sb	s4,8(sp)
    80000b98:	013104a3          	sb	s3,9(sp)
    80000b9c:	01210523          	sb	s2,10(sp)
    80000ba0:	009105a3          	sb	s1,11(sp)
    80000ba4:	00810623          	sb	s0,12(sp)
    80000ba8:	01e106a3          	sb	t5,13(sp)
    80000bac:	01d10723          	sb	t4,14(sp)
    80000bb0:	00b107a3          	sb	a1,15(sp)
    80000bb4:	00813403          	ld	s0,8(sp)
    80000bb8:	00012397          	auipc	t2,0x12
    80000bbc:	4a838393          	add	t2,t2,1192 # 80013060 <rcon_tab>
    80000bc0:	00016617          	auipc	a2,0x16
    80000bc4:	58860613          	add	a2,a2,1416 # 80017148 <fl_tab>
    80000bc8:	0286bc23          	sd	s0,56(a3)
    80000bcc:	01045513          	srl	a0,s0,0x10
    80000bd0:	0ff57513          	zext.b	a0,a0
    80000bd4:	00545593          	srl	a1,s0,0x5
    80000bd8:	0ff47f13          	zext.b	t5,s0
    80000bdc:	10050513          	add	a0,a0,256
    80000be0:	01845e9b          	srlw	t4,s0,0x18
    80000be4:	7f85f593          	and	a1,a1,2040
    80000be8:	00351513          	sll	a0,a0,0x3
    80000bec:	300f0f13          	add	t5,t5,768
    80000bf0:	00a60533          	add	a0,a2,a0
    80000bf4:	200e8e93          	add	t4,t4,512
    80000bf8:	00b605b3          	add	a1,a2,a1
    80000bfc:	003f1f13          	sll	t5,t5,0x3
    80000c00:	00053483          	ld	s1,0(a0)
    80000c04:	0005b583          	ld	a1,0(a1)
    80000c08:	003e9513          	sll	a0,t4,0x3
    80000c0c:	01e60f33          	add	t5,a2,t5
    80000c10:	00a60533          	add	a0,a2,a0
    80000c14:	000f3f03          	ld	t5,0(t5)
    80000c18:	00053e83          	ld	t4,0(a0)
    80000c1c:	0095c5b3          	xor	a1,a1,s1
    80000c20:	0003b503          	ld	a0,0(t2)
    80000c24:	01e5c5b3          	xor	a1,a1,t5
    80000c28:	01d5c5b3          	xor	a1,a1,t4
    80000c2c:	00a5c5b3          	xor	a1,a1,a0
    80000c30:	00b84833          	xor	a6,a6,a1
    80000c34:	0108c8b3          	xor	a7,a7,a6
    80000c38:	01134333          	xor	t1,t1,a7
    80000c3c:	00674733          	xor	a4,a4,t1
    80000c40:	00efcfb3          	xor	t6,t6,a4
    80000c44:	01f44433          	xor	s0,s0,t6
    80000c48:	0307b823          	sd	a6,48(a5)
    80000c4c:	0317bc23          	sd	a7,56(a5)
    80000c50:	0467b023          	sd	t1,64(a5)
    80000c54:	04e7b423          	sd	a4,72(a5)
    80000c58:	05f7b823          	sd	t6,80(a5)
    80000c5c:	0487bc23          	sd	s0,88(a5)
    80000c60:	03078793          	add	a5,a5,48
    80000c64:	00838393          	add	t2,t2,8
    80000c68:	f7c7e2e3          	bltu	a5,t3,80000bcc <set_key+0x684>
    80000c6c:	03013483          	ld	s1,48(sp)
    80000c70:	02813903          	ld	s2,40(sp)
    80000c74:	02013983          	ld	s3,32(sp)
    80000c78:	01813a03          	ld	s4,24(sp)
    80000c7c:	a15ff06f          	j	80000690 <set_key+0x148>

0000000080000c80 <encrypt>:
    80000c80:	41064783          	lbu	a5,1040(a2)
    80000c84:	0017f793          	and	a5,a5,1
    80000c88:	00079663          	bnez	a5,80000c94 <encrypt+0x14>
    80000c8c:	00000513          	li	a0,0
    80000c90:	00008067          	ret
    80000c94:	f9010113          	add	sp,sp,-112
    80000c98:	05413423          	sd	s4,72(sp)
    80000c9c:	05513023          	sd	s5,64(sp)
    80000ca0:	06813423          	sd	s0,104(sp)
    80000ca4:	06913023          	sd	s1,96(sp)
    80000ca8:	05213c23          	sd	s2,88(sp)
    80000cac:	05313823          	sd	s3,80(sp)
    80000cb0:	03613c23          	sd	s6,56(sp)
    80000cb4:	03713823          	sd	s7,48(sp)
    80000cb8:	03813423          	sd	s8,40(sp)
    80000cbc:	03913023          	sd	s9,32(sp)
    80000cc0:	01a13c23          	sd	s10,24(sp)
    80000cc4:	00754f03          	lbu	t5,7(a0)
    80000cc8:	00454783          	lbu	a5,4(a0)
    80000ccc:	00054903          	lbu	s2,0(a0)
    80000cd0:	00154483          	lbu	s1,1(a0)
    80000cd4:	00254403          	lbu	s0,2(a0)
    80000cd8:	00354383          	lbu	t2,3(a0)
    80000cdc:	00554283          	lbu	t0,5(a0)
    80000ce0:	00654f83          	lbu	t6,6(a0)
    80000ce4:	00954803          	lbu	a6,9(a0)
    80000ce8:	00854883          	lbu	a7,8(a0)
    80000cec:	00a54683          	lbu	a3,10(a0)
    80000cf0:	00b54703          	lbu	a4,11(a0)
    80000cf4:	01210423          	sb	s2,8(sp)
    80000cf8:	009104a3          	sb	s1,9(sp)
    80000cfc:	00810523          	sb	s0,10(sp)
    80000d00:	007105a3          	sb	t2,11(sp)
    80000d04:	00f10623          	sb	a5,12(sp)
    80000d08:	005106a3          	sb	t0,13(sp)
    80000d0c:	01f10723          	sb	t6,14(sp)
    80000d10:	01e107a3          	sb	t5,15(sp)
    80000d14:	000f0313          	mv	t1,t5
    80000d18:	00080a13          	mv	s4,a6
    80000d1c:	00813f03          	ld	t5,8(sp)
    80000d20:	00f10423          	sb	a5,8(sp)
    80000d24:	010106a3          	sb	a6,13(sp)
    80000d28:	00c54483          	lbu	s1,12(a0)
    80000d2c:	00f54803          	lbu	a6,15(a0)
    80000d30:	00d54403          	lbu	s0,13(a0)
    80000d34:	00e54383          	lbu	t2,14(a0)
    80000d38:	006105a3          	sb	t1,11(sp)
    80000d3c:	005104a3          	sb	t0,9(sp)
    80000d40:	01f10523          	sb	t6,10(sp)
    80000d44:	01110623          	sb	a7,12(sp)
    80000d48:	00d10723          	sb	a3,14(sp)
    80000d4c:	00e107a3          	sb	a4,15(sp)
    80000d50:	00088a93          	mv	s5,a7
    80000d54:	00070913          	mv	s2,a4
    80000d58:	00813e03          	ld	t3,8(sp)
    80000d5c:	01154303          	lbu	t1,17(a0)
    80000d60:	01254883          	lbu	a7,18(a0)
    80000d64:	01354703          	lbu	a4,19(a0)
    80000d68:	00d10523          	sb	a3,10(sp)
    80000d6c:	00080793          	mv	a5,a6
    80000d70:	01510423          	sb	s5,8(sp)
    80000d74:	014104a3          	sb	s4,9(sp)
    80000d78:	012105a3          	sb	s2,11(sp)
    80000d7c:	01054503          	lbu	a0,16(a0)
    80000d80:	00910623          	sb	s1,12(sp)
    80000d84:	008106a3          	sb	s0,13(sp)
    80000d88:	00710723          	sb	t2,14(sp)
    80000d8c:	010107a3          	sb	a6,15(sp)
    80000d90:	00813803          	ld	a6,8(sp)
    80000d94:	00f105a3          	sb	a5,11(sp)
    80000d98:	01863783          	ld	a5,24(a2)
    80000d9c:	00910423          	sb	s1,8(sp)
    80000da0:	008104a3          	sb	s0,9(sp)
    80000da4:	00710523          	sb	t2,10(sp)
    80000da8:	01063e83          	ld	t4,16(a2)
    80000dac:	02063683          	ld	a3,32(a2)
    80000db0:	00a10623          	sb	a0,12(sp)
    80000db4:	006106a3          	sb	t1,13(sp)
    80000db8:	01110723          	sb	a7,14(sp)
    80000dbc:	00e107a3          	sb	a4,15(sp)
    80000dc0:	01c7c533          	xor	a0,a5,t3
    80000dc4:	02863703          	ld	a4,40(a2)
    80000dc8:	00813783          	ld	a5,8(sp)
    80000dcc:	00863883          	ld	a7,8(a2)
    80000dd0:	00c00313          	li	t1,12
    80000dd4:	0106c6b3          	xor	a3,a3,a6
    80000dd8:	00f74733          	xor	a4,a4,a5
    80000ddc:	01eeceb3          	xor	t4,t4,t5
    80000de0:	03060813          	add	a6,a2,48
    80000de4:	0001a797          	auipc	a5,0x1a
    80000de8:	36478793          	add	a5,a5,868 # 8001b148 <ft_tab>
    80000dec:	42688863          	beq	a7,t1,8000121c <encrypt+0x59c>
    80000df0:	00e00793          	li	a5,14
    80000df4:	0cf88e63          	beq	a7,a5,80000ed0 <encrypt+0x250>
    80000df8:	00a00793          	li	a5,10
    80000dfc:	00f89463          	bne	a7,a5,80000e04 <encrypt+0x184>
    80000e00:	7ac0106f          	j	800025ac <encrypt+0x192c>
    80000e04:	008ed81b          	srlw	a6,t4,0x8
    80000e08:	010ed61b          	srlw	a2,t4,0x10
    80000e0c:	018ed79b          	srlw	a5,t4,0x18
    80000e10:	010580a3          	sb	a6,1(a1)
    80000e14:	00c58123          	sb	a2,2(a1)
    80000e18:	00f581a3          	sb	a5,3(a1)
    80000e1c:	00a58223          	sb	a0,4(a1)
    80000e20:	00d58423          	sb	a3,8(a1)
    80000e24:	0185579b          	srlw	a5,a0,0x18
    80000e28:	0085589b          	srlw	a7,a0,0x8
    80000e2c:	0105581b          	srlw	a6,a0,0x10
    80000e30:	0106d61b          	srlw	a2,a3,0x10
    80000e34:	0086d51b          	srlw	a0,a3,0x8
    80000e38:	0186d69b          	srlw	a3,a3,0x18
    80000e3c:	011582a3          	sb	a7,5(a1)
    80000e40:	01058323          	sb	a6,6(a1)
    80000e44:	00f583a3          	sb	a5,7(a1)
    80000e48:	00a584a3          	sb	a0,9(a1)
    80000e4c:	00c58523          	sb	a2,10(a1)
    80000e50:	00d585a3          	sb	a3,11(a1)
    80000e54:	00e58623          	sb	a4,12(a1)
    80000e58:	01d58023          	sb	t4,0(a1)
    80000e5c:	00c58793          	add	a5,a1,12
    80000e60:	0187551b          	srlw	a0,a4,0x18
    80000e64:	0087589b          	srlw	a7,a4,0x8
    80000e68:	0107581b          	srlw	a6,a4,0x10
    80000e6c:	02075593          	srl	a1,a4,0x20
    80000e70:	02875613          	srl	a2,a4,0x28
    80000e74:	03075693          	srl	a3,a4,0x30
    80000e78:	03875713          	srl	a4,a4,0x38
    80000e7c:	00a781a3          	sb	a0,3(a5)
    80000e80:	011780a3          	sb	a7,1(a5)
    80000e84:	01078123          	sb	a6,2(a5)
    80000e88:	00b78223          	sb	a1,4(a5)
    80000e8c:	00c782a3          	sb	a2,5(a5)
    80000e90:	00d78323          	sb	a3,6(a5)
    80000e94:	00e783a3          	sb	a4,7(a5)
    80000e98:	06813403          	ld	s0,104(sp)
    80000e9c:	06013483          	ld	s1,96(sp)
    80000ea0:	05813903          	ld	s2,88(sp)
    80000ea4:	05013983          	ld	s3,80(sp)
    80000ea8:	04813a03          	ld	s4,72(sp)
    80000eac:	04013a83          	ld	s5,64(sp)
    80000eb0:	03813b03          	ld	s6,56(sp)
    80000eb4:	03013b83          	ld	s7,48(sp)
    80000eb8:	02813c03          	ld	s8,40(sp)
    80000ebc:	02013c83          	ld	s9,32(sp)
    80000ec0:	01813d03          	ld	s10,24(sp)
    80000ec4:	00100513          	li	a0,1
    80000ec8:	07010113          	add	sp,sp,112
    80000ecc:	00008067          	ret
    80000ed0:	0086d413          	srl	s0,a3,0x8
    80000ed4:	00875293          	srl	t0,a4,0x8
    80000ed8:	008edf93          	srl	t6,t4,0x8
    80000edc:	00855913          	srl	s2,a0,0x8
    80000ee0:	0ff57a93          	zext.b	s5,a0
    80000ee4:	01075f13          	srl	t5,a4,0x10
    80000ee8:	0ff6f393          	zext.b	t2,a3
    80000eec:	010ede13          	srl	t3,t4,0x10
    80000ef0:	0ff77a13          	zext.b	s4,a4
    80000ef4:	01055313          	srl	t1,a0,0x10
    80000ef8:	0ff47413          	zext.b	s0,s0
    80000efc:	0ff2f293          	zext.b	t0,t0
    80000f00:	0fffff93          	zext.b	t6,t6
    80000f04:	0001a797          	auipc	a5,0x1a
    80000f08:	24478793          	add	a5,a5,580 # 8001b148 <ft_tab>
    80000f0c:	10040813          	add	a6,s0,256
    80000f10:	0ffef993          	zext.b	s3,t4
    80000f14:	0106d893          	srl	a7,a3,0x10
    80000f18:	00339393          	sll	t2,t2,0x3
    80000f1c:	0ff97913          	zext.b	s2,s2
    80000f20:	003a9a93          	sll	s5,s5,0x3
    80000f24:	0fff7f13          	zext.b	t5,t5
    80000f28:	10028293          	add	t0,t0,256
    80000f2c:	0ffe7e13          	zext.b	t3,t3
    80000f30:	003a1a13          	sll	s4,s4,0x3
    80000f34:	100f8f93          	add	t6,t6,256
    80000f38:	0ff37313          	zext.b	t1,t1
    80000f3c:	0186d69b          	srlw	a3,a3,0x18
    80000f40:	01578ab3          	add	s5,a5,s5
    80000f44:	00381493          	sll	s1,a6,0x3
    80000f48:	01478a33          	add	s4,a5,s4
    80000f4c:	00778833          	add	a6,a5,t2
    80000f50:	018ede9b          	srlw	t4,t4,0x18
    80000f54:	0185551b          	srlw	a0,a0,0x18
    80000f58:	00399993          	sll	s3,s3,0x3
    80000f5c:	10090913          	add	s2,s2,256
    80000f60:	0ff8f893          	zext.b	a7,a7
    80000f64:	200f0f13          	add	t5,t5,512
    80000f68:	00329293          	sll	t0,t0,0x3
    80000f6c:	200e0e13          	add	t3,t3,512
    80000f70:	003f9f93          	sll	t6,t6,0x3
    80000f74:	20030313          	add	t1,t1,512
    80000f78:	000abb83          	ld	s7,0(s5)
    80000f7c:	00083b03          	ld	s6,0(a6)
    80000f80:	000a3a83          	ld	s5,0(s4)
    80000f84:	03863403          	ld	s0,56(a2)
    80000f88:	04863803          	ld	a6,72(a2)
    80000f8c:	04063383          	ld	t2,64(a2)
    80000f90:	013789b3          	add	s3,a5,s3
    80000f94:	009784b3          	add	s1,a5,s1
    80000f98:	005782b3          	add	t0,a5,t0
    80000f9c:	01f78fb3          	add	t6,a5,t6
    80000fa0:	30068d13          	add	s10,a3,768
    80000fa4:	0187571b          	srlw	a4,a4,0x18
    80000fa8:	00391913          	sll	s2,s2,0x3
    80000fac:	20088893          	add	a7,a7,512
    80000fb0:	003f1f13          	sll	t5,t5,0x3
    80000fb4:	300e8e93          	add	t4,t4,768
    80000fb8:	003e1e13          	sll	t3,t3,0x3
    80000fbc:	30050513          	add	a0,a0,768
    80000fc0:	00331313          	sll	t1,t1,0x3
    80000fc4:	0009bc83          	ld	s9,0(s3)
    80000fc8:	0004bc03          	ld	s8,0(s1)
    80000fcc:	0002ba03          	ld	s4,0(t0)
    80000fd0:	000fb983          	ld	s3,0(t6)
    80000fd4:	03063683          	ld	a3,48(a2)
    80000fd8:	01e78f33          	add	t5,a5,t5
    80000fdc:	01c78e33          	add	t3,a5,t3
    80000fe0:	00678333          	add	t1,a5,t1
    80000fe4:	01278933          	add	s2,a5,s2
    80000fe8:	00389893          	sll	a7,a7,0x3
    80000fec:	30070713          	add	a4,a4,768
    80000ff0:	003e9e93          	sll	t4,t4,0x3
    80000ff4:	00351513          	sll	a0,a0,0x3
    80000ff8:	003d1d13          	sll	s10,s10,0x3
    80000ffc:	000f3483          	ld	s1,0(t5)
    80001000:	000e3283          	ld	t0,0(t3)
    80001004:	00033f83          	ld	t6,0(t1)
    80001008:	00093903          	ld	s2,0(s2)
    8000100c:	00371713          	sll	a4,a4,0x3
    80001010:	01d78eb3          	add	t4,a5,t4
    80001014:	00a78533          	add	a0,a5,a0
    80001018:	011788b3          	add	a7,a5,a7
    8000101c:	01a78d33          	add	s10,a5,s10
    80001020:	000ebf03          	ld	t5,0(t4)
    80001024:	0008b883          	ld	a7,0(a7)
    80001028:	00053e83          	ld	t4,0(a0)
    8000102c:	000d3e03          	ld	t3,0(s10)
    80001030:	01744333          	xor	t1,s0,s7
    80001034:	0163c3b3          	xor	t2,t2,s6
    80001038:	00e78533          	add	a0,a5,a4
    8000103c:	01584733          	xor	a4,a6,s5
    80001040:	00053503          	ld	a0,0(a0)
    80001044:	0143c833          	xor	a6,t2,s4
    80001048:	0196c6b3          	xor	a3,a3,s9
    8000104c:	01834333          	xor	t1,t1,s8
    80001050:	01374733          	xor	a4,a4,s3
    80001054:	0126c6b3          	xor	a3,a3,s2
    80001058:	00934333          	xor	t1,t1,s1
    8000105c:	00584833          	xor	a6,a6,t0
    80001060:	01f74733          	xor	a4,a4,t6
    80001064:	01e34333          	xor	t1,t1,t5
    80001068:	01d84833          	xor	a6,a6,t4
    8000106c:	01c74733          	xor	a4,a4,t3
    80001070:	0116c6b3          	xor	a3,a3,a7
    80001074:	00a6c6b3          	xor	a3,a3,a0
    80001078:	00835393          	srl	t2,t1,0x8
    8000107c:	01085513          	srl	a0,a6,0x10
    80001080:	00885913          	srl	s2,a6,0x8
    80001084:	01075293          	srl	t0,a4,0x10
    80001088:	00875493          	srl	s1,a4,0x8
    8000108c:	01875e1b          	srlw	t3,a4,0x18
    80001090:	0186da9b          	srlw	s5,a3,0x18
    80001094:	0086dc13          	srl	s8,a3,0x8
    80001098:	0ff3f393          	zext.b	t2,t2
    8000109c:	0ff57513          	zext.b	a0,a0
    800010a0:	0ff97913          	zext.b	s2,s2
    800010a4:	0ff2f293          	zext.b	t0,t0
    800010a8:	0ff4f493          	zext.b	s1,s1
    800010ac:	0ff6f993          	zext.b	s3,a3
    800010b0:	0ff37b13          	zext.b	s6,t1
    800010b4:	0ff87a13          	zext.b	s4,a6
    800010b8:	01035413          	srl	s0,t1,0x10
    800010bc:	10038393          	add	t2,t2,256
    800010c0:	20050513          	add	a0,a0,512
    800010c4:	300e0e13          	add	t3,t3,768
    800010c8:	10090913          	add	s2,s2,256
    800010cc:	20028293          	add	t0,t0,512
    800010d0:	300a8a93          	add	s5,s5,768
    800010d4:	10048493          	add	s1,s1,256
    800010d8:	0106d693          	srl	a3,a3,0x10
    800010dc:	0ff77713          	zext.b	a4,a4
    800010e0:	0ffc7c13          	zext.b	s8,s8
    800010e4:	0ff6f693          	zext.b	a3,a3
    800010e8:	00371713          	sll	a4,a4,0x3
    800010ec:	00399993          	sll	s3,s3,0x3
    800010f0:	00339393          	sll	t2,t2,0x3
    800010f4:	00351513          	sll	a0,a0,0x3
    800010f8:	003e1e13          	sll	t3,t3,0x3
    800010fc:	003b1b13          	sll	s6,s6,0x3
    80001100:	00391913          	sll	s2,s2,0x3
    80001104:	00329293          	sll	t0,t0,0x3
    80001108:	003a9a93          	sll	s5,s5,0x3
    8000110c:	003a1a13          	sll	s4,s4,0x3
    80001110:	00349493          	sll	s1,s1,0x3
    80001114:	100c0c13          	add	s8,s8,256
    80001118:	0ff47413          	zext.b	s0,s0
    8000111c:	20068893          	add	a7,a3,512
    80001120:	00e78f33          	add	t5,a5,a4
    80001124:	013789b3          	add	s3,a5,s3
    80001128:	007783b3          	add	t2,a5,t2
    8000112c:	00a78533          	add	a0,a5,a0
    80001130:	01578ab3          	add	s5,a5,s5
    80001134:	01478a33          	add	s4,a5,s4
    80001138:	01835f9b          	srlw	t6,t1,0x18
    8000113c:	20040413          	add	s0,s0,512
    80001140:	01c78e33          	add	t3,a5,t3
    80001144:	01678b33          	add	s6,a5,s6
    80001148:	01278933          	add	s2,a5,s2
    8000114c:	005782b3          	add	t0,a5,t0
    80001150:	009784b3          	add	s1,a5,s1
    80001154:	003c1c13          	sll	s8,s8,0x3
    80001158:	0188581b          	srlw	a6,a6,0x18
    8000115c:	0009bb83          	ld	s7,0(s3)
    80001160:	000ab303          	ld	t1,0(s5)
    80001164:	0003b983          	ld	s3,0(t2)
    80001168:	000a3a83          	ld	s5,0(s4)
    8000116c:	00053383          	ld	t2,0(a0)
    80001170:	05063e83          	ld	t4,80(a2)
    80001174:	000e3e03          	ld	t3,0(t3)
    80001178:	05863503          	ld	a0,88(a2)
    8000117c:	000b3b03          	ld	s6,0(s6)
    80001180:	00093903          	ld	s2,0(s2)
    80001184:	0002b283          	ld	t0,0(t0)
    80001188:	06063683          	ld	a3,96(a2)
    8000118c:	00389c93          	sll	s9,a7,0x3
    80001190:	0004b483          	ld	s1,0(s1)
    80001194:	300f8f93          	add	t6,t6,768
    80001198:	000f3a03          	ld	s4,0(t5)
    8000119c:	06863703          	ld	a4,104(a2)
    800011a0:	00341f13          	sll	t5,s0,0x3
    800011a4:	01878c33          	add	s8,a5,s8
    800011a8:	30080813          	add	a6,a6,768
    800011ac:	003f9893          	sll	a7,t6,0x3
    800011b0:	000c3403          	ld	s0,0(s8)
    800011b4:	01978cb3          	add	s9,a5,s9
    800011b8:	01e78f33          	add	t5,a5,t5
    800011bc:	00381813          	sll	a6,a6,0x3
    800011c0:	000cbf83          	ld	t6,0(s9)
    800011c4:	000f3f03          	ld	t5,0(t5)
    800011c8:	011788b3          	add	a7,a5,a7
    800011cc:	01078833          	add	a6,a5,a6
    800011d0:	00083803          	ld	a6,0(a6)
    800011d4:	0008b883          	ld	a7,0(a7)
    800011d8:	017eceb3          	xor	t4,t4,s7
    800011dc:	01654533          	xor	a0,a0,s6
    800011e0:	0156c6b3          	xor	a3,a3,s5
    800011e4:	01474733          	xor	a4,a4,s4
    800011e8:	013eceb3          	xor	t4,t4,s3
    800011ec:	01254533          	xor	a0,a0,s2
    800011f0:	0096c6b3          	xor	a3,a3,s1
    800011f4:	00874733          	xor	a4,a4,s0
    800011f8:	007eceb3          	xor	t4,t4,t2
    800011fc:	00554533          	xor	a0,a0,t0
    80001200:	01f6c6b3          	xor	a3,a3,t6
    80001204:	01e74733          	xor	a4,a4,t5
    80001208:	01074733          	xor	a4,a4,a6
    8000120c:	01ceceb3          	xor	t4,t4,t3
    80001210:	00654533          	xor	a0,a0,t1
    80001214:	0116c6b3          	xor	a3,a3,a7
    80001218:	07060813          	add	a6,a2,112
    8000121c:	0086d313          	srl	t1,a3,0x8
    80001220:	00875893          	srl	a7,a4,0x8
    80001224:	008ed613          	srl	a2,t4,0x8
    80001228:	0ff6ff13          	zext.b	t5,a3
    8000122c:	00855413          	srl	s0,a0,0x8
    80001230:	0ff57b13          	zext.b	s6,a0
    80001234:	01075d13          	srl	s10,a4,0x10
    80001238:	010eda93          	srl	s5,t4,0x10
    8000123c:	0ff77e13          	zext.b	t3,a4
    80001240:	01055293          	srl	t0,a0,0x10
    80001244:	0ff37313          	zext.b	t1,t1
    80001248:	0ff8f893          	zext.b	a7,a7
    8000124c:	0ff67613          	zext.b	a2,a2
    80001250:	0ffefa13          	zext.b	s4,t4
    80001254:	0106df93          	srl	t6,a3,0x10
    80001258:	10030993          	add	s3,t1,256
    8000125c:	10088913          	add	s2,a7,256
    80001260:	003f1313          	sll	t1,t5,0x3
    80001264:	003e1e13          	sll	t3,t3,0x3
    80001268:	10060493          	add	s1,a2,256
    8000126c:	0ff47413          	zext.b	s0,s0
    80001270:	003b1b13          	sll	s6,s6,0x3
    80001274:	0ffd7d13          	zext.b	s10,s10
    80001278:	0ffafa93          	zext.b	s5,s5
    8000127c:	0ff2f293          	zext.b	t0,t0
    80001280:	01c783b3          	add	t2,a5,t3
    80001284:	018edf1b          	srlw	t5,t4,0x18
    80001288:	0186d69b          	srlw	a3,a3,0x18
    8000128c:	01855e9b          	srlw	t4,a0,0x18
    80001290:	01678b33          	add	s6,a5,s6
    80001294:	00678533          	add	a0,a5,t1
    80001298:	200a8a93          	add	s5,s5,512
    8000129c:	003a1a13          	sll	s4,s4,0x3
    800012a0:	10040413          	add	s0,s0,256
    800012a4:	0fffff93          	zext.b	t6,t6
    800012a8:	00399993          	sll	s3,s3,0x3
    800012ac:	200d0d13          	add	s10,s10,512
    800012b0:	00391913          	sll	s2,s2,0x3
    800012b4:	00349493          	sll	s1,s1,0x3
    800012b8:	20028293          	add	t0,t0,512
    800012bc:	00883e03          	ld	t3,8(a6)
    800012c0:	01883303          	ld	t1,24(a6)
    800012c4:	000b3c83          	ld	s9,0(s6)
    800012c8:	00053c03          	ld	s8,0(a0)
    800012cc:	0003bb83          	ld	s7,0(t2)
    800012d0:	01083883          	ld	a7,16(a6)
    800012d4:	0187551b          	srlw	a0,a4,0x18
    800012d8:	01478a33          	add	s4,a5,s4
    800012dc:	013789b3          	add	s3,a5,s3
    800012e0:	01278933          	add	s2,a5,s2
    800012e4:	003a9393          	sll	t2,s5,0x3
    800012e8:	009784b3          	add	s1,a5,s1
    800012ec:	30068613          	add	a2,a3,768
    800012f0:	00341413          	sll	s0,s0,0x3
    800012f4:	200f8f93          	add	t6,t6,512
    800012f8:	003d1d13          	sll	s10,s10,0x3
    800012fc:	300f0f13          	add	t5,t5,768
    80001300:	300e8e93          	add	t4,t4,768
    80001304:	00329293          	sll	t0,t0,0x3
    80001308:	000a3b03          	ld	s6,0(s4)
    8000130c:	0009ba83          	ld	s5,0(s3)
    80001310:	00093a03          	ld	s4,0(s2)
    80001314:	0004b983          	ld	s3,0(s1)
    80001318:	00083683          	ld	a3,0(a6)
    8000131c:	00878433          	add	s0,a5,s0
    80001320:	01a78733          	add	a4,a5,s10
    80001324:	007783b3          	add	t2,a5,t2
    80001328:	005782b3          	add	t0,a5,t0
    8000132c:	003f9f93          	sll	t6,t6,0x3
    80001330:	30050513          	add	a0,a0,768
    80001334:	003f1f13          	sll	t5,t5,0x3
    80001338:	003e9e93          	sll	t4,t4,0x3
    8000133c:	00361613          	sll	a2,a2,0x3
    80001340:	00043903          	ld	s2,0(s0)
    80001344:	00073483          	ld	s1,0(a4)
    80001348:	0003b403          	ld	s0,0(t2)
    8000134c:	01e78f33          	add	t5,a5,t5
    80001350:	0002b383          	ld	t2,0(t0)
    80001354:	01d78eb3          	add	t4,a5,t4
    80001358:	00c78633          	add	a2,a5,a2
    8000135c:	01f78fb3          	add	t6,a5,t6
    80001360:	00351513          	sll	a0,a0,0x3
    80001364:	000f3283          	ld	t0,0(t5)
    80001368:	000fbf83          	ld	t6,0(t6)
    8000136c:	000ebf03          	ld	t5,0(t4)
    80001370:	01734733          	xor	a4,t1,s7
    80001374:	00063e83          	ld	t4,0(a2)
    80001378:	0188c8b3          	xor	a7,a7,s8
    8000137c:	019e4633          	xor	a2,t3,s9
    80001380:	00a78533          	add	a0,a5,a0
    80001384:	00053503          	ld	a0,0(a0)
    80001388:	0166c6b3          	xor	a3,a3,s6
    8000138c:	01564633          	xor	a2,a2,s5
    80001390:	0148c8b3          	xor	a7,a7,s4
    80001394:	01374733          	xor	a4,a4,s3
    80001398:	0126c6b3          	xor	a3,a3,s2
    8000139c:	00964633          	xor	a2,a2,s1
    800013a0:	0088c8b3          	xor	a7,a7,s0
    800013a4:	00774733          	xor	a4,a4,t2
    800013a8:	00564633          	xor	a2,a2,t0
    800013ac:	01d74733          	xor	a4,a4,t4
    800013b0:	01e8c8b3          	xor	a7,a7,t5
    800013b4:	01f6c6b3          	xor	a3,a3,t6
    800013b8:	00a6c6b3          	xor	a3,a3,a0
    800013bc:	00865f93          	srl	t6,a2,0x8
    800013c0:	0108df13          	srl	t5,a7,0x10
    800013c4:	0088de93          	srl	t4,a7,0x8
    800013c8:	01075e13          	srl	t3,a4,0x10
    800013cc:	00875513          	srl	a0,a4,0x8
    800013d0:	0086d313          	srl	t1,a3,0x8
    800013d4:	0fffff93          	zext.b	t6,t6
    800013d8:	0fff7f13          	zext.b	t5,t5
    800013dc:	01875a9b          	srlw	s5,a4,0x18
    800013e0:	0ffefe93          	zext.b	t4,t4
    800013e4:	0186da1b          	srlw	s4,a3,0x18
    800013e8:	0ff57513          	zext.b	a0,a0
    800013ec:	0ffe7e13          	zext.b	t3,t3
    800013f0:	0ff6fb13          	zext.b	s6,a3
    800013f4:	100f8993          	add	s3,t6,256
    800013f8:	200f0393          	add	t2,t5,512
    800013fc:	0ff67913          	zext.b	s2,a2
    80001400:	100e8293          	add	t0,t4,256
    80001404:	0ff8f493          	zext.b	s1,a7
    80001408:	10050413          	add	s0,a0,256
    8000140c:	0ff37f93          	zext.b	t6,t1
    80001410:	01065c13          	srl	s8,a2,0x10
    80001414:	300a8a93          	add	s5,s5,768
    80001418:	200e0e13          	add	t3,t3,512
    8000141c:	300a0a13          	add	s4,s4,768
    80001420:	0106d693          	srl	a3,a3,0x10
    80001424:	0ff77713          	zext.b	a4,a4
    80001428:	0ff6f693          	zext.b	a3,a3
    8000142c:	00371713          	sll	a4,a4,0x3
    80001430:	003b1b13          	sll	s6,s6,0x3
    80001434:	00399993          	sll	s3,s3,0x3
    80001438:	00339393          	sll	t2,t2,0x3
    8000143c:	003a9a93          	sll	s5,s5,0x3
    80001440:	00391913          	sll	s2,s2,0x3
    80001444:	00329293          	sll	t0,t0,0x3
    80001448:	003e1e13          	sll	t3,t3,0x3
    8000144c:	003a1a13          	sll	s4,s4,0x3
    80001450:	00349493          	sll	s1,s1,0x3
    80001454:	00341413          	sll	s0,s0,0x3
    80001458:	100f8f93          	add	t6,t6,256
    8000145c:	0ffc7c13          	zext.b	s8,s8
    80001460:	00e78333          	add	t1,a5,a4
    80001464:	01678b33          	add	s6,a5,s6
    80001468:	01578ab3          	add	s5,a5,s5
    8000146c:	01278933          	add	s2,a5,s2
    80001470:	005782b3          	add	t0,a5,t0
    80001474:	01c78e33          	add	t3,a5,t3
    80001478:	01478a33          	add	s4,a5,s4
    8000147c:	009784b3          	add	s1,a5,s1
    80001480:	00878433          	add	s0,a5,s0
    80001484:	20068f13          	add	t5,a3,512
    80001488:	01865c9b          	srlw	s9,a2,0x18
    8000148c:	013789b3          	add	s3,a5,s3
    80001490:	007783b3          	add	t2,a5,t2
    80001494:	003f9f93          	sll	t6,t6,0x3
    80001498:	200c0c13          	add	s8,s8,512
    8000149c:	0188d89b          	srlw	a7,a7,0x18
    800014a0:	02083603          	ld	a2,32(a6)
    800014a4:	02883503          	ld	a0,40(a6)
    800014a8:	03083683          	ld	a3,48(a6)
    800014ac:	000b3b83          	ld	s7,0(s6)
    800014b0:	000abe83          	ld	t4,0(s5)
    800014b4:	00093b03          	ld	s6,0(s2)
    800014b8:	0009b983          	ld	s3,0(s3)
    800014bc:	0002b903          	ld	s2,0(t0)
    800014c0:	0003b383          	ld	t2,0(t2)
    800014c4:	000e3283          	ld	t0,0(t3)
    800014c8:	0004ba83          	ld	s5,0(s1)
    800014cc:	000a3e03          	ld	t3,0(s4)
    800014d0:	01f78fb3          	add	t6,a5,t6
    800014d4:	00043483          	ld	s1,0(s0)
    800014d8:	003f1f13          	sll	t5,t5,0x3
    800014dc:	03883703          	ld	a4,56(a6)
    800014e0:	00033a03          	ld	s4,0(t1)
    800014e4:	300c8c93          	add	s9,s9,768
    800014e8:	003c1c13          	sll	s8,s8,0x3
    800014ec:	30088893          	add	a7,a7,768
    800014f0:	000fb403          	ld	s0,0(t6)
    800014f4:	01e78f33          	add	t5,a5,t5
    800014f8:	003c9313          	sll	t1,s9,0x3
    800014fc:	01878c33          	add	s8,a5,s8
    80001500:	00389893          	sll	a7,a7,0x3
    80001504:	000f3f83          	ld	t6,0(t5)
    80001508:	00678333          	add	t1,a5,t1
    8000150c:	000c3f03          	ld	t5,0(s8)
    80001510:	011788b3          	add	a7,a5,a7
    80001514:	00033303          	ld	t1,0(t1)
    80001518:	0008b883          	ld	a7,0(a7)
    8000151c:	01764633          	xor	a2,a2,s7
    80001520:	01654533          	xor	a0,a0,s6
    80001524:	0156c6b3          	xor	a3,a3,s5
    80001528:	01474733          	xor	a4,a4,s4
    8000152c:	01364633          	xor	a2,a2,s3
    80001530:	01254533          	xor	a0,a0,s2
    80001534:	0096c6b3          	xor	a3,a3,s1
    80001538:	00874733          	xor	a4,a4,s0
    8000153c:	00764633          	xor	a2,a2,t2
    80001540:	00554533          	xor	a0,a0,t0
    80001544:	01f6c6b3          	xor	a3,a3,t6
    80001548:	01e74733          	xor	a4,a4,t5
    8000154c:	01d64eb3          	xor	t4,a2,t4
    80001550:	01c54533          	xor	a0,a0,t3
    80001554:	0066c6b3          	xor	a3,a3,t1
    80001558:	01174733          	xor	a4,a4,a7
    8000155c:	04080813          	add	a6,a6,64
    80001560:	0086d893          	srl	a7,a3,0x8
    80001564:	00875313          	srl	t1,a4,0x8
    80001568:	008ed613          	srl	a2,t4,0x8
    8000156c:	00855493          	srl	s1,a0,0x8
    80001570:	0ff57993          	zext.b	s3,a0
    80001574:	01075d13          	srl	s10,a4,0x10
    80001578:	0ff6fb13          	zext.b	s6,a3
    8000157c:	010eda93          	srl	s5,t4,0x10
    80001580:	0ff77f13          	zext.b	t5,a4
    80001584:	01055293          	srl	t0,a0,0x10
    80001588:	0ff37313          	zext.b	t1,t1
    8000158c:	0ff67613          	zext.b	a2,a2
    80001590:	0ff8f893          	zext.b	a7,a7
    80001594:	0ffefa13          	zext.b	s4,t4
    80001598:	0106df93          	srl	t6,a3,0x10
    8000159c:	00399993          	sll	s3,s3,0x3
    800015a0:	10088893          	add	a7,a7,256
    800015a4:	003b1b13          	sll	s6,s6,0x3
    800015a8:	10030c93          	add	s9,t1,256
    800015ac:	003f1f13          	sll	t5,t5,0x3
    800015b0:	10060913          	add	s2,a2,256
    800015b4:	0ff4f493          	zext.b	s1,s1
    800015b8:	0ffd7d13          	zext.b	s10,s10
    800015bc:	0ffafa93          	zext.b	s5,s5
    800015c0:	0ff2f293          	zext.b	t0,t0
    800015c4:	01678433          	add	s0,a5,s6
    800015c8:	01e783b3          	add	t2,a5,t5
    800015cc:	01855e1b          	srlw	t3,a0,0x18
    800015d0:	0186d31b          	srlw	t1,a3,0x18
    800015d4:	200d0d13          	add	s10,s10,512
    800015d8:	013786b3          	add	a3,a5,s3
    800015dc:	200a8a93          	add	s5,s5,512
    800015e0:	00389993          	sll	s3,a7,0x3
    800015e4:	018ede9b          	srlw	t4,t4,0x18
    800015e8:	003a1a13          	sll	s4,s4,0x3
    800015ec:	10048493          	add	s1,s1,256
    800015f0:	0fffff93          	zext.b	t6,t6
    800015f4:	003c9c93          	sll	s9,s9,0x3
    800015f8:	00391913          	sll	s2,s2,0x3
    800015fc:	20028293          	add	t0,t0,512
    80001600:	00883f03          	ld	t5,8(a6)
    80001604:	0006bc03          	ld	s8,0(a3)
    80001608:	00043b83          	ld	s7,0(s0)
    8000160c:	0003bb03          	ld	s6,0(t2)
    80001610:	01083883          	ld	a7,16(a6)
    80001614:	01883683          	ld	a3,24(a6)
    80001618:	01478a33          	add	s4,a5,s4
    8000161c:	013789b3          	add	s3,a5,s3
    80001620:	01978cb3          	add	s9,a5,s9
    80001624:	0187551b          	srlw	a0,a4,0x18
    80001628:	003d1413          	sll	s0,s10,0x3
    8000162c:	003a9393          	sll	t2,s5,0x3
    80001630:	01278933          	add	s2,a5,s2
    80001634:	00349493          	sll	s1,s1,0x3
    80001638:	200f8f93          	add	t6,t6,512
    8000163c:	300e8e93          	add	t4,t4,768
    80001640:	300e0e13          	add	t3,t3,768
    80001644:	00329293          	sll	t0,t0,0x3
    80001648:	30030313          	add	t1,t1,768
    8000164c:	000a3a83          	ld	s5,0(s4)
    80001650:	00083703          	ld	a4,0(a6)
    80001654:	0009ba03          	ld	s4,0(s3)
    80001658:	00093903          	ld	s2,0(s2)
    8000165c:	000cb983          	ld	s3,0(s9)
    80001660:	009784b3          	add	s1,a5,s1
    80001664:	00878433          	add	s0,a5,s0
    80001668:	007783b3          	add	t2,a5,t2
    8000166c:	005782b3          	add	t0,a5,t0
    80001670:	003f9f93          	sll	t6,t6,0x3
    80001674:	30050513          	add	a0,a0,768
    80001678:	003e9e93          	sll	t4,t4,0x3
    8000167c:	003e1e13          	sll	t3,t3,0x3
    80001680:	00331313          	sll	t1,t1,0x3
    80001684:	0004b483          	ld	s1,0(s1)
    80001688:	00043403          	ld	s0,0(s0)
    8000168c:	0003b383          	ld	t2,0(t2)
    80001690:	0002b283          	ld	t0,0(t0)
    80001694:	01f78fb3          	add	t6,a5,t6
    80001698:	01d78eb3          	add	t4,a5,t4
    8000169c:	01c78e33          	add	t3,a5,t3
    800016a0:	00678333          	add	t1,a5,t1
    800016a4:	00351513          	sll	a0,a0,0x3
    800016a8:	000fbf83          	ld	t6,0(t6)
    800016ac:	000ebe83          	ld	t4,0(t4)
    800016b0:	000e3e03          	ld	t3,0(t3)
    800016b4:	00033303          	ld	t1,0(t1)
    800016b8:	018f4633          	xor	a2,t5,s8
    800016bc:	00a78533          	add	a0,a5,a0
    800016c0:	0178c8b3          	xor	a7,a7,s7
    800016c4:	0166c6b3          	xor	a3,a3,s6
    800016c8:	00053503          	ld	a0,0(a0)
    800016cc:	01574733          	xor	a4,a4,s5
    800016d0:	01464633          	xor	a2,a2,s4
    800016d4:	0138c8b3          	xor	a7,a7,s3
    800016d8:	0126c6b3          	xor	a3,a3,s2
    800016dc:	00974733          	xor	a4,a4,s1
    800016e0:	00864633          	xor	a2,a2,s0
    800016e4:	0078c8b3          	xor	a7,a7,t2
    800016e8:	0056c6b3          	xor	a3,a3,t0
    800016ec:	01d64633          	xor	a2,a2,t4
    800016f0:	01c8c8b3          	xor	a7,a7,t3
    800016f4:	0066c6b3          	xor	a3,a3,t1
    800016f8:	01f74733          	xor	a4,a4,t6
    800016fc:	00a74733          	xor	a4,a4,a0
    80001700:	00865f13          	srl	t5,a2,0x8
    80001704:	0108de13          	srl	t3,a7,0x10
    80001708:	0088de93          	srl	t4,a7,0x8
    8000170c:	0106d513          	srl	a0,a3,0x10
    80001710:	0086d313          	srl	t1,a3,0x8
    80001714:	0186d41b          	srlw	s0,a3,0x18
    80001718:	01875b9b          	srlw	s7,a4,0x18
    8000171c:	0ff37313          	zext.b	t1,t1
    80001720:	00875c13          	srl	s8,a4,0x8
    80001724:	0fff7f13          	zext.b	t5,t5
    80001728:	0ffe7e13          	zext.b	t3,t3
    8000172c:	0ffefe93          	zext.b	t4,t4
    80001730:	0ff57513          	zext.b	a0,a0
    80001734:	0ff77f93          	zext.b	t6,a4
    80001738:	30040413          	add	s0,s0,768
    8000173c:	0ff67a13          	zext.b	s4,a2
    80001740:	0ff8fb13          	zext.b	s6,a7
    80001744:	10030993          	add	s3,t1,256
    80001748:	01075393          	srl	t2,a4,0x10
    8000174c:	0ff6f693          	zext.b	a3,a3
    80001750:	01065293          	srl	t0,a2,0x10
    80001754:	100f0f13          	add	t5,t5,256
    80001758:	200e0e13          	add	t3,t3,512
    8000175c:	100e8e93          	add	t4,t4,256
    80001760:	20050513          	add	a0,a0,512
    80001764:	300b8b93          	add	s7,s7,768
    80001768:	0ffc7c13          	zext.b	s8,s8
    8000176c:	00341713          	sll	a4,s0,0x3
    80001770:	003e9e93          	sll	t4,t4,0x3
    80001774:	00369913          	sll	s2,a3,0x3
    80001778:	003f9f93          	sll	t6,t6,0x3
    8000177c:	003f1f13          	sll	t5,t5,0x3
    80001780:	003e1e13          	sll	t3,t3,0x3
    80001784:	003a1a13          	sll	s4,s4,0x3
    80001788:	00351513          	sll	a0,a0,0x3
    8000178c:	003b9b93          	sll	s7,s7,0x3
    80001790:	003b1b13          	sll	s6,s6,0x3
    80001794:	00399993          	sll	s3,s3,0x3
    80001798:	0ff3f393          	zext.b	t2,t2
    8000179c:	100c0c13          	add	s8,s8,256
    800017a0:	0ff2f293          	zext.b	t0,t0
    800017a4:	01f78fb3          	add	t6,a5,t6
    800017a8:	01e78f33          	add	t5,a5,t5
    800017ac:	01c78e33          	add	t3,a5,t3
    800017b0:	00e78733          	add	a4,a5,a4
    800017b4:	01d78433          	add	s0,a5,t4
    800017b8:	00a78533          	add	a0,a5,a0
    800017bc:	01778bb3          	add	s7,a5,s7
    800017c0:	01678b33          	add	s6,a5,s6
    800017c4:	01278933          	add	s2,a5,s2
    800017c8:	01478a33          	add	s4,a5,s4
    800017cc:	013789b3          	add	s3,a5,s3
    800017d0:	0186531b          	srlw	t1,a2,0x18
    800017d4:	003c1c13          	sll	s8,s8,0x3
    800017d8:	20038393          	add	t2,t2,512
    800017dc:	20028293          	add	t0,t0,512
    800017e0:	0188d89b          	srlw	a7,a7,0x18
    800017e4:	000fba83          	ld	s5,0(t6)
    800017e8:	000f3483          	ld	s1,0(t5)
    800017ec:	000e3f83          	ld	t6,0(t3)
    800017f0:	00073e83          	ld	t4,0(a4)
    800017f4:	00053f03          	ld	t5,0(a0)
    800017f8:	000bbe03          	ld	t3,0(s7)
    800017fc:	02083683          	ld	a3,32(a6)
    80001800:	000b3b83          	ld	s7,0(s6)
    80001804:	02883703          	ld	a4,40(a6)
    80001808:	000a3a03          	ld	s4,0(s4)
    8000180c:	00043403          	ld	s0,0(s0)
    80001810:	03083503          	ld	a0,48(a6)
    80001814:	00339393          	sll	t2,t2,0x3
    80001818:	0009b983          	ld	s3,0(s3)
    8000181c:	30030313          	add	t1,t1,768
    80001820:	00093b03          	ld	s6,0(s2)
    80001824:	03883603          	ld	a2,56(a6)
    80001828:	01878933          	add	s2,a5,s8
    8000182c:	00329293          	sll	t0,t0,0x3
    80001830:	30088893          	add	a7,a7,768
    80001834:	00093903          	ld	s2,0(s2)
    80001838:	007783b3          	add	t2,a5,t2
    8000183c:	005782b3          	add	t0,a5,t0
    80001840:	00331313          	sll	t1,t1,0x3
    80001844:	00389893          	sll	a7,a7,0x3
    80001848:	0003b383          	ld	t2,0(t2)
    8000184c:	0002b283          	ld	t0,0(t0)
    80001850:	00678333          	add	t1,a5,t1
    80001854:	011788b3          	add	a7,a5,a7
    80001858:	00033303          	ld	t1,0(t1)
    8000185c:	0008b883          	ld	a7,0(a7)
    80001860:	01754533          	xor	a0,a0,s7
    80001864:	01664633          	xor	a2,a2,s6
    80001868:	0156c6b3          	xor	a3,a3,s5
    8000186c:	01474733          	xor	a4,a4,s4
    80001870:	01354533          	xor	a0,a0,s3
    80001874:	01264633          	xor	a2,a2,s2
    80001878:	0096c6b3          	xor	a3,a3,s1
    8000187c:	00874733          	xor	a4,a4,s0
    80001880:	00754533          	xor	a0,a0,t2
    80001884:	00564633          	xor	a2,a2,t0
    80001888:	006543b3          	xor	t2,a0,t1
    8000188c:	011642b3          	xor	t0,a2,a7
    80001890:	01f6c6b3          	xor	a3,a3,t6
    80001894:	01e74733          	xor	a4,a4,t5
    80001898:	01d6c6b3          	xor	a3,a3,t4
    8000189c:	01c74733          	xor	a4,a4,t3
    800018a0:	0083d313          	srl	t1,t2,0x8
    800018a4:	0082d893          	srl	a7,t0,0x8
    800018a8:	00875613          	srl	a2,a4,0x8
    800018ac:	0ff77e13          	zext.b	t3,a4
    800018b0:	0102d913          	srl	s2,t0,0x10
    800018b4:	0ff3fe93          	zext.b	t4,t2
    800018b8:	0106d493          	srl	s1,a3,0x10
    800018bc:	0086d413          	srl	s0,a3,0x8
    800018c0:	0ff37313          	zext.b	t1,t1
    800018c4:	0ff8f893          	zext.b	a7,a7
    800018c8:	01075513          	srl	a0,a4,0x10
    800018cc:	0ff6fa13          	zext.b	s4,a3
    800018d0:	0ff67613          	zext.b	a2,a2
    800018d4:	0103df93          	srl	t6,t2,0x10
    800018d8:	003e1e13          	sll	t3,t3,0x3
    800018dc:	10030313          	add	t1,t1,256
    800018e0:	0ff2fa93          	zext.b	s5,t0
    800018e4:	0ff97913          	zext.b	s2,s2
    800018e8:	003e9e93          	sll	t4,t4,0x3
    800018ec:	10088893          	add	a7,a7,256
    800018f0:	0ff4f493          	zext.b	s1,s1
    800018f4:	0ff47413          	zext.b	s0,s0
    800018f8:	10060993          	add	s3,a2,256
    800018fc:	01d78eb3          	add	t4,a5,t4
    80001900:	01c78633          	add	a2,a5,t3
    80001904:	003a1a13          	sll	s4,s4,0x3
    80001908:	00331e13          	sll	t3,t1,0x3
    8000190c:	0fffff93          	zext.b	t6,t6
    80001910:	0ff57313          	zext.b	t1,a0
    80001914:	20090913          	add	s2,s2,512
    80001918:	0186d69b          	srlw	a3,a3,0x18
    8000191c:	00389893          	sll	a7,a7,0x3
    80001920:	20048493          	add	s1,s1,512
    80001924:	0187571b          	srlw	a4,a4,0x18
    80001928:	003a9a93          	sll	s5,s5,0x3
    8000192c:	10040413          	add	s0,s0,256
    80001930:	00063c83          	ld	s9,0(a2)
    80001934:	01c78f33          	add	t5,a5,t3
    80001938:	04883503          	ld	a0,72(a6)
    8000193c:	05083603          	ld	a2,80(a6)
    80001940:	000ebe83          	ld	t4,0(t4)
    80001944:	01478a33          	add	s4,a5,s4
    80001948:	011788b3          	add	a7,a5,a7
    8000194c:	30068693          	add	a3,a3,768
    80001950:	01578ab3          	add	s5,a5,s5
    80001954:	0183d39b          	srlw	t2,t2,0x18
    80001958:	00399993          	sll	s3,s3,0x3
    8000195c:	200f8f93          	add	t6,t6,512
    80001960:	0182d29b          	srlw	t0,t0,0x18
    80001964:	00391913          	sll	s2,s2,0x3
    80001968:	00349493          	sll	s1,s1,0x3
    8000196c:	30070713          	add	a4,a4,768
    80001970:	00341413          	sll	s0,s0,0x3
    80001974:	20030313          	add	t1,t1,512
    80001978:	04083e03          	ld	t3,64(a6)
    8000197c:	000a3c03          	ld	s8,0(s4)
    80001980:	000f3b83          	ld	s7,0(t5)
    80001984:	0008bb03          	ld	s6,0(a7)
    80001988:	000aba83          	ld	s5,0(s5)
    8000198c:	05883883          	ld	a7,88(a6)
    80001990:	013789b3          	add	s3,a5,s3
    80001994:	01278933          	add	s2,a5,s2
    80001998:	009784b3          	add	s1,a5,s1
    8000199c:	00878433          	add	s0,a5,s0
    800019a0:	00369f13          	sll	t5,a3,0x3
    800019a4:	003f9f93          	sll	t6,t6,0x3
    800019a8:	30038693          	add	a3,t2,768
    800019ac:	30028293          	add	t0,t0,768
    800019b0:	00371713          	sll	a4,a4,0x3
    800019b4:	00331313          	sll	t1,t1,0x3
    800019b8:	0009ba03          	ld	s4,0(s3)
    800019bc:	01e78f33          	add	t5,a5,t5
    800019c0:	00093983          	ld	s3,0(s2)
    800019c4:	00e78733          	add	a4,a5,a4
    800019c8:	0004b903          	ld	s2,0(s1)
    800019cc:	00678333          	add	t1,a5,t1
    800019d0:	00043483          	ld	s1,0(s0)
    800019d4:	01f78fb3          	add	t6,a5,t6
    800019d8:	00329293          	sll	t0,t0,0x3
    800019dc:	00369693          	sll	a3,a3,0x3
    800019e0:	000f3403          	ld	s0,0(t5)
    800019e4:	00073383          	ld	t2,0(a4)
    800019e8:	00033f03          	ld	t5,0(t1)
    800019ec:	000fbf83          	ld	t6,0(t6)
    800019f0:	005782b3          	add	t0,a5,t0
    800019f4:	00d786b3          	add	a3,a5,a3
    800019f8:	01954533          	xor	a0,a0,s9
    800019fc:	01d64633          	xor	a2,a2,t4
    80001a00:	0006b303          	ld	t1,0(a3)
    80001a04:	0002be83          	ld	t4,0(t0)
    80001a08:	018e46b3          	xor	a3,t3,s8
    80001a0c:	0158c733          	xor	a4,a7,s5
    80001a10:	01754533          	xor	a0,a0,s7
    80001a14:	01664633          	xor	a2,a2,s6
    80001a18:	0146c6b3          	xor	a3,a3,s4
    80001a1c:	01354533          	xor	a0,a0,s3
    80001a20:	01264633          	xor	a2,a2,s2
    80001a24:	00974733          	xor	a4,a4,s1
    80001a28:	00764633          	xor	a2,a2,t2
    80001a2c:	00854533          	xor	a0,a0,s0
    80001a30:	01f6c6b3          	xor	a3,a3,t6
    80001a34:	01e74733          	xor	a4,a4,t5
    80001a38:	01d6c6b3          	xor	a3,a3,t4
    80001a3c:	00674733          	xor	a4,a4,t1
    80001a40:	01065893          	srl	a7,a2,0x10
    80001a44:	00855313          	srl	t1,a0,0x8
    80001a48:	01875e9b          	srlw	t4,a4,0x18
    80001a4c:	00865e13          	srl	t3,a2,0x8
    80001a50:	00875493          	srl	s1,a4,0x8
    80001a54:	0086d913          	srl	s2,a3,0x8
    80001a58:	0ff37313          	zext.b	t1,t1
    80001a5c:	0ff8f893          	zext.b	a7,a7
    80001a60:	0ff6ff93          	zext.b	t6,a3
    80001a64:	0ff57a93          	zext.b	s5,a0
    80001a68:	01075c93          	srl	s9,a4,0x10
    80001a6c:	0ff67a13          	zext.b	s4,a2
    80001a70:	0106d293          	srl	t0,a3,0x10
    80001a74:	01055413          	srl	s0,a0,0x10
    80001a78:	10030313          	add	t1,t1,256
    80001a7c:	20088893          	add	a7,a7,512
    80001a80:	300e8e93          	add	t4,t4,768
    80001a84:	0ffe7e13          	zext.b	t3,t3
    80001a88:	0ff4f493          	zext.b	s1,s1
    80001a8c:	0ff77713          	zext.b	a4,a4
    80001a90:	0ff97913          	zext.b	s2,s2
    80001a94:	003e9e93          	sll	t4,t4,0x3
    80001a98:	100e0e13          	add	t3,t3,256
    80001a9c:	003a1a13          	sll	s4,s4,0x3
    80001aa0:	10048493          	add	s1,s1,256
    80001aa4:	00371713          	sll	a4,a4,0x3
    80001aa8:	0ff47413          	zext.b	s0,s0
    80001aac:	003f9f93          	sll	t6,t6,0x3
    80001ab0:	00331313          	sll	t1,t1,0x3
    80001ab4:	00389893          	sll	a7,a7,0x3
    80001ab8:	003a9a93          	sll	s5,s5,0x3
    80001abc:	0ffcfc93          	zext.b	s9,s9
    80001ac0:	0ff2f293          	zext.b	t0,t0
    80001ac4:	10090913          	add	s2,s2,256
    80001ac8:	01d78f33          	add	t5,a5,t4
    80001acc:	01f78fb3          	add	t6,a5,t6
    80001ad0:	00678333          	add	t1,a5,t1
    80001ad4:	011788b3          	add	a7,a5,a7
    80001ad8:	01578ab3          	add	s5,a5,s5
    80001adc:	00349d13          	sll	s10,s1,0x3
    80001ae0:	003e1993          	sll	s3,t3,0x3
    80001ae4:	00e784b3          	add	s1,a5,a4
    80001ae8:	0186de1b          	srlw	t3,a3,0x18
    80001aec:	0185551b          	srlw	a0,a0,0x18
    80001af0:	014786b3          	add	a3,a5,s4
    80001af4:	00391913          	sll	s2,s2,0x3
    80001af8:	20040e93          	add	t4,s0,512
    80001afc:	0186561b          	srlw	a2,a2,0x18
    80001b00:	200c8c93          	add	s9,s9,512
    80001b04:	20028293          	add	t0,t0,512
    80001b08:	00033a03          	ld	s4,0(t1)
    80001b0c:	0008b403          	ld	s0,0(a7)
    80001b10:	012783b3          	add	t2,a5,s2
    80001b14:	06083703          	ld	a4,96(a6)
    80001b18:	000fbc03          	ld	s8,0(t6)
    80001b1c:	013789b3          	add	s3,a5,s3
    80001b20:	000f3f83          	ld	t6,0(t5)
    80001b24:	003c9c93          	sll	s9,s9,0x3
    80001b28:	06883f03          	ld	t5,104(a6)
    80001b2c:	000abb83          	ld	s7,0(s5)
    80001b30:	0006bb03          	ld	s6,0(a3)
    80001b34:	0004ba83          	ld	s5,0(s1)
    80001b38:	07083883          	ld	a7,112(a6)
    80001b3c:	01a784b3          	add	s1,a5,s10
    80001b40:	07883683          	ld	a3,120(a6)
    80001b44:	30050313          	add	t1,a0,768
    80001b48:	300e0e13          	add	t3,t3,768
    80001b4c:	30060513          	add	a0,a2,768
    80001b50:	00329293          	sll	t0,t0,0x3
    80001b54:	003e9e93          	sll	t4,t4,0x3
    80001b58:	0004b903          	ld	s2,0(s1)
    80001b5c:	0009b983          	ld	s3,0(s3)
    80001b60:	0003b483          	ld	s1,0(t2)
    80001b64:	005782b3          	add	t0,a5,t0
    80001b68:	019783b3          	add	t2,a5,s9
    80001b6c:	01d78eb3          	add	t4,a5,t4
    80001b70:	003e1e13          	sll	t3,t3,0x3
    80001b74:	00331313          	sll	t1,t1,0x3
    80001b78:	00351513          	sll	a0,a0,0x3
    80001b7c:	0003b383          	ld	t2,0(t2)
    80001b80:	0002b283          	ld	t0,0(t0)
    80001b84:	000ebe83          	ld	t4,0(t4)
    80001b88:	01c78e33          	add	t3,a5,t3
    80001b8c:	00678333          	add	t1,a5,t1
    80001b90:	00a78533          	add	a0,a5,a0
    80001b94:	000e3e03          	ld	t3,0(t3)
    80001b98:	00033303          	ld	t1,0(t1)
    80001b9c:	00053503          	ld	a0,0(a0)
    80001ba0:	017f4633          	xor	a2,t5,s7
    80001ba4:	01874733          	xor	a4,a4,s8
    80001ba8:	0168c8b3          	xor	a7,a7,s6
    80001bac:	0156c6b3          	xor	a3,a3,s5
    80001bb0:	01474733          	xor	a4,a4,s4
    80001bb4:	01364633          	xor	a2,a2,s3
    80001bb8:	0128c8b3          	xor	a7,a7,s2
    80001bbc:	0096c6b3          	xor	a3,a3,s1
    80001bc0:	00874733          	xor	a4,a4,s0
    80001bc4:	00764633          	xor	a2,a2,t2
    80001bc8:	0058c8b3          	xor	a7,a7,t0
    80001bcc:	01d6c6b3          	xor	a3,a3,t4
    80001bd0:	01c64633          	xor	a2,a2,t3
    80001bd4:	01f74733          	xor	a4,a4,t6
    80001bd8:	0068c8b3          	xor	a7,a7,t1
    80001bdc:	00a6c6b3          	xor	a3,a3,a0
    80001be0:	00865413          	srl	s0,a2,0x8
    80001be4:	0108d513          	srl	a0,a7,0x10
    80001be8:	0088de13          	srl	t3,a7,0x8
    80001bec:	0106df93          	srl	t6,a3,0x10
    80001bf0:	0086d293          	srl	t0,a3,0x8
    80001bf4:	01075f13          	srl	t5,a4,0x10
    80001bf8:	0186d99b          	srlw	s3,a3,0x18
    80001bfc:	01875b1b          	srlw	s6,a4,0x18
    80001c00:	01865c1b          	srlw	s8,a2,0x18
    80001c04:	00875a93          	srl	s5,a4,0x8
    80001c08:	0ff47413          	zext.b	s0,s0
    80001c0c:	0ff57513          	zext.b	a0,a0
    80001c10:	0ffe7e13          	zext.b	t3,t3
    80001c14:	0fffff93          	zext.b	t6,t6
    80001c18:	0ff2f293          	zext.b	t0,t0
    80001c1c:	0fff7f13          	zext.b	t5,t5
    80001c20:	0ff67393          	zext.b	t2,a2
    80001c24:	0ff8f913          	zext.b	s2,a7
    80001c28:	01065313          	srl	t1,a2,0x10
    80001c2c:	0ff77713          	zext.b	a4,a4
    80001c30:	10040413          	add	s0,s0,256
    80001c34:	20050513          	add	a0,a0,512
    80001c38:	30098993          	add	s3,s3,768
    80001c3c:	100e0e13          	add	t3,t3,256
    80001c40:	200f8f93          	add	t6,t6,512
    80001c44:	300b0b13          	add	s6,s6,768
    80001c48:	10028293          	add	t0,t0,256
    80001c4c:	200f0f13          	add	t5,t5,512
    80001c50:	300c0c13          	add	s8,s8,768
    80001c54:	0ff6f693          	zext.b	a3,a3
    80001c58:	0ffafa93          	zext.b	s5,s5
    80001c5c:	00351513          	sll	a0,a0,0x3
    80001c60:	003f9f93          	sll	t6,t6,0x3
    80001c64:	00369693          	sll	a3,a3,0x3
    80001c68:	00371713          	sll	a4,a4,0x3
    80001c6c:	00341413          	sll	s0,s0,0x3
    80001c70:	00399993          	sll	s3,s3,0x3
    80001c74:	00339393          	sll	t2,t2,0x3
    80001c78:	003e1e13          	sll	t3,t3,0x3
    80001c7c:	003b1b13          	sll	s6,s6,0x3
    80001c80:	00391913          	sll	s2,s2,0x3
    80001c84:	00329293          	sll	t0,t0,0x3
    80001c88:	003f1f13          	sll	t5,t5,0x3
    80001c8c:	003c1c13          	sll	s8,s8,0x3
    80001c90:	100a8a93          	add	s5,s5,256
    80001c94:	0ff37313          	zext.b	t1,t1
    80001c98:	00a78eb3          	add	t4,a5,a0
    80001c9c:	01f78633          	add	a2,a5,t6
    80001ca0:	00d784b3          	add	s1,a5,a3
    80001ca4:	00e78733          	add	a4,a5,a4
    80001ca8:	00878433          	add	s0,a5,s0
    80001cac:	013789b3          	add	s3,a5,s3
    80001cb0:	007783b3          	add	t2,a5,t2
    80001cb4:	01c78e33          	add	t3,a5,t3
    80001cb8:	01678b33          	add	s6,a5,s6
    80001cbc:	01278933          	add	s2,a5,s2
    80001cc0:	005782b3          	add	t0,a5,t0
    80001cc4:	01e78f33          	add	t5,a5,t5
    80001cc8:	01878c33          	add	s8,a5,s8
    80001ccc:	003a9a93          	sll	s5,s5,0x3
    80001cd0:	20030313          	add	t1,t1,512
    80001cd4:	0188d89b          	srlw	a7,a7,0x18
    80001cd8:	00073b83          	ld	s7,0(a4)
    80001cdc:	00043a03          	ld	s4,0(s0)
    80001ce0:	0009bf83          	ld	t6,0(s3)
    80001ce4:	000eb403          	ld	s0,0(t4)
    80001ce8:	0003b983          	ld	s3,0(t2)
    80001cec:	00063e83          	ld	t4,0(a2)
    80001cf0:	000e3383          	ld	t2,0(t3)
    80001cf4:	08083503          	ld	a0,128(a6)
    80001cf8:	000b3e03          	ld	t3,0(s6)
    80001cfc:	08883703          	ld	a4,136(a6)
    80001d00:	00093b03          	ld	s6,0(s2)
    80001d04:	09083603          	ld	a2,144(a6)
    80001d08:	0002b903          	ld	s2,0(t0)
    80001d0c:	09883683          	ld	a3,152(a6)
    80001d10:	000f3283          	ld	t0,0(t5)
    80001d14:	00331313          	sll	t1,t1,0x3
    80001d18:	000c3f03          	ld	t5,0(s8)
    80001d1c:	30088893          	add	a7,a7,768
    80001d20:	01578c33          	add	s8,a5,s5
    80001d24:	0004ba83          	ld	s5,0(s1)
    80001d28:	00678333          	add	t1,a5,t1
    80001d2c:	000c3483          	ld	s1,0(s8)
    80001d30:	00389893          	sll	a7,a7,0x3
    80001d34:	00033303          	ld	t1,0(t1)
    80001d38:	011788b3          	add	a7,a5,a7
    80001d3c:	0008b883          	ld	a7,0(a7)
    80001d40:	01754533          	xor	a0,a0,s7
    80001d44:	01664633          	xor	a2,a2,s6
    80001d48:	0156c6b3          	xor	a3,a3,s5
    80001d4c:	01454533          	xor	a0,a0,s4
    80001d50:	01374733          	xor	a4,a4,s3
    80001d54:	01264633          	xor	a2,a2,s2
    80001d58:	0096c6b3          	xor	a3,a3,s1
    80001d5c:	00854533          	xor	a0,a0,s0
    80001d60:	00774733          	xor	a4,a4,t2
    80001d64:	00564633          	xor	a2,a2,t0
    80001d68:	0066c6b3          	xor	a3,a3,t1
    80001d6c:	01f54533          	xor	a0,a0,t6
    80001d70:	01e64633          	xor	a2,a2,t5
    80001d74:	0116c6b3          	xor	a3,a3,a7
    80001d78:	01d74733          	xor	a4,a4,t4
    80001d7c:	01c74733          	xor	a4,a4,t3
    80001d80:	00865313          	srl	t1,a2,0x8
    80001d84:	0086d893          	srl	a7,a3,0x8
    80001d88:	00855913          	srl	s2,a0,0x8
    80001d8c:	00875e93          	srl	t4,a4,0x8
    80001d90:	0ff77a93          	zext.b	s5,a4
    80001d94:	0106d493          	srl	s1,a3,0x10
    80001d98:	0ff67f13          	zext.b	t5,a2
    80001d9c:	01055413          	srl	s0,a0,0x10
    80001da0:	0ff6fa13          	zext.b	s4,a3
    80001da4:	01075393          	srl	t2,a4,0x10
    80001da8:	0ff37313          	zext.b	t1,t1
    80001dac:	0ff8f893          	zext.b	a7,a7
    80001db0:	0ff97913          	zext.b	s2,s2
    80001db4:	0ff57993          	zext.b	s3,a0
    80001db8:	01065293          	srl	t0,a2,0x10
    80001dbc:	0ffefe93          	zext.b	t4,t4
    80001dc0:	003a9a93          	sll	s5,s5,0x3
    80001dc4:	10030313          	add	t1,t1,256
    80001dc8:	0ff4f493          	zext.b	s1,s1
    80001dcc:	003f1f13          	sll	t5,t5,0x3
    80001dd0:	10088893          	add	a7,a7,256
    80001dd4:	0ff47413          	zext.b	s0,s0
    80001dd8:	003a1a13          	sll	s4,s4,0x3
    80001ddc:	10090913          	add	s2,s2,256
    80001de0:	0ff3f393          	zext.b	t2,t2
    80001de4:	01578ab3          	add	s5,a5,s5
    80001de8:	01e78f33          	add	t5,a5,t5
    80001dec:	01478a33          	add	s4,a5,s4
    80001df0:	01865e1b          	srlw	t3,a2,0x18
    80001df4:	00399993          	sll	s3,s3,0x3
    80001df8:	100e8e93          	add	t4,t4,256
    80001dfc:	0ff2f293          	zext.b	t0,t0
    80001e00:	00331313          	sll	t1,t1,0x3
    80001e04:	20048493          	add	s1,s1,512
    80001e08:	0185551b          	srlw	a0,a0,0x18
    80001e0c:	00389893          	sll	a7,a7,0x3
    80001e10:	20040413          	add	s0,s0,512
    80001e14:	0187571b          	srlw	a4,a4,0x18
    80001e18:	00391913          	sll	s2,s2,0x3
    80001e1c:	20038393          	add	t2,t2,512
    80001e20:	0a883f83          	ld	t6,168(a6)
    80001e24:	000abc83          	ld	s9,0(s5)
    80001e28:	000f3c03          	ld	s8,0(t5)
    80001e2c:	000a3b83          	ld	s7,0(s4)
    80001e30:	0b883f03          	ld	t5,184(a6)
    80001e34:	0b083603          	ld	a2,176(a6)
    80001e38:	013789b3          	add	s3,a5,s3
    80001e3c:	00678333          	add	t1,a5,t1
    80001e40:	011788b3          	add	a7,a5,a7
    80001e44:	01278933          	add	s2,a5,s2
    80001e48:	0186dd1b          	srlw	s10,a3,0x18
    80001e4c:	003e9e93          	sll	t4,t4,0x3
    80001e50:	20028293          	add	t0,t0,512
    80001e54:	00349493          	sll	s1,s1,0x3
    80001e58:	30050513          	add	a0,a0,768
    80001e5c:	00341413          	sll	s0,s0,0x3
    80001e60:	30070713          	add	a4,a4,768
    80001e64:	00339393          	sll	t2,t2,0x3
    80001e68:	300e0e13          	add	t3,t3,768
    80001e6c:	0009bb03          	ld	s6,0(s3)
    80001e70:	00033a83          	ld	s5,0(t1)
    80001e74:	0008ba03          	ld	s4,0(a7)
    80001e78:	00093983          	ld	s3,0(s2)
    80001e7c:	0a083683          	ld	a3,160(a6)
    80001e80:	01d78eb3          	add	t4,a5,t4
    80001e84:	009784b3          	add	s1,a5,s1
    80001e88:	00878433          	add	s0,a5,s0
    80001e8c:	007783b3          	add	t2,a5,t2
    80001e90:	00329293          	sll	t0,t0,0x3
    80001e94:	300d0893          	add	a7,s10,768
    80001e98:	00351513          	sll	a0,a0,0x3
    80001e9c:	00371713          	sll	a4,a4,0x3
    80001ea0:	003e1e13          	sll	t3,t3,0x3
    80001ea4:	000eb903          	ld	s2,0(t4)
    80001ea8:	0004b483          	ld	s1,0(s1)
    80001eac:	00043403          	ld	s0,0(s0)
    80001eb0:	0003b383          	ld	t2,0(t2)
    80001eb4:	005782b3          	add	t0,a5,t0
    80001eb8:	00a78533          	add	a0,a5,a0
    80001ebc:	00e78733          	add	a4,a5,a4
    80001ec0:	01c78e33          	add	t3,a5,t3
    80001ec4:	00389893          	sll	a7,a7,0x3
    80001ec8:	0002b303          	ld	t1,0(t0)
    80001ecc:	00073e83          	ld	t4,0(a4)
    80001ed0:	00053283          	ld	t0,0(a0)
    80001ed4:	000e3e03          	ld	t3,0(t3)
    80001ed8:	019fc533          	xor	a0,t6,s9
    80001edc:	017f4733          	xor	a4,t5,s7
    80001ee0:	011788b3          	add	a7,a5,a7
    80001ee4:	01864633          	xor	a2,a2,s8
    80001ee8:	0008b883          	ld	a7,0(a7)
    80001eec:	0166c6b3          	xor	a3,a3,s6
    80001ef0:	01554533          	xor	a0,a0,s5
    80001ef4:	01464633          	xor	a2,a2,s4
    80001ef8:	01374733          	xor	a4,a4,s3
    80001efc:	00954533          	xor	a0,a0,s1
    80001f00:	0126c6b3          	xor	a3,a3,s2
    80001f04:	00864633          	xor	a2,a2,s0
    80001f08:	00774733          	xor	a4,a4,t2
    80001f0c:	01d64633          	xor	a2,a2,t4
    80001f10:	00554f33          	xor	t5,a0,t0
    80001f14:	01c74733          	xor	a4,a4,t3
    80001f18:	0066c6b3          	xor	a3,a3,t1
    80001f1c:	0116c6b3          	xor	a3,a3,a7
    80001f20:	008f5e93          	srl	t4,t5,0x8
    80001f24:	01065e13          	srl	t3,a2,0x10
    80001f28:	00865313          	srl	t1,a2,0x8
    80001f2c:	01075893          	srl	a7,a4,0x10
    80001f30:	0187551b          	srlw	a0,a4,0x18
    80001f34:	0086d393          	srl	t2,a3,0x8
    80001f38:	0ffefe93          	zext.b	t4,t4
    80001f3c:	0ffe7e13          	zext.b	t3,t3
    80001f40:	0ff37313          	zext.b	t1,t1
    80001f44:	0ff8f893          	zext.b	a7,a7
    80001f48:	010f5293          	srl	t0,t5,0x10
    80001f4c:	0ff6fa93          	zext.b	s5,a3
    80001f50:	100e8e93          	add	t4,t4,256
    80001f54:	0fff7a13          	zext.b	s4,t5
    80001f58:	10030313          	add	t1,t1,256
    80001f5c:	00875f93          	srl	t6,a4,0x8
    80001f60:	200e0e13          	add	t3,t3,512
    80001f64:	30050513          	add	a0,a0,768
    80001f68:	20088893          	add	a7,a7,512
    80001f6c:	0ff77713          	zext.b	a4,a4
    80001f70:	0ff3f393          	zext.b	t2,t2
    80001f74:	003e9913          	sll	s2,t4,0x3
    80001f78:	003e1e13          	sll	t3,t3,0x3
    80001f7c:	00351513          	sll	a0,a0,0x3
    80001f80:	00331493          	sll	s1,t1,0x3
    80001f84:	00389893          	sll	a7,a7,0x3
    80001f88:	0ff67993          	zext.b	s3,a2
    80001f8c:	0106d313          	srl	t1,a3,0x10
    80001f90:	0ff2fe93          	zext.b	t4,t0
    80001f94:	003a9a93          	sll	s5,s5,0x3
    80001f98:	003a1a13          	sll	s4,s4,0x3
    80001f9c:	0fffff93          	zext.b	t6,t6
    80001fa0:	00371713          	sll	a4,a4,0x3
    80001fa4:	10038393          	add	t2,t2,256
    80001fa8:	01c782b3          	add	t0,a5,t3
    80001fac:	01178433          	add	s0,a5,a7
    80001fb0:	00a78e33          	add	t3,a5,a0
    80001fb4:	01578ab3          	add	s5,a5,s5
    80001fb8:	01278933          	add	s2,a5,s2
    80001fbc:	01478a33          	add	s4,a5,s4
    80001fc0:	009784b3          	add	s1,a5,s1
    80001fc4:	00e78733          	add	a4,a5,a4
    80001fc8:	0186d69b          	srlw	a3,a3,0x18
    80001fcc:	00399993          	sll	s3,s3,0x3
    80001fd0:	0186589b          	srlw	a7,a2,0x18
    80001fd4:	100f8f93          	add	t6,t6,256
    80001fd8:	0ff37313          	zext.b	t1,t1
    80001fdc:	00339393          	sll	t2,t2,0x3
    80001fe0:	200e8e93          	add	t4,t4,512
    80001fe4:	000abc83          	ld	s9,0(s5)
    80001fe8:	00093b03          	ld	s6,0(s2)
    80001fec:	000a3c03          	ld	s8,0(s4)
    80001ff0:	0002b903          	ld	s2,0(t0)
    80001ff4:	0c083503          	ld	a0,192(a6)
    80001ff8:	000e3283          	ld	t0,0(t3)
    80001ffc:	0c883603          	ld	a2,200(a6)
    80002000:	0004ba83          	ld	s5,0(s1)
    80002004:	007783b3          	add	t2,a5,t2
    80002008:	00043483          	ld	s1,0(s0)
    8000200c:	30068e13          	add	t3,a3,768
    80002010:	00073b83          	ld	s7,0(a4)
    80002014:	01378433          	add	s0,a5,s3
    80002018:	0d883683          	ld	a3,216(a6)
    8000201c:	003f9f93          	sll	t6,t6,0x3
    80002020:	20030313          	add	t1,t1,512
    80002024:	018f5f1b          	srlw	t5,t5,0x18
    80002028:	003e9e93          	sll	t4,t4,0x3
    8000202c:	30088893          	add	a7,a7,768
    80002030:	00043a03          	ld	s4,0(s0)
    80002034:	0003b983          	ld	s3,0(t2)
    80002038:	0d083703          	ld	a4,208(a6)
    8000203c:	01f78fb3          	add	t6,a5,t6
    80002040:	01d78eb3          	add	t4,a5,t4
    80002044:	003e1e13          	sll	t3,t3,0x3
    80002048:	00331313          	sll	t1,t1,0x3
    8000204c:	300f0f13          	add	t5,t5,768
    80002050:	00389893          	sll	a7,a7,0x3
    80002054:	000fb403          	ld	s0,0(t6)
    80002058:	000eb383          	ld	t2,0(t4)
    8000205c:	00678333          	add	t1,a5,t1
    80002060:	011788b3          	add	a7,a5,a7
    80002064:	01c78e33          	add	t3,a5,t3
    80002068:	003f1f13          	sll	t5,t5,0x3
    8000206c:	00033e83          	ld	t4,0(t1)
    80002070:	0008bf83          	ld	t6,0(a7)
    80002074:	000e3e03          	ld	t3,0(t3)
    80002078:	01e78f33          	add	t5,a5,t5
    8000207c:	01954533          	xor	a0,a0,s9
    80002080:	01864633          	xor	a2,a2,s8
    80002084:	0176c6b3          	xor	a3,a3,s7
    80002088:	000f3303          	ld	t1,0(t5)
    8000208c:	01654533          	xor	a0,a0,s6
    80002090:	01564633          	xor	a2,a2,s5
    80002094:	01474733          	xor	a4,a4,s4
    80002098:	0136c6b3          	xor	a3,a3,s3
    8000209c:	01254533          	xor	a0,a0,s2
    800020a0:	00964633          	xor	a2,a2,s1
    800020a4:	00874733          	xor	a4,a4,s0
    800020a8:	0076c6b3          	xor	a3,a3,t2
    800020ac:	005548b3          	xor	a7,a0,t0
    800020b0:	01c64633          	xor	a2,a2,t3
    800020b4:	01f6c6b3          	xor	a3,a3,t6
    800020b8:	01d74733          	xor	a4,a4,t4
    800020bc:	00674733          	xor	a4,a4,t1
    800020c0:	00865e93          	srl	t4,a2,0x8
    800020c4:	0086d413          	srl	s0,a3,0x8
    800020c8:	0088d393          	srl	t2,a7,0x8
    800020cc:	0ff8fa93          	zext.b	s5,a7
    800020d0:	01075f13          	srl	t5,a4,0x10
    800020d4:	00875b13          	srl	s6,a4,0x8
    800020d8:	0ff77e13          	zext.b	t3,a4
    800020dc:	0ff47413          	zext.b	s0,s0
    800020e0:	0108d313          	srl	t1,a7,0x10
    800020e4:	0ff6f513          	zext.b	a0,a3
    800020e8:	0ff3f393          	zext.b	t2,t2
    800020ec:	01065f93          	srl	t6,a2,0x10
    800020f0:	0ffefe93          	zext.b	t4,t4
    800020f4:	0106db93          	srl	s7,a3,0x10
    800020f8:	100e8e93          	add	t4,t4,256
    800020fc:	0fff7f13          	zext.b	t5,t5
    80002100:	0ff67a13          	zext.b	s4,a2
    80002104:	0ffb7b13          	zext.b	s6,s6
    80002108:	003e1e13          	sll	t3,t3,0x3
    8000210c:	10040913          	add	s2,s0,256
    80002110:	00351513          	sll	a0,a0,0x3
    80002114:	10038493          	add	s1,t2,256
    80002118:	003a9a93          	sll	s5,s5,0x3
    8000211c:	0ff37313          	zext.b	t1,t1
    80002120:	0fffff93          	zext.b	t6,t6
    80002124:	00a782b3          	add	t0,a5,a0
    80002128:	01578ab3          	add	s5,a5,s5
    8000212c:	003e9993          	sll	s3,t4,0x3
    80002130:	200f0413          	add	s0,t5,512
    80002134:	100b0393          	add	t2,s6,256
    80002138:	0186df1b          	srlw	t5,a3,0x18
    8000213c:	0ffbfe93          	zext.b	t4,s7
    80002140:	01c786b3          	add	a3,a5,t3
    80002144:	20030313          	add	t1,t1,512
    80002148:	01865e1b          	srlw	t3,a2,0x18
    8000214c:	0187571b          	srlw	a4,a4,0x18
    80002150:	003a1a13          	sll	s4,s4,0x3
    80002154:	00391913          	sll	s2,s2,0x3
    80002158:	00349493          	sll	s1,s1,0x3
    8000215c:	200f8f93          	add	t6,t6,512
    80002160:	000abc03          	ld	s8,0(s5)
    80002164:	0006bb83          	ld	s7,0(a3)
    80002168:	0002bb03          	ld	s6,0(t0)
    8000216c:	0e083503          	ld	a0,224(a6)
    80002170:	0f083603          	ld	a2,240(a6)
    80002174:	0f883683          	ld	a3,248(a6)
    80002178:	013789b3          	add	s3,a5,s3
    8000217c:	01278933          	add	s2,a5,s2
    80002180:	009784b3          	add	s1,a5,s1
    80002184:	01478a33          	add	s4,a5,s4
    80002188:	00331293          	sll	t0,t1,0x3
    8000218c:	00341413          	sll	s0,s0,0x3
    80002190:	30070313          	add	t1,a4,768
    80002194:	300f0f13          	add	t5,t5,768
    80002198:	00339393          	sll	t2,t2,0x3
    8000219c:	200e8e93          	add	t4,t4,512
    800021a0:	0188d89b          	srlw	a7,a7,0x18
    800021a4:	300e0e13          	add	t3,t3,768
    800021a8:	003f9f93          	sll	t6,t6,0x3
    800021ac:	0009ba83          	ld	s5,0(s3)
    800021b0:	0e883703          	ld	a4,232(a6)
    800021b4:	00093983          	ld	s3,0(s2)
    800021b8:	000a3a03          	ld	s4,0(s4)
    800021bc:	0004b903          	ld	s2,0(s1)
    800021c0:	00878433          	add	s0,a5,s0
    800021c4:	007783b3          	add	t2,a5,t2
    800021c8:	005782b3          	add	t0,a5,t0
    800021cc:	01f78fb3          	add	t6,a5,t6
    800021d0:	003f1f13          	sll	t5,t5,0x3
    800021d4:	003e9e93          	sll	t4,t4,0x3
    800021d8:	30088893          	add	a7,a7,768
    800021dc:	003e1e13          	sll	t3,t3,0x3
    800021e0:	00331313          	sll	t1,t1,0x3
    800021e4:	00043483          	ld	s1,0(s0)
    800021e8:	01e78f33          	add	t5,a5,t5
    800021ec:	0003b403          	ld	s0,0(t2)
    800021f0:	01c78e33          	add	t3,a5,t3
    800021f4:	0002b383          	ld	t2,0(t0)
    800021f8:	01d78eb3          	add	t4,a5,t4
    800021fc:	000fb283          	ld	t0,0(t6)
    80002200:	00678333          	add	t1,a5,t1
    80002204:	00389893          	sll	a7,a7,0x3
    80002208:	000f3f83          	ld	t6,0(t5)
    8000220c:	000ebe83          	ld	t4,0(t4)
    80002210:	000e3f03          	ld	t5,0(t3)
    80002214:	00033303          	ld	t1,0(t1)
    80002218:	01854533          	xor	a0,a0,s8
    8000221c:	011788b3          	add	a7,a5,a7
    80002220:	01764633          	xor	a2,a2,s7
    80002224:	0166c6b3          	xor	a3,a3,s6
    80002228:	0008b883          	ld	a7,0(a7)
    8000222c:	01554533          	xor	a0,a0,s5
    80002230:	01474733          	xor	a4,a4,s4
    80002234:	01364633          	xor	a2,a2,s3
    80002238:	0126c6b3          	xor	a3,a3,s2
    8000223c:	0056c6b3          	xor	a3,a3,t0
    80002240:	00954533          	xor	a0,a0,s1
    80002244:	00874733          	xor	a4,a4,s0
    80002248:	00764633          	xor	a2,a2,t2
    8000224c:	01e64633          	xor	a2,a2,t5
    80002250:	0066cc33          	xor	s8,a3,t1
    80002254:	01f54533          	xor	a0,a0,t6
    80002258:	01d74733          	xor	a4,a4,t4
    8000225c:	01174733          	xor	a4,a4,a7
    80002260:	00865293          	srl	t0,a2,0x8
    80002264:	008c5f93          	srl	t6,s8,0x8
    80002268:	00855893          	srl	a7,a0,0x8
    8000226c:	010c5e13          	srl	t3,s8,0x10
    80002270:	01055313          	srl	t1,a0,0x10
    80002274:	00875413          	srl	s0,a4,0x8
    80002278:	0ff77693          	zext.b	a3,a4
    8000227c:	0ff2f293          	zext.b	t0,t0
    80002280:	0ff67a93          	zext.b	s5,a2
    80002284:	0fffff93          	zext.b	t6,t6
    80002288:	0ffc7a13          	zext.b	s4,s8
    8000228c:	0ff8f893          	zext.b	a7,a7
    80002290:	01075f13          	srl	t5,a4,0x10
    80002294:	0ff57993          	zext.b	s3,a0
    80002298:	01065e93          	srl	t4,a2,0x10
    8000229c:	10028913          	add	s2,t0,256
    800022a0:	100f8493          	add	s1,t6,256
    800022a4:	0ffe7293          	zext.b	t0,t3
    800022a8:	0ff37f93          	zext.b	t6,t1
    800022ac:	10088e13          	add	t3,a7,256
    800022b0:	0ff47413          	zext.b	s0,s0
    800022b4:	00369693          	sll	a3,a3,0x3
    800022b8:	003a9a93          	sll	s5,s5,0x3
    800022bc:	003a1a13          	sll	s4,s4,0x3
    800022c0:	0fff7f13          	zext.b	t5,t5
    800022c4:	00d786b3          	add	a3,a5,a3
    800022c8:	01578ab3          	add	s5,a5,s5
    800022cc:	01478a33          	add	s4,a5,s4
    800022d0:	0187531b          	srlw	t1,a4,0x18
    800022d4:	0186539b          	srlw	t2,a2,0x18
    800022d8:	00399993          	sll	s3,s3,0x3
    800022dc:	10040413          	add	s0,s0,256
    800022e0:	0ffefe93          	zext.b	t4,t4
    800022e4:	00391913          	sll	s2,s2,0x3
    800022e8:	20028293          	add	t0,t0,512
    800022ec:	0185551b          	srlw	a0,a0,0x18
    800022f0:	00349493          	sll	s1,s1,0x3
    800022f4:	200f8f93          	add	t6,t6,512
    800022f8:	003e1e13          	sll	t3,t3,0x3
    800022fc:	200f0f13          	add	t5,t5,512
    80002300:	10083883          	ld	a7,256(a6)
    80002304:	013789b3          	add	s3,a5,s3
    80002308:	0006bb83          	ld	s7,0(a3)
    8000230c:	000abb03          	ld	s6,0(s5)
    80002310:	10883603          	ld	a2,264(a6)
    80002314:	000a3a83          	ld	s5,0(s4)
    80002318:	11083683          	ld	a3,272(a6)
    8000231c:	11883703          	ld	a4,280(a6)
    80002320:	01278933          	add	s2,a5,s2
    80002324:	009784b3          	add	s1,a5,s1
    80002328:	01c78e33          	add	t3,a5,t3
    8000232c:	30050513          	add	a0,a0,768
    80002330:	30038393          	add	t2,t2,768
    80002334:	00341413          	sll	s0,s0,0x3
    80002338:	200e8e93          	add	t4,t4,512
    8000233c:	018c5c1b          	srlw	s8,s8,0x18
    80002340:	00329293          	sll	t0,t0,0x3
    80002344:	003f9f93          	sll	t6,t6,0x3
    80002348:	30030313          	add	t1,t1,768
    8000234c:	003f1f13          	sll	t5,t5,0x3
    80002350:	0009ba03          	ld	s4,0(s3)
    80002354:	005782b3          	add	t0,a5,t0
    80002358:	00093983          	ld	s3,0(s2)
    8000235c:	01f78fb3          	add	t6,a5,t6
    80002360:	0004b903          	ld	s2,0(s1)
    80002364:	01e78f33          	add	t5,a5,t5
    80002368:	000e3483          	ld	s1,0(t3)
    8000236c:	00878433          	add	s0,a5,s0
    80002370:	00351e13          	sll	t3,a0,0x3
    80002374:	003e9e93          	sll	t4,t4,0x3
    80002378:	00339513          	sll	a0,t2,0x3
    8000237c:	300c0c13          	add	s8,s8,768
    80002380:	00331313          	sll	t1,t1,0x3
    80002384:	0002b383          	ld	t2,0(t0)
    80002388:	00043403          	ld	s0,0(s0)
    8000238c:	000fb283          	ld	t0,0(t6)
    80002390:	01c78e33          	add	t3,a5,t3
    80002394:	000f3f83          	ld	t6,0(t5)
    80002398:	00678333          	add	t1,a5,t1
    8000239c:	00a78533          	add	a0,a5,a0
    800023a0:	01d78eb3          	add	t4,a5,t4
    800023a4:	003c1c13          	sll	s8,s8,0x3
    800023a8:	000e3f03          	ld	t5,0(t3)
    800023ac:	000ebe83          	ld	t4,0(t4)
    800023b0:	00033e03          	ld	t3,0(t1)
    800023b4:	018787b3          	add	a5,a5,s8
    800023b8:	00053303          	ld	t1,0(a0)
    800023bc:	01764633          	xor	a2,a2,s7
    800023c0:	0166c6b3          	xor	a3,a3,s6
    800023c4:	01574733          	xor	a4,a4,s5
    800023c8:	0007b503          	ld	a0,0(a5)
    800023cc:	01364633          	xor	a2,a2,s3
    800023d0:	0148c7b3          	xor	a5,a7,s4
    800023d4:	0126c6b3          	xor	a3,a3,s2
    800023d8:	00974733          	xor	a4,a4,s1
    800023dc:	0087c7b3          	xor	a5,a5,s0
    800023e0:	00764633          	xor	a2,a2,t2
    800023e4:	0056c6b3          	xor	a3,a3,t0
    800023e8:	01f74733          	xor	a4,a4,t6
    800023ec:	01e64633          	xor	a2,a2,t5
    800023f0:	01c6c6b3          	xor	a3,a3,t3
    800023f4:	00674733          	xor	a4,a4,t1
    800023f8:	01d7c7b3          	xor	a5,a5,t4
    800023fc:	00a7c7b3          	xor	a5,a5,a0
    80002400:	00865f13          	srl	t5,a2,0x8
    80002404:	0106de93          	srl	t4,a3,0x10
    80002408:	0086de13          	srl	t3,a3,0x8
    8000240c:	01075313          	srl	t1,a4,0x10
    80002410:	00875513          	srl	a0,a4,0x8
    80002414:	0fff7f13          	zext.b	t5,t5
    80002418:	0ffefe93          	zext.b	t4,t4
    8000241c:	01875c9b          	srlw	s9,a4,0x18
    80002420:	0ffe7e13          	zext.b	t3,t3
    80002424:	0187dc1b          	srlw	s8,a5,0x18
    80002428:	0ff57513          	zext.b	a0,a0
    8000242c:	0087d393          	srl	t2,a5,0x8
    80002430:	0ff37313          	zext.b	t1,t1
    80002434:	0ff7f913          	zext.b	s2,a5
    80002438:	100f0293          	add	t0,t5,256
    8000243c:	200e8f93          	add	t6,t4,512
    80002440:	0ff67a93          	zext.b	s5,a2
    80002444:	100e0493          	add	s1,t3,256
    80002448:	0ff6fa13          	zext.b	s4,a3
    8000244c:	10050413          	add	s0,a0,256
    80002450:	0107df13          	srl	t5,a5,0x10
    80002454:	01065e93          	srl	t4,a2,0x10
    80002458:	300c8c93          	add	s9,s9,768
    8000245c:	20030313          	add	t1,t1,512
    80002460:	300c0c13          	add	s8,s8,768
    80002464:	0ff77713          	zext.b	a4,a4
    80002468:	0ff3f393          	zext.b	t2,t2
    8000246c:	00015797          	auipc	a5,0x15
    80002470:	cdc78793          	add	a5,a5,-804 # 80017148 <fl_tab>
    80002474:	00371713          	sll	a4,a4,0x3
    80002478:	00391913          	sll	s2,s2,0x3
    8000247c:	00329293          	sll	t0,t0,0x3
    80002480:	003f9f93          	sll	t6,t6,0x3
    80002484:	003c9c93          	sll	s9,s9,0x3
    80002488:	003a9a93          	sll	s5,s5,0x3
    8000248c:	00349493          	sll	s1,s1,0x3
    80002490:	00331313          	sll	t1,t1,0x3
    80002494:	003c1c13          	sll	s8,s8,0x3
    80002498:	003a1a13          	sll	s4,s4,0x3
    8000249c:	00341413          	sll	s0,s0,0x3
    800024a0:	0fff7f13          	zext.b	t5,t5
    800024a4:	10038393          	add	t2,t2,256
    800024a8:	0ffefe93          	zext.b	t4,t4
    800024ac:	01278933          	add	s2,a5,s2
    800024b0:	005782b3          	add	t0,a5,t0
    800024b4:	01f78fb3          	add	t6,a5,t6
    800024b8:	00678333          	add	t1,a5,t1
    800024bc:	00e789b3          	add	s3,a5,a4
    800024c0:	01978cb3          	add	s9,a5,s9
    800024c4:	01578ab3          	add	s5,a5,s5
    800024c8:	009784b3          	add	s1,a5,s1
    800024cc:	01878c33          	add	s8,a5,s8
    800024d0:	01478a33          	add	s4,a5,s4
    800024d4:	00878433          	add	s0,a5,s0
    800024d8:	01865b9b          	srlw	s7,a2,0x18
    800024dc:	0186d89b          	srlw	a7,a3,0x18
    800024e0:	200f0f13          	add	t5,t5,512
    800024e4:	00339393          	sll	t2,t2,0x3
    800024e8:	200e8e93          	add	t4,t4,512
    800024ec:	12883603          	ld	a2,296(a6)
    800024f0:	12083503          	ld	a0,288(a6)
    800024f4:	00093b03          	ld	s6,0(s2)
    800024f8:	13083683          	ld	a3,304(a6)
    800024fc:	0002b903          	ld	s2,0(t0)
    80002500:	000cbe03          	ld	t3,0(s9)
    80002504:	000fb283          	ld	t0,0(t6)
    80002508:	000aba83          	ld	s5,0(s5)
    8000250c:	00033f83          	ld	t6,0(t1)
    80002510:	0004b483          	ld	s1,0(s1)
    80002514:	000c3303          	ld	t1,0(s8)
    80002518:	000a3a03          	ld	s4,0(s4)
    8000251c:	007783b3          	add	t2,a5,t2
    80002520:	00043403          	ld	s0,0(s0)
    80002524:	003f1f13          	sll	t5,t5,0x3
    80002528:	13883703          	ld	a4,312(a6)
    8000252c:	0009b983          	ld	s3,0(s3)
    80002530:	300b8b93          	add	s7,s7,768
    80002534:	003e9e93          	sll	t4,t4,0x3
    80002538:	30088893          	add	a7,a7,768
    8000253c:	01e78f33          	add	t5,a5,t5
    80002540:	01d78eb3          	add	t4,a5,t4
    80002544:	00389893          	sll	a7,a7,0x3
    80002548:	0003b383          	ld	t2,0(t2)
    8000254c:	003b9813          	sll	a6,s7,0x3
    80002550:	01078833          	add	a6,a5,a6
    80002554:	000ebe83          	ld	t4,0(t4)
    80002558:	011787b3          	add	a5,a5,a7
    8000255c:	000f3f03          	ld	t5,0(t5)
    80002560:	00083883          	ld	a7,0(a6)
    80002564:	01654533          	xor	a0,a0,s6
    80002568:	0007b803          	ld	a6,0(a5)
    8000256c:	0146c6b3          	xor	a3,a3,s4
    80002570:	015647b3          	xor	a5,a2,s5
    80002574:	01374733          	xor	a4,a4,s3
    80002578:	01254633          	xor	a2,a0,s2
    8000257c:	0097c7b3          	xor	a5,a5,s1
    80002580:	0086c6b3          	xor	a3,a3,s0
    80002584:	00774733          	xor	a4,a4,t2
    80002588:	01d74733          	xor	a4,a4,t4
    8000258c:	00564633          	xor	a2,a2,t0
    80002590:	01f7c7b3          	xor	a5,a5,t6
    80002594:	01e6c6b3          	xor	a3,a3,t5
    80002598:	01c64eb3          	xor	t4,a2,t3
    8000259c:	0067c533          	xor	a0,a5,t1
    800025a0:	0116c6b3          	xor	a3,a3,a7
    800025a4:	01074733          	xor	a4,a4,a6
    800025a8:	85dfe06f          	j	80000e04 <encrypt+0x184>
    800025ac:	00019797          	auipc	a5,0x19
    800025b0:	b9c78793          	add	a5,a5,-1124 # 8001b148 <ft_tab>
    800025b4:	fadfe06f          	j	80001560 <encrypt+0x8e0>

00000000800025b8 <decrypt>:
    800025b8:	41064783          	lbu	a5,1040(a2)
    800025bc:	0027f793          	and	a5,a5,2
    800025c0:	00079663          	bnez	a5,800025cc <decrypt+0x14>
    800025c4:	00000513          	li	a0,0
    800025c8:	00008067          	ret
    800025cc:	f9010113          	add	sp,sp,-112
    800025d0:	05413423          	sd	s4,72(sp)
    800025d4:	05513023          	sd	s5,64(sp)
    800025d8:	06813423          	sd	s0,104(sp)
    800025dc:	06913023          	sd	s1,96(sp)
    800025e0:	05213c23          	sd	s2,88(sp)
    800025e4:	05313823          	sd	s3,80(sp)
    800025e8:	03613c23          	sd	s6,56(sp)
    800025ec:	03713823          	sd	s7,48(sp)
    800025f0:	03813423          	sd	s8,40(sp)
    800025f4:	03913023          	sd	s9,32(sp)
    800025f8:	00454783          	lbu	a5,4(a0)
    800025fc:	00754e83          	lbu	t4,7(a0)
    80002600:	00054903          	lbu	s2,0(a0)
    80002604:	00154483          	lbu	s1,1(a0)
    80002608:	00254403          	lbu	s0,2(a0)
    8000260c:	00354383          	lbu	t2,3(a0)
    80002610:	00654f83          	lbu	t6,6(a0)
    80002614:	00554283          	lbu	t0,5(a0)
    80002618:	00954803          	lbu	a6,9(a0)
    8000261c:	01210423          	sb	s2,8(sp)
    80002620:	009104a3          	sb	s1,9(sp)
    80002624:	00810523          	sb	s0,10(sp)
    80002628:	007105a3          	sb	t2,11(sp)
    8000262c:	00f10623          	sb	a5,12(sp)
    80002630:	005106a3          	sb	t0,13(sp)
    80002634:	01f10723          	sb	t6,14(sp)
    80002638:	01d107a3          	sb	t4,15(sp)
    8000263c:	00854883          	lbu	a7,8(a0)
    80002640:	00a54683          	lbu	a3,10(a0)
    80002644:	00b54703          	lbu	a4,11(a0)
    80002648:	000e8313          	mv	t1,t4
    8000264c:	00813e83          	ld	t4,8(sp)
    80002650:	00f10423          	sb	a5,8(sp)
    80002654:	005104a3          	sb	t0,9(sp)
    80002658:	00080a13          	mv	s4,a6
    8000265c:	010106a3          	sb	a6,13(sp)
    80002660:	00c54483          	lbu	s1,12(a0)
    80002664:	00f54803          	lbu	a6,15(a0)
    80002668:	00d54403          	lbu	s0,13(a0)
    8000266c:	00e54383          	lbu	t2,14(a0)
    80002670:	006105a3          	sb	t1,11(sp)
    80002674:	01110623          	sb	a7,12(sp)
    80002678:	01f10523          	sb	t6,10(sp)
    8000267c:	00d10723          	sb	a3,14(sp)
    80002680:	00e107a3          	sb	a4,15(sp)
    80002684:	01054f03          	lbu	t5,16(a0)
    80002688:	00088a93          	mv	s5,a7
    8000268c:	00070913          	mv	s2,a4
    80002690:	01254883          	lbu	a7,18(a0)
    80002694:	01354703          	lbu	a4,19(a0)
    80002698:	01154303          	lbu	t1,17(a0)
    8000269c:	00080793          	mv	a5,a6
    800026a0:	00813503          	ld	a0,8(sp)
    800026a4:	00d10523          	sb	a3,10(sp)
    800026a8:	01510423          	sb	s5,8(sp)
    800026ac:	014104a3          	sb	s4,9(sp)
    800026b0:	012105a3          	sb	s2,11(sp)
    800026b4:	00910623          	sb	s1,12(sp)
    800026b8:	008106a3          	sb	s0,13(sp)
    800026bc:	00710723          	sb	t2,14(sp)
    800026c0:	010107a3          	sb	a6,15(sp)
    800026c4:	00813803          	ld	a6,8(sp)
    800026c8:	21863683          	ld	a3,536(a2)
    800026cc:	00f105a3          	sb	a5,11(sp)
    800026d0:	22063783          	ld	a5,544(a2)
    800026d4:	00910423          	sb	s1,8(sp)
    800026d8:	008104a3          	sb	s0,9(sp)
    800026dc:	00710523          	sb	t2,10(sp)
    800026e0:	01e10623          	sb	t5,12(sp)
    800026e4:	21063e03          	ld	t3,528(a2)
    800026e8:	006106a3          	sb	t1,13(sp)
    800026ec:	01110723          	sb	a7,14(sp)
    800026f0:	00e107a3          	sb	a4,15(sp)
    800026f4:	00a6c6b3          	xor	a3,a3,a0
    800026f8:	22863703          	ld	a4,552(a2)
    800026fc:	0107c533          	xor	a0,a5,a6
    80002700:	00863883          	ld	a7,8(a2)
    80002704:	00813783          	ld	a5,8(sp)
    80002708:	00c00313          	li	t1,12
    8000270c:	01de4e33          	xor	t3,t3,t4
    80002710:	00f74733          	xor	a4,a4,a5
    80002714:	23060813          	add	a6,a2,560
    80002718:	00689463          	bne	a7,t1,80002720 <decrypt+0x168>
    8000271c:	7e00106f          	j	80003efc <decrypt+0x1944>
    80002720:	00e00793          	li	a5,14
    80002724:	00f89463          	bne	a7,a5,8000272c <decrypt+0x174>
    80002728:	1380106f          	j	80003860 <decrypt+0x12a8>
    8000272c:	00a00793          	li	a5,10
    80002730:	00f88463          	beq	a7,a5,80002738 <decrypt+0x180>
    80002734:	0640106f          	j	80003798 <decrypt+0x11e0>
    80002738:	01a13c23          	sd	s10,24(sp)
    8000273c:	01b13823          	sd	s11,16(sp)
    80002740:	00017797          	auipc	a5,0x17
    80002744:	a0878793          	add	a5,a5,-1528 # 80019148 <it_tab>
    80002748:	00875893          	srl	a7,a4,0x8
    8000274c:	008e5993          	srl	s3,t3,0x8
    80002750:	0086d913          	srl	s2,a3,0x8
    80002754:	00855493          	srl	s1,a0,0x8
    80002758:	0ffe7e93          	zext.b	t4,t3
    8000275c:	01055413          	srl	s0,a0,0x10
    80002760:	0ff6fa93          	zext.b	s5,a3
    80002764:	01075393          	srl	t2,a4,0x10
    80002768:	0ff57f13          	zext.b	t5,a0
    8000276c:	010e5293          	srl	t0,t3,0x10
    80002770:	0ff77313          	zext.b	t1,a4
    80002774:	0106df93          	srl	t6,a3,0x10
    80002778:	0ff8f893          	zext.b	a7,a7
    8000277c:	0ff9f993          	zext.b	s3,s3
    80002780:	0ff97913          	zext.b	s2,s2
    80002784:	0ff4f493          	zext.b	s1,s1
    80002788:	10088893          	add	a7,a7,256
    8000278c:	003a9a93          	sll	s5,s5,0x3
    80002790:	003e9e93          	sll	t4,t4,0x3
    80002794:	0ff47413          	zext.b	s0,s0
    80002798:	10098993          	add	s3,s3,256
    8000279c:	0ff3f393          	zext.b	t2,t2
    800027a0:	003f1f13          	sll	t5,t5,0x3
    800027a4:	10090913          	add	s2,s2,256
    800027a8:	0ff2f293          	zext.b	t0,t0
    800027ac:	00331313          	sll	t1,t1,0x3
    800027b0:	10048493          	add	s1,s1,256
    800027b4:	0fffff93          	zext.b	t6,t6
    800027b8:	01d78eb3          	add	t4,a5,t4
    800027bc:	01e78f33          	add	t5,a5,t5
    800027c0:	00678333          	add	t1,a5,t1
    800027c4:	0186d69b          	srlw	a3,a3,0x18
    800027c8:	0187561b          	srlw	a2,a4,0x18
    800027cc:	00389a13          	sll	s4,a7,0x3
    800027d0:	01578733          	add	a4,a5,s5
    800027d4:	00349493          	sll	s1,s1,0x3
    800027d8:	0185551b          	srlw	a0,a0,0x18
    800027dc:	018e5e1b          	srlw	t3,t3,0x18
    800027e0:	20040413          	add	s0,s0,512
    800027e4:	00399993          	sll	s3,s3,0x3
    800027e8:	20038393          	add	t2,t2,512
    800027ec:	00391913          	sll	s2,s2,0x3
    800027f0:	20028293          	add	t0,t0,512
    800027f4:	200f8f93          	add	t6,t6,512
    800027f8:	000ebd03          	ld	s10,0(t4)
    800027fc:	00073c83          	ld	s9,0(a4)
    80002800:	00883e83          	ld	t4,8(a6)
    80002804:	000f3c03          	ld	s8,0(t5)
    80002808:	00033b83          	ld	s7,0(t1)
    8000280c:	01883f03          	ld	t5,24(a6)
    80002810:	00083883          	ld	a7,0(a6)
    80002814:	01083703          	ld	a4,16(a6)
    80002818:	01478a33          	add	s4,a5,s4
    8000281c:	013789b3          	add	s3,a5,s3
    80002820:	01278933          	add	s2,a5,s2
    80002824:	30068313          	add	t1,a3,768
    80002828:	00341413          	sll	s0,s0,0x3
    8000282c:	009786b3          	add	a3,a5,s1
    80002830:	00339393          	sll	t2,t2,0x3
    80002834:	30050513          	add	a0,a0,768
    80002838:	00329293          	sll	t0,t0,0x3
    8000283c:	30060613          	add	a2,a2,768
    80002840:	003f9f93          	sll	t6,t6,0x3
    80002844:	300e0e13          	add	t3,t3,768
    80002848:	000a3b03          	ld	s6,0(s4)
    8000284c:	0009ba83          	ld	s5,0(s3)
    80002850:	00093a03          	ld	s4,0(s2)
    80002854:	0006b983          	ld	s3,0(a3)
    80002858:	00878433          	add	s0,a5,s0
    8000285c:	007783b3          	add	t2,a5,t2
    80002860:	005782b3          	add	t0,a5,t0
    80002864:	01f78fb3          	add	t6,a5,t6
    80002868:	00331313          	sll	t1,t1,0x3
    8000286c:	00351513          	sll	a0,a0,0x3
    80002870:	00361613          	sll	a2,a2,0x3
    80002874:	003e1e13          	sll	t3,t3,0x3
    80002878:	00043903          	ld	s2,0(s0)
    8000287c:	0003b483          	ld	s1,0(t2)
    80002880:	0002b403          	ld	s0,0(t0)
    80002884:	000fb383          	ld	t2,0(t6)
    80002888:	00678333          	add	t1,a5,t1
    8000288c:	00a78533          	add	a0,a5,a0
    80002890:	00c78633          	add	a2,a5,a2
    80002894:	01c78e33          	add	t3,a5,t3
    80002898:	00033283          	ld	t0,0(t1)
    8000289c:	00053f83          	ld	t6,0(a0)
    800028a0:	00063303          	ld	t1,0(a2)
    800028a4:	000e3503          	ld	a0,0(t3)
    800028a8:	019ec633          	xor	a2,t4,s9
    800028ac:	017f46b3          	xor	a3,t5,s7
    800028b0:	01a8c8b3          	xor	a7,a7,s10
    800028b4:	01874733          	xor	a4,a4,s8
    800028b8:	0168c8b3          	xor	a7,a7,s6
    800028bc:	01564633          	xor	a2,a2,s5
    800028c0:	01474733          	xor	a4,a4,s4
    800028c4:	0136c6b3          	xor	a3,a3,s3
    800028c8:	0128c8b3          	xor	a7,a7,s2
    800028cc:	00964633          	xor	a2,a2,s1
    800028d0:	00874733          	xor	a4,a4,s0
    800028d4:	0076c6b3          	xor	a3,a3,t2
    800028d8:	01f64633          	xor	a2,a2,t6
    800028dc:	00674733          	xor	a4,a4,t1
    800028e0:	0058c8b3          	xor	a7,a7,t0
    800028e4:	00a6c6b3          	xor	a3,a3,a0
    800028e8:	0086de93          	srl	t4,a3,0x8
    800028ec:	01075e13          	srl	t3,a4,0x10
    800028f0:	0088d413          	srl	s0,a7,0x8
    800028f4:	0106d513          	srl	a0,a3,0x10
    800028f8:	00865393          	srl	t2,a2,0x8
    800028fc:	01865a1b          	srlw	s4,a2,0x18
    80002900:	0ff67a93          	zext.b	s5,a2
    80002904:	0187599b          	srlw	s3,a4,0x18
    80002908:	0ff77f13          	zext.b	t5,a4
    8000290c:	0108d293          	srl	t0,a7,0x10
    80002910:	0ffefe93          	zext.b	t4,t4
    80002914:	0ffe7e13          	zext.b	t3,t3
    80002918:	0ff47413          	zext.b	s0,s0
    8000291c:	0ff57513          	zext.b	a0,a0
    80002920:	0ff3f393          	zext.b	t2,t2
    80002924:	00875713          	srl	a4,a4,0x8
    80002928:	0ff8f493          	zext.b	s1,a7
    8000292c:	20050513          	add	a0,a0,512
    80002930:	0ff6f913          	zext.b	s2,a3
    80002934:	01065313          	srl	t1,a2,0x10
    80002938:	100e8e93          	add	t4,t4,256
    8000293c:	200e0e13          	add	t3,t3,512
    80002940:	300a0a13          	add	s4,s4,768
    80002944:	003a9a93          	sll	s5,s5,0x3
    80002948:	10040413          	add	s0,s0,256
    8000294c:	30098993          	add	s3,s3,768
    80002950:	003f1f13          	sll	t5,t5,0x3
    80002954:	10038393          	add	t2,t2,256
    80002958:	0ff2f293          	zext.b	t0,t0
    8000295c:	0ff77713          	zext.b	a4,a4
    80002960:	01578ab3          	add	s5,a5,s5
    80002964:	01e78f33          	add	t5,a5,t5
    80002968:	00351f93          	sll	t6,a0,0x3
    8000296c:	0186d69b          	srlw	a3,a3,0x18
    80002970:	10070713          	add	a4,a4,256
    80002974:	00349493          	sll	s1,s1,0x3
    80002978:	003e9e93          	sll	t4,t4,0x3
    8000297c:	003e1e13          	sll	t3,t3,0x3
    80002980:	003a1a13          	sll	s4,s4,0x3
    80002984:	00341413          	sll	s0,s0,0x3
    80002988:	00399993          	sll	s3,s3,0x3
    8000298c:	00339393          	sll	t2,t2,0x3
    80002990:	20028293          	add	t0,t0,512
    80002994:	00391913          	sll	s2,s2,0x3
    80002998:	0ff37313          	zext.b	t1,t1
    8000299c:	000abb83          	ld	s7,0(s5)
    800029a0:	000f3b03          	ld	s6,0(t5)
    800029a4:	02883503          	ld	a0,40(a6)
    800029a8:	03083603          	ld	a2,48(a6)
    800029ac:	009784b3          	add	s1,a5,s1
    800029b0:	01d78eb3          	add	t4,a5,t4
    800029b4:	01c78e33          	add	t3,a5,t3
    800029b8:	01478a33          	add	s4,a5,s4
    800029bc:	00878433          	add	s0,a5,s0
    800029c0:	01f78fb3          	add	t6,a5,t6
    800029c4:	013789b3          	add	s3,a5,s3
    800029c8:	007783b3          	add	t2,a5,t2
    800029cc:	30068c13          	add	s8,a3,768
    800029d0:	01278933          	add	s2,a5,s2
    800029d4:	00371f13          	sll	t5,a4,0x3
    800029d8:	00329293          	sll	t0,t0,0x3
    800029dc:	20030313          	add	t1,t1,512
    800029e0:	0188d89b          	srlw	a7,a7,0x18
    800029e4:	0004ba83          	ld	s5,0(s1)
    800029e8:	02083683          	ld	a3,32(a6)
    800029ec:	000eb483          	ld	s1,0(t4)
    800029f0:	005782b3          	add	t0,a5,t0
    800029f4:	000e3e83          	ld	t4,0(t3)
    800029f8:	01e78f33          	add	t5,a5,t5
    800029fc:	000a3e03          	ld	t3,0(s4)
    80002a00:	003c1c13          	sll	s8,s8,0x3
    80002a04:	00043a03          	ld	s4,0(s0)
    80002a08:	00331313          	sll	t1,t1,0x3
    80002a0c:	000fb403          	ld	s0,0(t6)
    80002a10:	30088893          	add	a7,a7,768
    80002a14:	0009bf83          	ld	t6,0(s3)
    80002a18:	0003b983          	ld	s3,0(t2)
    80002a1c:	03883703          	ld	a4,56(a6)
    80002a20:	00093903          	ld	s2,0(s2)
    80002a24:	0002b383          	ld	t2,0(t0)
    80002a28:	01878c33          	add	s8,a5,s8
    80002a2c:	000f3283          	ld	t0,0(t5)
    80002a30:	00678333          	add	t1,a5,t1
    80002a34:	00389893          	sll	a7,a7,0x3
    80002a38:	000c3f03          	ld	t5,0(s8)
    80002a3c:	00033303          	ld	t1,0(t1)
    80002a40:	01754533          	xor	a0,a0,s7
    80002a44:	01664633          	xor	a2,a2,s6
    80002a48:	011788b3          	add	a7,a5,a7
    80002a4c:	0008b883          	ld	a7,0(a7)
    80002a50:	0156c6b3          	xor	a3,a3,s5
    80002a54:	01454533          	xor	a0,a0,s4
    80002a58:	01364633          	xor	a2,a2,s3
    80002a5c:	01274733          	xor	a4,a4,s2
    80002a60:	00854533          	xor	a0,a0,s0
    80002a64:	00764633          	xor	a2,a2,t2
    80002a68:	0096c6b3          	xor	a3,a3,s1
    80002a6c:	00574733          	xor	a4,a4,t0
    80002a70:	01f54fb3          	xor	t6,a0,t6
    80002a74:	01e64f33          	xor	t5,a2,t5
    80002a78:	01d6c6b3          	xor	a3,a3,t4
    80002a7c:	00674733          	xor	a4,a4,t1
    80002a80:	01c6c6b3          	xor	a3,a3,t3
    80002a84:	01174733          	xor	a4,a4,a7
    80002a88:	008f5413          	srl	s0,t5,0x8
    80002a8c:	008fd893          	srl	a7,t6,0x8
    80002a90:	00875493          	srl	s1,a4,0x8
    80002a94:	0086d393          	srl	t2,a3,0x8
    80002a98:	0fff7613          	zext.b	a2,t5
    80002a9c:	0106d293          	srl	t0,a3,0x10
    80002aa0:	0ff77a13          	zext.b	s4,a4
    80002aa4:	010fd313          	srl	t1,t6,0x10
    80002aa8:	0ff8f893          	zext.b	a7,a7
    80002aac:	0ff47413          	zext.b	s0,s0
    80002ab0:	0ff6f993          	zext.b	s3,a3
    80002ab4:	010f5e93          	srl	t4,t5,0x10
    80002ab8:	0ffff913          	zext.b	s2,t6
    80002abc:	01075e13          	srl	t3,a4,0x10
    80002ac0:	0ff4f493          	zext.b	s1,s1
    80002ac4:	0ff3f393          	zext.b	t2,t2
    80002ac8:	00361613          	sll	a2,a2,0x3
    80002acc:	10088893          	add	a7,a7,256
    80002ad0:	0ff2f293          	zext.b	t0,t0
    80002ad4:	003a1a13          	sll	s4,s4,0x3
    80002ad8:	10040413          	add	s0,s0,256
    80002adc:	0ff37313          	zext.b	t1,t1
    80002ae0:	00c78633          	add	a2,a5,a2
    80002ae4:	01478a33          	add	s4,a5,s4
    80002ae8:	0187571b          	srlw	a4,a4,0x18
    80002aec:	20030313          	add	t1,t1,512
    80002af0:	00399993          	sll	s3,s3,0x3
    80002af4:	10048493          	add	s1,s1,256
    80002af8:	0ffefe93          	zext.b	t4,t4
    80002afc:	00391913          	sll	s2,s2,0x3
    80002b00:	10038393          	add	t2,t2,256
    80002b04:	0ffe7e13          	zext.b	t3,t3
    80002b08:	00389893          	sll	a7,a7,0x3
    80002b0c:	20028293          	add	t0,t0,512
    80002b10:	00341413          	sll	s0,s0,0x3
    80002b14:	0186d69b          	srlw	a3,a3,0x18
    80002b18:	00063c03          	ld	s8,0(a2)
    80002b1c:	000a3b83          	ld	s7,0(s4)
    80002b20:	05083503          	ld	a0,80(a6)
    80002b24:	05883603          	ld	a2,88(a6)
    80002b28:	013789b3          	add	s3,a5,s3
    80002b2c:	01278933          	add	s2,a5,s2
    80002b30:	011788b3          	add	a7,a5,a7
    80002b34:	30070a13          	add	s4,a4,768
    80002b38:	00878433          	add	s0,a5,s0
    80002b3c:	00331d93          	sll	s11,t1,0x3
    80002b40:	00349493          	sll	s1,s1,0x3
    80002b44:	200e8e93          	add	t4,t4,512
    80002b48:	018fdf9b          	srlw	t6,t6,0x18
    80002b4c:	00339393          	sll	t2,t2,0x3
    80002b50:	200e0e13          	add	t3,t3,512
    80002b54:	018f5f1b          	srlw	t5,t5,0x18
    80002b58:	00329293          	sll	t0,t0,0x3
    80002b5c:	30068693          	add	a3,a3,768
    80002b60:	04083303          	ld	t1,64(a6)
    80002b64:	0009bd03          	ld	s10,0(s3)
    80002b68:	00093c83          	ld	s9,0(s2)
    80002b6c:	0008bb03          	ld	s6,0(a7)
    80002b70:	00043a83          	ld	s5,0(s0)
    80002b74:	04883703          	ld	a4,72(a6)
    80002b78:	009784b3          	add	s1,a5,s1
    80002b7c:	007783b3          	add	t2,a5,t2
    80002b80:	005782b3          	add	t0,a5,t0
    80002b84:	01b78db3          	add	s11,a5,s11
    80002b88:	003a1893          	sll	a7,s4,0x3
    80002b8c:	003e9e93          	sll	t4,t4,0x3
    80002b90:	300f8f93          	add	t6,t6,768
    80002b94:	003e1e13          	sll	t3,t3,0x3
    80002b98:	300f0f13          	add	t5,t5,768
    80002b9c:	00369693          	sll	a3,a3,0x3
    80002ba0:	0004ba03          	ld	s4,0(s1)
    80002ba4:	0003b983          	ld	s3,0(t2)
    80002ba8:	0002b903          	ld	s2,0(t0)
    80002bac:	000db483          	ld	s1,0(s11)
    80002bb0:	01d78eb3          	add	t4,a5,t4
    80002bb4:	01c78e33          	add	t3,a5,t3
    80002bb8:	011788b3          	add	a7,a5,a7
    80002bbc:	00d786b3          	add	a3,a5,a3
    80002bc0:	003f9f93          	sll	t6,t6,0x3
    80002bc4:	003f1f13          	sll	t5,t5,0x3
    80002bc8:	000eb283          	ld	t0,0(t4)
    80002bcc:	0008b403          	ld	s0,0(a7)
    80002bd0:	000e3e83          	ld	t4,0(t3)
    80002bd4:	0006b383          	ld	t2,0(a3)
    80002bd8:	01f78fb3          	add	t6,a5,t6
    80002bdc:	01e78f33          	add	t5,a5,t5
    80002be0:	01854533          	xor	a0,a0,s8
    80002be4:	01764633          	xor	a2,a2,s7
    80002be8:	000fbe03          	ld	t3,0(t6)
    80002bec:	000f3883          	ld	a7,0(t5)
    80002bf0:	01a346b3          	xor	a3,t1,s10
    80002bf4:	01974733          	xor	a4,a4,s9
    80002bf8:	01654533          	xor	a0,a0,s6
    80002bfc:	01564633          	xor	a2,a2,s5
    80002c00:	0146c6b3          	xor	a3,a3,s4
    80002c04:	01374733          	xor	a4,a4,s3
    80002c08:	01254533          	xor	a0,a0,s2
    80002c0c:	00964633          	xor	a2,a2,s1
    80002c10:	00854533          	xor	a0,a0,s0
    80002c14:	00764633          	xor	a2,a2,t2
    80002c18:	0056c6b3          	xor	a3,a3,t0
    80002c1c:	01d74733          	xor	a4,a4,t4
    80002c20:	01174733          	xor	a4,a4,a7
    80002c24:	01c6c6b3          	xor	a3,a3,t3
    80002c28:	00865313          	srl	t1,a2,0x8
    80002c2c:	01055893          	srl	a7,a0,0x10
    80002c30:	01875e9b          	srlw	t4,a4,0x18
    80002c34:	0086de13          	srl	t3,a3,0x8
    80002c38:	00875493          	srl	s1,a4,0x8
    80002c3c:	00855393          	srl	t2,a0,0x8
    80002c40:	0ff37313          	zext.b	t1,t1
    80002c44:	0ff8f893          	zext.b	a7,a7
    80002c48:	0ff6f413          	zext.b	s0,a3
    80002c4c:	0ff77a93          	zext.b	s5,a4
    80002c50:	01065293          	srl	t0,a2,0x10
    80002c54:	0ff57a13          	zext.b	s4,a0
    80002c58:	0106df93          	srl	t6,a3,0x10
    80002c5c:	0ff67993          	zext.b	s3,a2
    80002c60:	10030313          	add	t1,t1,256
    80002c64:	20088893          	add	a7,a7,512
    80002c68:	300e8e93          	add	t4,t4,768
    80002c6c:	0ffe7e13          	zext.b	t3,t3
    80002c70:	0ff4f493          	zext.b	s1,s1
    80002c74:	0ff3f393          	zext.b	t2,t2
    80002c78:	01075713          	srl	a4,a4,0x10
    80002c7c:	00389893          	sll	a7,a7,0x3
    80002c80:	00341413          	sll	s0,s0,0x3
    80002c84:	00331313          	sll	t1,t1,0x3
    80002c88:	003e9e93          	sll	t4,t4,0x3
    80002c8c:	003a9a93          	sll	s5,s5,0x3
    80002c90:	100e0e13          	add	t3,t3,256
    80002c94:	0ff2f293          	zext.b	t0,t0
    80002c98:	003a1a13          	sll	s4,s4,0x3
    80002c9c:	10048493          	add	s1,s1,256
    80002ca0:	0fffff93          	zext.b	t6,t6
    80002ca4:	00399993          	sll	s3,s3,0x3
    80002ca8:	10038393          	add	t2,t2,256
    80002cac:	0ff77713          	zext.b	a4,a4
    80002cb0:	01178f33          	add	t5,a5,a7
    80002cb4:	00878433          	add	s0,a5,s0
    80002cb8:	00678333          	add	t1,a5,t1
    80002cbc:	01d78eb3          	add	t4,a5,t4
    80002cc0:	01578ab3          	add	s5,a5,s5
    80002cc4:	01478a33          	add	s4,a5,s4
    80002cc8:	013789b3          	add	s3,a5,s3
    80002ccc:	003e1e13          	sll	t3,t3,0x3
    80002cd0:	20028293          	add	t0,t0,512
    80002cd4:	0185551b          	srlw	a0,a0,0x18
    80002cd8:	00349493          	sll	s1,s1,0x3
    80002cdc:	200f8f93          	add	t6,t6,512
    80002ce0:	0186561b          	srlw	a2,a2,0x18
    80002ce4:	00339393          	sll	t2,t2,0x3
    80002ce8:	20070713          	add	a4,a4,512
    80002cec:	0186d69b          	srlw	a3,a3,0x18
    80002cf0:	00033b03          	ld	s6,0(t1)
    80002cf4:	000f3903          	ld	s2,0(t5)
    80002cf8:	06083883          	ld	a7,96(a6)
    80002cfc:	00043d03          	ld	s10,0(s0)
    80002d00:	01c78e33          	add	t3,a5,t3
    80002d04:	000eb403          	ld	s0,0(t4)
    80002d08:	009784b3          	add	s1,a5,s1
    80002d0c:	06883e83          	ld	t4,104(a6)
    80002d10:	000abc83          	ld	s9,0(s5)
    80002d14:	07083303          	ld	t1,112(a6)
    80002d18:	000a3c03          	ld	s8,0(s4)
    80002d1c:	07883f03          	ld	t5,120(a6)
    80002d20:	0009bb83          	ld	s7,0(s3)
    80002d24:	007783b3          	add	t2,a5,t2
    80002d28:	00329293          	sll	t0,t0,0x3
    80002d2c:	30050513          	add	a0,a0,768
    80002d30:	003f9f93          	sll	t6,t6,0x3
    80002d34:	30060613          	add	a2,a2,768
    80002d38:	00371713          	sll	a4,a4,0x3
    80002d3c:	30068693          	add	a3,a3,768
    80002d40:	000e3a83          	ld	s5,0(t3)
    80002d44:	0004ba03          	ld	s4,0(s1)
    80002d48:	0003b983          	ld	s3,0(t2)
    80002d4c:	005782b3          	add	t0,a5,t0
    80002d50:	01f78fb3          	add	t6,a5,t6
    80002d54:	00e78733          	add	a4,a5,a4
    80002d58:	00351513          	sll	a0,a0,0x3
    80002d5c:	00361613          	sll	a2,a2,0x3
    80002d60:	00369693          	sll	a3,a3,0x3
    80002d64:	0002b483          	ld	s1,0(t0)
    80002d68:	000fb383          	ld	t2,0(t6)
    80002d6c:	00073283          	ld	t0,0(a4)
    80002d70:	00a78533          	add	a0,a5,a0
    80002d74:	00c78633          	add	a2,a5,a2
    80002d78:	00d786b3          	add	a3,a5,a3
    80002d7c:	00053f83          	ld	t6,0(a0)
    80002d80:	00063e03          	ld	t3,0(a2)
    80002d84:	0006b503          	ld	a0,0(a3)
    80002d88:	019ec633          	xor	a2,t4,s9
    80002d8c:	018346b3          	xor	a3,t1,s8
    80002d90:	017f4733          	xor	a4,t5,s7
    80002d94:	01a8c8b3          	xor	a7,a7,s10
    80002d98:	0168c8b3          	xor	a7,a7,s6
    80002d9c:	01564633          	xor	a2,a2,s5
    80002da0:	0146c6b3          	xor	a3,a3,s4
    80002da4:	01374733          	xor	a4,a4,s3
    80002da8:	0128c8b3          	xor	a7,a7,s2
    80002dac:	00964633          	xor	a2,a2,s1
    80002db0:	0076c6b3          	xor	a3,a3,t2
    80002db4:	00574733          	xor	a4,a4,t0
    80002db8:	01f64633          	xor	a2,a2,t6
    80002dbc:	0088c8b3          	xor	a7,a7,s0
    80002dc0:	01c6c6b3          	xor	a3,a3,t3
    80002dc4:	00a74733          	xor	a4,a4,a0
    80002dc8:	00875e13          	srl	t3,a4,0x8
    80002dcc:	0106d513          	srl	a0,a3,0x10
    80002dd0:	0088d393          	srl	t2,a7,0x8
    80002dd4:	01075f93          	srl	t6,a4,0x10
    80002dd8:	00865293          	srl	t0,a2,0x8
    80002ddc:	0108df13          	srl	t5,a7,0x10
    80002de0:	01865b1b          	srlw	s6,a2,0x18
    80002de4:	0186d91b          	srlw	s2,a3,0x18
    80002de8:	01875c1b          	srlw	s8,a4,0x18
    80002dec:	0086da93          	srl	s5,a3,0x8
    80002df0:	0ffe7e13          	zext.b	t3,t3
    80002df4:	0ff57513          	zext.b	a0,a0
    80002df8:	0ff3f393          	zext.b	t2,t2
    80002dfc:	0fffff93          	zext.b	t6,t6
    80002e00:	0ff2f293          	zext.b	t0,t0
    80002e04:	0fff7f13          	zext.b	t5,t5
    80002e08:	0ff8fe93          	zext.b	t4,a7
    80002e0c:	0ff67993          	zext.b	s3,a2
    80002e10:	01065313          	srl	t1,a2,0x10
    80002e14:	100e0e13          	add	t3,t3,256
    80002e18:	20050513          	add	a0,a0,512
    80002e1c:	300b0b13          	add	s6,s6,768
    80002e20:	10038393          	add	t2,t2,256
    80002e24:	200f8f93          	add	t6,t6,512
    80002e28:	30090913          	add	s2,s2,768
    80002e2c:	0ff6f693          	zext.b	a3,a3
    80002e30:	10028293          	add	t0,t0,256
    80002e34:	200f0f13          	add	t5,t5,512
    80002e38:	300c0c13          	add	s8,s8,768
    80002e3c:	0ff77713          	zext.b	a4,a4
    80002e40:	0ffafa93          	zext.b	s5,s5
    80002e44:	00371713          	sll	a4,a4,0x3
    80002e48:	003e9e93          	sll	t4,t4,0x3
    80002e4c:	003e1e13          	sll	t3,t3,0x3
    80002e50:	00351513          	sll	a0,a0,0x3
    80002e54:	003b1b13          	sll	s6,s6,0x3
    80002e58:	00399993          	sll	s3,s3,0x3
    80002e5c:	00339393          	sll	t2,t2,0x3
    80002e60:	003f9f93          	sll	t6,t6,0x3
    80002e64:	00391913          	sll	s2,s2,0x3
    80002e68:	00369693          	sll	a3,a3,0x3
    80002e6c:	00329293          	sll	t0,t0,0x3
    80002e70:	003f1f13          	sll	t5,t5,0x3
    80002e74:	003c1c13          	sll	s8,s8,0x3
    80002e78:	100a8a93          	add	s5,s5,256
    80002e7c:	0ff37313          	zext.b	t1,t1
    80002e80:	00e784b3          	add	s1,a5,a4
    80002e84:	01d78eb3          	add	t4,a5,t4
    80002e88:	01c78e33          	add	t3,a5,t3
    80002e8c:	00a78533          	add	a0,a5,a0
    80002e90:	01678b33          	add	s6,a5,s6
    80002e94:	013789b3          	add	s3,a5,s3
    80002e98:	007783b3          	add	t2,a5,t2
    80002e9c:	01f78fb3          	add	t6,a5,t6
    80002ea0:	01278933          	add	s2,a5,s2
    80002ea4:	00d786b3          	add	a3,a5,a3
    80002ea8:	005782b3          	add	t0,a5,t0
    80002eac:	01e78f33          	add	t5,a5,t5
    80002eb0:	01878c33          	add	s8,a5,s8
    80002eb4:	003a9a93          	sll	s5,s5,0x3
    80002eb8:	20030313          	add	t1,t1,512
    80002ebc:	0188d89b          	srlw	a7,a7,0x18
    80002ec0:	000eba03          	ld	s4,0(t4)
    80002ec4:	000e3403          	ld	s0,0(t3)
    80002ec8:	00053e83          	ld	t4,0(a0)
    80002ecc:	000b3e03          	ld	t3,0(s6)
    80002ed0:	0009bb83          	ld	s7,0(s3)
    80002ed4:	0006bb03          	ld	s6,0(a3)
    80002ed8:	0003b983          	ld	s3,0(t2)
    80002edc:	08083703          	ld	a4,128(a6)
    80002ee0:	000fb383          	ld	t2,0(t6)
    80002ee4:	08883503          	ld	a0,136(a6)
    80002ee8:	00093f83          	ld	t6,0(s2)
    80002eec:	09083603          	ld	a2,144(a6)
    80002ef0:	0002b903          	ld	s2,0(t0)
    80002ef4:	09883683          	ld	a3,152(a6)
    80002ef8:	000f3283          	ld	t0,0(t5)
    80002efc:	00331313          	sll	t1,t1,0x3
    80002f00:	000c3f03          	ld	t5,0(s8)
    80002f04:	30088893          	add	a7,a7,768
    80002f08:	01578c33          	add	s8,a5,s5
    80002f0c:	0004ba83          	ld	s5,0(s1)
    80002f10:	00678333          	add	t1,a5,t1
    80002f14:	000c3483          	ld	s1,0(s8)
    80002f18:	00389893          	sll	a7,a7,0x3
    80002f1c:	00033303          	ld	t1,0(t1)
    80002f20:	011788b3          	add	a7,a5,a7
    80002f24:	0008b883          	ld	a7,0(a7)
    80002f28:	01754533          	xor	a0,a0,s7
    80002f2c:	01664633          	xor	a2,a2,s6
    80002f30:	0156c6b3          	xor	a3,a3,s5
    80002f34:	01474733          	xor	a4,a4,s4
    80002f38:	01354533          	xor	a0,a0,s3
    80002f3c:	01264633          	xor	a2,a2,s2
    80002f40:	0096c6b3          	xor	a3,a3,s1
    80002f44:	00564633          	xor	a2,a2,t0
    80002f48:	00874733          	xor	a4,a4,s0
    80002f4c:	00754533          	xor	a0,a0,t2
    80002f50:	0066c6b3          	xor	a3,a3,t1
    80002f54:	0116c6b3          	xor	a3,a3,a7
    80002f58:	01f54533          	xor	a0,a0,t6
    80002f5c:	01e64f33          	xor	t5,a2,t5
    80002f60:	01d74733          	xor	a4,a4,t4
    80002f64:	01c74733          	xor	a4,a4,t3
    80002f68:	0086d313          	srl	t1,a3,0x8
    80002f6c:	00855893          	srl	a7,a0,0x8
    80002f70:	008f5493          	srl	s1,t5,0x8
    80002f74:	0ff77613          	zext.b	a2,a4
    80002f78:	010f5413          	srl	s0,t5,0x10
    80002f7c:	00875393          	srl	t2,a4,0x8
    80002f80:	0fff7a13          	zext.b	s4,t5
    80002f84:	01075293          	srl	t0,a4,0x10
    80002f88:	0ff6f993          	zext.b	s3,a3
    80002f8c:	01055f93          	srl	t6,a0,0x10
    80002f90:	0ff37313          	zext.b	t1,t1
    80002f94:	0ff8f893          	zext.b	a7,a7
    80002f98:	0ff4f493          	zext.b	s1,s1
    80002f9c:	0ff57b93          	zext.b	s7,a0
    80002fa0:	0106de93          	srl	t4,a3,0x10
    80002fa4:	10088893          	add	a7,a7,256
    80002fa8:	00361613          	sll	a2,a2,0x3
    80002fac:	10030313          	add	t1,t1,256
    80002fb0:	0ff47413          	zext.b	s0,s0
    80002fb4:	0ff3f393          	zext.b	t2,t2
    80002fb8:	003a1a13          	sll	s4,s4,0x3
    80002fbc:	0ff2f293          	zext.b	t0,t0
    80002fc0:	00399993          	sll	s3,s3,0x3
    80002fc4:	10048493          	add	s1,s1,256
    80002fc8:	0fffff93          	zext.b	t6,t6
    80002fcc:	00c78633          	add	a2,a5,a2
    80002fd0:	01855e1b          	srlw	t3,a0,0x18
    80002fd4:	00331313          	sll	t1,t1,0x3
    80002fd8:	01478a33          	add	s4,a5,s4
    80002fdc:	00389913          	sll	s2,a7,0x3
    80002fe0:	013789b3          	add	s3,a5,s3
    80002fe4:	0186d89b          	srlw	a7,a3,0x18
    80002fe8:	20040413          	add	s0,s0,512
    80002fec:	003b9b93          	sll	s7,s7,0x3
    80002ff0:	10038393          	add	t2,t2,256
    80002ff4:	0ffefe93          	zext.b	t4,t4
    80002ff8:	20028293          	add	t0,t0,512
    80002ffc:	00349493          	sll	s1,s1,0x3
    80003000:	200f8f93          	add	t6,t6,512
    80003004:	0187571b          	srlw	a4,a4,0x18
    80003008:	00063a83          	ld	s5,0(a2)
    8000300c:	00678b33          	add	s6,a5,t1
    80003010:	0a083503          	ld	a0,160(a6)
    80003014:	0b083603          	ld	a2,176(a6)
    80003018:	000a3a03          	ld	s4,0(s4)
    8000301c:	0b883683          	ld	a3,184(a6)
    80003020:	0009b983          	ld	s3,0(s3)
    80003024:	01778bb3          	add	s7,a5,s7
    80003028:	01278933          	add	s2,a5,s2
    8000302c:	009784b3          	add	s1,a5,s1
    80003030:	300e0313          	add	t1,t3,768
    80003034:	30088d13          	add	s10,a7,768
    80003038:	00341413          	sll	s0,s0,0x3
    8000303c:	00339393          	sll	t2,t2,0x3
    80003040:	200e8e93          	add	t4,t4,512
    80003044:	018f5f1b          	srlw	t5,t5,0x18
    80003048:	00329293          	sll	t0,t0,0x3
    8000304c:	003f9f93          	sll	t6,t6,0x3
    80003050:	30070713          	add	a4,a4,768
    80003054:	000b3c83          	ld	s9,0(s6)
    80003058:	0a883e03          	ld	t3,168(a6)
    8000305c:	000bbc03          	ld	s8,0(s7)
    80003060:	0004bb03          	ld	s6,0(s1)
    80003064:	00093b83          	ld	s7,0(s2)
    80003068:	00878433          	add	s0,a5,s0
    8000306c:	007783b3          	add	t2,a5,t2
    80003070:	005782b3          	add	t0,a5,t0
    80003074:	01f78fb3          	add	t6,a5,t6
    80003078:	003d1893          	sll	a7,s10,0x3
    8000307c:	00331313          	sll	t1,t1,0x3
    80003080:	003e9e93          	sll	t4,t4,0x3
    80003084:	300f0f13          	add	t5,t5,768
    80003088:	00371713          	sll	a4,a4,0x3
    8000308c:	00043903          	ld	s2,0(s0)
    80003090:	0003b483          	ld	s1,0(t2)
    80003094:	0002b403          	ld	s0,0(t0)
    80003098:	000fb383          	ld	t2,0(t6)
    8000309c:	00678333          	add	t1,a5,t1
    800030a0:	01d78eb3          	add	t4,a5,t4
    800030a4:	011788b3          	add	a7,a5,a7
    800030a8:	00e78733          	add	a4,a5,a4
    800030ac:	003f1f13          	sll	t5,t5,0x3
    800030b0:	00033283          	ld	t0,0(t1)
    800030b4:	0008bf83          	ld	t6,0(a7)
    800030b8:	000eb303          	ld	t1,0(t4)
    800030bc:	01e78f33          	add	t5,a5,t5
    800030c0:	00073e83          	ld	t4,0(a4)
    800030c4:	01554533          	xor	a0,a0,s5
    800030c8:	01464633          	xor	a2,a2,s4
    800030cc:	0136c6b3          	xor	a3,a3,s3
    800030d0:	000f3883          	ld	a7,0(t5)
    800030d4:	018e4733          	xor	a4,t3,s8
    800030d8:	01954533          	xor	a0,a0,s9
    800030dc:	01764633          	xor	a2,a2,s7
    800030e0:	0166c6b3          	xor	a3,a3,s6
    800030e4:	01254533          	xor	a0,a0,s2
    800030e8:	00974733          	xor	a4,a4,s1
    800030ec:	00864633          	xor	a2,a2,s0
    800030f0:	0076c6b3          	xor	a3,a3,t2
    800030f4:	00554533          	xor	a0,a0,t0
    800030f8:	01f64633          	xor	a2,a2,t6
    800030fc:	01d6c6b3          	xor	a3,a3,t4
    80003100:	00674733          	xor	a4,a4,t1
    80003104:	01174733          	xor	a4,a4,a7
    80003108:	0086de13          	srl	t3,a3,0x8
    8000310c:	01065313          	srl	t1,a2,0x10
    80003110:	00855393          	srl	t2,a0,0x8
    80003114:	0106d893          	srl	a7,a3,0x10
    80003118:	01875b9b          	srlw	s7,a4,0x18
    8000311c:	00875493          	srl	s1,a4,0x8
    80003120:	00865293          	srl	t0,a2,0x8
    80003124:	0ffe7e13          	zext.b	t3,t3
    80003128:	0ff37313          	zext.b	t1,t1
    8000312c:	0ff3f393          	zext.b	t2,t2
    80003130:	0ff8f893          	zext.b	a7,a7
    80003134:	0ff57413          	zext.b	s0,a0
    80003138:	0ff77993          	zext.b	s3,a4
    8000313c:	0ff67b13          	zext.b	s6,a2
    80003140:	01055f93          	srl	t6,a0,0x10
    80003144:	0ff6fa93          	zext.b	s5,a3
    80003148:	100e0e13          	add	t3,t3,256
    8000314c:	20030313          	add	t1,t1,512
    80003150:	300b8b93          	add	s7,s7,768
    80003154:	10038393          	add	t2,t2,256
    80003158:	20088893          	add	a7,a7,512
    8000315c:	0ff4f493          	zext.b	s1,s1
    80003160:	0ff2f293          	zext.b	t0,t0
    80003164:	01075713          	srl	a4,a4,0x10
    80003168:	003e1e13          	sll	t3,t3,0x3
    8000316c:	00341413          	sll	s0,s0,0x3
    80003170:	00331313          	sll	t1,t1,0x3
    80003174:	003b9b93          	sll	s7,s7,0x3
    80003178:	00399993          	sll	s3,s3,0x3
    8000317c:	00339393          	sll	t2,t2,0x3
    80003180:	00389893          	sll	a7,a7,0x3
    80003184:	003b1b13          	sll	s6,s6,0x3
    80003188:	10048493          	add	s1,s1,256
    8000318c:	0fffff93          	zext.b	t6,t6
    80003190:	003a9a93          	sll	s5,s5,0x3
    80003194:	10028293          	add	t0,t0,256
    80003198:	0ff77713          	zext.b	a4,a4
    8000319c:	01c78f33          	add	t5,a5,t3
    800031a0:	00878433          	add	s0,a5,s0
    800031a4:	00678333          	add	t1,a5,t1
    800031a8:	01778bb3          	add	s7,a5,s7
    800031ac:	013789b3          	add	s3,a5,s3
    800031b0:	007783b3          	add	t2,a5,t2
    800031b4:	011788b3          	add	a7,a5,a7
    800031b8:	0185591b          	srlw	s2,a0,0x18
    800031bc:	01865e1b          	srlw	t3,a2,0x18
    800031c0:	01678b33          	add	s6,a5,s6
    800031c4:	0186de9b          	srlw	t4,a3,0x18
    800031c8:	01578ab3          	add	s5,a5,s5
    800031cc:	00349493          	sll	s1,s1,0x3
    800031d0:	200f8f93          	add	t6,t6,512
    800031d4:	00329293          	sll	t0,t0,0x3
    800031d8:	20070713          	add	a4,a4,512
    800031dc:	00043c03          	ld	s8,0(s0)
    800031e0:	000f3a03          	ld	s4,0(t5)
    800031e4:	00033403          	ld	s0,0(t1)
    800031e8:	000bbf03          	ld	t5,0(s7)
    800031ec:	0c083503          	ld	a0,192(a6)
    800031f0:	0009bb83          	ld	s7,0(s3)
    800031f4:	0c883603          	ld	a2,200(a6)
    800031f8:	0003b983          	ld	s3,0(t2)
    800031fc:	009784b3          	add	s1,a5,s1
    80003200:	0008b383          	ld	t2,0(a7)
    80003204:	005782b3          	add	t0,a5,t0
    80003208:	0d883303          	ld	t1,216(a6)
    8000320c:	0d083683          	ld	a3,208(a6)
    80003210:	000b3b03          	ld	s6,0(s6)
    80003214:	000aba83          	ld	s5,0(s5)
    80003218:	30090893          	add	a7,s2,768
    8000321c:	300e0e13          	add	t3,t3,768
    80003220:	003f9f93          	sll	t6,t6,0x3
    80003224:	300e8e93          	add	t4,t4,768
    80003228:	00371713          	sll	a4,a4,0x3
    8000322c:	0004b903          	ld	s2,0(s1)
    80003230:	01f78fb3          	add	t6,a5,t6
    80003234:	0002b483          	ld	s1,0(t0)
    80003238:	00e78733          	add	a4,a5,a4
    8000323c:	003e9e93          	sll	t4,t4,0x3
    80003240:	003e1e13          	sll	t3,t3,0x3
    80003244:	00389893          	sll	a7,a7,0x3
    80003248:	000fb283          	ld	t0,0(t6)
    8000324c:	01c78e33          	add	t3,a5,t3
    80003250:	00073f83          	ld	t6,0(a4)
    80003254:	011788b3          	add	a7,a5,a7
    80003258:	01d78733          	add	a4,a5,t4
    8000325c:	0008b883          	ld	a7,0(a7)
    80003260:	000e3e83          	ld	t4,0(t3)
    80003264:	01854533          	xor	a0,a0,s8
    80003268:	00073e03          	ld	t3,0(a4)
    8000326c:	01764633          	xor	a2,a2,s7
    80003270:	01534733          	xor	a4,t1,s5
    80003274:	0166c6b3          	xor	a3,a3,s6
    80003278:	01454533          	xor	a0,a0,s4
    8000327c:	01364633          	xor	a2,a2,s3
    80003280:	0126c6b3          	xor	a3,a3,s2
    80003284:	00974733          	xor	a4,a4,s1
    80003288:	00854533          	xor	a0,a0,s0
    8000328c:	00764633          	xor	a2,a2,t2
    80003290:	0056c6b3          	xor	a3,a3,t0
    80003294:	01f74733          	xor	a4,a4,t6
    80003298:	01e54533          	xor	a0,a0,t5
    8000329c:	01d64633          	xor	a2,a2,t4
    800032a0:	01c6c6b3          	xor	a3,a3,t3
    800032a4:	01174733          	xor	a4,a4,a7
    800032a8:	00875313          	srl	t1,a4,0x8
    800032ac:	00855893          	srl	a7,a0,0x8
    800032b0:	00865993          	srl	s3,a2,0x8
    800032b4:	0086d913          	srl	s2,a3,0x8
    800032b8:	0ff57293          	zext.b	t0,a0
    800032bc:	0106d493          	srl	s1,a3,0x10
    800032c0:	0ff67f93          	zext.b	t6,a2
    800032c4:	01075413          	srl	s0,a4,0x10
    800032c8:	0ff6ff13          	zext.b	t5,a3
    800032cc:	01055e93          	srl	t4,a0,0x10
    800032d0:	0ff77a13          	zext.b	s4,a4
    800032d4:	01065393          	srl	t2,a2,0x10
    800032d8:	0ff37313          	zext.b	t1,t1
    800032dc:	0ff8f893          	zext.b	a7,a7
    800032e0:	0ff9f993          	zext.b	s3,s3
    800032e4:	0ff97913          	zext.b	s2,s2
    800032e8:	00329293          	sll	t0,t0,0x3
    800032ec:	10030313          	add	t1,t1,256
    800032f0:	0ff4f493          	zext.b	s1,s1
    800032f4:	003f9f93          	sll	t6,t6,0x3
    800032f8:	10088893          	add	a7,a7,256
    800032fc:	0ff47413          	zext.b	s0,s0
    80003300:	003f1f13          	sll	t5,t5,0x3
    80003304:	10098993          	add	s3,s3,256
    80003308:	0ffefe93          	zext.b	t4,t4
    8000330c:	003a1a13          	sll	s4,s4,0x3
    80003310:	10090913          	add	s2,s2,256
    80003314:	0ff3f393          	zext.b	t2,t2
    80003318:	005782b3          	add	t0,a5,t0
    8000331c:	01f78fb3          	add	t6,a5,t6
    80003320:	01e78f33          	add	t5,a5,t5
    80003324:	01478a33          	add	s4,a5,s4
    80003328:	01855e1b          	srlw	t3,a0,0x18
    8000332c:	00389893          	sll	a7,a7,0x3
    80003330:	00399993          	sll	s3,s3,0x3
    80003334:	200e8e93          	add	t4,t4,512
    80003338:	0187571b          	srlw	a4,a4,0x18
    8000333c:	00331313          	sll	t1,t1,0x3
    80003340:	20048493          	add	s1,s1,512
    80003344:	0186561b          	srlw	a2,a2,0x18
    80003348:	20040413          	add	s0,s0,512
    8000334c:	0186d69b          	srlw	a3,a3,0x18
    80003350:	00391913          	sll	s2,s2,0x3
    80003354:	20038393          	add	t2,t2,512
    80003358:	0002bd83          	ld	s11,0(t0)
    8000335c:	000fbd03          	ld	s10,0(t6)
    80003360:	0e883283          	ld	t0,232(a6)
    80003364:	000f3c83          	ld	s9,0(t5)
    80003368:	000a3c03          	ld	s8,0(s4)
    8000336c:	0f883f03          	ld	t5,248(a6)
    80003370:	01178a33          	add	s4,a5,a7
    80003374:	0e083503          	ld	a0,224(a6)
    80003378:	0f083f83          	ld	t6,240(a6)
    8000337c:	00678333          	add	t1,a5,t1
    80003380:	01378ab3          	add	s5,a5,s3
    80003384:	01278933          	add	s2,a5,s2
    80003388:	003e9993          	sll	s3,t4,0x3
    8000338c:	300e0893          	add	a7,t3,768
    80003390:	30070e93          	add	t4,a4,768
    80003394:	00349493          	sll	s1,s1,0x3
    80003398:	30060613          	add	a2,a2,768
    8000339c:	00341413          	sll	s0,s0,0x3
    800033a0:	30068693          	add	a3,a3,768
    800033a4:	00339393          	sll	t2,t2,0x3
    800033a8:	00033b83          	ld	s7,0(t1)
    800033ac:	000a3b03          	ld	s6,0(s4)
    800033b0:	01378733          	add	a4,a5,s3
    800033b4:	00093a03          	ld	s4,0(s2)
    800033b8:	000aba83          	ld	s5,0(s5)
    800033bc:	009784b3          	add	s1,a5,s1
    800033c0:	00878433          	add	s0,a5,s0
    800033c4:	007783b3          	add	t2,a5,t2
    800033c8:	00361613          	sll	a2,a2,0x3
    800033cc:	00369693          	sll	a3,a3,0x3
    800033d0:	003e9e93          	sll	t4,t4,0x3
    800033d4:	00389893          	sll	a7,a7,0x3
    800033d8:	0004b983          	ld	s3,0(s1)
    800033dc:	00043903          	ld	s2,0(s0)
    800033e0:	00073483          	ld	s1,0(a4)
    800033e4:	0003b403          	ld	s0,0(t2)
    800033e8:	00c78633          	add	a2,a5,a2
    800033ec:	00d786b3          	add	a3,a5,a3
    800033f0:	01d78eb3          	add	t4,a5,t4
    800033f4:	011788b3          	add	a7,a5,a7
    800033f8:	00063383          	ld	t2,0(a2)
    800033fc:	0006be03          	ld	t3,0(a3)
    80003400:	000eb303          	ld	t1,0(t4)
    80003404:	0008b883          	ld	a7,0(a7)
    80003408:	01a2c633          	xor	a2,t0,s10
    8000340c:	019fc6b3          	xor	a3,t6,s9
    80003410:	018f4733          	xor	a4,t5,s8
    80003414:	01b54533          	xor	a0,a0,s11
    80003418:	01754533          	xor	a0,a0,s7
    8000341c:	01664633          	xor	a2,a2,s6
    80003420:	0156c6b3          	xor	a3,a3,s5
    80003424:	01474733          	xor	a4,a4,s4
    80003428:	01354533          	xor	a0,a0,s3
    8000342c:	01264633          	xor	a2,a2,s2
    80003430:	0096c6b3          	xor	a3,a3,s1
    80003434:	00874733          	xor	a4,a4,s0
    80003438:	01c64633          	xor	a2,a2,t3
    8000343c:	0066c6b3          	xor	a3,a3,t1
    80003440:	00754533          	xor	a0,a0,t2
    80003444:	01174733          	xor	a4,a4,a7
    80003448:	00875893          	srl	a7,a4,0x8
    8000344c:	00855313          	srl	t1,a0,0x8
    80003450:	00865993          	srl	s3,a2,0x8
    80003454:	0086d913          	srl	s2,a3,0x8
    80003458:	0ff57e13          	zext.b	t3,a0
    8000345c:	0106d493          	srl	s1,a3,0x10
    80003460:	0ff67e93          	zext.b	t4,a2
    80003464:	01075413          	srl	s0,a4,0x10
    80003468:	0ff6ff13          	zext.b	t5,a3
    8000346c:	01055393          	srl	t2,a0,0x10
    80003470:	0ff77a13          	zext.b	s4,a4
    80003474:	01065293          	srl	t0,a2,0x10
    80003478:	0ff8f893          	zext.b	a7,a7
    8000347c:	0ff37313          	zext.b	t1,t1
    80003480:	0ff9f993          	zext.b	s3,s3
    80003484:	0ff97913          	zext.b	s2,s2
    80003488:	003e1e13          	sll	t3,t3,0x3
    8000348c:	10088893          	add	a7,a7,256
    80003490:	0ff4f493          	zext.b	s1,s1
    80003494:	003e9e93          	sll	t4,t4,0x3
    80003498:	10030313          	add	t1,t1,256
    8000349c:	0ff47413          	zext.b	s0,s0
    800034a0:	003f1f13          	sll	t5,t5,0x3
    800034a4:	10098993          	add	s3,s3,256
    800034a8:	0ff3f393          	zext.b	t2,t2
    800034ac:	003a1a13          	sll	s4,s4,0x3
    800034b0:	10090913          	add	s2,s2,256
    800034b4:	0ff2f293          	zext.b	t0,t0
    800034b8:	01c78e33          	add	t3,a5,t3
    800034bc:	01d78eb3          	add	t4,a5,t4
    800034c0:	01e78f33          	add	t5,a5,t5
    800034c4:	01478a33          	add	s4,a5,s4
    800034c8:	00389893          	sll	a7,a7,0x3
    800034cc:	20048493          	add	s1,s1,512
    800034d0:	0186561b          	srlw	a2,a2,0x18
    800034d4:	00331313          	sll	t1,t1,0x3
    800034d8:	20040413          	add	s0,s0,512
    800034dc:	0186d69b          	srlw	a3,a3,0x18
    800034e0:	00399993          	sll	s3,s3,0x3
    800034e4:	20038393          	add	t2,t2,512
    800034e8:	0187571b          	srlw	a4,a4,0x18
    800034ec:	00391913          	sll	s2,s2,0x3
    800034f0:	20028293          	add	t0,t0,512
    800034f4:	0185551b          	srlw	a0,a0,0x18
    800034f8:	10083f83          	ld	t6,256(a6)
    800034fc:	011788b3          	add	a7,a5,a7
    80003500:	000e3d03          	ld	s10,0(t3)
    80003504:	000a3b83          	ld	s7,0(s4)
    80003508:	10883e03          	ld	t3,264(a6)
    8000350c:	000ebc83          	ld	s9,0(t4)
    80003510:	000f3c03          	ld	s8,0(t5)
    80003514:	11083e83          	ld	t4,272(a6)
    80003518:	11883f03          	ld	t5,280(a6)
    8000351c:	00678333          	add	t1,a5,t1
    80003520:	013789b3          	add	s3,a5,s3
    80003524:	01278933          	add	s2,a5,s2
    80003528:	00349493          	sll	s1,s1,0x3
    8000352c:	30060613          	add	a2,a2,768
    80003530:	00341413          	sll	s0,s0,0x3
    80003534:	30068693          	add	a3,a3,768
    80003538:	00339393          	sll	t2,t2,0x3
    8000353c:	30070713          	add	a4,a4,768
    80003540:	00329293          	sll	t0,t0,0x3
    80003544:	30050513          	add	a0,a0,768
    80003548:	0008bb03          	ld	s6,0(a7)
    8000354c:	00033a83          	ld	s5,0(t1)
    80003550:	0009ba03          	ld	s4,0(s3)
    80003554:	009784b3          	add	s1,a5,s1
    80003558:	00093983          	ld	s3,0(s2)
    8000355c:	00878433          	add	s0,a5,s0
    80003560:	007783b3          	add	t2,a5,t2
    80003564:	005782b3          	add	t0,a5,t0
    80003568:	00371713          	sll	a4,a4,0x3
    8000356c:	00351513          	sll	a0,a0,0x3
    80003570:	00361613          	sll	a2,a2,0x3
    80003574:	00369693          	sll	a3,a3,0x3
    80003578:	0004b903          	ld	s2,0(s1)
    8000357c:	00c78633          	add	a2,a5,a2
    80003580:	00043483          	ld	s1,0(s0)
    80003584:	00d786b3          	add	a3,a5,a3
    80003588:	0003b403          	ld	s0,0(t2)
    8000358c:	00e788b3          	add	a7,a5,a4
    80003590:	0002b383          	ld	t2,0(t0)
    80003594:	00a787b3          	add	a5,a5,a0
    80003598:	00063283          	ld	t0,0(a2)
    8000359c:	0006b303          	ld	t1,0(a3)
    800035a0:	0007b503          	ld	a0,0(a5)
    800035a4:	0008b883          	ld	a7,0(a7)
    800035a8:	01afc633          	xor	a2,t6,s10
    800035ac:	017f47b3          	xor	a5,t5,s7
    800035b0:	019e46b3          	xor	a3,t3,s9
    800035b4:	018ec733          	xor	a4,t4,s8
    800035b8:	01664633          	xor	a2,a2,s6
    800035bc:	0156c6b3          	xor	a3,a3,s5
    800035c0:	01474733          	xor	a4,a4,s4
    800035c4:	0137c7b3          	xor	a5,a5,s3
    800035c8:	01264633          	xor	a2,a2,s2
    800035cc:	0096c6b3          	xor	a3,a3,s1
    800035d0:	00874733          	xor	a4,a4,s0
    800035d4:	0077c7b3          	xor	a5,a5,t2
    800035d8:	00564633          	xor	a2,a2,t0
    800035dc:	0066c6b3          	xor	a3,a3,t1
    800035e0:	01174733          	xor	a4,a4,a7
    800035e4:	00a7c7b3          	xor	a5,a5,a0
    800035e8:	0087d293          	srl	t0,a5,0x8
    800035ec:	01075e13          	srl	t3,a4,0x10
    800035f0:	00865f93          	srl	t6,a2,0x8
    800035f4:	0107d313          	srl	t1,a5,0x10
    800035f8:	0086d513          	srl	a0,a3,0x8
    800035fc:	0186d89b          	srlw	a7,a3,0x18
    80003600:	01875a1b          	srlw	s4,a4,0x18
    80003604:	00875393          	srl	t2,a4,0x8
    80003608:	0ff2f293          	zext.b	t0,t0
    8000360c:	0ffe7e13          	zext.b	t3,t3
    80003610:	0fffff93          	zext.b	t6,t6
    80003614:	0ff37313          	zext.b	t1,t1
    80003618:	0ff57513          	zext.b	a0,a0
    8000361c:	0ff67913          	zext.b	s2,a2
    80003620:	0ff6f493          	zext.b	s1,a3
    80003624:	01065f13          	srl	t5,a2,0x10
    80003628:	0ff7f993          	zext.b	s3,a5
    8000362c:	0106de93          	srl	t4,a3,0x10
    80003630:	10028293          	add	t0,t0,256
    80003634:	200e0e13          	add	t3,t3,512
    80003638:	30088893          	add	a7,a7,768
    8000363c:	100f8f93          	add	t6,t6,256
    80003640:	20030313          	add	t1,t1,512
    80003644:	300a0a13          	add	s4,s4,768
    80003648:	0ff77713          	zext.b	a4,a4
    8000364c:	10050513          	add	a0,a0,256
    80003650:	0ff3f393          	zext.b	t2,t2
    80003654:	00012b97          	auipc	s7,0x12
    80003658:	af4b8b93          	add	s7,s7,-1292 # 80015148 <il_tab>
    8000365c:	00389893          	sll	a7,a7,0x3
    80003660:	00351513          	sll	a0,a0,0x3
    80003664:	00391913          	sll	s2,s2,0x3
    80003668:	00329293          	sll	t0,t0,0x3
    8000366c:	003e1e13          	sll	t3,t3,0x3
    80003670:	00349493          	sll	s1,s1,0x3
    80003674:	003f9f93          	sll	t6,t6,0x3
    80003678:	00331313          	sll	t1,t1,0x3
    8000367c:	003a1a13          	sll	s4,s4,0x3
    80003680:	00371713          	sll	a4,a4,0x3
    80003684:	0fff7f13          	zext.b	t5,t5
    80003688:	00399993          	sll	s3,s3,0x3
    8000368c:	10038393          	add	t2,t2,256
    80003690:	0ffefe93          	zext.b	t4,t4
    80003694:	011b86b3          	add	a3,s7,a7
    80003698:	012b8933          	add	s2,s7,s2
    8000369c:	005b82b3          	add	t0,s7,t0
    800036a0:	01cb8e33          	add	t3,s7,t3
    800036a4:	009b84b3          	add	s1,s7,s1
    800036a8:	01fb8fb3          	add	t6,s7,t6
    800036ac:	006b8333          	add	t1,s7,t1
    800036b0:	014b8a33          	add	s4,s7,s4
    800036b4:	00eb8733          	add	a4,s7,a4
    800036b8:	00ab8433          	add	s0,s7,a0
    800036bc:	0186589b          	srlw	a7,a2,0x18
    800036c0:	200f0f13          	add	t5,t5,512
    800036c4:	0187d79b          	srlw	a5,a5,0x18
    800036c8:	013b89b3          	add	s3,s7,s3
    800036cc:	00339393          	sll	t2,t2,0x3
    800036d0:	200e8e93          	add	t4,t4,512
    800036d4:	13083603          	ld	a2,304(a6)
    800036d8:	12083503          	ld	a0,288(a6)
    800036dc:	00093b03          	ld	s6,0(s2)
    800036e0:	0004ba83          	ld	s5,0(s1)
    800036e4:	0002b903          	ld	s2,0(t0)
    800036e8:	000fb483          	ld	s1,0(t6)
    800036ec:	000e3283          	ld	t0,0(t3)
    800036f0:	00033f83          	ld	t6,0(t1)
    800036f4:	0006be03          	ld	t3,0(a3)
    800036f8:	000a3303          	ld	t1,0(s4)
    800036fc:	12883683          	ld	a3,296(a6)
    80003700:	00073a03          	ld	s4,0(a4)
    80003704:	30078793          	add	a5,a5,768
    80003708:	00043403          	ld	s0,0(s0)
    8000370c:	003f1f13          	sll	t5,t5,0x3
    80003710:	13883703          	ld	a4,312(a6)
    80003714:	0009b983          	ld	s3,0(s3)
    80003718:	007b83b3          	add	t2,s7,t2
    8000371c:	003e9e93          	sll	t4,t4,0x3
    80003720:	30088893          	add	a7,a7,768
    80003724:	00379813          	sll	a6,a5,0x3
    80003728:	00389893          	sll	a7,a7,0x3
    8000372c:	0003b383          	ld	t2,0(t2)
    80003730:	01eb8f33          	add	t5,s7,t5
    80003734:	01db8eb3          	add	t4,s7,t4
    80003738:	011b87b3          	add	a5,s7,a7
    8000373c:	010b8833          	add	a6,s7,a6
    80003740:	000f3f03          	ld	t5,0(t5)
    80003744:	000ebe83          	ld	t4,0(t4)
    80003748:	00083883          	ld	a7,0(a6)
    8000374c:	01654533          	xor	a0,a0,s6
    80003750:	0007b803          	ld	a6,0(a5)
    80003754:	0156c6b3          	xor	a3,a3,s5
    80003758:	014647b3          	xor	a5,a2,s4
    8000375c:	01374733          	xor	a4,a4,s3
    80003760:	01254633          	xor	a2,a0,s2
    80003764:	0096c6b3          	xor	a3,a3,s1
    80003768:	0087c7b3          	xor	a5,a5,s0
    8000376c:	00774733          	xor	a4,a4,t2
    80003770:	01813d03          	ld	s10,24(sp)
    80003774:	01013d83          	ld	s11,16(sp)
    80003778:	00564633          	xor	a2,a2,t0
    8000377c:	01f6c6b3          	xor	a3,a3,t6
    80003780:	01e7c7b3          	xor	a5,a5,t5
    80003784:	01d74733          	xor	a4,a4,t4
    80003788:	01c64e33          	xor	t3,a2,t3
    8000378c:	0066c6b3          	xor	a3,a3,t1
    80003790:	0117c533          	xor	a0,a5,a7
    80003794:	01074733          	xor	a4,a4,a6
    80003798:	008e581b          	srlw	a6,t3,0x8
    8000379c:	010e561b          	srlw	a2,t3,0x10
    800037a0:	010580a3          	sb	a6,1(a1)
    800037a4:	00c58123          	sb	a2,2(a1)
    800037a8:	0086d81b          	srlw	a6,a3,0x8
    800037ac:	0106d61b          	srlw	a2,a3,0x10
    800037b0:	018e579b          	srlw	a5,t3,0x18
    800037b4:	00f581a3          	sb	a5,3(a1)
    800037b8:	00d58223          	sb	a3,4(a1)
    800037bc:	010582a3          	sb	a6,5(a1)
    800037c0:	00c58323          	sb	a2,6(a1)
    800037c4:	0185579b          	srlw	a5,a0,0x18
    800037c8:	0085581b          	srlw	a6,a0,0x8
    800037cc:	0105561b          	srlw	a2,a0,0x10
    800037d0:	0186d69b          	srlw	a3,a3,0x18
    800037d4:	00d583a3          	sb	a3,7(a1)
    800037d8:	00a58423          	sb	a0,8(a1)
    800037dc:	010584a3          	sb	a6,9(a1)
    800037e0:	00c58523          	sb	a2,10(a1)
    800037e4:	00f585a3          	sb	a5,11(a1)
    800037e8:	00e58623          	sb	a4,12(a1)
    800037ec:	01c58023          	sb	t3,0(a1)
    800037f0:	00c58793          	add	a5,a1,12
    800037f4:	0187551b          	srlw	a0,a4,0x18
    800037f8:	0087589b          	srlw	a7,a4,0x8
    800037fc:	0107581b          	srlw	a6,a4,0x10
    80003800:	02075593          	srl	a1,a4,0x20
    80003804:	02875613          	srl	a2,a4,0x28
    80003808:	03075693          	srl	a3,a4,0x30
    8000380c:	03875713          	srl	a4,a4,0x38
    80003810:	00a781a3          	sb	a0,3(a5)
    80003814:	011780a3          	sb	a7,1(a5)
    80003818:	01078123          	sb	a6,2(a5)
    8000381c:	00b78223          	sb	a1,4(a5)
    80003820:	00c782a3          	sb	a2,5(a5)
    80003824:	00d78323          	sb	a3,6(a5)
    80003828:	00e783a3          	sb	a4,7(a5)
    8000382c:	06813403          	ld	s0,104(sp)
    80003830:	06013483          	ld	s1,96(sp)
    80003834:	05813903          	ld	s2,88(sp)
    80003838:	05013983          	ld	s3,80(sp)
    8000383c:	04813a03          	ld	s4,72(sp)
    80003840:	04013a83          	ld	s5,64(sp)
    80003844:	03813b03          	ld	s6,56(sp)
    80003848:	03013b83          	ld	s7,48(sp)
    8000384c:	02813c03          	ld	s8,40(sp)
    80003850:	02013c83          	ld	s9,32(sp)
    80003854:	00100513          	li	a0,1
    80003858:	07010113          	add	sp,sp,112
    8000385c:	00008067          	ret
    80003860:	00875813          	srl	a6,a4,0x8
    80003864:	0086d913          	srl	s2,a3,0x8
    80003868:	00855f93          	srl	t6,a0,0x8
    8000386c:	008e5a13          	srl	s4,t3,0x8
    80003870:	0ffe7493          	zext.b	s1,t3
    80003874:	01055f13          	srl	t5,a0,0x10
    80003878:	0ff57393          	zext.b	t2,a0
    8000387c:	010e5313          	srl	t1,t3,0x10
    80003880:	0ff77293          	zext.b	t0,a4
    80003884:	0106d893          	srl	a7,a3,0x10
    80003888:	0ff87813          	zext.b	a6,a6
    8000388c:	0ff97913          	zext.b	s2,s2
    80003890:	0fffff93          	zext.b	t6,t6
    80003894:	00016797          	auipc	a5,0x16
    80003898:	8b478793          	add	a5,a5,-1868 # 80019148 <it_tab>
    8000389c:	0ff6f413          	zext.b	s0,a3
    800038a0:	01075e93          	srl	t4,a4,0x10
    800038a4:	10080813          	add	a6,a6,256
    800038a8:	0ffa7a13          	zext.b	s4,s4
    800038ac:	00349493          	sll	s1,s1,0x3
    800038b0:	0fff7f13          	zext.b	t5,t5
    800038b4:	00339393          	sll	t2,t2,0x3
    800038b8:	10090913          	add	s2,s2,256
    800038bc:	0ff37313          	zext.b	t1,t1
    800038c0:	00329293          	sll	t0,t0,0x3
    800038c4:	100f8f93          	add	t6,t6,256
    800038c8:	0ff8f893          	zext.b	a7,a7
    800038cc:	01855b1b          	srlw	s6,a0,0x18
    800038d0:	01875b9b          	srlw	s7,a4,0x18
    800038d4:	00381a93          	sll	s5,a6,0x3
    800038d8:	00341413          	sll	s0,s0,0x3
    800038dc:	100a0a13          	add	s4,s4,256
    800038e0:	0ffefe93          	zext.b	t4,t4
    800038e4:	0186d69b          	srlw	a3,a3,0x18
    800038e8:	018e5e1b          	srlw	t3,t3,0x18
    800038ec:	009784b3          	add	s1,a5,s1
    800038f0:	200f0f13          	add	t5,t5,512
    800038f4:	007783b3          	add	t2,a5,t2
    800038f8:	00391913          	sll	s2,s2,0x3
    800038fc:	20030313          	add	t1,t1,512
    80003900:	005782b3          	add	t0,a5,t0
    80003904:	003f9f93          	sll	t6,t6,0x3
    80003908:	20088893          	add	a7,a7,512
    8000390c:	23063983          	ld	s3,560(a2)
    80003910:	0004b483          	ld	s1,0(s1)
    80003914:	24063803          	ld	a6,576(a2)
    80003918:	0003b383          	ld	t2,0(t2)
    8000391c:	0002b283          	ld	t0,0(t0)
    80003920:	300b0c13          	add	s8,s6,768
    80003924:	24863503          	ld	a0,584(a2)
    80003928:	01578ab3          	add	s5,a5,s5
    8000392c:	01278933          	add	s2,a5,s2
    80003930:	01f78fb3          	add	t6,a5,t6
    80003934:	00878433          	add	s0,a5,s0
    80003938:	003a1a13          	sll	s4,s4,0x3
    8000393c:	200e8e93          	add	t4,t4,512
    80003940:	003f1f13          	sll	t5,t5,0x3
    80003944:	30068693          	add	a3,a3,768
    80003948:	00331313          	sll	t1,t1,0x3
    8000394c:	300b8b93          	add	s7,s7,768
    80003950:	00389893          	sll	a7,a7,0x3
    80003954:	300e0e13          	add	t3,t3,768
    80003958:	000abb03          	ld	s6,0(s5)
    8000395c:	000fbc83          	ld	s9,0(t6)
    80003960:	00043403          	ld	s0,0(s0)
    80003964:	003c1f93          	sll	t6,s8,0x3
    80003968:	23863703          	ld	a4,568(a2)
    8000396c:	01a13c23          	sd	s10,24(sp)
    80003970:	01478a33          	add	s4,a5,s4
    80003974:	00093d03          	ld	s10,0(s2)
    80003978:	01e78f33          	add	t5,a5,t5
    8000397c:	00678333          	add	t1,a5,t1
    80003980:	011788b3          	add	a7,a5,a7
    80003984:	003e9e93          	sll	t4,t4,0x3
    80003988:	00369693          	sll	a3,a3,0x3
    8000398c:	003b9b93          	sll	s7,s7,0x3
    80003990:	003e1e13          	sll	t3,t3,0x3
    80003994:	000f3c03          	ld	s8,0(t5)
    80003998:	0008b903          	ld	s2,0(a7)
    8000399c:	01b13823          	sd	s11,16(sp)
    800039a0:	01f788b3          	add	a7,a5,t6
    800039a4:	000a3d83          	ld	s11,0(s4)
    800039a8:	01d78eb3          	add	t4,a5,t4
    800039ac:	00033a03          	ld	s4,0(t1)
    800039b0:	00d786b3          	add	a3,a5,a3
    800039b4:	01778bb3          	add	s7,a5,s7
    800039b8:	01c78e33          	add	t3,a5,t3
    800039bc:	000eba83          	ld	s5,0(t4)
    800039c0:	0006bf83          	ld	t6,0(a3)
    800039c4:	0008bf03          	ld	t5,0(a7)
    800039c8:	000bbe83          	ld	t4,0(s7)
    800039cc:	000e3303          	ld	t1,0(t3)
    800039d0:	0099c8b3          	xor	a7,s3,s1
    800039d4:	007846b3          	xor	a3,a6,t2
    800039d8:	00554533          	xor	a0,a0,t0
    800039dc:	0168c833          	xor	a6,a7,s6
    800039e0:	00874733          	xor	a4,a4,s0
    800039e4:	01954533          	xor	a0,a0,s9
    800039e8:	01a6c6b3          	xor	a3,a3,s10
    800039ec:	01884833          	xor	a6,a6,s8
    800039f0:	0146c6b3          	xor	a3,a3,s4
    800039f4:	01254533          	xor	a0,a0,s2
    800039f8:	01b74733          	xor	a4,a4,s11
    800039fc:	00654533          	xor	a0,a0,t1
    80003a00:	01f84833          	xor	a6,a6,t6
    80003a04:	01d6c6b3          	xor	a3,a3,t4
    80003a08:	01574733          	xor	a4,a4,s5
    80003a0c:	01e74733          	xor	a4,a4,t5
    80003a10:	00855493          	srl	s1,a0,0x8
    80003a14:	0106d313          	srl	t1,a3,0x10
    80003a18:	00885f13          	srl	t5,a6,0x8
    80003a1c:	01055893          	srl	a7,a0,0x10
    80003a20:	00875913          	srl	s2,a4,0x8
    80003a24:	01875f9b          	srlw	t6,a4,0x18
    80003a28:	0186d99b          	srlw	s3,a3,0x18
    80003a2c:	0086d393          	srl	t2,a3,0x8
    80003a30:	0ff4f493          	zext.b	s1,s1
    80003a34:	0ff37313          	zext.b	t1,t1
    80003a38:	0fff7f13          	zext.b	t5,t5
    80003a3c:	0ff8f893          	zext.b	a7,a7
    80003a40:	0ff87a13          	zext.b	s4,a6
    80003a44:	0ff77413          	zext.b	s0,a4
    80003a48:	01085293          	srl	t0,a6,0x10
    80003a4c:	0ff57b13          	zext.b	s6,a0
    80003a50:	0ff97913          	zext.b	s2,s2
    80003a54:	10048493          	add	s1,s1,256
    80003a58:	20030313          	add	t1,t1,512
    80003a5c:	300f8f93          	add	t6,t6,768
    80003a60:	100f0f13          	add	t5,t5,256
    80003a64:	20088893          	add	a7,a7,512
    80003a68:	30098993          	add	s3,s3,768
    80003a6c:	0ff6f693          	zext.b	a3,a3
    80003a70:	0ff3f393          	zext.b	t2,t2
    80003a74:	01075713          	srl	a4,a4,0x10
    80003a78:	10090913          	add	s2,s2,256
    80003a7c:	003a1a13          	sll	s4,s4,0x3
    80003a80:	00349493          	sll	s1,s1,0x3
    80003a84:	00331313          	sll	t1,t1,0x3
    80003a88:	003f9f93          	sll	t6,t6,0x3
    80003a8c:	00341413          	sll	s0,s0,0x3
    80003a90:	003f1f13          	sll	t5,t5,0x3
    80003a94:	00389893          	sll	a7,a7,0x3
    80003a98:	00399993          	sll	s3,s3,0x3
    80003a9c:	00369693          	sll	a3,a3,0x3
    80003aa0:	0ff2f293          	zext.b	t0,t0
    80003aa4:	003b1b13          	sll	s6,s6,0x3
    80003aa8:	10038393          	add	t2,t2,256
    80003aac:	0ff77713          	zext.b	a4,a4
    80003ab0:	01478a33          	add	s4,a5,s4
    80003ab4:	009784b3          	add	s1,a5,s1
    80003ab8:	00678333          	add	t1,a5,t1
    80003abc:	00878433          	add	s0,a5,s0
    80003ac0:	01e78f33          	add	t5,a5,t5
    80003ac4:	011788b3          	add	a7,a5,a7
    80003ac8:	013789b3          	add	s3,a5,s3
    80003acc:	00d786b3          	add	a3,a5,a3
    80003ad0:	01855e9b          	srlw	t4,a0,0x18
    80003ad4:	00391913          	sll	s2,s2,0x3
    80003ad8:	01f78fb3          	add	t6,a5,t6
    80003adc:	20028293          	add	t0,t0,512
    80003ae0:	01678b33          	add	s6,a5,s6
    80003ae4:	00339393          	sll	t2,t2,0x3
    80003ae8:	20070713          	add	a4,a4,512
    80003aec:	0188581b          	srlw	a6,a6,0x18
    80003af0:	000a3c83          	ld	s9,0(s4)
    80003af4:	0004ba83          	ld	s5,0(s1)
    80003af8:	00043c03          	ld	s8,0(s0)
    80003afc:	00033483          	ld	s1,0(t1)
    80003b00:	000f3a03          	ld	s4,0(t5)
    80003b04:	0008b403          	ld	s0,0(a7)
    80003b08:	0009bf03          	ld	t5,0(s3)
    80003b0c:	25063e03          	ld	t3,592(a2)
    80003b10:	000fbf83          	ld	t6,0(t6)
    80003b14:	25863303          	ld	t1,600(a2)
    80003b18:	01278933          	add	s2,a5,s2
    80003b1c:	26063503          	ld	a0,608(a2)
    80003b20:	007783b3          	add	t2,a5,t2
    80003b24:	0006bb83          	ld	s7,0(a3)
    80003b28:	26863883          	ld	a7,616(a2)
    80003b2c:	000b3b03          	ld	s6,0(s6)
    80003b30:	00329293          	sll	t0,t0,0x3
    80003b34:	300e8e93          	add	t4,t4,768
    80003b38:	00371713          	sll	a4,a4,0x3
    80003b3c:	30080813          	add	a6,a6,768
    80003b40:	00093983          	ld	s3,0(s2)
    80003b44:	005782b3          	add	t0,a5,t0
    80003b48:	0003b903          	ld	s2,0(t2)
    80003b4c:	00e78733          	add	a4,a5,a4
    80003b50:	003e9e93          	sll	t4,t4,0x3
    80003b54:	00381813          	sll	a6,a6,0x3
    80003b58:	0002b383          	ld	t2,0(t0)
    80003b5c:	01d78eb3          	add	t4,a5,t4
    80003b60:	00073283          	ld	t0,0(a4)
    80003b64:	01078833          	add	a6,a5,a6
    80003b68:	00083803          	ld	a6,0(a6)
    80003b6c:	000ebe83          	ld	t4,0(t4)
    80003b70:	019e4e33          	xor	t3,t3,s9
    80003b74:	018346b3          	xor	a3,t1,s8
    80003b78:	01754533          	xor	a0,a0,s7
    80003b7c:	0168c733          	xor	a4,a7,s6
    80003b80:	015e4e33          	xor	t3,t3,s5
    80003b84:	0146c6b3          	xor	a3,a3,s4
    80003b88:	01354533          	xor	a0,a0,s3
    80003b8c:	01274733          	xor	a4,a4,s2
    80003b90:	009e4e33          	xor	t3,t3,s1
    80003b94:	0086c6b3          	xor	a3,a3,s0
    80003b98:	00754533          	xor	a0,a0,t2
    80003b9c:	00574733          	xor	a4,a4,t0
    80003ba0:	01074733          	xor	a4,a4,a6
    80003ba4:	01fe4e33          	xor	t3,t3,t6
    80003ba8:	01e6c6b3          	xor	a3,a3,t5
    80003bac:	01d54533          	xor	a0,a0,t4
    80003bb0:	27060813          	add	a6,a2,624
    80003bb4:	00875313          	srl	t1,a4,0x8
    80003bb8:	008e5893          	srl	a7,t3,0x8
    80003bbc:	0086d613          	srl	a2,a3,0x8
    80003bc0:	00855413          	srl	s0,a0,0x8
    80003bc4:	0ffe7b13          	zext.b	s6,t3
    80003bc8:	01055393          	srl	t2,a0,0x10
    80003bcc:	0ff6fa93          	zext.b	s5,a3
    80003bd0:	01075c93          	srl	s9,a4,0x10
    80003bd4:	0ff57a13          	zext.b	s4,a0
    80003bd8:	010e5293          	srl	t0,t3,0x10
    80003bdc:	0ff77f13          	zext.b	t5,a4
    80003be0:	0106df93          	srl	t6,a3,0x10
    80003be4:	0ff37313          	zext.b	t1,t1
    80003be8:	0ff8f893          	zext.b	a7,a7
    80003bec:	0ff67613          	zext.b	a2,a2
    80003bf0:	0ff47413          	zext.b	s0,s0
    80003bf4:	10030993          	add	s3,t1,256
    80003bf8:	10088913          	add	s2,a7,256
    80003bfc:	10060493          	add	s1,a2,256
    80003c00:	003b1b13          	sll	s6,s6,0x3
    80003c04:	0ff3f393          	zext.b	t2,t2
    80003c08:	003a9a93          	sll	s5,s5,0x3
    80003c0c:	0ffcfc93          	zext.b	s9,s9
    80003c10:	003a1a13          	sll	s4,s4,0x3
    80003c14:	0ff2f293          	zext.b	t0,t0
    80003c18:	003f1f13          	sll	t5,t5,0x3
    80003c1c:	10040413          	add	s0,s0,256
    80003c20:	0fffff93          	zext.b	t6,t6
    80003c24:	0186d69b          	srlw	a3,a3,0x18
    80003c28:	01855e9b          	srlw	t4,a0,0x18
    80003c2c:	0187531b          	srlw	t1,a4,0x18
    80003c30:	018e5e1b          	srlw	t3,t3,0x18
    80003c34:	01678b33          	add	s6,a5,s6
    80003c38:	01578ab3          	add	s5,a5,s5
    80003c3c:	01478a33          	add	s4,a5,s4
    80003c40:	01e78f33          	add	t5,a5,t5
    80003c44:	00399993          	sll	s3,s3,0x3
    80003c48:	20038393          	add	t2,t2,512
    80003c4c:	00391913          	sll	s2,s2,0x3
    80003c50:	200c8c93          	add	s9,s9,512
    80003c54:	00349493          	sll	s1,s1,0x3
    80003c58:	20028293          	add	t0,t0,512
    80003c5c:	00341413          	sll	s0,s0,0x3
    80003c60:	200f8f93          	add	t6,t6,512
    80003c64:	01083883          	ld	a7,16(a6)
    80003c68:	000b3c03          	ld	s8,0(s6)
    80003c6c:	000abb83          	ld	s7,0(s5)
    80003c70:	000a3b03          	ld	s6,0(s4)
    80003c74:	000f3a83          	ld	s5,0(t5)
    80003c78:	00083503          	ld	a0,0(a6)
    80003c7c:	00883703          	ld	a4,8(a6)
    80003c80:	01883603          	ld	a2,24(a6)
    80003c84:	013789b3          	add	s3,a5,s3
    80003c88:	30068f13          	add	t5,a3,768
    80003c8c:	01278933          	add	s2,a5,s2
    80003c90:	009784b3          	add	s1,a5,s1
    80003c94:	00878433          	add	s0,a5,s0
    80003c98:	300e0693          	add	a3,t3,768
    80003c9c:	00339393          	sll	t2,t2,0x3
    80003ca0:	003c9c93          	sll	s9,s9,0x3
    80003ca4:	300e8e93          	add	t4,t4,768
    80003ca8:	00329293          	sll	t0,t0,0x3
    80003cac:	30030313          	add	t1,t1,768
    80003cb0:	003f9f93          	sll	t6,t6,0x3
    80003cb4:	0009ba03          	ld	s4,0(s3)
    80003cb8:	007783b3          	add	t2,a5,t2
    80003cbc:	00093983          	ld	s3,0(s2)
    80003cc0:	01978cb3          	add	s9,a5,s9
    80003cc4:	0004b903          	ld	s2,0(s1)
    80003cc8:	003f1f13          	sll	t5,t5,0x3
    80003ccc:	00043483          	ld	s1,0(s0)
    80003cd0:	003e9e93          	sll	t4,t4,0x3
    80003cd4:	005782b3          	add	t0,a5,t0
    80003cd8:	00331313          	sll	t1,t1,0x3
    80003cdc:	01f78fb3          	add	t6,a5,t6
    80003ce0:	00369693          	sll	a3,a3,0x3
    80003ce4:	0003b403          	ld	s0,0(t2)
    80003ce8:	0002b283          	ld	t0,0(t0)
    80003cec:	000cb383          	ld	t2,0(s9)
    80003cf0:	000fbf83          	ld	t6,0(t6)
    80003cf4:	00678333          	add	t1,a5,t1
    80003cf8:	00d786b3          	add	a3,a5,a3
    80003cfc:	01e78f33          	add	t5,a5,t5
    80003d00:	01d78eb3          	add	t4,a5,t4
    80003d04:	00033e03          	ld	t3,0(t1)
    80003d08:	000f3f03          	ld	t5,0(t5)
    80003d0c:	0006b303          	ld	t1,0(a3)
    80003d10:	000ebe83          	ld	t4,0(t4)
    80003d14:	0168c6b3          	xor	a3,a7,s6
    80003d18:	01854533          	xor	a0,a0,s8
    80003d1c:	01774733          	xor	a4,a4,s7
    80003d20:	01564633          	xor	a2,a2,s5
    80003d24:	01454533          	xor	a0,a0,s4
    80003d28:	01374733          	xor	a4,a4,s3
    80003d2c:	0126c6b3          	xor	a3,a3,s2
    80003d30:	00964633          	xor	a2,a2,s1
    80003d34:	00854533          	xor	a0,a0,s0
    80003d38:	00774733          	xor	a4,a4,t2
    80003d3c:	0056c6b3          	xor	a3,a3,t0
    80003d40:	01f64633          	xor	a2,a2,t6
    80003d44:	01e54533          	xor	a0,a0,t5
    80003d48:	01d74733          	xor	a4,a4,t4
    80003d4c:	01c6c6b3          	xor	a3,a3,t3
    80003d50:	00664633          	xor	a2,a2,t1
    80003d54:	00865f13          	srl	t5,a2,0x8
    80003d58:	0106de93          	srl	t4,a3,0x10
    80003d5c:	00855e13          	srl	t3,a0,0x8
    80003d60:	01065313          	srl	t1,a2,0x10
    80003d64:	00875893          	srl	a7,a4,0x8
    80003d68:	01875c9b          	srlw	s9,a4,0x18
    80003d6c:	0ffe7e13          	zext.b	t3,t3
    80003d70:	0ff37313          	zext.b	t1,t1
    80003d74:	0186db1b          	srlw	s6,a3,0x18
    80003d78:	0ff8f893          	zext.b	a7,a7
    80003d7c:	0086d293          	srl	t0,a3,0x8
    80003d80:	0fff7f13          	zext.b	t5,t5
    80003d84:	0ffefe93          	zext.b	t4,t4
    80003d88:	0ff57413          	zext.b	s0,a0
    80003d8c:	0ff77b93          	zext.b	s7,a4
    80003d90:	100e0993          	add	s3,t3,256
    80003d94:	20030393          	add	t2,t1,512
    80003d98:	10088913          	add	s2,a7,256
    80003d9c:	01055f93          	srl	t6,a0,0x10
    80003da0:	0ff67a93          	zext.b	s5,a2
    80003da4:	100f0f13          	add	t5,t5,256
    80003da8:	200e8e93          	add	t4,t4,512
    80003dac:	300c8c93          	add	s9,s9,768
    80003db0:	300b0b13          	add	s6,s6,768
    80003db4:	0ff6f693          	zext.b	a3,a3
    80003db8:	0ff2f293          	zext.b	t0,t0
    80003dbc:	01075713          	srl	a4,a4,0x10
    80003dc0:	0ff77713          	zext.b	a4,a4
    80003dc4:	00341413          	sll	s0,s0,0x3
    80003dc8:	003f1f13          	sll	t5,t5,0x3
    80003dcc:	003e9e93          	sll	t4,t4,0x3
    80003dd0:	003c9c93          	sll	s9,s9,0x3
    80003dd4:	003b9b93          	sll	s7,s7,0x3
    80003dd8:	00399993          	sll	s3,s3,0x3
    80003ddc:	00339393          	sll	t2,t2,0x3
    80003de0:	003b1b13          	sll	s6,s6,0x3
    80003de4:	00369693          	sll	a3,a3,0x3
    80003de8:	00391913          	sll	s2,s2,0x3
    80003dec:	0fffff93          	zext.b	t6,t6
    80003df0:	003a9a93          	sll	s5,s5,0x3
    80003df4:	10028293          	add	t0,t0,256
    80003df8:	0185549b          	srlw	s1,a0,0x18
    80003dfc:	00878433          	add	s0,a5,s0
    80003e00:	01e78f33          	add	t5,a5,t5
    80003e04:	01d78eb3          	add	t4,a5,t4
    80003e08:	01678b33          	add	s6,a5,s6
    80003e0c:	00d786b3          	add	a3,a5,a3
    80003e10:	0186589b          	srlw	a7,a2,0x18
    80003e14:	20070313          	add	t1,a4,512
    80003e18:	01978cb3          	add	s9,a5,s9
    80003e1c:	01778bb3          	add	s7,a5,s7
    80003e20:	013789b3          	add	s3,a5,s3
    80003e24:	007783b3          	add	t2,a5,t2
    80003e28:	01278933          	add	s2,a5,s2
    80003e2c:	200f8f93          	add	t6,t6,512
    80003e30:	01578ab3          	add	s5,a5,s5
    80003e34:	00329293          	sll	t0,t0,0x3
    80003e38:	02883603          	ld	a2,40(a6)
    80003e3c:	02083e03          	ld	t3,32(a6)
    80003e40:	03083503          	ld	a0,48(a6)
    80003e44:	00043c03          	ld	s8,0(s0)
    80003e48:	000f3a03          	ld	s4,0(t5)
    80003e4c:	000eb403          	ld	s0,0(t4)
    80003e50:	000cbf03          	ld	t5,0(s9)
    80003e54:	000b3e83          	ld	t4,0(s6)
    80003e58:	000bbb83          	ld	s7,0(s7)
    80003e5c:	0006bb03          	ld	s6,0(a3)
    80003e60:	0009b983          	ld	s3,0(s3)
    80003e64:	0003b383          	ld	t2,0(t2)
    80003e68:	005782b3          	add	t0,a5,t0
    80003e6c:	00093903          	ld	s2,0(s2)
    80003e70:	30048693          	add	a3,s1,768
    80003e74:	03883703          	ld	a4,56(a6)
    80003e78:	000aba83          	ld	s5,0(s5)
    80003e7c:	003f9f93          	sll	t6,t6,0x3
    80003e80:	30088893          	add	a7,a7,768
    80003e84:	00331313          	sll	t1,t1,0x3
    80003e88:	0002b483          	ld	s1,0(t0)
    80003e8c:	01f78fb3          	add	t6,a5,t6
    80003e90:	00678333          	add	t1,a5,t1
    80003e94:	00389893          	sll	a7,a7,0x3
    80003e98:	00369693          	sll	a3,a3,0x3
    80003e9c:	000fb283          	ld	t0,0(t6)
    80003ea0:	011788b3          	add	a7,a5,a7
    80003ea4:	00033f83          	ld	t6,0(t1)
    80003ea8:	00d786b3          	add	a3,a5,a3
    80003eac:	0008b303          	ld	t1,0(a7)
    80003eb0:	018e4e33          	xor	t3,t3,s8
    80003eb4:	0006b883          	ld	a7,0(a3)
    80003eb8:	01654533          	xor	a0,a0,s6
    80003ebc:	017646b3          	xor	a3,a2,s7
    80003ec0:	01574733          	xor	a4,a4,s5
    80003ec4:	014e4633          	xor	a2,t3,s4
    80003ec8:	0136c6b3          	xor	a3,a3,s3
    80003ecc:	01254533          	xor	a0,a0,s2
    80003ed0:	00974733          	xor	a4,a4,s1
    80003ed4:	00864633          	xor	a2,a2,s0
    80003ed8:	0076c6b3          	xor	a3,a3,t2
    80003edc:	00554533          	xor	a0,a0,t0
    80003ee0:	01f74733          	xor	a4,a4,t6
    80003ee4:	01e64e33          	xor	t3,a2,t5
    80003ee8:	01d6c6b3          	xor	a3,a3,t4
    80003eec:	00654533          	xor	a0,a0,t1
    80003ef0:	01174733          	xor	a4,a4,a7
    80003ef4:	04080813          	add	a6,a6,64
    80003ef8:	851fe06f          	j	80002748 <decrypt+0x190>
    80003efc:	01a13c23          	sd	s10,24(sp)
    80003f00:	01b13823          	sd	s11,16(sp)
    80003f04:	00015797          	auipc	a5,0x15
    80003f08:	24478793          	add	a5,a5,580 # 80019148 <it_tab>
    80003f0c:	ca9ff06f          	j	80003bb4 <decrypt+0x15fc>

0000000080003f10 <fillrand>:
    80003f10:	0001b797          	auipc	a5,0x1b
    80003f14:	9f07b783          	ld	a5,-1552(a5) # 8001e900 <mt.3>
    80003f18:	02078463          	beqz	a5,80003f40 <fillrand+0x30>
    80003f1c:	0000f737          	lui	a4,0xf
    80003f20:	000037b7          	lui	a5,0x3
    80003f24:	8f018693          	add	a3,gp,-1808 # 8001e9e8 <a.2>
    80003f28:	af370713          	add	a4,a4,-1293 # eaf3 <__stack_shift+0xeadc>
    80003f2c:	5fe78793          	add	a5,a5,1534 # 35fe <__stack_shift+0x35e7>
    80003f30:	0001b617          	auipc	a2,0x1b
    80003f34:	9c063823          	sd	zero,-1584(a2) # 8001e900 <mt.3>
    80003f38:	00e6b023          	sd	a4,0(a3)
    80003f3c:	00f6b423          	sd	a5,8(a3)
    80003f40:	0eb05263          	blez	a1,80004024 <fillrand+0x114>
    80003f44:	ff010113          	add	sp,sp,-16
    80003f48:	00813423          	sd	s0,8(sp)
    80003f4c:	00913023          	sd	s1,0(sp)
    80003f50:	8f018413          	add	s0,gp,-1808 # 8001e9e8 <a.2>
    80003f54:	0001b497          	auipc	s1,0x1b
    80003f58:	9a448493          	add	s1,s1,-1628 # 8001e8f8 <count.1>
    80003f5c:	00043703          	ld	a4,0(s0)
    80003f60:	00843683          	ld	a3,8(s0)
    80003f64:	0004b783          	ld	a5,0(s1)
    80003f68:	000092b7          	lui	t0,0x9
    80003f6c:	00004fb7          	lui	t6,0x4
    80003f70:	00010637          	lui	a2,0x10
    80003f74:	00b505b3          	add	a1,a0,a1
    80003f78:	00000393          	li	t2,0
    80003f7c:	8a018313          	add	t1,gp,-1888 # 8001e998 <r.0>
    80003f80:	00400f13          	li	t5,4
    80003f84:	fff60613          	add	a2,a2,-1 # ffff <__stack_shift+0xffe8>
    80003f88:	06928293          	add	t0,t0,105 # 9069 <__stack_shift+0x9052>
    80003f8c:	650f8f93          	add	t6,t6,1616 # 4650 <__stack_shift+0x4639>
    80003f90:	00c778b3          	and	a7,a4,a2
    80003f94:	00c6f833          	and	a6,a3,a2
    80003f98:	01075e93          	srl	t4,a4,0x10
    80003f9c:	0106de13          	srl	t3,a3,0x10
    80003fa0:	03e79a63          	bne	a5,t5,80003fd4 <fillrand+0xc4>
    80003fa4:	025888b3          	mul	a7,a7,t0
    80003fa8:	00150513          	add	a0,a0,1
    80003fac:	00100793          	li	a5,1
    80003fb0:	00100393          	li	t2,1
    80003fb4:	03f80833          	mul	a6,a6,t6
    80003fb8:	01d88733          	add	a4,a7,t4
    80003fbc:	01071893          	sll	a7,a4,0x10
    80003fc0:	01c806b3          	add	a3,a6,t3
    80003fc4:	00d88833          	add	a6,a7,a3
    80003fc8:	01033023          	sd	a6,0(t1)
    80003fcc:	ff050fa3          	sb	a6,-1(a0)
    80003fd0:	02a58a63          	beq	a1,a0,80004004 <fillrand+0xf4>
    80003fd4:	00f30833          	add	a6,t1,a5
    80003fd8:	00084803          	lbu	a6,0(a6)
    80003fdc:	00150513          	add	a0,a0,1
    80003fe0:	00178793          	add	a5,a5,1
    80003fe4:	ff050fa3          	sb	a6,-1(a0)
    80003fe8:	faa594e3          	bne	a1,a0,80003f90 <fillrand+0x80>
    80003fec:	00f4b023          	sd	a5,0(s1)
    80003ff0:	00039e63          	bnez	t2,8000400c <fillrand+0xfc>
    80003ff4:	00813403          	ld	s0,8(sp)
    80003ff8:	00013483          	ld	s1,0(sp)
    80003ffc:	01010113          	add	sp,sp,16
    80004000:	00008067          	ret
    80004004:	00100793          	li	a5,1
    80004008:	00f4b023          	sd	a5,0(s1)
    8000400c:	00d43423          	sd	a3,8(s0)
    80004010:	00e43023          	sd	a4,0(s0)
    80004014:	00813403          	ld	s0,8(sp)
    80004018:	00013483          	ld	s1,0(sp)
    8000401c:	01010113          	add	sp,sp,16
    80004020:	00008067          	ret
    80004024:	00008067          	ret

0000000080004028 <encfile>:
    80004028:	f8010113          	add	sp,sp,-128
    8000402c:	03713c23          	sd	s7,56(sp)
    80004030:	0001bb97          	auipc	s7,0x1b
    80004034:	8d0b8b93          	add	s7,s7,-1840 # 8001e900 <mt.3>
    80004038:	000bb783          	ld	a5,0(s7)
    8000403c:	06913423          	sd	s1,104(sp)
    80004040:	07213023          	sd	s2,96(sp)
    80004044:	05313c23          	sd	s3,88(sp)
    80004048:	05413823          	sd	s4,80(sp)
    8000404c:	06113c23          	sd	ra,120(sp)
    80004050:	06813823          	sd	s0,112(sp)
    80004054:	05513423          	sd	s5,72(sp)
    80004058:	05613023          	sd	s6,64(sp)
    8000405c:	00050493          	mv	s1,a0
    80004060:	00058913          	mv	s2,a1
    80004064:	00060993          	mv	s3,a2
    80004068:	00068a13          	mv	s4,a3
    8000406c:	20079463          	bnez	a5,80004274 <encfile+0x24c>
    80004070:	0001bb17          	auipc	s6,0x1b
    80004074:	888b0b13          	add	s6,s6,-1912 # 8001e8f8 <count.1>
    80004078:	000b3683          	ld	a3,0(s6)
    8000407c:	8f018a93          	add	s5,gp,-1808 # 8001e9e8 <a.2>
    80004080:	00400613          	li	a2,4
    80004084:	000ab783          	ld	a5,0(s5)
    80004088:	008ab703          	ld	a4,8(s5)
    8000408c:	22c68063          	beq	a3,a2,800042ac <encfile+0x284>
    80004090:	8a018413          	add	s0,gp,-1888 # 8001e998 <r.0>
    80004094:	00d405b3          	add	a1,s0,a3
    80004098:	0005c503          	lbu	a0,0(a1)
    8000409c:	00168593          	add	a1,a3,1
    800040a0:	02a10023          	sb	a0,32(sp)
    800040a4:	3cc59863          	bne	a1,a2,80004474 <encfile+0x44c>
    800040a8:	000106b7          	lui	a3,0x10
    800040ac:	fff68693          	add	a3,a3,-1 # ffff <__stack_shift+0xffe8>
    800040b0:	00009637          	lui	a2,0x9
    800040b4:	00d7f533          	and	a0,a5,a3
    800040b8:	06960613          	add	a2,a2,105 # 9069 <__stack_shift+0x9052>
    800040bc:	00004837          	lui	a6,0x4
    800040c0:	02c50533          	mul	a0,a0,a2
    800040c4:	00d775b3          	and	a1,a4,a3
    800040c8:	65080813          	add	a6,a6,1616 # 4650 <__stack_shift+0x4639>
    800040cc:	0107d793          	srl	a5,a5,0x10
    800040d0:	01075713          	srl	a4,a4,0x10
    800040d4:	00300693          	li	a3,3
    800040d8:	00100613          	li	a2,1
    800040dc:	030585b3          	mul	a1,a1,a6
    800040e0:	00f507b3          	add	a5,a0,a5
    800040e4:	01079513          	sll	a0,a5,0x10
    800040e8:	00e58733          	add	a4,a1,a4
    800040ec:	00e505b3          	add	a1,a0,a4
    800040f0:	00b43023          	sd	a1,0(s0)
    800040f4:	0085d81b          	srlw	a6,a1,0x8
    800040f8:	0105d51b          	srlw	a0,a1,0x10
    800040fc:	02b100a3          	sb	a1,33(sp)
    80004100:	03010123          	sb	a6,34(sp)
    80004104:	02a101a3          	sb	a0,35(sp)
    80004108:	00d405b3          	add	a1,s0,a3
    8000410c:	0005c503          	lbu	a0,0(a1)
    80004110:	00168693          	add	a3,a3,1
    80004114:	00400593          	li	a1,4
    80004118:	02a10223          	sb	a0,36(sp)
    8000411c:	3cb69263          	bne	a3,a1,800044e0 <encfile+0x4b8>
    80004120:	000106b7          	lui	a3,0x10
    80004124:	fff68693          	add	a3,a3,-1 # ffff <__stack_shift+0xffe8>
    80004128:	00009637          	lui	a2,0x9
    8000412c:	00d7f533          	and	a0,a5,a3
    80004130:	06960613          	add	a2,a2,105 # 9069 <__stack_shift+0x9052>
    80004134:	00004837          	lui	a6,0x4
    80004138:	02c50533          	mul	a0,a0,a2
    8000413c:	00d775b3          	and	a1,a4,a3
    80004140:	65080813          	add	a6,a6,1616 # 4650 <__stack_shift+0x4639>
    80004144:	0107d793          	srl	a5,a5,0x10
    80004148:	01075713          	srl	a4,a4,0x10
    8000414c:	00300693          	li	a3,3
    80004150:	00100613          	li	a2,1
    80004154:	030585b3          	mul	a1,a1,a6
    80004158:	00f507b3          	add	a5,a0,a5
    8000415c:	01079513          	sll	a0,a5,0x10
    80004160:	00e58733          	add	a4,a1,a4
    80004164:	00e505b3          	add	a1,a0,a4
    80004168:	00b43023          	sd	a1,0(s0)
    8000416c:	0085d81b          	srlw	a6,a1,0x8
    80004170:	0105d51b          	srlw	a0,a1,0x10
    80004174:	02b102a3          	sb	a1,37(sp)
    80004178:	03010323          	sb	a6,38(sp)
    8000417c:	02a103a3          	sb	a0,39(sp)
    80004180:	00d405b3          	add	a1,s0,a3
    80004184:	0005c503          	lbu	a0,0(a1)
    80004188:	00168693          	add	a3,a3,1
    8000418c:	00400593          	li	a1,4
    80004190:	02a10423          	sb	a0,40(sp)
    80004194:	3ab69e63          	bne	a3,a1,80004550 <encfile+0x528>
    80004198:	000106b7          	lui	a3,0x10
    8000419c:	fff68693          	add	a3,a3,-1 # ffff <__stack_shift+0xffe8>
    800041a0:	00009637          	lui	a2,0x9
    800041a4:	00d7f533          	and	a0,a5,a3
    800041a8:	06960613          	add	a2,a2,105 # 9069 <__stack_shift+0x9052>
    800041ac:	00004837          	lui	a6,0x4
    800041b0:	02c50533          	mul	a0,a0,a2
    800041b4:	00d775b3          	and	a1,a4,a3
    800041b8:	65080813          	add	a6,a6,1616 # 4650 <__stack_shift+0x4639>
    800041bc:	0107d793          	srl	a5,a5,0x10
    800041c0:	01075713          	srl	a4,a4,0x10
    800041c4:	00300693          	li	a3,3
    800041c8:	00100613          	li	a2,1
    800041cc:	030585b3          	mul	a1,a1,a6
    800041d0:	00f507b3          	add	a5,a0,a5
    800041d4:	01079513          	sll	a0,a5,0x10
    800041d8:	00e58733          	add	a4,a1,a4
    800041dc:	00e505b3          	add	a1,a0,a4
    800041e0:	00b43023          	sd	a1,0(s0)
    800041e4:	0085d81b          	srlw	a6,a1,0x8
    800041e8:	0105d51b          	srlw	a0,a1,0x10
    800041ec:	02b104a3          	sb	a1,41(sp)
    800041f0:	03010523          	sb	a6,42(sp)
    800041f4:	02a105a3          	sb	a0,43(sp)
    800041f8:	00d405b3          	add	a1,s0,a3
    800041fc:	0005c503          	lbu	a0,0(a1)
    80004200:	00168693          	add	a3,a3,1
    80004204:	00400593          	li	a1,4
    80004208:	02a10623          	sb	a0,44(sp)
    8000420c:	3ab69a63          	bne	a3,a1,800045c0 <encfile+0x598>
    80004210:	000106b7          	lui	a3,0x10
    80004214:	fff68693          	add	a3,a3,-1 # ffff <__stack_shift+0xffe8>
    80004218:	00009537          	lui	a0,0x9
    8000421c:	00d7f633          	and	a2,a5,a3
    80004220:	06950513          	add	a0,a0,105 # 9069 <__stack_shift+0x9052>
    80004224:	000045b7          	lui	a1,0x4
    80004228:	02a60633          	mul	a2,a2,a0
    8000422c:	00d776b3          	and	a3,a4,a3
    80004230:	65058593          	add	a1,a1,1616 # 4650 <__stack_shift+0x4639>
    80004234:	0107d793          	srl	a5,a5,0x10
    80004238:	01075713          	srl	a4,a4,0x10
    8000423c:	00300513          	li	a0,3
    80004240:	00ab3023          	sd	a0,0(s6)
    80004244:	02b686b3          	mul	a3,a3,a1
    80004248:	00f607b3          	add	a5,a2,a5
    8000424c:	01079613          	sll	a2,a5,0x10
    80004250:	00e68733          	add	a4,a3,a4
    80004254:	00e606b3          	add	a3,a2,a4
    80004258:	00d43023          	sd	a3,0(s0)
    8000425c:	0086d59b          	srlw	a1,a3,0x8
    80004260:	0106d61b          	srlw	a2,a3,0x10
    80004264:	02d106a3          	sb	a3,45(sp)
    80004268:	02b10723          	sb	a1,46(sp)
    8000426c:	02c107a3          	sb	a2,47(sp)
    80004270:	3b80006f          	j	80004628 <encfile+0x600>
    80004274:	0001a697          	auipc	a3,0x1a
    80004278:	6806b623          	sd	zero,1676(a3) # 8001e900 <mt.3>
    8000427c:	0001ab17          	auipc	s6,0x1a
    80004280:	67cb0b13          	add	s6,s6,1660 # 8001e8f8 <count.1>
    80004284:	0000f7b7          	lui	a5,0xf
    80004288:	00003737          	lui	a4,0x3
    8000428c:	000b3683          	ld	a3,0(s6)
    80004290:	8f018a93          	add	s5,gp,-1808 # 8001e9e8 <a.2>
    80004294:	af378793          	add	a5,a5,-1293 # eaf3 <__stack_shift+0xeadc>
    80004298:	5fe70713          	add	a4,a4,1534 # 35fe <__stack_shift+0x35e7>
    8000429c:	00fab023          	sd	a5,0(s5)
    800042a0:	00eab423          	sd	a4,8(s5)
    800042a4:	00400613          	li	a2,4
    800042a8:	dec694e3          	bne	a3,a2,80004090 <encfile+0x68>
    800042ac:	000106b7          	lui	a3,0x10
    800042b0:	fff68693          	add	a3,a3,-1 # ffff <__stack_shift+0xffe8>
    800042b4:	00009637          	lui	a2,0x9
    800042b8:	00d7f533          	and	a0,a5,a3
    800042bc:	06960613          	add	a2,a2,105 # 9069 <__stack_shift+0x9052>
    800042c0:	00004837          	lui	a6,0x4
    800042c4:	02c50533          	mul	a0,a0,a2
    800042c8:	00d775b3          	and	a1,a4,a3
    800042cc:	65080813          	add	a6,a6,1616 # 4650 <__stack_shift+0x4639>
    800042d0:	0107d793          	srl	a5,a5,0x10
    800042d4:	01075713          	srl	a4,a4,0x10
    800042d8:	8a018413          	add	s0,gp,-1888 # 8001e998 <r.0>
    800042dc:	00300693          	li	a3,3
    800042e0:	00100613          	li	a2,1
    800042e4:	030585b3          	mul	a1,a1,a6
    800042e8:	00f507b3          	add	a5,a0,a5
    800042ec:	01079513          	sll	a0,a5,0x10
    800042f0:	00e58733          	add	a4,a1,a4
    800042f4:	00e505b3          	add	a1,a0,a4
    800042f8:	00b43023          	sd	a1,0(s0)
    800042fc:	0105d51b          	srlw	a0,a1,0x10
    80004300:	02b11023          	sh	a1,32(sp)
    80004304:	02a10123          	sb	a0,34(sp)
    80004308:	00d405b3          	add	a1,s0,a3
    8000430c:	0005c503          	lbu	a0,0(a1)
    80004310:	00168693          	add	a3,a3,1
    80004314:	00400593          	li	a1,4
    80004318:	02a101a3          	sb	a0,35(sp)
    8000431c:	deb696e3          	bne	a3,a1,80004108 <encfile+0xe0>
    80004320:	000106b7          	lui	a3,0x10
    80004324:	fff68693          	add	a3,a3,-1 # ffff <__stack_shift+0xffe8>
    80004328:	00009637          	lui	a2,0x9
    8000432c:	00d7f533          	and	a0,a5,a3
    80004330:	06960613          	add	a2,a2,105 # 9069 <__stack_shift+0x9052>
    80004334:	00004837          	lui	a6,0x4
    80004338:	02c50533          	mul	a0,a0,a2
    8000433c:	00d775b3          	and	a1,a4,a3
    80004340:	65080813          	add	a6,a6,1616 # 4650 <__stack_shift+0x4639>
    80004344:	0107d793          	srl	a5,a5,0x10
    80004348:	01075713          	srl	a4,a4,0x10
    8000434c:	00300693          	li	a3,3
    80004350:	00100613          	li	a2,1
    80004354:	030585b3          	mul	a1,a1,a6
    80004358:	00f507b3          	add	a5,a0,a5
    8000435c:	01079513          	sll	a0,a5,0x10
    80004360:	00e58733          	add	a4,a1,a4
    80004364:	00e505b3          	add	a1,a0,a4
    80004368:	00b43023          	sd	a1,0(s0)
    8000436c:	0105d51b          	srlw	a0,a1,0x10
    80004370:	02b11223          	sh	a1,36(sp)
    80004374:	02a10323          	sb	a0,38(sp)
    80004378:	00d405b3          	add	a1,s0,a3
    8000437c:	0005c503          	lbu	a0,0(a1)
    80004380:	00168693          	add	a3,a3,1
    80004384:	00400593          	li	a1,4
    80004388:	02a103a3          	sb	a0,39(sp)
    8000438c:	deb69ae3          	bne	a3,a1,80004180 <encfile+0x158>
    80004390:	000106b7          	lui	a3,0x10
    80004394:	fff68693          	add	a3,a3,-1 # ffff <__stack_shift+0xffe8>
    80004398:	00009637          	lui	a2,0x9
    8000439c:	00d7f533          	and	a0,a5,a3
    800043a0:	06960613          	add	a2,a2,105 # 9069 <__stack_shift+0x9052>
    800043a4:	00004837          	lui	a6,0x4
    800043a8:	02c50533          	mul	a0,a0,a2
    800043ac:	00d775b3          	and	a1,a4,a3
    800043b0:	65080813          	add	a6,a6,1616 # 4650 <__stack_shift+0x4639>
    800043b4:	0107d793          	srl	a5,a5,0x10
    800043b8:	01075713          	srl	a4,a4,0x10
    800043bc:	00300693          	li	a3,3
    800043c0:	00100613          	li	a2,1
    800043c4:	030585b3          	mul	a1,a1,a6
    800043c8:	00f507b3          	add	a5,a0,a5
    800043cc:	01079513          	sll	a0,a5,0x10
    800043d0:	00e58733          	add	a4,a1,a4
    800043d4:	00e505b3          	add	a1,a0,a4
    800043d8:	00b43023          	sd	a1,0(s0)
    800043dc:	0105d51b          	srlw	a0,a1,0x10
    800043e0:	02b11423          	sh	a1,40(sp)
    800043e4:	02a10523          	sb	a0,42(sp)
    800043e8:	00d405b3          	add	a1,s0,a3
    800043ec:	0005c503          	lbu	a0,0(a1)
    800043f0:	00168693          	add	a3,a3,1
    800043f4:	00400593          	li	a1,4
    800043f8:	02a105a3          	sb	a0,43(sp)
    800043fc:	deb69ee3          	bne	a3,a1,800041f8 <encfile+0x1d0>
    80004400:	000106b7          	lui	a3,0x10
    80004404:	fff68693          	add	a3,a3,-1 # ffff <__stack_shift+0xffe8>
    80004408:	00009637          	lui	a2,0x9
    8000440c:	00d7f533          	and	a0,a5,a3
    80004410:	06960613          	add	a2,a2,105 # 9069 <__stack_shift+0x9052>
    80004414:	00004837          	lui	a6,0x4
    80004418:	02c50533          	mul	a0,a0,a2
    8000441c:	00d775b3          	and	a1,a4,a3
    80004420:	65080813          	add	a6,a6,1616 # 4650 <__stack_shift+0x4639>
    80004424:	0107d793          	srl	a5,a5,0x10
    80004428:	01075713          	srl	a4,a4,0x10
    8000442c:	00300693          	li	a3,3
    80004430:	00100613          	li	a2,1
    80004434:	030585b3          	mul	a1,a1,a6
    80004438:	00f507b3          	add	a5,a0,a5
    8000443c:	01079513          	sll	a0,a5,0x10
    80004440:	00e58733          	add	a4,a1,a4
    80004444:	00e505b3          	add	a1,a0,a4
    80004448:	00b43023          	sd	a1,0(s0)
    8000444c:	0105d51b          	srlw	a0,a1,0x10
    80004450:	02b11623          	sh	a1,44(sp)
    80004454:	02a10723          	sb	a0,46(sp)
    80004458:	00d405b3          	add	a1,s0,a3
    8000445c:	0005c583          	lbu	a1,0(a1)
    80004460:	00168693          	add	a3,a3,1
    80004464:	00db3023          	sd	a3,0(s6)
    80004468:	02b107a3          	sb	a1,47(sp)
    8000446c:	1c060263          	beqz	a2,80004630 <encfile+0x608>
    80004470:	1b80006f          	j	80004628 <encfile+0x600>
    80004474:	00b405b3          	add	a1,s0,a1
    80004478:	0005c503          	lbu	a0,0(a1)
    8000447c:	00268593          	add	a1,a3,2
    80004480:	02a100a3          	sb	a0,33(sp)
    80004484:	48c59c63          	bne	a1,a2,8000491c <encfile+0x8f4>
    80004488:	000106b7          	lui	a3,0x10
    8000448c:	fff68693          	add	a3,a3,-1 # ffff <__stack_shift+0xffe8>
    80004490:	00009637          	lui	a2,0x9
    80004494:	00d7f533          	and	a0,a5,a3
    80004498:	06960613          	add	a2,a2,105 # 9069 <__stack_shift+0x9052>
    8000449c:	00004837          	lui	a6,0x4
    800044a0:	02c50533          	mul	a0,a0,a2
    800044a4:	00d775b3          	and	a1,a4,a3
    800044a8:	65080813          	add	a6,a6,1616 # 4650 <__stack_shift+0x4639>
    800044ac:	0107d793          	srl	a5,a5,0x10
    800044b0:	01075713          	srl	a4,a4,0x10
    800044b4:	00300693          	li	a3,3
    800044b8:	00100613          	li	a2,1
    800044bc:	030585b3          	mul	a1,a1,a6
    800044c0:	00f507b3          	add	a5,a0,a5
    800044c4:	01079513          	sll	a0,a5,0x10
    800044c8:	00e58733          	add	a4,a1,a4
    800044cc:	00e505b3          	add	a1,a0,a4
    800044d0:	00b43023          	sd	a1,0(s0)
    800044d4:	0105d51b          	srlw	a0,a1,0x10
    800044d8:	02b11123          	sh	a1,34(sp)
    800044dc:	02a10223          	sb	a0,36(sp)
    800044e0:	00d405b3          	add	a1,s0,a3
    800044e4:	0005c503          	lbu	a0,0(a1)
    800044e8:	00168693          	add	a3,a3,1
    800044ec:	00400593          	li	a1,4
    800044f0:	02a102a3          	sb	a0,37(sp)
    800044f4:	48b69e63          	bne	a3,a1,80004990 <encfile+0x968>
    800044f8:	000106b7          	lui	a3,0x10
    800044fc:	fff68693          	add	a3,a3,-1 # ffff <__stack_shift+0xffe8>
    80004500:	00009637          	lui	a2,0x9
    80004504:	00d7f533          	and	a0,a5,a3
    80004508:	06960613          	add	a2,a2,105 # 9069 <__stack_shift+0x9052>
    8000450c:	00004837          	lui	a6,0x4
    80004510:	02c50533          	mul	a0,a0,a2
    80004514:	00d775b3          	and	a1,a4,a3
    80004518:	65080813          	add	a6,a6,1616 # 4650 <__stack_shift+0x4639>
    8000451c:	0107d793          	srl	a5,a5,0x10
    80004520:	01075713          	srl	a4,a4,0x10
    80004524:	00300693          	li	a3,3
    80004528:	00100613          	li	a2,1
    8000452c:	030585b3          	mul	a1,a1,a6
    80004530:	00f507b3          	add	a5,a0,a5
    80004534:	01079513          	sll	a0,a5,0x10
    80004538:	00e58733          	add	a4,a1,a4
    8000453c:	00e505b3          	add	a1,a0,a4
    80004540:	00b43023          	sd	a1,0(s0)
    80004544:	0105d51b          	srlw	a0,a1,0x10
    80004548:	02b11323          	sh	a1,38(sp)
    8000454c:	02a10423          	sb	a0,40(sp)
    80004550:	00d405b3          	add	a1,s0,a3
    80004554:	0005c503          	lbu	a0,0(a1)
    80004558:	00168693          	add	a3,a3,1
    8000455c:	00400593          	li	a1,4
    80004560:	02a104a3          	sb	a0,41(sp)
    80004564:	4ab69263          	bne	a3,a1,80004a08 <encfile+0x9e0>
    80004568:	000106b7          	lui	a3,0x10
    8000456c:	fff68693          	add	a3,a3,-1 # ffff <__stack_shift+0xffe8>
    80004570:	00009637          	lui	a2,0x9
    80004574:	00d7f533          	and	a0,a5,a3
    80004578:	06960613          	add	a2,a2,105 # 9069 <__stack_shift+0x9052>
    8000457c:	00004837          	lui	a6,0x4
    80004580:	02c50533          	mul	a0,a0,a2
    80004584:	00d775b3          	and	a1,a4,a3
    80004588:	65080813          	add	a6,a6,1616 # 4650 <__stack_shift+0x4639>
    8000458c:	0107d793          	srl	a5,a5,0x10
    80004590:	01075713          	srl	a4,a4,0x10
    80004594:	00300693          	li	a3,3
    80004598:	00100613          	li	a2,1
    8000459c:	030585b3          	mul	a1,a1,a6
    800045a0:	00f507b3          	add	a5,a0,a5
    800045a4:	01079513          	sll	a0,a5,0x10
    800045a8:	00e58733          	add	a4,a1,a4
    800045ac:	00e505b3          	add	a1,a0,a4
    800045b0:	00b43023          	sd	a1,0(s0)
    800045b4:	0105d51b          	srlw	a0,a1,0x10
    800045b8:	02b11523          	sh	a1,42(sp)
    800045bc:	02a10623          	sb	a0,44(sp)
    800045c0:	00d405b3          	add	a1,s0,a3
    800045c4:	0005c503          	lbu	a0,0(a1)
    800045c8:	00168693          	add	a3,a3,1
    800045cc:	00400593          	li	a1,4
    800045d0:	02a106a3          	sb	a0,45(sp)
    800045d4:	4ab69663          	bne	a3,a1,80004a80 <encfile+0xa58>
    800045d8:	000106b7          	lui	a3,0x10
    800045dc:	fff68693          	add	a3,a3,-1 # ffff <__stack_shift+0xffe8>
    800045e0:	00009537          	lui	a0,0x9
    800045e4:	00d7f633          	and	a2,a5,a3
    800045e8:	06950513          	add	a0,a0,105 # 9069 <__stack_shift+0x9052>
    800045ec:	000045b7          	lui	a1,0x4
    800045f0:	02a60633          	mul	a2,a2,a0
    800045f4:	00d776b3          	and	a3,a4,a3
    800045f8:	65058593          	add	a1,a1,1616 # 4650 <__stack_shift+0x4639>
    800045fc:	0107d793          	srl	a5,a5,0x10
    80004600:	01075713          	srl	a4,a4,0x10
    80004604:	00200513          	li	a0,2
    80004608:	00ab3023          	sd	a0,0(s6)
    8000460c:	02b686b3          	mul	a3,a3,a1
    80004610:	00f607b3          	add	a5,a2,a5
    80004614:	01079613          	sll	a2,a5,0x10
    80004618:	00e68733          	add	a4,a3,a4
    8000461c:	00e606b3          	add	a3,a2,a4
    80004620:	00d43023          	sd	a3,0(s0)
    80004624:	02d11723          	sh	a3,46(sp)
    80004628:	00eab423          	sd	a4,8(s5)
    8000462c:	00fab023          	sd	a5,0(s5)
    80004630:	00200613          	li	a2,2
    80004634:	00000593          	li	a1,0
    80004638:	00048513          	mv	a0,s1
    8000463c:	2c4010ef          	jal	80005900 <fseek>
    80004640:	00810593          	add	a1,sp,8
    80004644:	00048513          	mv	a0,s1
    80004648:	30d000ef          	jal	80005154 <fgetpos>
    8000464c:	00000613          	li	a2,0
    80004650:	00000593          	li	a1,0
    80004654:	00048513          	mv	a0,s1
    80004658:	2a8010ef          	jal	80005900 <fseek>
    8000465c:	00090693          	mv	a3,s2
    80004660:	01000613          	li	a2,16
    80004664:	00100593          	li	a1,1
    80004668:	02010513          	add	a0,sp,32
    8000466c:	47c010ef          	jal	80005ae8 <fwrite>
    80004670:	000bb783          	ld	a5,0(s7)
    80004674:	02078263          	beqz	a5,80004698 <encfile+0x670>
    80004678:	0000f737          	lui	a4,0xf
    8000467c:	000037b7          	lui	a5,0x3
    80004680:	af370713          	add	a4,a4,-1293 # eaf3 <__stack_shift+0xeadc>
    80004684:	5fe78793          	add	a5,a5,1534 # 35fe <__stack_shift+0x35e7>
    80004688:	0001a697          	auipc	a3,0x1a
    8000468c:	2606bc23          	sd	zero,632(a3) # 8001e900 <mt.3>
    80004690:	00eab023          	sd	a4,0(s5)
    80004694:	00fab423          	sd	a5,8(s5)
    80004698:	000b3783          	ld	a5,0(s6)
    8000469c:	00400713          	li	a4,4
    800046a0:	00178613          	add	a2,a5,1
    800046a4:	06e79063          	bne	a5,a4,80004704 <encfile+0x6dc>
    800046a8:	000ab583          	ld	a1,0(s5)
    800046ac:	008ab603          	ld	a2,8(s5)
    800046b0:	000107b7          	lui	a5,0x10
    800046b4:	fff78793          	add	a5,a5,-1 # ffff <__stack_shift+0xffe8>
    800046b8:	00009737          	lui	a4,0x9
    800046bc:	00f5f6b3          	and	a3,a1,a5
    800046c0:	06970713          	add	a4,a4,105 # 9069 <__stack_shift+0x9052>
    800046c4:	00004837          	lui	a6,0x4
    800046c8:	02e686b3          	mul	a3,a3,a4
    800046cc:	65080813          	add	a6,a6,1616 # 4650 <__stack_shift+0x4639>
    800046d0:	00f67733          	and	a4,a2,a5
    800046d4:	0105d513          	srl	a0,a1,0x10
    800046d8:	01065593          	srl	a1,a2,0x10
    800046dc:	00000793          	li	a5,0
    800046e0:	00100613          	li	a2,1
    800046e4:	03070733          	mul	a4,a4,a6
    800046e8:	00a686b3          	add	a3,a3,a0
    800046ec:	01069513          	sll	a0,a3,0x10
    800046f0:	00dab023          	sd	a3,0(s5)
    800046f4:	00b70733          	add	a4,a4,a1
    800046f8:	00e506b3          	add	a3,a0,a4
    800046fc:	00eab423          	sd	a4,8(s5)
    80004700:	00d43023          	sd	a3,0(s0)
    80004704:	00f40433          	add	s0,s0,a5
    80004708:	00044703          	lbu	a4,0(s0)
    8000470c:	00813783          	ld	a5,8(sp)
    80004710:	00cb3023          	sd	a2,0(s6)
    80004714:	ff077713          	and	a4,a4,-16
    80004718:	00f7f793          	and	a5,a5,15
    8000471c:	00e7e7b3          	or	a5,a5,a4
    80004720:	00f10823          	sb	a5,16(sp)
    80004724:	00f00413          	li	s0,15
    80004728:	00000793          	li	a5,0
    8000472c:	01000a93          	li	s5,16
    80004730:	0640006f          	j	80004794 <encfile+0x76c>
    80004734:	1b0010ef          	jal	800058e4 <fread>
    80004738:	00050793          	mv	a5,a0
    8000473c:	00098613          	mv	a2,s3
    80004740:	02010593          	add	a1,sp,32
    80004744:	01010513          	add	a0,sp,16
    80004748:	0687e863          	bltu	a5,s0,800047b8 <encfile+0x790>
    8000474c:	01813703          	ld	a4,24(sp)
    80004750:	02813783          	ld	a5,40(sp)
    80004754:	01013683          	ld	a3,16(sp)
    80004758:	01000413          	li	s0,16
    8000475c:	00e7c7b3          	xor	a5,a5,a4
    80004760:	02013703          	ld	a4,32(sp)
    80004764:	00f13c23          	sd	a5,24(sp)
    80004768:	00d74733          	xor	a4,a4,a3
    8000476c:	00e13823          	sd	a4,16(sp)
    80004770:	d10fc0ef          	jal	80000c80 <encrypt>
    80004774:	00090693          	mv	a3,s2
    80004778:	01000613          	li	a2,16
    8000477c:	00100593          	li	a1,1
    80004780:	02010513          	add	a0,sp,32
    80004784:	364010ef          	jal	80005ae8 <fwrite>
    80004788:	01000793          	li	a5,16
    8000478c:	0005051b          	sext.w	a0,a0
    80004790:	0ef51e63          	bne	a0,a5,8000488c <encfile+0x864>
    80004794:	0104d703          	lhu	a4,16(s1)
    80004798:	408a8533          	sub	a0,s5,s0
    8000479c:	01010813          	add	a6,sp,16
    800047a0:	02077713          	and	a4,a4,32
    800047a4:	00048693          	mv	a3,s1
    800047a8:	00040613          	mv	a2,s0
    800047ac:	00100593          	li	a1,1
    800047b0:	00a80533          	add	a0,a6,a0
    800047b4:	f80700e3          	beqz	a4,80004734 <encfile+0x70c>
    800047b8:	00f00713          	li	a4,15
    800047bc:	02e40c63          	beq	s0,a4,800047f4 <encfile+0x7cc>
    800047c0:	02079c63          	bnez	a5,800047f8 <encfile+0x7d0>
    800047c4:	00000513          	li	a0,0
    800047c8:	07813083          	ld	ra,120(sp)
    800047cc:	07013403          	ld	s0,112(sp)
    800047d0:	06813483          	ld	s1,104(sp)
    800047d4:	06013903          	ld	s2,96(sp)
    800047d8:	05813983          	ld	s3,88(sp)
    800047dc:	05013a03          	ld	s4,80(sp)
    800047e0:	04813a83          	ld	s5,72(sp)
    800047e4:	04013b03          	ld	s6,64(sp)
    800047e8:	03813b83          	ld	s7,56(sp)
    800047ec:	08010113          	add	sp,sp,128
    800047f0:	00008067          	ret
    800047f4:	00178793          	add	a5,a5,1
    800047f8:	00f00713          	li	a4,15
    800047fc:	01010513          	add	a0,sp,16
    80004800:	02f76663          	bltu	a4,a5,8000482c <encfile+0x804>
    80004804:	01000713          	li	a4,16
    80004808:	40f70733          	sub	a4,a4,a5
    8000480c:	00800693          	li	a3,8
    80004810:	00f507b3          	add	a5,a0,a5
    80004814:	0cd77a63          	bgeu	a4,a3,800048e8 <encfile+0x8c0>
    80004818:	00400693          	li	a3,4
    8000481c:	0ad77463          	bgeu	a4,a3,800048c4 <encfile+0x89c>
    80004820:	00200693          	li	a3,2
    80004824:	08d77463          	bgeu	a4,a3,800048ac <encfile+0x884>
    80004828:	06071e63          	bnez	a4,800048a4 <encfile+0x87c>
    8000482c:	01013783          	ld	a5,16(sp)
    80004830:	02013703          	ld	a4,32(sp)
    80004834:	01813683          	ld	a3,24(sp)
    80004838:	00098613          	mv	a2,s3
    8000483c:	00f74733          	xor	a4,a4,a5
    80004840:	02813783          	ld	a5,40(sp)
    80004844:	02010593          	add	a1,sp,32
    80004848:	00e13823          	sd	a4,16(sp)
    8000484c:	00d7c7b3          	xor	a5,a5,a3
    80004850:	00f13c23          	sd	a5,24(sp)
    80004854:	c2cfc0ef          	jal	80000c80 <encrypt>
    80004858:	00090693          	mv	a3,s2
    8000485c:	01000613          	li	a2,16
    80004860:	00100593          	li	a1,1
    80004864:	02010513          	add	a0,sp,32
    80004868:	280010ef          	jal	80005ae8 <fwrite>
    8000486c:	01000793          	li	a5,16
    80004870:	f4f50ae3          	beq	a0,a5,800047c4 <encfile+0x79c>
    80004874:	000a0593          	mv	a1,s4
    80004878:	00019517          	auipc	a0,0x19
    8000487c:	ad050513          	add	a0,a0,-1328 # 8001d348 <s_box+0x100>
    80004880:	3a4010ef          	jal	80005c24 <printf>
    80004884:	ff800513          	li	a0,-8
    80004888:	f41ff06f          	j	800047c8 <encfile+0x7a0>
    8000488c:	000a0593          	mv	a1,s4
    80004890:	00019517          	auipc	a0,0x19
    80004894:	ab850513          	add	a0,a0,-1352 # 8001d348 <s_box+0x100>
    80004898:	38c010ef          	jal	80005c24 <printf>
    8000489c:	ff900513          	li	a0,-7
    800048a0:	f29ff06f          	j	800047c8 <encfile+0x7a0>
    800048a4:	00078023          	sb	zero,0(a5)
    800048a8:	f85ff06f          	j	8000482c <encfile+0x804>
    800048ac:	00078023          	sb	zero,0(a5)
    800048b0:	000780a3          	sb	zero,1(a5)
    800048b4:	ffe70713          	add	a4,a4,-2
    800048b8:	00278793          	add	a5,a5,2
    800048bc:	f60708e3          	beqz	a4,8000482c <encfile+0x804>
    800048c0:	fe5ff06f          	j	800048a4 <encfile+0x87c>
    800048c4:	00078023          	sb	zero,0(a5)
    800048c8:	000780a3          	sb	zero,1(a5)
    800048cc:	00078123          	sb	zero,2(a5)
    800048d0:	000781a3          	sb	zero,3(a5)
    800048d4:	ffc70713          	add	a4,a4,-4
    800048d8:	00200693          	li	a3,2
    800048dc:	00478793          	add	a5,a5,4
    800048e0:	f4d764e3          	bltu	a4,a3,80004828 <encfile+0x800>
    800048e4:	fc9ff06f          	j	800048ac <encfile+0x884>
    800048e8:	00078023          	sb	zero,0(a5)
    800048ec:	000780a3          	sb	zero,1(a5)
    800048f0:	00078123          	sb	zero,2(a5)
    800048f4:	000781a3          	sb	zero,3(a5)
    800048f8:	00078223          	sb	zero,4(a5)
    800048fc:	000782a3          	sb	zero,5(a5)
    80004900:	00078323          	sb	zero,6(a5)
    80004904:	000783a3          	sb	zero,7(a5)
    80004908:	ff870713          	add	a4,a4,-8
    8000490c:	00400693          	li	a3,4
    80004910:	00878793          	add	a5,a5,8
    80004914:	f0d766e3          	bltu	a4,a3,80004820 <encfile+0x7f8>
    80004918:	fadff06f          	j	800048c4 <encfile+0x89c>
    8000491c:	00b405b3          	add	a1,s0,a1
    80004920:	0005c583          	lbu	a1,0(a1)
    80004924:	00368693          	add	a3,a3,3
    80004928:	02b10123          	sb	a1,34(sp)
    8000492c:	1cc69063          	bne	a3,a2,80004aec <encfile+0xac4>
    80004930:	000106b7          	lui	a3,0x10
    80004934:	fff68693          	add	a3,a3,-1 # ffff <__stack_shift+0xffe8>
    80004938:	00009637          	lui	a2,0x9
    8000493c:	00d7f533          	and	a0,a5,a3
    80004940:	06960613          	add	a2,a2,105 # 9069 <__stack_shift+0x9052>
    80004944:	00004837          	lui	a6,0x4
    80004948:	02c50533          	mul	a0,a0,a2
    8000494c:	00d775b3          	and	a1,a4,a3
    80004950:	65080813          	add	a6,a6,1616 # 4650 <__stack_shift+0x4639>
    80004954:	0107d793          	srl	a5,a5,0x10
    80004958:	01075713          	srl	a4,a4,0x10
    8000495c:	00300693          	li	a3,3
    80004960:	00100613          	li	a2,1
    80004964:	030585b3          	mul	a1,a1,a6
    80004968:	00f507b3          	add	a5,a0,a5
    8000496c:	01079513          	sll	a0,a5,0x10
    80004970:	00e58733          	add	a4,a1,a4
    80004974:	00e505b3          	add	a1,a0,a4
    80004978:	00b43023          	sd	a1,0(s0)
    8000497c:	0085d81b          	srlw	a6,a1,0x8
    80004980:	0105d51b          	srlw	a0,a1,0x10
    80004984:	02b101a3          	sb	a1,35(sp)
    80004988:	03010223          	sb	a6,36(sp)
    8000498c:	02a102a3          	sb	a0,37(sp)
    80004990:	00d405b3          	add	a1,s0,a3
    80004994:	0005c503          	lbu	a0,0(a1)
    80004998:	00168693          	add	a3,a3,1
    8000499c:	00400593          	li	a1,4
    800049a0:	02a10323          	sb	a0,38(sp)
    800049a4:	9cb69ae3          	bne	a3,a1,80004378 <encfile+0x350>
    800049a8:	000106b7          	lui	a3,0x10
    800049ac:	fff68693          	add	a3,a3,-1 # ffff <__stack_shift+0xffe8>
    800049b0:	00009637          	lui	a2,0x9
    800049b4:	00d7f533          	and	a0,a5,a3
    800049b8:	06960613          	add	a2,a2,105 # 9069 <__stack_shift+0x9052>
    800049bc:	00004837          	lui	a6,0x4
    800049c0:	02c50533          	mul	a0,a0,a2
    800049c4:	00d775b3          	and	a1,a4,a3
    800049c8:	65080813          	add	a6,a6,1616 # 4650 <__stack_shift+0x4639>
    800049cc:	0107d793          	srl	a5,a5,0x10
    800049d0:	01075713          	srl	a4,a4,0x10
    800049d4:	00300693          	li	a3,3
    800049d8:	00100613          	li	a2,1
    800049dc:	030585b3          	mul	a1,a1,a6
    800049e0:	00f507b3          	add	a5,a0,a5
    800049e4:	01079513          	sll	a0,a5,0x10
    800049e8:	00e58733          	add	a4,a1,a4
    800049ec:	00e505b3          	add	a1,a0,a4
    800049f0:	00b43023          	sd	a1,0(s0)
    800049f4:	0085d81b          	srlw	a6,a1,0x8
    800049f8:	0105d51b          	srlw	a0,a1,0x10
    800049fc:	02b103a3          	sb	a1,39(sp)
    80004a00:	03010423          	sb	a6,40(sp)
    80004a04:	02a104a3          	sb	a0,41(sp)
    80004a08:	00d405b3          	add	a1,s0,a3
    80004a0c:	0005c503          	lbu	a0,0(a1)
    80004a10:	00168693          	add	a3,a3,1
    80004a14:	00400593          	li	a1,4
    80004a18:	02a10523          	sb	a0,42(sp)
    80004a1c:	9cb696e3          	bne	a3,a1,800043e8 <encfile+0x3c0>
    80004a20:	000106b7          	lui	a3,0x10
    80004a24:	fff68693          	add	a3,a3,-1 # ffff <__stack_shift+0xffe8>
    80004a28:	00009637          	lui	a2,0x9
    80004a2c:	00d7f533          	and	a0,a5,a3
    80004a30:	06960613          	add	a2,a2,105 # 9069 <__stack_shift+0x9052>
    80004a34:	00004837          	lui	a6,0x4
    80004a38:	02c50533          	mul	a0,a0,a2
    80004a3c:	00d775b3          	and	a1,a4,a3
    80004a40:	65080813          	add	a6,a6,1616 # 4650 <__stack_shift+0x4639>
    80004a44:	0107d793          	srl	a5,a5,0x10
    80004a48:	01075713          	srl	a4,a4,0x10
    80004a4c:	00300693          	li	a3,3
    80004a50:	00100613          	li	a2,1
    80004a54:	030585b3          	mul	a1,a1,a6
    80004a58:	00f507b3          	add	a5,a0,a5
    80004a5c:	01079513          	sll	a0,a5,0x10
    80004a60:	00e58733          	add	a4,a1,a4
    80004a64:	00e505b3          	add	a1,a0,a4
    80004a68:	00b43023          	sd	a1,0(s0)
    80004a6c:	0085d81b          	srlw	a6,a1,0x8
    80004a70:	0105d51b          	srlw	a0,a1,0x10
    80004a74:	02b105a3          	sb	a1,43(sp)
    80004a78:	03010623          	sb	a6,44(sp)
    80004a7c:	02a106a3          	sb	a0,45(sp)
    80004a80:	00d405b3          	add	a1,s0,a3
    80004a84:	0005c503          	lbu	a0,0(a1)
    80004a88:	00168693          	add	a3,a3,1
    80004a8c:	00400593          	li	a1,4
    80004a90:	02a10723          	sb	a0,46(sp)
    80004a94:	9cb692e3          	bne	a3,a1,80004458 <encfile+0x430>
    80004a98:	000106b7          	lui	a3,0x10
    80004a9c:	fff68693          	add	a3,a3,-1 # ffff <__stack_shift+0xffe8>
    80004aa0:	00009537          	lui	a0,0x9
    80004aa4:	00d7f633          	and	a2,a5,a3
    80004aa8:	06950513          	add	a0,a0,105 # 9069 <__stack_shift+0x9052>
    80004aac:	000045b7          	lui	a1,0x4
    80004ab0:	02a60633          	mul	a2,a2,a0
    80004ab4:	00d776b3          	and	a3,a4,a3
    80004ab8:	65058593          	add	a1,a1,1616 # 4650 <__stack_shift+0x4639>
    80004abc:	0107d793          	srl	a5,a5,0x10
    80004ac0:	01075713          	srl	a4,a4,0x10
    80004ac4:	00100513          	li	a0,1
    80004ac8:	00ab3023          	sd	a0,0(s6)
    80004acc:	02b686b3          	mul	a3,a3,a1
    80004ad0:	00f607b3          	add	a5,a2,a5
    80004ad4:	01079613          	sll	a2,a5,0x10
    80004ad8:	00e68733          	add	a4,a3,a4
    80004adc:	00e606b3          	add	a3,a2,a4
    80004ae0:	00d43023          	sd	a3,0(s0)
    80004ae4:	02d107a3          	sb	a3,47(sp)
    80004ae8:	b41ff06f          	j	80004628 <encfile+0x600>
    80004aec:	00000613          	li	a2,0
    80004af0:	819ff06f          	j	80004308 <encfile+0x2e0>

0000000080004af4 <decfile>:
    80004af4:	f8010113          	add	sp,sp,-128
    80004af8:	06813823          	sd	s0,112(sp)
    80004afc:	07213023          	sd	s2,96(sp)
    80004b00:	05313c23          	sd	s3,88(sp)
    80004b04:	05413823          	sd	s4,80(sp)
    80004b08:	00050913          	mv	s2,a0
    80004b0c:	00058993          	mv	s3,a1
    80004b10:	00060a13          	mv	s4,a2
    80004b14:	00068413          	mv	s0,a3
    80004b18:	01000613          	li	a2,16
    80004b1c:	00050693          	mv	a3,a0
    80004b20:	00100593          	li	a1,1
    80004b24:	00010513          	mv	a0,sp
    80004b28:	05613023          	sd	s6,64(sp)
    80004b2c:	06113c23          	sd	ra,120(sp)
    80004b30:	05513423          	sd	s5,72(sp)
    80004b34:	00070b13          	mv	s6,a4
    80004b38:	5ad000ef          	jal	800058e4 <fread>
    80004b3c:	01000793          	li	a5,16
    80004b40:	18f51263          	bne	a0,a5,80004cc4 <decfile+0x1d0>
    80004b44:	00090693          	mv	a3,s2
    80004b48:	01000613          	li	a2,16
    80004b4c:	00100593          	li	a1,1
    80004b50:	01010513          	add	a0,sp,16
    80004b54:	591000ef          	jal	800058e4 <fread>
    80004b58:	fef57a93          	and	s5,a0,-17
    80004b5c:	000a8a9b          	sext.w	s5,s5
    80004b60:	000a8c63          	beqz	s5,80004b78 <decfile+0x84>
    80004b64:	00019517          	auipc	a0,0x19
    80004b68:	83450513          	add	a0,a0,-1996 # 8001d398 <s_box+0x150>
    80004b6c:	0b8010ef          	jal	80005c24 <printf>
    80004b70:	ff600a93          	li	s5,-10
    80004b74:	0e80006f          	j	80004c5c <decfile+0x168>
    80004b78:	000a0613          	mv	a2,s4
    80004b7c:	02010593          	add	a1,sp,32
    80004b80:	01010513          	add	a0,sp,16
    80004b84:	06913423          	sd	s1,104(sp)
    80004b88:	03713c23          	sd	s7,56(sp)
    80004b8c:	03813823          	sd	s8,48(sp)
    80004b90:	a29fd0ef          	jal	800025b8 <decrypt>
    80004b94:	00013783          	ld	a5,0(sp)
    80004b98:	02013b83          	ld	s7,32(sp)
    80004b9c:	00813703          	ld	a4,8(sp)
    80004ba0:	00f00c13          	li	s8,15
    80004ba4:	00fbcbb3          	xor	s7,s7,a5
    80004ba8:	02813783          	ld	a5,40(sp)
    80004bac:	03713023          	sd	s7,32(sp)
    80004bb0:	01010493          	add	s1,sp,16
    80004bb4:	00e7c7b3          	xor	a5,a5,a4
    80004bb8:	00fbfb93          	and	s7,s7,15
    80004bbc:	00010413          	mv	s0,sp
    80004bc0:	0440006f          	j	80004c04 <decfile+0x110>
    80004bc4:	725000ef          	jal	80005ae8 <fwrite>
    80004bc8:	000a0613          	mv	a2,s4
    80004bcc:	00040513          	mv	a0,s0
    80004bd0:	02010593          	add	a1,sp,32
    80004bd4:	9e5fd0ef          	jal	800025b8 <decrypt>
    80004bd8:	02013603          	ld	a2,32(sp)
    80004bdc:	0004b703          	ld	a4,0(s1)
    80004be0:	0084b783          	ld	a5,8(s1)
    80004be4:	00040693          	mv	a3,s0
    80004be8:	00c74733          	xor	a4,a4,a2
    80004bec:	02813603          	ld	a2,40(sp)
    80004bf0:	00048413          	mv	s0,s1
    80004bf4:	02e13023          	sd	a4,32(sp)
    80004bf8:	00c7c7b3          	xor	a5,a5,a2
    80004bfc:	01000c13          	li	s8,16
    80004c00:	00068493          	mv	s1,a3
    80004c04:	00090693          	mv	a3,s2
    80004c08:	01000613          	li	a2,16
    80004c0c:	00100593          	li	a1,1
    80004c10:	00040513          	mv	a0,s0
    80004c14:	02f13423          	sd	a5,40(sp)
    80004c18:	4cd000ef          	jal	800058e4 <fread>
    80004c1c:	0005079b          	sext.w	a5,a0
    80004c20:	02010713          	add	a4,sp,32
    80004c24:	41878533          	sub	a0,a5,s8
    80004c28:	00a70533          	add	a0,a4,a0
    80004c2c:	01000713          	li	a4,16
    80004c30:	00098693          	mv	a3,s3
    80004c34:	000c0613          	mv	a2,s8
    80004c38:	00100593          	li	a1,1
    80004c3c:	f8e784e3          	beq	a5,a4,80004bc4 <decfile+0xd0>
    80004c40:	ff1c0c13          	add	s8,s8,-15
    80004c44:	01803433          	snez	s0,s8
    80004c48:	0174043b          	addw	s0,s0,s7
    80004c4c:	02041c63          	bnez	s0,80004c84 <decfile+0x190>
    80004c50:	06813483          	ld	s1,104(sp)
    80004c54:	03813b83          	ld	s7,56(sp)
    80004c58:	03013c03          	ld	s8,48(sp)
    80004c5c:	07813083          	ld	ra,120(sp)
    80004c60:	07013403          	ld	s0,112(sp)
    80004c64:	06013903          	ld	s2,96(sp)
    80004c68:	05813983          	ld	s3,88(sp)
    80004c6c:	05013a03          	ld	s4,80(sp)
    80004c70:	04013b03          	ld	s6,64(sp)
    80004c74:	000a8513          	mv	a0,s5
    80004c78:	04813a83          	ld	s5,72(sp)
    80004c7c:	08010113          	add	sp,sp,128
    80004c80:	00008067          	ret
    80004c84:	001c3c13          	seqz	s8,s8
    80004c88:	02010793          	add	a5,sp,32
    80004c8c:	00040613          	mv	a2,s0
    80004c90:	00100593          	li	a1,1
    80004c94:	01878533          	add	a0,a5,s8
    80004c98:	651000ef          	jal	80005ae8 <fwrite>
    80004c9c:	faa40ae3          	beq	s0,a0,80004c50 <decfile+0x15c>
    80004ca0:	000b0593          	mv	a1,s6
    80004ca4:	00018517          	auipc	a0,0x18
    80004ca8:	6a450513          	add	a0,a0,1700 # 8001d348 <s_box+0x100>
    80004cac:	779000ef          	jal	80005c24 <printf>
    80004cb0:	ff400a93          	li	s5,-12
    80004cb4:	06813483          	ld	s1,104(sp)
    80004cb8:	03813b83          	ld	s7,56(sp)
    80004cbc:	03013c03          	ld	s8,48(sp)
    80004cc0:	f9dff06f          	j	80004c5c <decfile+0x168>
    80004cc4:	00040593          	mv	a1,s0
    80004cc8:	00018517          	auipc	a0,0x18
    80004ccc:	6a850513          	add	a0,a0,1704 # 8001d370 <s_box+0x128>
    80004cd0:	755000ef          	jal	80005c24 <printf>
    80004cd4:	00900a93          	li	s5,9
    80004cd8:	f85ff06f          	j	80004c5c <decfile+0x168>

0000000080004cdc <_fclose_r>:
    80004cdc:	fe010113          	add	sp,sp,-32
    80004ce0:	00113c23          	sd	ra,24(sp)
    80004ce4:	01213023          	sd	s2,0(sp)
    80004ce8:	02058863          	beqz	a1,80004d18 <_fclose_r+0x3c>
    80004cec:	00813823          	sd	s0,16(sp)
    80004cf0:	00913423          	sd	s1,8(sp)
    80004cf4:	00058413          	mv	s0,a1
    80004cf8:	00050493          	mv	s1,a0
    80004cfc:	00050663          	beqz	a0,80004d08 <_fclose_r+0x2c>
    80004d00:	04853783          	ld	a5,72(a0)
    80004d04:	0c078c63          	beqz	a5,80004ddc <_fclose_r+0x100>
    80004d08:	01041783          	lh	a5,16(s0)
    80004d0c:	02079263          	bnez	a5,80004d30 <_fclose_r+0x54>
    80004d10:	01013403          	ld	s0,16(sp)
    80004d14:	00813483          	ld	s1,8(sp)
    80004d18:	01813083          	ld	ra,24(sp)
    80004d1c:	00000913          	li	s2,0
    80004d20:	00090513          	mv	a0,s2
    80004d24:	00013903          	ld	s2,0(sp)
    80004d28:	02010113          	add	sp,sp,32
    80004d2c:	00008067          	ret
    80004d30:	00040593          	mv	a1,s0
    80004d34:	00048513          	mv	a0,s1
    80004d38:	0b8000ef          	jal	80004df0 <__sflush_r>
    80004d3c:	05043783          	ld	a5,80(s0)
    80004d40:	00050913          	mv	s2,a0
    80004d44:	00078a63          	beqz	a5,80004d58 <_fclose_r+0x7c>
    80004d48:	03043583          	ld	a1,48(s0)
    80004d4c:	00048513          	mv	a0,s1
    80004d50:	000780e7          	jalr	a5
    80004d54:	06054463          	bltz	a0,80004dbc <_fclose_r+0xe0>
    80004d58:	01045783          	lhu	a5,16(s0)
    80004d5c:	0807f793          	and	a5,a5,128
    80004d60:	06079663          	bnez	a5,80004dcc <_fclose_r+0xf0>
    80004d64:	05843583          	ld	a1,88(s0)
    80004d68:	00058c63          	beqz	a1,80004d80 <_fclose_r+0xa4>
    80004d6c:	07440793          	add	a5,s0,116
    80004d70:	00f58663          	beq	a1,a5,80004d7c <_fclose_r+0xa0>
    80004d74:	00048513          	mv	a0,s1
    80004d78:	068020ef          	jal	80006de0 <_free_r>
    80004d7c:	04043c23          	sd	zero,88(s0)
    80004d80:	07843583          	ld	a1,120(s0)
    80004d84:	00058863          	beqz	a1,80004d94 <_fclose_r+0xb8>
    80004d88:	00048513          	mv	a0,s1
    80004d8c:	054020ef          	jal	80006de0 <_free_r>
    80004d90:	06043c23          	sd	zero,120(s0)
    80004d94:	72c000ef          	jal	800054c0 <__sfp_lock_acquire>
    80004d98:	00041823          	sh	zero,16(s0)
    80004d9c:	728000ef          	jal	800054c4 <__sfp_lock_release>
    80004da0:	01813083          	ld	ra,24(sp)
    80004da4:	01013403          	ld	s0,16(sp)
    80004da8:	00813483          	ld	s1,8(sp)
    80004dac:	00090513          	mv	a0,s2
    80004db0:	00013903          	ld	s2,0(sp)
    80004db4:	02010113          	add	sp,sp,32
    80004db8:	00008067          	ret
    80004dbc:	01045783          	lhu	a5,16(s0)
    80004dc0:	fff00913          	li	s2,-1
    80004dc4:	0807f793          	and	a5,a5,128
    80004dc8:	f8078ee3          	beqz	a5,80004d64 <_fclose_r+0x88>
    80004dcc:	01843583          	ld	a1,24(s0)
    80004dd0:	00048513          	mv	a0,s1
    80004dd4:	00c020ef          	jal	80006de0 <_free_r>
    80004dd8:	f8dff06f          	j	80004d64 <_fclose_r+0x88>
    80004ddc:	6c0000ef          	jal	8000549c <__sinit>
    80004de0:	f29ff06f          	j	80004d08 <_fclose_r+0x2c>

0000000080004de4 <fclose>:
    80004de4:	00050593          	mv	a1,a0
    80004de8:	8101b503          	ld	a0,-2032(gp) # 8001e908 <_impure_ptr>
    80004dec:	ef1ff06f          	j	80004cdc <_fclose_r>

0000000080004df0 <__sflush_r>:
    80004df0:	01059703          	lh	a4,16(a1)
    80004df4:	fd010113          	add	sp,sp,-48
    80004df8:	02813023          	sd	s0,32(sp)
    80004dfc:	01313423          	sd	s3,8(sp)
    80004e00:	02113423          	sd	ra,40(sp)
    80004e04:	00877793          	and	a5,a4,8
    80004e08:	00058413          	mv	s0,a1
    80004e0c:	00050993          	mv	s3,a0
    80004e10:	12079263          	bnez	a5,80004f34 <__sflush_r+0x144>
    80004e14:	000017b7          	lui	a5,0x1
    80004e18:	80078793          	add	a5,a5,-2048 # 800 <__stack_shift+0x7e9>
    80004e1c:	0085a683          	lw	a3,8(a1)
    80004e20:	00f767b3          	or	a5,a4,a5
    80004e24:	00f59823          	sh	a5,16(a1)
    80004e28:	18d05463          	blez	a3,80004fb0 <__sflush_r+0x1c0>
    80004e2c:	04843803          	ld	a6,72(s0)
    80004e30:	0e080663          	beqz	a6,80004f1c <__sflush_r+0x12c>
    80004e34:	00913c23          	sd	s1,24(sp)
    80004e38:	03371693          	sll	a3,a4,0x33
    80004e3c:	0009a483          	lw	s1,0(s3)
    80004e40:	0009a023          	sw	zero,0(s3)
    80004e44:	03043583          	ld	a1,48(s0)
    80004e48:	1806c063          	bltz	a3,80004fc8 <__sflush_r+0x1d8>
    80004e4c:	00000613          	li	a2,0
    80004e50:	00100693          	li	a3,1
    80004e54:	00098513          	mv	a0,s3
    80004e58:	000800e7          	jalr	a6
    80004e5c:	fff00793          	li	a5,-1
    80004e60:	00050613          	mv	a2,a0
    80004e64:	1af50663          	beq	a0,a5,80005010 <__sflush_r+0x220>
    80004e68:	01041783          	lh	a5,16(s0)
    80004e6c:	04843803          	ld	a6,72(s0)
    80004e70:	03043583          	ld	a1,48(s0)
    80004e74:	0047f793          	and	a5,a5,4
    80004e78:	00078e63          	beqz	a5,80004e94 <__sflush_r+0xa4>
    80004e7c:	00842703          	lw	a4,8(s0)
    80004e80:	05843783          	ld	a5,88(s0)
    80004e84:	40e60633          	sub	a2,a2,a4
    80004e88:	00078663          	beqz	a5,80004e94 <__sflush_r+0xa4>
    80004e8c:	07042783          	lw	a5,112(s0)
    80004e90:	40f60633          	sub	a2,a2,a5
    80004e94:	00000693          	li	a3,0
    80004e98:	00098513          	mv	a0,s3
    80004e9c:	000800e7          	jalr	a6
    80004ea0:	fff00793          	li	a5,-1
    80004ea4:	12f51663          	bne	a0,a5,80004fd0 <__sflush_r+0x1e0>
    80004ea8:	0009a683          	lw	a3,0(s3)
    80004eac:	01d00793          	li	a5,29
    80004eb0:	01041703          	lh	a4,16(s0)
    80004eb4:	0006861b          	sext.w	a2,a3
    80004eb8:	16d7ea63          	bltu	a5,a3,8000502c <__sflush_r+0x23c>
    80004ebc:	204007b7          	lui	a5,0x20400
    80004ec0:	00178793          	add	a5,a5,1 # 20400001 <__heap_size+0x1fc00001>
    80004ec4:	00c7d7b3          	srl	a5,a5,a2
    80004ec8:	0017f793          	and	a5,a5,1
    80004ecc:	16078063          	beqz	a5,8000502c <__sflush_r+0x23c>
    80004ed0:	01843603          	ld	a2,24(s0)
    80004ed4:	fffff7b7          	lui	a5,0xfffff
    80004ed8:	7ff78793          	add	a5,a5,2047 # fffffffffffff7ff <__heap_end+0xffffffff7f7e07ff>
    80004edc:	00f777b3          	and	a5,a4,a5
    80004ee0:	00f41823          	sh	a5,16(s0)
    80004ee4:	00042423          	sw	zero,8(s0)
    80004ee8:	00c43023          	sd	a2,0(s0)
    80004eec:	03371793          	sll	a5,a4,0x33
    80004ef0:	0007d463          	bgez	a5,80004ef8 <__sflush_r+0x108>
    80004ef4:	10068263          	beqz	a3,80004ff8 <__sflush_r+0x208>
    80004ef8:	05843583          	ld	a1,88(s0)
    80004efc:	0099a023          	sw	s1,0(s3)
    80004f00:	10058463          	beqz	a1,80005008 <__sflush_r+0x218>
    80004f04:	07440793          	add	a5,s0,116
    80004f08:	00f58663          	beq	a1,a5,80004f14 <__sflush_r+0x124>
    80004f0c:	00098513          	mv	a0,s3
    80004f10:	6d1010ef          	jal	80006de0 <_free_r>
    80004f14:	01813483          	ld	s1,24(sp)
    80004f18:	04043c23          	sd	zero,88(s0)
    80004f1c:	00000513          	li	a0,0
    80004f20:	02813083          	ld	ra,40(sp)
    80004f24:	02013403          	ld	s0,32(sp)
    80004f28:	00813983          	ld	s3,8(sp)
    80004f2c:	03010113          	add	sp,sp,48
    80004f30:	00008067          	ret
    80004f34:	01213823          	sd	s2,16(sp)
    80004f38:	0185b903          	ld	s2,24(a1)
    80004f3c:	08090263          	beqz	s2,80004fc0 <__sflush_r+0x1d0>
    80004f40:	00913c23          	sd	s1,24(sp)
    80004f44:	0005b483          	ld	s1,0(a1)
    80004f48:	00377713          	and	a4,a4,3
    80004f4c:	0125b023          	sd	s2,0(a1)
    80004f50:	412484bb          	subw	s1,s1,s2
    80004f54:	00000793          	li	a5,0
    80004f58:	00071463          	bnez	a4,80004f60 <__sflush_r+0x170>
    80004f5c:	0205a783          	lw	a5,32(a1)
    80004f60:	00f42623          	sw	a5,12(s0)
    80004f64:	00904863          	bgtz	s1,80004f74 <__sflush_r+0x184>
    80004f68:	0540006f          	j	80004fbc <__sflush_r+0x1cc>
    80004f6c:	00a90933          	add	s2,s2,a0
    80004f70:	04905663          	blez	s1,80004fbc <__sflush_r+0x1cc>
    80004f74:	04043783          	ld	a5,64(s0)
    80004f78:	03043583          	ld	a1,48(s0)
    80004f7c:	00048693          	mv	a3,s1
    80004f80:	00090613          	mv	a2,s2
    80004f84:	00098513          	mv	a0,s3
    80004f88:	000780e7          	jalr	a5
    80004f8c:	40a484bb          	subw	s1,s1,a0
    80004f90:	fca04ee3          	bgtz	a0,80004f6c <__sflush_r+0x17c>
    80004f94:	01041703          	lh	a4,16(s0)
    80004f98:	01013903          	ld	s2,16(sp)
    80004f9c:	04076713          	or	a4,a4,64
    80004fa0:	01813483          	ld	s1,24(sp)
    80004fa4:	00e41823          	sh	a4,16(s0)
    80004fa8:	fff00513          	li	a0,-1
    80004fac:	f75ff06f          	j	80004f20 <__sflush_r+0x130>
    80004fb0:	0705a683          	lw	a3,112(a1)
    80004fb4:	e6d04ce3          	bgtz	a3,80004e2c <__sflush_r+0x3c>
    80004fb8:	f65ff06f          	j	80004f1c <__sflush_r+0x12c>
    80004fbc:	01813483          	ld	s1,24(sp)
    80004fc0:	01013903          	ld	s2,16(sp)
    80004fc4:	f59ff06f          	j	80004f1c <__sflush_r+0x12c>
    80004fc8:	09043603          	ld	a2,144(s0)
    80004fcc:	ea9ff06f          	j	80004e74 <__sflush_r+0x84>
    80004fd0:	01041703          	lh	a4,16(s0)
    80004fd4:	01843683          	ld	a3,24(s0)
    80004fd8:	fffff7b7          	lui	a5,0xfffff
    80004fdc:	7ff78793          	add	a5,a5,2047 # fffffffffffff7ff <__heap_end+0xffffffff7f7e07ff>
    80004fe0:	00f777b3          	and	a5,a4,a5
    80004fe4:	00f41823          	sh	a5,16(s0)
    80004fe8:	00042423          	sw	zero,8(s0)
    80004fec:	00d43023          	sd	a3,0(s0)
    80004ff0:	03371793          	sll	a5,a4,0x33
    80004ff4:	f007d2e3          	bgez	a5,80004ef8 <__sflush_r+0x108>
    80004ff8:	05843583          	ld	a1,88(s0)
    80004ffc:	08a43823          	sd	a0,144(s0)
    80005000:	0099a023          	sw	s1,0(s3)
    80005004:	f00590e3          	bnez	a1,80004f04 <__sflush_r+0x114>
    80005008:	01813483          	ld	s1,24(sp)
    8000500c:	f11ff06f          	j	80004f1c <__sflush_r+0x12c>
    80005010:	0009a783          	lw	a5,0(s3)
    80005014:	e4078ae3          	beqz	a5,80004e68 <__sflush_r+0x78>
    80005018:	01d00713          	li	a4,29
    8000501c:	00e78c63          	beq	a5,a4,80005034 <__sflush_r+0x244>
    80005020:	01600713          	li	a4,22
    80005024:	00e78863          	beq	a5,a4,80005034 <__sflush_r+0x244>
    80005028:	01041703          	lh	a4,16(s0)
    8000502c:	04076713          	or	a4,a4,64
    80005030:	f71ff06f          	j	80004fa0 <__sflush_r+0x1b0>
    80005034:	0099a023          	sw	s1,0(s3)
    80005038:	01813483          	ld	s1,24(sp)
    8000503c:	ee1ff06f          	j	80004f1c <__sflush_r+0x12c>

0000000080005040 <_fflush_r>:
    80005040:	fe010113          	add	sp,sp,-32
    80005044:	00813823          	sd	s0,16(sp)
    80005048:	00113c23          	sd	ra,24(sp)
    8000504c:	00050413          	mv	s0,a0
    80005050:	00050663          	beqz	a0,8000505c <_fflush_r+0x1c>
    80005054:	04853783          	ld	a5,72(a0)
    80005058:	02078a63          	beqz	a5,8000508c <_fflush_r+0x4c>
    8000505c:	01059783          	lh	a5,16(a1)
    80005060:	00079c63          	bnez	a5,80005078 <_fflush_r+0x38>
    80005064:	01813083          	ld	ra,24(sp)
    80005068:	01013403          	ld	s0,16(sp)
    8000506c:	00000513          	li	a0,0
    80005070:	02010113          	add	sp,sp,32
    80005074:	00008067          	ret
    80005078:	00040513          	mv	a0,s0
    8000507c:	01013403          	ld	s0,16(sp)
    80005080:	01813083          	ld	ra,24(sp)
    80005084:	02010113          	add	sp,sp,32
    80005088:	d69ff06f          	j	80004df0 <__sflush_r>
    8000508c:	00b13423          	sd	a1,8(sp)
    80005090:	40c000ef          	jal	8000549c <__sinit>
    80005094:	00813583          	ld	a1,8(sp)
    80005098:	fc5ff06f          	j	8000505c <_fflush_r+0x1c>

000000008000509c <fflush>:
    8000509c:	06050063          	beqz	a0,800050fc <fflush+0x60>
    800050a0:	00050593          	mv	a1,a0
    800050a4:	8101b503          	ld	a0,-2032(gp) # 8001e908 <_impure_ptr>
    800050a8:	00050663          	beqz	a0,800050b4 <fflush+0x18>
    800050ac:	04853783          	ld	a5,72(a0)
    800050b0:	00078c63          	beqz	a5,800050c8 <fflush+0x2c>
    800050b4:	01059783          	lh	a5,16(a1)
    800050b8:	00079663          	bnez	a5,800050c4 <fflush+0x28>
    800050bc:	00000513          	li	a0,0
    800050c0:	00008067          	ret
    800050c4:	d2dff06f          	j	80004df0 <__sflush_r>
    800050c8:	fe010113          	add	sp,sp,-32
    800050cc:	00b13423          	sd	a1,8(sp)
    800050d0:	00a13023          	sd	a0,0(sp)
    800050d4:	00113c23          	sd	ra,24(sp)
    800050d8:	3c4000ef          	jal	8000549c <__sinit>
    800050dc:	00813583          	ld	a1,8(sp)
    800050e0:	00013503          	ld	a0,0(sp)
    800050e4:	01059783          	lh	a5,16(a1)
    800050e8:	02079863          	bnez	a5,80005118 <fflush+0x7c>
    800050ec:	01813083          	ld	ra,24(sp)
    800050f0:	00000513          	li	a0,0
    800050f4:	02010113          	add	sp,sp,32
    800050f8:	00008067          	ret
    800050fc:	00019617          	auipc	a2,0x19
    80005100:	cd460613          	add	a2,a2,-812 # 8001ddd0 <__sglue>
    80005104:	00000597          	auipc	a1,0x0
    80005108:	f3c58593          	add	a1,a1,-196 # 80005040 <_fflush_r>
    8000510c:	00019517          	auipc	a0,0x19
    80005110:	cdc50513          	add	a0,a0,-804 # 8001dde8 <_impure_data>
    80005114:	0110006f          	j	80005924 <_fwalk_sglue>
    80005118:	01813083          	ld	ra,24(sp)
    8000511c:	02010113          	add	sp,sp,32
    80005120:	cd1ff06f          	j	80004df0 <__sflush_r>

0000000080005124 <_fgetpos_r>:
    80005124:	ff010113          	add	sp,sp,-16
    80005128:	00813023          	sd	s0,0(sp)
    8000512c:	00113423          	sd	ra,8(sp)
    80005130:	00060413          	mv	s0,a2
    80005134:	7e0000ef          	jal	80005914 <_ftell_r>
    80005138:	00a43023          	sd	a0,0(s0)
    8000513c:	00813083          	ld	ra,8(sp)
    80005140:	00013403          	ld	s0,0(sp)
    80005144:	00150793          	add	a5,a0,1
    80005148:	0017b513          	seqz	a0,a5
    8000514c:	01010113          	add	sp,sp,16
    80005150:	00008067          	ret

0000000080005154 <fgetpos>:
    80005154:	ff010113          	add	sp,sp,-16
    80005158:	00050793          	mv	a5,a0
    8000515c:	00813023          	sd	s0,0(sp)
    80005160:	8101b503          	ld	a0,-2032(gp) # 8001e908 <_impure_ptr>
    80005164:	00058413          	mv	s0,a1
    80005168:	00078593          	mv	a1,a5
    8000516c:	00113423          	sd	ra,8(sp)
    80005170:	7a4000ef          	jal	80005914 <_ftell_r>
    80005174:	00a43023          	sd	a0,0(s0)
    80005178:	00813083          	ld	ra,8(sp)
    8000517c:	00013403          	ld	s0,0(sp)
    80005180:	00150793          	add	a5,a0,1
    80005184:	0017b513          	seqz	a0,a5
    80005188:	01010113          	add	sp,sp,16
    8000518c:	00008067          	ret

0000000080005190 <__fp_lock>:
    80005190:	00000513          	li	a0,0
    80005194:	00008067          	ret

0000000080005198 <stdio_exit_handler>:
    80005198:	00019617          	auipc	a2,0x19
    8000519c:	c3860613          	add	a2,a2,-968 # 8001ddd0 <__sglue>
    800051a0:	00000597          	auipc	a1,0x0
    800051a4:	b3c58593          	add	a1,a1,-1220 # 80004cdc <_fclose_r>
    800051a8:	00019517          	auipc	a0,0x19
    800051ac:	c4050513          	add	a0,a0,-960 # 8001dde8 <_impure_data>
    800051b0:	7740006f          	j	80005924 <_fwalk_sglue>

00000000800051b4 <cleanup_stdio>:
    800051b4:	00853583          	ld	a1,8(a0)
    800051b8:	ff010113          	add	sp,sp,-16
    800051bc:	00813023          	sd	s0,0(sp)
    800051c0:	00113423          	sd	ra,8(sp)
    800051c4:	0001a797          	auipc	a5,0x1a
    800051c8:	83478793          	add	a5,a5,-1996 # 8001e9f8 <__sf>
    800051cc:	00050413          	mv	s0,a0
    800051d0:	00f58463          	beq	a1,a5,800051d8 <cleanup_stdio+0x24>
    800051d4:	b09ff0ef          	jal	80004cdc <_fclose_r>
    800051d8:	01043583          	ld	a1,16(s0)
    800051dc:	9b018793          	add	a5,gp,-1616 # 8001eaa8 <__sf+0xb0>
    800051e0:	00f58663          	beq	a1,a5,800051ec <cleanup_stdio+0x38>
    800051e4:	00040513          	mv	a0,s0
    800051e8:	af5ff0ef          	jal	80004cdc <_fclose_r>
    800051ec:	01843583          	ld	a1,24(s0)
    800051f0:	a6018793          	add	a5,gp,-1440 # 8001eb58 <__sf+0x160>
    800051f4:	00f58c63          	beq	a1,a5,8000520c <cleanup_stdio+0x58>
    800051f8:	00040513          	mv	a0,s0
    800051fc:	00013403          	ld	s0,0(sp)
    80005200:	00813083          	ld	ra,8(sp)
    80005204:	01010113          	add	sp,sp,16
    80005208:	ad5ff06f          	j	80004cdc <_fclose_r>
    8000520c:	00813083          	ld	ra,8(sp)
    80005210:	00013403          	ld	s0,0(sp)
    80005214:	01010113          	add	sp,sp,16
    80005218:	00008067          	ret

000000008000521c <__fp_unlock>:
    8000521c:	00000513          	li	a0,0
    80005220:	00008067          	ret

0000000080005224 <global_stdio_init.part.0>:
    80005224:	fd010113          	add	sp,sp,-48
    80005228:	00000797          	auipc	a5,0x0
    8000522c:	f7078793          	add	a5,a5,-144 # 80005198 <stdio_exit_handler>
    80005230:	02113423          	sd	ra,40(sp)
    80005234:	02813023          	sd	s0,32(sp)
    80005238:	00913c23          	sd	s1,24(sp)
    8000523c:	00019417          	auipc	s0,0x19
    80005240:	7bc40413          	add	s0,s0,1980 # 8001e9f8 <__sf>
    80005244:	01213823          	sd	s2,16(sp)
    80005248:	01313423          	sd	s3,8(sp)
    8000524c:	01413023          	sd	s4,0(sp)
    80005250:	8af1b423          	sd	a5,-1880(gp) # 8001e9a0 <__stdio_exit_handler>
    80005254:	00800613          	li	a2,8
    80005258:	00400793          	li	a5,4
    8000525c:	00000593          	li	a1,0
    80005260:	9a418513          	add	a0,gp,-1628 # 8001ea9c <__sf+0xa4>
    80005264:	00f42823          	sw	a5,16(s0)
    80005268:	00043023          	sd	zero,0(s0)
    8000526c:	00043423          	sd	zero,8(s0)
    80005270:	0a042623          	sw	zero,172(s0)
    80005274:	00043c23          	sd	zero,24(s0)
    80005278:	02042023          	sw	zero,32(s0)
    8000527c:	02042423          	sw	zero,40(s0)
    80005280:	6c8010ef          	jal	80006948 <memset>
    80005284:	000107b7          	lui	a5,0x10
    80005288:	00001a17          	auipc	s4,0x1
    8000528c:	cb4a0a13          	add	s4,s4,-844 # 80005f3c <__sread>
    80005290:	00001997          	auipc	s3,0x1
    80005294:	d1098993          	add	s3,s3,-752 # 80005fa0 <__swrite>
    80005298:	00001917          	auipc	s2,0x1
    8000529c:	d9090913          	add	s2,s2,-624 # 80006028 <__sseek>
    800052a0:	00001497          	auipc	s1,0x1
    800052a4:	e0048493          	add	s1,s1,-512 # 800060a0 <__sclose>
    800052a8:	00978793          	add	a5,a5,9 # 10009 <__stack_shift+0xfff2>
    800052ac:	00800613          	li	a2,8
    800052b0:	00000593          	li	a1,0
    800052b4:	a5418513          	add	a0,gp,-1452 # 8001eb4c <__sf+0x154>
    800052b8:	03443c23          	sd	s4,56(s0)
    800052bc:	05343023          	sd	s3,64(s0)
    800052c0:	05243423          	sd	s2,72(s0)
    800052c4:	04943823          	sd	s1,80(s0)
    800052c8:	0cf42023          	sw	a5,192(s0)
    800052cc:	02843823          	sd	s0,48(s0)
    800052d0:	0a043823          	sd	zero,176(s0)
    800052d4:	0a043c23          	sd	zero,184(s0)
    800052d8:	14042e23          	sw	zero,348(s0)
    800052dc:	0c043423          	sd	zero,200(s0)
    800052e0:	0c042823          	sw	zero,208(s0)
    800052e4:	0c042c23          	sw	zero,216(s0)
    800052e8:	660010ef          	jal	80006948 <memset>
    800052ec:	000207b7          	lui	a5,0x20
    800052f0:	01278793          	add	a5,a5,18 # 20012 <__stack_shift+0x1fffb>
    800052f4:	9b018713          	add	a4,gp,-1616 # 8001eaa8 <__sf+0xb0>
    800052f8:	00800613          	li	a2,8
    800052fc:	00000593          	li	a1,0
    80005300:	b0418513          	add	a0,gp,-1276 # 8001ebfc <__sf+0x204>
    80005304:	0f443423          	sd	s4,232(s0)
    80005308:	0f343823          	sd	s3,240(s0)
    8000530c:	0f243c23          	sd	s2,248(s0)
    80005310:	10943023          	sd	s1,256(s0)
    80005314:	16f42823          	sw	a5,368(s0)
    80005318:	0ee43023          	sd	a4,224(s0)
    8000531c:	16043023          	sd	zero,352(s0)
    80005320:	16043423          	sd	zero,360(s0)
    80005324:	20042623          	sw	zero,524(s0)
    80005328:	16043c23          	sd	zero,376(s0)
    8000532c:	18042023          	sw	zero,384(s0)
    80005330:	18042423          	sw	zero,392(s0)
    80005334:	614010ef          	jal	80006948 <memset>
    80005338:	a6018793          	add	a5,gp,-1440 # 8001eb58 <__sf+0x160>
    8000533c:	19443c23          	sd	s4,408(s0)
    80005340:	1b343023          	sd	s3,416(s0)
    80005344:	1b243423          	sd	s2,424(s0)
    80005348:	1a943823          	sd	s1,432(s0)
    8000534c:	02813083          	ld	ra,40(sp)
    80005350:	18f43823          	sd	a5,400(s0)
    80005354:	02013403          	ld	s0,32(sp)
    80005358:	01813483          	ld	s1,24(sp)
    8000535c:	01013903          	ld	s2,16(sp)
    80005360:	00813983          	ld	s3,8(sp)
    80005364:	00013a03          	ld	s4,0(sp)
    80005368:	03010113          	add	sp,sp,48
    8000536c:	00008067          	ret

0000000080005370 <__sfp>:
    80005370:	fd010113          	add	sp,sp,-48
    80005374:	01213823          	sd	s2,16(sp)
    80005378:	02113423          	sd	ra,40(sp)
    8000537c:	02813023          	sd	s0,32(sp)
    80005380:	00913c23          	sd	s1,24(sp)
    80005384:	01313423          	sd	s3,8(sp)
    80005388:	8a81b783          	ld	a5,-1880(gp) # 8001e9a0 <__stdio_exit_handler>
    8000538c:	00050913          	mv	s2,a0
    80005390:	0e078a63          	beqz	a5,80005484 <__sfp+0x114>
    80005394:	00019497          	auipc	s1,0x19
    80005398:	a3c48493          	add	s1,s1,-1476 # 8001ddd0 <__sglue>
    8000539c:	0b000993          	li	s3,176
    800053a0:	0084a703          	lw	a4,8(s1)
    800053a4:	0104b403          	ld	s0,16(s1)
    800053a8:	08e05663          	blez	a4,80005434 <__sfp+0xc4>
    800053ac:	02071713          	sll	a4,a4,0x20
    800053b0:	02075713          	srl	a4,a4,0x20
    800053b4:	03370733          	mul	a4,a4,s3
    800053b8:	00e40733          	add	a4,s0,a4
    800053bc:	00c0006f          	j	800053c8 <__sfp+0x58>
    800053c0:	0b040413          	add	s0,s0,176
    800053c4:	06870863          	beq	a4,s0,80005434 <__sfp+0xc4>
    800053c8:	01041783          	lh	a5,16(s0)
    800053cc:	fe079ae3          	bnez	a5,800053c0 <__sfp+0x50>
    800053d0:	ffff07b7          	lui	a5,0xffff0
    800053d4:	00178793          	add	a5,a5,1 # ffffffffffff0001 <__heap_end+0xffffffff7f7d1001>
    800053d8:	00f42823          	sw	a5,16(s0)
    800053dc:	0a042623          	sw	zero,172(s0)
    800053e0:	00043023          	sd	zero,0(s0)
    800053e4:	00043423          	sd	zero,8(s0)
    800053e8:	00043c23          	sd	zero,24(s0)
    800053ec:	02042023          	sw	zero,32(s0)
    800053f0:	02042423          	sw	zero,40(s0)
    800053f4:	00800613          	li	a2,8
    800053f8:	00000593          	li	a1,0
    800053fc:	0a440513          	add	a0,s0,164
    80005400:	548010ef          	jal	80006948 <memset>
    80005404:	04043c23          	sd	zero,88(s0)
    80005408:	06042023          	sw	zero,96(s0)
    8000540c:	06043c23          	sd	zero,120(s0)
    80005410:	08042023          	sw	zero,128(s0)
    80005414:	02813083          	ld	ra,40(sp)
    80005418:	00040513          	mv	a0,s0
    8000541c:	02013403          	ld	s0,32(sp)
    80005420:	01813483          	ld	s1,24(sp)
    80005424:	01013903          	ld	s2,16(sp)
    80005428:	00813983          	ld	s3,8(sp)
    8000542c:	03010113          	add	sp,sp,48
    80005430:	00008067          	ret
    80005434:	0004b403          	ld	s0,0(s1)
    80005438:	00040663          	beqz	s0,80005444 <__sfp+0xd4>
    8000543c:	00040493          	mv	s1,s0
    80005440:	f61ff06f          	j	800053a0 <__sfp+0x30>
    80005444:	2d800593          	li	a1,728
    80005448:	00090513          	mv	a0,s2
    8000544c:	4b5010ef          	jal	80007100 <_malloc_r>
    80005450:	00050413          	mv	s0,a0
    80005454:	02050c63          	beqz	a0,8000548c <__sfp+0x11c>
    80005458:	01850513          	add	a0,a0,24
    8000545c:	00400793          	li	a5,4
    80005460:	00043023          	sd	zero,0(s0)
    80005464:	00f42423          	sw	a5,8(s0)
    80005468:	00a43823          	sd	a0,16(s0)
    8000546c:	2c000613          	li	a2,704
    80005470:	00000593          	li	a1,0
    80005474:	4d4010ef          	jal	80006948 <memset>
    80005478:	0084b023          	sd	s0,0(s1)
    8000547c:	00040493          	mv	s1,s0
    80005480:	f21ff06f          	j	800053a0 <__sfp+0x30>
    80005484:	da1ff0ef          	jal	80005224 <global_stdio_init.part.0>
    80005488:	f0dff06f          	j	80005394 <__sfp+0x24>
    8000548c:	0004b023          	sd	zero,0(s1)
    80005490:	00c00793          	li	a5,12
    80005494:	00f92023          	sw	a5,0(s2)
    80005498:	f7dff06f          	j	80005414 <__sfp+0xa4>

000000008000549c <__sinit>:
    8000549c:	04853783          	ld	a5,72(a0)
    800054a0:	00078463          	beqz	a5,800054a8 <__sinit+0xc>
    800054a4:	00008067          	ret
    800054a8:	00000797          	auipc	a5,0x0
    800054ac:	d0c78793          	add	a5,a5,-756 # 800051b4 <cleanup_stdio>
    800054b0:	04f53423          	sd	a5,72(a0)
    800054b4:	8a81b783          	ld	a5,-1880(gp) # 8001e9a0 <__stdio_exit_handler>
    800054b8:	fe0796e3          	bnez	a5,800054a4 <__sinit+0x8>
    800054bc:	d69ff06f          	j	80005224 <global_stdio_init.part.0>

00000000800054c0 <__sfp_lock_acquire>:
    800054c0:	00008067          	ret

00000000800054c4 <__sfp_lock_release>:
    800054c4:	00008067          	ret

00000000800054c8 <__fp_lock_all>:
    800054c8:	00019617          	auipc	a2,0x19
    800054cc:	90860613          	add	a2,a2,-1784 # 8001ddd0 <__sglue>
    800054d0:	00000597          	auipc	a1,0x0
    800054d4:	cc058593          	add	a1,a1,-832 # 80005190 <__fp_lock>
    800054d8:	00000513          	li	a0,0
    800054dc:	4480006f          	j	80005924 <_fwalk_sglue>

00000000800054e0 <__fp_unlock_all>:
    800054e0:	00019617          	auipc	a2,0x19
    800054e4:	8f060613          	add	a2,a2,-1808 # 8001ddd0 <__sglue>
    800054e8:	00000597          	auipc	a1,0x0
    800054ec:	d3458593          	add	a1,a1,-716 # 8000521c <__fp_unlock>
    800054f0:	00000513          	li	a0,0
    800054f4:	4300006f          	j	80005924 <_fwalk_sglue>

00000000800054f8 <_fopen_r>:
    800054f8:	fc010113          	add	sp,sp,-64
    800054fc:	00060713          	mv	a4,a2
    80005500:	01313c23          	sd	s3,24(sp)
    80005504:	00c10613          	add	a2,sp,12
    80005508:	00058993          	mv	s3,a1
    8000550c:	00070593          	mv	a1,a4
    80005510:	03213023          	sd	s2,32(sp)
    80005514:	02113c23          	sd	ra,56(sp)
    80005518:	02813823          	sd	s0,48(sp)
    8000551c:	00050913          	mv	s2,a0
    80005520:	4d1040ef          	jal	8000a1f0 <__sflags>
    80005524:	0c050e63          	beqz	a0,80005600 <_fopen_r+0x108>
    80005528:	02913423          	sd	s1,40(sp)
    8000552c:	00050493          	mv	s1,a0
    80005530:	00090513          	mv	a0,s2
    80005534:	e3dff0ef          	jal	80005370 <__sfp>
    80005538:	00050413          	mv	s0,a0
    8000553c:	0c050063          	beqz	a0,800055fc <_fopen_r+0x104>
    80005540:	00c12603          	lw	a2,12(sp)
    80005544:	1b600693          	li	a3,438
    80005548:	00098593          	mv	a1,s3
    8000554c:	00090513          	mv	a0,s2
    80005550:	2e4010ef          	jal	80006834 <_open_r>
    80005554:	0a054a63          	bltz	a0,80005608 <_fopen_r+0x110>
    80005558:	03049793          	sll	a5,s1,0x30
    8000555c:	0105151b          	sllw	a0,a0,0x10
    80005560:	0307d793          	srl	a5,a5,0x30
    80005564:	00a7e7b3          	or	a5,a5,a0
    80005568:	00f42823          	sw	a5,16(s0)
    8000556c:	00001797          	auipc	a5,0x1
    80005570:	9d078793          	add	a5,a5,-1584 # 80005f3c <__sread>
    80005574:	02f43c23          	sd	a5,56(s0)
    80005578:	00001797          	auipc	a5,0x1
    8000557c:	a2878793          	add	a5,a5,-1496 # 80005fa0 <__swrite>
    80005580:	04f43023          	sd	a5,64(s0)
    80005584:	00001797          	auipc	a5,0x1
    80005588:	aa478793          	add	a5,a5,-1372 # 80006028 <__sseek>
    8000558c:	04f43423          	sd	a5,72(s0)
    80005590:	00001797          	auipc	a5,0x1
    80005594:	b1078793          	add	a5,a5,-1264 # 800060a0 <__sclose>
    80005598:	02843823          	sd	s0,48(s0)
    8000559c:	04f43823          	sd	a5,80(s0)
    800055a0:	1004f493          	and	s1,s1,256
    800055a4:	02049263          	bnez	s1,800055c8 <_fopen_r+0xd0>
    800055a8:	02813483          	ld	s1,40(sp)
    800055ac:	03813083          	ld	ra,56(sp)
    800055b0:	00040513          	mv	a0,s0
    800055b4:	03013403          	ld	s0,48(sp)
    800055b8:	02013903          	ld	s2,32(sp)
    800055bc:	01813983          	ld	s3,24(sp)
    800055c0:	04010113          	add	sp,sp,64
    800055c4:	00008067          	ret
    800055c8:	00040593          	mv	a1,s0
    800055cc:	00090513          	mv	a0,s2
    800055d0:	00200693          	li	a3,2
    800055d4:	00000613          	li	a2,0
    800055d8:	324000ef          	jal	800058fc <_fseek_r>
    800055dc:	03813083          	ld	ra,56(sp)
    800055e0:	00040513          	mv	a0,s0
    800055e4:	03013403          	ld	s0,48(sp)
    800055e8:	02813483          	ld	s1,40(sp)
    800055ec:	02013903          	ld	s2,32(sp)
    800055f0:	01813983          	ld	s3,24(sp)
    800055f4:	04010113          	add	sp,sp,64
    800055f8:	00008067          	ret
    800055fc:	02813483          	ld	s1,40(sp)
    80005600:	00000413          	li	s0,0
    80005604:	fa9ff06f          	j	800055ac <_fopen_r+0xb4>
    80005608:	eb9ff0ef          	jal	800054c0 <__sfp_lock_acquire>
    8000560c:	00041823          	sh	zero,16(s0)
    80005610:	eb5ff0ef          	jal	800054c4 <__sfp_lock_release>
    80005614:	00000413          	li	s0,0
    80005618:	02813483          	ld	s1,40(sp)
    8000561c:	f91ff06f          	j	800055ac <_fopen_r+0xb4>

0000000080005620 <fopen>:
    80005620:	00058613          	mv	a2,a1
    80005624:	00050593          	mv	a1,a0
    80005628:	8101b503          	ld	a0,-2032(gp) # 8001e908 <_impure_ptr>
    8000562c:	ecdff06f          	j	800054f8 <_fopen_r>

0000000080005630 <_fread_r>:
    80005630:	fa010113          	add	sp,sp,-96
    80005634:	01713c23          	sd	s7,24(sp)
    80005638:	02c68bb3          	mul	s7,a3,a2
    8000563c:	04113c23          	sd	ra,88(sp)
    80005640:	140b8863          	beqz	s7,80005790 <_fread_r+0x160>
    80005644:	04813823          	sd	s0,80(sp)
    80005648:	05213023          	sd	s2,64(sp)
    8000564c:	03413823          	sd	s4,48(sp)
    80005650:	03513423          	sd	s5,40(sp)
    80005654:	03613023          	sd	s6,32(sp)
    80005658:	00068a93          	mv	s5,a3
    8000565c:	00060b13          	mv	s6,a2
    80005660:	00050a13          	mv	s4,a0
    80005664:	00058913          	mv	s2,a1
    80005668:	00070413          	mv	s0,a4
    8000566c:	00050663          	beqz	a0,80005678 <_fread_r+0x48>
    80005670:	04853783          	ld	a5,72(a0)
    80005674:	12078863          	beqz	a5,800057a4 <_fread_r+0x174>
    80005678:	01041703          	lh	a4,16(s0)
    8000567c:	0ac42783          	lw	a5,172(s0)
    80005680:	03271693          	sll	a3,a4,0x32
    80005684:	0206c063          	bltz	a3,800056a4 <_fread_r+0x74>
    80005688:	ffffe6b7          	lui	a3,0xffffe
    8000568c:	fff68693          	add	a3,a3,-1 # ffffffffffffdfff <__heap_end+0xffffffff7f7defff>
    80005690:	00002637          	lui	a2,0x2
    80005694:	00c76733          	or	a4,a4,a2
    80005698:	00d7f7b3          	and	a5,a5,a3
    8000569c:	00e41823          	sh	a4,16(s0)
    800056a0:	0af42623          	sw	a5,172(s0)
    800056a4:	03279713          	sll	a4,a5,0x32
    800056a8:	0c074a63          	bltz	a4,8000577c <_fread_r+0x14c>
    800056ac:	04913423          	sd	s1,72(sp)
    800056b0:	00842483          	lw	s1,8(s0)
    800056b4:	03313c23          	sd	s3,56(sp)
    800056b8:	00048713          	mv	a4,s1
    800056bc:	0004d863          	bgez	s1,800056cc <_fread_r+0x9c>
    800056c0:	00042423          	sw	zero,8(s0)
    800056c4:	00000713          	li	a4,0
    800056c8:	00000493          	li	s1,0
    800056cc:	01045783          	lhu	a5,16(s0)
    800056d0:	00043583          	ld	a1,0(s0)
    800056d4:	000b8993          	mv	s3,s7
    800056d8:	0027f793          	and	a5,a5,2
    800056dc:	0c079863          	bnez	a5,800057ac <_fread_r+0x17c>
    800056e0:	01813823          	sd	s8,16(sp)
    800056e4:	0380006f          	j	8000571c <_fread_r+0xec>
    800056e8:	33c010ef          	jal	80006a24 <memcpy>
    800056ec:	00043783          	ld	a5,0(s0)
    800056f0:	00040593          	mv	a1,s0
    800056f4:	000a0513          	mv	a0,s4
    800056f8:	009787b3          	add	a5,a5,s1
    800056fc:	00f43023          	sd	a5,0(s0)
    80005700:	00990933          	add	s2,s2,s1
    80005704:	40998c33          	sub	s8,s3,s1
    80005708:	66c000ef          	jal	80005d74 <__srefill_r>
    8000570c:	18051263          	bnez	a0,80005890 <_fread_r+0x260>
    80005710:	00842483          	lw	s1,8(s0)
    80005714:	00043583          	ld	a1,0(s0)
    80005718:	000c0993          	mv	s3,s8
    8000571c:	00048613          	mv	a2,s1
    80005720:	00090513          	mv	a0,s2
    80005724:	fd34e2e3          	bltu	s1,s3,800056e8 <_fread_r+0xb8>
    80005728:	00098613          	mv	a2,s3
    8000572c:	2f8010ef          	jal	80006a24 <memcpy>
    80005730:	00842703          	lw	a4,8(s0)
    80005734:	00043783          	ld	a5,0(s0)
    80005738:	01013c03          	ld	s8,16(sp)
    8000573c:	4137073b          	subw	a4,a4,s3
    80005740:	013787b3          	add	a5,a5,s3
    80005744:	00e42423          	sw	a4,8(s0)
    80005748:	00f43023          	sd	a5,0(s0)
    8000574c:	05013403          	ld	s0,80(sp)
    80005750:	05813083          	ld	ra,88(sp)
    80005754:	04813483          	ld	s1,72(sp)
    80005758:	04013903          	ld	s2,64(sp)
    8000575c:	03813983          	ld	s3,56(sp)
    80005760:	03013a03          	ld	s4,48(sp)
    80005764:	02013b03          	ld	s6,32(sp)
    80005768:	01813b83          	ld	s7,24(sp)
    8000576c:	000a8513          	mv	a0,s5
    80005770:	02813a83          	ld	s5,40(sp)
    80005774:	06010113          	add	sp,sp,96
    80005778:	00008067          	ret
    8000577c:	05013403          	ld	s0,80(sp)
    80005780:	04013903          	ld	s2,64(sp)
    80005784:	03013a03          	ld	s4,48(sp)
    80005788:	02813a83          	ld	s5,40(sp)
    8000578c:	02013b03          	ld	s6,32(sp)
    80005790:	00000513          	li	a0,0
    80005794:	05813083          	ld	ra,88(sp)
    80005798:	01813b83          	ld	s7,24(sp)
    8000579c:	06010113          	add	sp,sp,96
    800057a0:	00008067          	ret
    800057a4:	cf9ff0ef          	jal	8000549c <__sinit>
    800057a8:	ed1ff06f          	j	80005678 <_fread_r+0x48>
    800057ac:	000b8493          	mv	s1,s7
    800057b0:	01777463          	bgeu	a4,s7,800057b8 <_fread_r+0x188>
    800057b4:	00070493          	mv	s1,a4
    800057b8:	00048613          	mv	a2,s1
    800057bc:	00090513          	mv	a0,s2
    800057c0:	264010ef          	jal	80006a24 <memcpy>
    800057c4:	00043703          	ld	a4,0(s0)
    800057c8:	00842783          	lw	a5,8(s0)
    800057cc:	05843583          	ld	a1,88(s0)
    800057d0:	00970733          	add	a4,a4,s1
    800057d4:	409787bb          	subw	a5,a5,s1
    800057d8:	00e43023          	sd	a4,0(s0)
    800057dc:	00f42423          	sw	a5,8(s0)
    800057e0:	409b89b3          	sub	s3,s7,s1
    800057e4:	0e058463          	beqz	a1,800058cc <_fread_r+0x29c>
    800057e8:	f60982e3          	beqz	s3,8000574c <_fread_r+0x11c>
    800057ec:	01813823          	sd	s8,16(sp)
    800057f0:	01913423          	sd	s9,8(sp)
    800057f4:	07440793          	add	a5,s0,116
    800057f8:	00f58663          	beq	a1,a5,80005804 <_fread_r+0x1d4>
    800057fc:	000a0513          	mv	a0,s4
    80005800:	5e0010ef          	jal	80006de0 <_free_r>
    80005804:	04043c23          	sd	zero,88(s0)
    80005808:	009904b3          	add	s1,s2,s1
    8000580c:	0080006f          	j	80005814 <_fread_r+0x1e4>
    80005810:	00070993          	mv	s3,a4
    80005814:	00040593          	mv	a1,s0
    80005818:	000a0513          	mv	a0,s4
    8000581c:	0a098e63          	beqz	s3,800058d8 <_fread_r+0x2a8>
    80005820:	01843c83          	ld	s9,24(s0)
    80005824:	00043903          	ld	s2,0(s0)
    80005828:	02042c03          	lw	s8,32(s0)
    8000582c:	00943c23          	sd	s1,24(s0)
    80005830:	00943023          	sd	s1,0(s0)
    80005834:	03342023          	sw	s3,32(s0)
    80005838:	53c000ef          	jal	80005d74 <__srefill_r>
    8000583c:	00842783          	lw	a5,8(s0)
    80005840:	01943c23          	sd	s9,24(s0)
    80005844:	03842023          	sw	s8,32(s0)
    80005848:	01243023          	sd	s2,0(s0)
    8000584c:	00042423          	sw	zero,8(s0)
    80005850:	40f98733          	sub	a4,s3,a5
    80005854:	00f484b3          	add	s1,s1,a5
    80005858:	fa050ce3          	beqz	a0,80005810 <_fread_r+0x1e0>
    8000585c:	017787b3          	add	a5,a5,s7
    80005860:	413787b3          	sub	a5,a5,s3
    80005864:	0367d533          	divu	a0,a5,s6
    80005868:	05013403          	ld	s0,80(sp)
    8000586c:	04813483          	ld	s1,72(sp)
    80005870:	04013903          	ld	s2,64(sp)
    80005874:	03813983          	ld	s3,56(sp)
    80005878:	03013a03          	ld	s4,48(sp)
    8000587c:	02813a83          	ld	s5,40(sp)
    80005880:	02013b03          	ld	s6,32(sp)
    80005884:	01013c03          	ld	s8,16(sp)
    80005888:	00813c83          	ld	s9,8(sp)
    8000588c:	f09ff06f          	j	80005794 <_fread_r+0x164>
    80005890:	05013403          	ld	s0,80(sp)
    80005894:	05813083          	ld	ra,88(sp)
    80005898:	017484b3          	add	s1,s1,s7
    8000589c:	413484b3          	sub	s1,s1,s3
    800058a0:	0364d533          	divu	a0,s1,s6
    800058a4:	04013903          	ld	s2,64(sp)
    800058a8:	04813483          	ld	s1,72(sp)
    800058ac:	03813983          	ld	s3,56(sp)
    800058b0:	03013a03          	ld	s4,48(sp)
    800058b4:	02813a83          	ld	s5,40(sp)
    800058b8:	02013b03          	ld	s6,32(sp)
    800058bc:	01013c03          	ld	s8,16(sp)
    800058c0:	01813b83          	ld	s7,24(sp)
    800058c4:	06010113          	add	sp,sp,96
    800058c8:	00008067          	ret
    800058cc:	01813823          	sd	s8,16(sp)
    800058d0:	01913423          	sd	s9,8(sp)
    800058d4:	f35ff06f          	j	80005808 <_fread_r+0x1d8>
    800058d8:	01013c03          	ld	s8,16(sp)
    800058dc:	00813c83          	ld	s9,8(sp)
    800058e0:	e6dff06f          	j	8000574c <_fread_r+0x11c>

00000000800058e4 <fread>:
    800058e4:	00068713          	mv	a4,a3
    800058e8:	00060693          	mv	a3,a2
    800058ec:	00058613          	mv	a2,a1
    800058f0:	00050593          	mv	a1,a0
    800058f4:	8101b503          	ld	a0,-2032(gp) # 8001e908 <_impure_ptr>
    800058f8:	d39ff06f          	j	80005630 <_fread_r>

00000000800058fc <_fseek_r>:
    800058fc:	7ac0006f          	j	800060a8 <_fseeko_r>

0000000080005900 <fseek>:
    80005900:	00060693          	mv	a3,a2
    80005904:	00058613          	mv	a2,a1
    80005908:	00050593          	mv	a1,a0
    8000590c:	8101b503          	ld	a0,-2032(gp) # 8001e908 <_impure_ptr>
    80005910:	7980006f          	j	800060a8 <_fseeko_r>

0000000080005914 <_ftell_r>:
    80005914:	4190006f          	j	8000652c <_ftello_r>

0000000080005918 <ftell>:
    80005918:	00050593          	mv	a1,a0
    8000591c:	8101b503          	ld	a0,-2032(gp) # 8001e908 <_impure_ptr>
    80005920:	40d0006f          	j	8000652c <_ftello_r>

0000000080005924 <_fwalk_sglue>:
    80005924:	fb010113          	add	sp,sp,-80
    80005928:	03213823          	sd	s2,48(sp)
    8000592c:	03313423          	sd	s3,40(sp)
    80005930:	03413023          	sd	s4,32(sp)
    80005934:	01513c23          	sd	s5,24(sp)
    80005938:	01613823          	sd	s6,16(sp)
    8000593c:	01713423          	sd	s7,8(sp)
    80005940:	01813023          	sd	s8,0(sp)
    80005944:	04113423          	sd	ra,72(sp)
    80005948:	04813023          	sd	s0,64(sp)
    8000594c:	02913c23          	sd	s1,56(sp)
    80005950:	00050a13          	mv	s4,a0
    80005954:	00058b13          	mv	s6,a1
    80005958:	00060993          	mv	s3,a2
    8000595c:	00000913          	li	s2,0
    80005960:	0b000b93          	li	s7,176
    80005964:	00100c13          	li	s8,1
    80005968:	fff00a93          	li	s5,-1
    8000596c:	0089a483          	lw	s1,8(s3)
    80005970:	0109b403          	ld	s0,16(s3)
    80005974:	04905063          	blez	s1,800059b4 <_fwalk_sglue+0x90>
    80005978:	02049493          	sll	s1,s1,0x20
    8000597c:	0204d493          	srl	s1,s1,0x20
    80005980:	037484b3          	mul	s1,s1,s7
    80005984:	009404b3          	add	s1,s0,s1
    80005988:	01045783          	lhu	a5,16(s0)
    8000598c:	02fc7063          	bgeu	s8,a5,800059ac <_fwalk_sglue+0x88>
    80005990:	01241783          	lh	a5,18(s0)
    80005994:	00040593          	mv	a1,s0
    80005998:	000a0513          	mv	a0,s4
    8000599c:	01578863          	beq	a5,s5,800059ac <_fwalk_sglue+0x88>
    800059a0:	000b00e7          	jalr	s6
    800059a4:	01256933          	or	s2,a0,s2
    800059a8:	0009091b          	sext.w	s2,s2
    800059ac:	0b040413          	add	s0,s0,176
    800059b0:	fc941ce3          	bne	s0,s1,80005988 <_fwalk_sglue+0x64>
    800059b4:	0009b983          	ld	s3,0(s3)
    800059b8:	fa099ae3          	bnez	s3,8000596c <_fwalk_sglue+0x48>
    800059bc:	04813083          	ld	ra,72(sp)
    800059c0:	04013403          	ld	s0,64(sp)
    800059c4:	03813483          	ld	s1,56(sp)
    800059c8:	02813983          	ld	s3,40(sp)
    800059cc:	02013a03          	ld	s4,32(sp)
    800059d0:	01813a83          	ld	s5,24(sp)
    800059d4:	01013b03          	ld	s6,16(sp)
    800059d8:	00813b83          	ld	s7,8(sp)
    800059dc:	00013c03          	ld	s8,0(sp)
    800059e0:	00090513          	mv	a0,s2
    800059e4:	03013903          	ld	s2,48(sp)
    800059e8:	05010113          	add	sp,sp,80
    800059ec:	00008067          	ret

00000000800059f0 <_fwrite_r>:
    800059f0:	f9010113          	add	sp,sp,-112
    800059f4:	05313423          	sd	s3,72(sp)
    800059f8:	02c689b3          	mul	s3,a3,a2
    800059fc:	01810793          	add	a5,sp,24
    80005a00:	02f13423          	sd	a5,40(sp)
    80005a04:	00100793          	li	a5,1
    80005a08:	06813023          	sd	s0,96(sp)
    80005a0c:	04913c23          	sd	s1,88(sp)
    80005a10:	05213823          	sd	s2,80(sp)
    80005a14:	00b13c23          	sd	a1,24(sp)
    80005a18:	06113423          	sd	ra,104(sp)
    80005a1c:	02f12823          	sw	a5,48(sp)
    80005a20:	03313023          	sd	s3,32(sp)
    80005a24:	03313c23          	sd	s3,56(sp)
    80005a28:	00060913          	mv	s2,a2
    80005a2c:	00068493          	mv	s1,a3
    80005a30:	00050413          	mv	s0,a0
    80005a34:	00070593          	mv	a1,a4
    80005a38:	00050663          	beqz	a0,80005a44 <_fwrite_r+0x54>
    80005a3c:	04853783          	ld	a5,72(a0)
    80005a40:	08078c63          	beqz	a5,80005ad8 <_fwrite_r+0xe8>
    80005a44:	01059703          	lh	a4,16(a1)
    80005a48:	0ac5a783          	lw	a5,172(a1)
    80005a4c:	03271693          	sll	a3,a4,0x32
    80005a50:	0206c063          	bltz	a3,80005a70 <_fwrite_r+0x80>
    80005a54:	ffffe6b7          	lui	a3,0xffffe
    80005a58:	fff68693          	add	a3,a3,-1 # ffffffffffffdfff <__heap_end+0xffffffff7f7defff>
    80005a5c:	00002637          	lui	a2,0x2
    80005a60:	00c76733          	or	a4,a4,a2
    80005a64:	00d7f7b3          	and	a5,a5,a3
    80005a68:	00e59823          	sh	a4,16(a1)
    80005a6c:	0af5a623          	sw	a5,172(a1)
    80005a70:	03279713          	sll	a4,a5,0x32
    80005a74:	00000513          	li	a0,0
    80005a78:	02075063          	bgez	a4,80005a98 <_fwrite_r+0xa8>
    80005a7c:	06813083          	ld	ra,104(sp)
    80005a80:	06013403          	ld	s0,96(sp)
    80005a84:	05813483          	ld	s1,88(sp)
    80005a88:	05013903          	ld	s2,80(sp)
    80005a8c:	04813983          	ld	s3,72(sp)
    80005a90:	07010113          	add	sp,sp,112
    80005a94:	00008067          	ret
    80005a98:	02810613          	add	a2,sp,40
    80005a9c:	00040513          	mv	a0,s0
    80005aa0:	7fc040ef          	jal	8000a29c <__sfvwrite_r>
    80005aa4:	00050793          	mv	a5,a0
    80005aa8:	00048513          	mv	a0,s1
    80005aac:	fc0788e3          	beqz	a5,80005a7c <_fwrite_r+0x8c>
    80005ab0:	03813783          	ld	a5,56(sp)
    80005ab4:	06813083          	ld	ra,104(sp)
    80005ab8:	06013403          	ld	s0,96(sp)
    80005abc:	40f989b3          	sub	s3,s3,a5
    80005ac0:	0329d533          	divu	a0,s3,s2
    80005ac4:	05813483          	ld	s1,88(sp)
    80005ac8:	05013903          	ld	s2,80(sp)
    80005acc:	04813983          	ld	s3,72(sp)
    80005ad0:	07010113          	add	sp,sp,112
    80005ad4:	00008067          	ret
    80005ad8:	00e13423          	sd	a4,8(sp)
    80005adc:	9c1ff0ef          	jal	8000549c <__sinit>
    80005ae0:	00813583          	ld	a1,8(sp)
    80005ae4:	f61ff06f          	j	80005a44 <_fwrite_r+0x54>

0000000080005ae8 <fwrite>:
    80005ae8:	f9010113          	add	sp,sp,-112
    80005aec:	05213823          	sd	s2,80(sp)
    80005af0:	02c58933          	mul	s2,a1,a2
    80005af4:	01810793          	add	a5,sp,24
    80005af8:	02f13423          	sd	a5,40(sp)
    80005afc:	00100793          	li	a5,1
    80005b00:	06813023          	sd	s0,96(sp)
    80005b04:	04913c23          	sd	s1,88(sp)
    80005b08:	05313423          	sd	s3,72(sp)
    80005b0c:	06113423          	sd	ra,104(sp)
    80005b10:	8101b983          	ld	s3,-2032(gp) # 8001e908 <_impure_ptr>
    80005b14:	00a13c23          	sd	a0,24(sp)
    80005b18:	02f12823          	sw	a5,48(sp)
    80005b1c:	03213023          	sd	s2,32(sp)
    80005b20:	03213c23          	sd	s2,56(sp)
    80005b24:	00058493          	mv	s1,a1
    80005b28:	00060413          	mv	s0,a2
    80005b2c:	00068593          	mv	a1,a3
    80005b30:	00098663          	beqz	s3,80005b3c <fwrite+0x54>
    80005b34:	0489b783          	ld	a5,72(s3)
    80005b38:	08078c63          	beqz	a5,80005bd0 <fwrite+0xe8>
    80005b3c:	01059703          	lh	a4,16(a1)
    80005b40:	0ac5a783          	lw	a5,172(a1)
    80005b44:	03271693          	sll	a3,a4,0x32
    80005b48:	0206c063          	bltz	a3,80005b68 <fwrite+0x80>
    80005b4c:	ffffe6b7          	lui	a3,0xffffe
    80005b50:	fff68693          	add	a3,a3,-1 # ffffffffffffdfff <__heap_end+0xffffffff7f7defff>
    80005b54:	00002637          	lui	a2,0x2
    80005b58:	00c76733          	or	a4,a4,a2
    80005b5c:	00d7f7b3          	and	a5,a5,a3
    80005b60:	00e59823          	sh	a4,16(a1)
    80005b64:	0af5a623          	sw	a5,172(a1)
    80005b68:	03279713          	sll	a4,a5,0x32
    80005b6c:	00000513          	li	a0,0
    80005b70:	02075063          	bgez	a4,80005b90 <fwrite+0xa8>
    80005b74:	06813083          	ld	ra,104(sp)
    80005b78:	06013403          	ld	s0,96(sp)
    80005b7c:	05813483          	ld	s1,88(sp)
    80005b80:	05013903          	ld	s2,80(sp)
    80005b84:	04813983          	ld	s3,72(sp)
    80005b88:	07010113          	add	sp,sp,112
    80005b8c:	00008067          	ret
    80005b90:	02810613          	add	a2,sp,40
    80005b94:	00098513          	mv	a0,s3
    80005b98:	704040ef          	jal	8000a29c <__sfvwrite_r>
    80005b9c:	00050793          	mv	a5,a0
    80005ba0:	00040513          	mv	a0,s0
    80005ba4:	fc0788e3          	beqz	a5,80005b74 <fwrite+0x8c>
    80005ba8:	03813783          	ld	a5,56(sp)
    80005bac:	06813083          	ld	ra,104(sp)
    80005bb0:	06013403          	ld	s0,96(sp)
    80005bb4:	40f90933          	sub	s2,s2,a5
    80005bb8:	02995533          	divu	a0,s2,s1
    80005bbc:	04813983          	ld	s3,72(sp)
    80005bc0:	05813483          	ld	s1,88(sp)
    80005bc4:	05013903          	ld	s2,80(sp)
    80005bc8:	07010113          	add	sp,sp,112
    80005bcc:	00008067          	ret
    80005bd0:	00098513          	mv	a0,s3
    80005bd4:	00d13423          	sd	a3,8(sp)
    80005bd8:	8c5ff0ef          	jal	8000549c <__sinit>
    80005bdc:	00813583          	ld	a1,8(sp)
    80005be0:	f5dff06f          	j	80005b3c <fwrite+0x54>

0000000080005be4 <_printf_r>:
    80005be4:	fb010113          	add	sp,sp,-80
    80005be8:	02c13023          	sd	a2,32(sp)
    80005bec:	02d13423          	sd	a3,40(sp)
    80005bf0:	02e13823          	sd	a4,48(sp)
    80005bf4:	02f13c23          	sd	a5,56(sp)
    80005bf8:	05013023          	sd	a6,64(sp)
    80005bfc:	05113423          	sd	a7,72(sp)
    80005c00:	00058613          	mv	a2,a1
    80005c04:	01053583          	ld	a1,16(a0)
    80005c08:	02010693          	add	a3,sp,32
    80005c0c:	00113c23          	sd	ra,24(sp)
    80005c10:	00d13423          	sd	a3,8(sp)
    80005c14:	511010ef          	jal	80007924 <_vfprintf_r>
    80005c18:	01813083          	ld	ra,24(sp)
    80005c1c:	05010113          	add	sp,sp,80
    80005c20:	00008067          	ret

0000000080005c24 <printf>:
    80005c24:	fa010113          	add	sp,sp,-96
    80005c28:	02c13823          	sd	a2,48(sp)
    80005c2c:	02d13c23          	sd	a3,56(sp)
    80005c30:	8101b303          	ld	t1,-2032(gp) # 8001e908 <_impure_ptr>
    80005c34:	02b13423          	sd	a1,40(sp)
    80005c38:	04e13023          	sd	a4,64(sp)
    80005c3c:	04f13423          	sd	a5,72(sp)
    80005c40:	05013823          	sd	a6,80(sp)
    80005c44:	05113c23          	sd	a7,88(sp)
    80005c48:	01033583          	ld	a1,16(t1)
    80005c4c:	02810693          	add	a3,sp,40
    80005c50:	00050613          	mv	a2,a0
    80005c54:	00030513          	mv	a0,t1
    80005c58:	00113c23          	sd	ra,24(sp)
    80005c5c:	00d13423          	sd	a3,8(sp)
    80005c60:	4c5010ef          	jal	80007924 <_vfprintf_r>
    80005c64:	01813083          	ld	ra,24(sp)
    80005c68:	06010113          	add	sp,sp,96
    80005c6c:	00008067          	ret

0000000080005c70 <_puts_r>:
    80005c70:	f9010113          	add	sp,sp,-112
    80005c74:	06813023          	sd	s0,96(sp)
    80005c78:	00050413          	mv	s0,a0
    80005c7c:	00058513          	mv	a0,a1
    80005c80:	04913c23          	sd	s1,88(sp)
    80005c84:	06113423          	sd	ra,104(sp)
    80005c88:	00058493          	mv	s1,a1
    80005c8c:	73d000ef          	jal	80006bc8 <strlen>
    80005c90:	00150713          	add	a4,a0,1
    80005c94:	00017697          	auipc	a3,0x17
    80005c98:	6d468693          	add	a3,a3,1748 # 8001d368 <s_box+0x120>
    80005c9c:	02e13423          	sd	a4,40(sp)
    80005ca0:	04843783          	ld	a5,72(s0)
    80005ca4:	03010713          	add	a4,sp,48
    80005ca8:	04d13023          	sd	a3,64(sp)
    80005cac:	00e13c23          	sd	a4,24(sp)
    80005cb0:	00100693          	li	a3,1
    80005cb4:	00200713          	li	a4,2
    80005cb8:	02913823          	sd	s1,48(sp)
    80005cbc:	02a13c23          	sd	a0,56(sp)
    80005cc0:	04d13423          	sd	a3,72(sp)
    80005cc4:	02e12023          	sw	a4,32(sp)
    80005cc8:	01043583          	ld	a1,16(s0)
    80005ccc:	06078063          	beqz	a5,80005d2c <_puts_r+0xbc>
    80005cd0:	01059703          	lh	a4,16(a1)
    80005cd4:	0ac5a783          	lw	a5,172(a1)
    80005cd8:	03271693          	sll	a3,a4,0x32
    80005cdc:	0206c063          	bltz	a3,80005cfc <_puts_r+0x8c>
    80005ce0:	ffffe6b7          	lui	a3,0xffffe
    80005ce4:	fff68693          	add	a3,a3,-1 # ffffffffffffdfff <__heap_end+0xffffffff7f7defff>
    80005ce8:	00002637          	lui	a2,0x2
    80005cec:	00c76733          	or	a4,a4,a2
    80005cf0:	00d7f7b3          	and	a5,a5,a3
    80005cf4:	00e59823          	sh	a4,16(a1)
    80005cf8:	0af5a623          	sw	a5,172(a1)
    80005cfc:	03279713          	sll	a4,a5,0x32
    80005d00:	04074063          	bltz	a4,80005d40 <_puts_r+0xd0>
    80005d04:	01810613          	add	a2,sp,24
    80005d08:	00040513          	mv	a0,s0
    80005d0c:	590040ef          	jal	8000a29c <__sfvwrite_r>
    80005d10:	02051863          	bnez	a0,80005d40 <_puts_r+0xd0>
    80005d14:	00a00513          	li	a0,10
    80005d18:	06813083          	ld	ra,104(sp)
    80005d1c:	06013403          	ld	s0,96(sp)
    80005d20:	05813483          	ld	s1,88(sp)
    80005d24:	07010113          	add	sp,sp,112
    80005d28:	00008067          	ret
    80005d2c:	00040513          	mv	a0,s0
    80005d30:	00b13423          	sd	a1,8(sp)
    80005d34:	f68ff0ef          	jal	8000549c <__sinit>
    80005d38:	00813583          	ld	a1,8(sp)
    80005d3c:	f95ff06f          	j	80005cd0 <_puts_r+0x60>
    80005d40:	fff00513          	li	a0,-1
    80005d44:	fd5ff06f          	j	80005d18 <_puts_r+0xa8>

0000000080005d48 <puts>:
    80005d48:	00050593          	mv	a1,a0
    80005d4c:	8101b503          	ld	a0,-2032(gp) # 8001e908 <_impure_ptr>
    80005d50:	f21ff06f          	j	80005c70 <_puts_r>

0000000080005d54 <lflush>:
    80005d54:	0105d783          	lhu	a5,16(a1)
    80005d58:	00900713          	li	a4,9
    80005d5c:	0097f793          	and	a5,a5,9
    80005d60:	00e78663          	beq	a5,a4,80005d6c <lflush+0x18>
    80005d64:	00000513          	li	a0,0
    80005d68:	00008067          	ret
    80005d6c:	8101b503          	ld	a0,-2032(gp) # 8001e908 <_impure_ptr>
    80005d70:	ad0ff06f          	j	80005040 <_fflush_r>

0000000080005d74 <__srefill_r>:
    80005d74:	fe010113          	add	sp,sp,-32
    80005d78:	00813823          	sd	s0,16(sp)
    80005d7c:	00913423          	sd	s1,8(sp)
    80005d80:	00113c23          	sd	ra,24(sp)
    80005d84:	00050493          	mv	s1,a0
    80005d88:	00058413          	mv	s0,a1
    80005d8c:	00050663          	beqz	a0,80005d98 <__srefill_r+0x24>
    80005d90:	04853783          	ld	a5,72(a0)
    80005d94:	14078a63          	beqz	a5,80005ee8 <__srefill_r+0x174>
    80005d98:	01041783          	lh	a5,16(s0)
    80005d9c:	00042423          	sw	zero,8(s0)
    80005da0:	0207f713          	and	a4,a5,32
    80005da4:	16071063          	bnez	a4,80005f04 <__srefill_r+0x190>
    80005da8:	0047f713          	and	a4,a5,4
    80005dac:	06071c63          	bnez	a4,80005e24 <__srefill_r+0xb0>
    80005db0:	0107f713          	and	a4,a5,16
    80005db4:	14070c63          	beqz	a4,80005f0c <__srefill_r+0x198>
    80005db8:	0087f713          	and	a4,a5,8
    80005dbc:	10071263          	bnez	a4,80005ec0 <__srefill_r+0x14c>
    80005dc0:	01213023          	sd	s2,0(sp)
    80005dc4:	0047e793          	or	a5,a5,4
    80005dc8:	00f41823          	sh	a5,16(s0)
    80005dcc:	01843783          	ld	a5,24(s0)
    80005dd0:	08078463          	beqz	a5,80005e58 <__srefill_r+0xe4>
    80005dd4:	01041903          	lh	s2,16(s0)
    80005dd8:	00397793          	and	a5,s2,3
    80005ddc:	08079a63          	bnez	a5,80005e70 <__srefill_r+0xfc>
    80005de0:	01843603          	ld	a2,24(s0)
    80005de4:	03843783          	ld	a5,56(s0)
    80005de8:	02042683          	lw	a3,32(s0)
    80005dec:	03043583          	ld	a1,48(s0)
    80005df0:	00c43023          	sd	a2,0(s0)
    80005df4:	00048513          	mv	a0,s1
    80005df8:	000780e7          	jalr	a5
    80005dfc:	0005051b          	sext.w	a0,a0
    80005e00:	00a42423          	sw	a0,8(s0)
    80005e04:	0ea05663          	blez	a0,80005ef0 <__srefill_r+0x17c>
    80005e08:	00013903          	ld	s2,0(sp)
    80005e0c:	00000513          	li	a0,0
    80005e10:	01813083          	ld	ra,24(sp)
    80005e14:	01013403          	ld	s0,16(sp)
    80005e18:	00813483          	ld	s1,8(sp)
    80005e1c:	02010113          	add	sp,sp,32
    80005e20:	00008067          	ret
    80005e24:	05843583          	ld	a1,88(s0)
    80005e28:	02058263          	beqz	a1,80005e4c <__srefill_r+0xd8>
    80005e2c:	07440793          	add	a5,s0,116
    80005e30:	00f58663          	beq	a1,a5,80005e3c <__srefill_r+0xc8>
    80005e34:	00048513          	mv	a0,s1
    80005e38:	7a9000ef          	jal	80006de0 <_free_r>
    80005e3c:	07042783          	lw	a5,112(s0)
    80005e40:	04043c23          	sd	zero,88(s0)
    80005e44:	00f42423          	sw	a5,8(s0)
    80005e48:	06079663          	bnez	a5,80005eb4 <__srefill_r+0x140>
    80005e4c:	01843783          	ld	a5,24(s0)
    80005e50:	01213023          	sd	s2,0(sp)
    80005e54:	f80790e3          	bnez	a5,80005dd4 <__srefill_r+0x60>
    80005e58:	00040593          	mv	a1,s0
    80005e5c:	00048513          	mv	a0,s1
    80005e60:	145040ef          	jal	8000a7a4 <__smakebuf_r>
    80005e64:	01041903          	lh	s2,16(s0)
    80005e68:	00397793          	and	a5,s2,3
    80005e6c:	f6078ae3          	beqz	a5,80005de0 <__srefill_r+0x6c>
    80005e70:	00100793          	li	a5,1
    80005e74:	00f41823          	sh	a5,16(s0)
    80005e78:	00018617          	auipc	a2,0x18
    80005e7c:	f5860613          	add	a2,a2,-168 # 8001ddd0 <__sglue>
    80005e80:	00000597          	auipc	a1,0x0
    80005e84:	ed458593          	add	a1,a1,-300 # 80005d54 <lflush>
    80005e88:	00018517          	auipc	a0,0x18
    80005e8c:	f6050513          	add	a0,a0,-160 # 8001dde8 <_impure_data>
    80005e90:	a95ff0ef          	jal	80005924 <_fwalk_sglue>
    80005e94:	00900793          	li	a5,9
    80005e98:	01241823          	sh	s2,16(s0)
    80005e9c:	00997913          	and	s2,s2,9
    80005ea0:	f4f910e3          	bne	s2,a5,80005de0 <__srefill_r+0x6c>
    80005ea4:	00040593          	mv	a1,s0
    80005ea8:	00048513          	mv	a0,s1
    80005eac:	f45fe0ef          	jal	80004df0 <__sflush_r>
    80005eb0:	f31ff06f          	j	80005de0 <__srefill_r+0x6c>
    80005eb4:	06843783          	ld	a5,104(s0)
    80005eb8:	00f43023          	sd	a5,0(s0)
    80005ebc:	f51ff06f          	j	80005e0c <__srefill_r+0x98>
    80005ec0:	00040593          	mv	a1,s0
    80005ec4:	00048513          	mv	a0,s1
    80005ec8:	978ff0ef          	jal	80005040 <_fflush_r>
    80005ecc:	02051c63          	bnez	a0,80005f04 <__srefill_r+0x190>
    80005ed0:	01041783          	lh	a5,16(s0)
    80005ed4:	01213023          	sd	s2,0(sp)
    80005ed8:	00042623          	sw	zero,12(s0)
    80005edc:	02042423          	sw	zero,40(s0)
    80005ee0:	ff77f793          	and	a5,a5,-9
    80005ee4:	ee1ff06f          	j	80005dc4 <__srefill_r+0x50>
    80005ee8:	db4ff0ef          	jal	8000549c <__sinit>
    80005eec:	eadff06f          	j	80005d98 <__srefill_r+0x24>
    80005ef0:	01041783          	lh	a5,16(s0)
    80005ef4:	02051863          	bnez	a0,80005f24 <__srefill_r+0x1b0>
    80005ef8:	00013903          	ld	s2,0(sp)
    80005efc:	0207e793          	or	a5,a5,32
    80005f00:	00f41823          	sh	a5,16(s0)
    80005f04:	fff00513          	li	a0,-1
    80005f08:	f09ff06f          	j	80005e10 <__srefill_r+0x9c>
    80005f0c:	00900713          	li	a4,9
    80005f10:	00e4a023          	sw	a4,0(s1)
    80005f14:	0407e793          	or	a5,a5,64
    80005f18:	00f41823          	sh	a5,16(s0)
    80005f1c:	fff00513          	li	a0,-1
    80005f20:	ef1ff06f          	j	80005e10 <__srefill_r+0x9c>
    80005f24:	0407e793          	or	a5,a5,64
    80005f28:	00013903          	ld	s2,0(sp)
    80005f2c:	00042423          	sw	zero,8(s0)
    80005f30:	00f41823          	sh	a5,16(s0)
    80005f34:	fff00513          	li	a0,-1
    80005f38:	ed9ff06f          	j	80005e10 <__srefill_r+0x9c>

0000000080005f3c <__sread>:
    80005f3c:	ff010113          	add	sp,sp,-16
    80005f40:	00813023          	sd	s0,0(sp)
    80005f44:	00058413          	mv	s0,a1
    80005f48:	01259583          	lh	a1,18(a1)
    80005f4c:	00113423          	sd	ra,8(sp)
    80005f50:	141000ef          	jal	80006890 <_read_r>
    80005f54:	02054063          	bltz	a0,80005f74 <__sread+0x38>
    80005f58:	09043783          	ld	a5,144(s0)
    80005f5c:	00813083          	ld	ra,8(sp)
    80005f60:	00a787b3          	add	a5,a5,a0
    80005f64:	08f43823          	sd	a5,144(s0)
    80005f68:	00013403          	ld	s0,0(sp)
    80005f6c:	01010113          	add	sp,sp,16
    80005f70:	00008067          	ret
    80005f74:	01045783          	lhu	a5,16(s0)
    80005f78:	fffff737          	lui	a4,0xfffff
    80005f7c:	fff70713          	add	a4,a4,-1 # ffffffffffffefff <__heap_end+0xffffffff7f7dffff>
    80005f80:	00e7f7b3          	and	a5,a5,a4
    80005f84:	00813083          	ld	ra,8(sp)
    80005f88:	00f41823          	sh	a5,16(s0)
    80005f8c:	00013403          	ld	s0,0(sp)
    80005f90:	01010113          	add	sp,sp,16
    80005f94:	00008067          	ret

0000000080005f98 <__seofread>:
    80005f98:	00000513          	li	a0,0
    80005f9c:	00008067          	ret

0000000080005fa0 <__swrite>:
    80005fa0:	01059783          	lh	a5,16(a1)
    80005fa4:	fd010113          	add	sp,sp,-48
    80005fa8:	02813023          	sd	s0,32(sp)
    80005fac:	00913c23          	sd	s1,24(sp)
    80005fb0:	01213823          	sd	s2,16(sp)
    80005fb4:	01313423          	sd	s3,8(sp)
    80005fb8:	02113423          	sd	ra,40(sp)
    80005fbc:	1007f713          	and	a4,a5,256
    80005fc0:	00058413          	mv	s0,a1
    80005fc4:	00050493          	mv	s1,a0
    80005fc8:	00060913          	mv	s2,a2
    80005fcc:	00068993          	mv	s3,a3
    80005fd0:	04071063          	bnez	a4,80006010 <__swrite+0x70>
    80005fd4:	fffff737          	lui	a4,0xfffff
    80005fd8:	fff70713          	add	a4,a4,-1 # ffffffffffffefff <__heap_end+0xffffffff7f7dffff>
    80005fdc:	00e7f7b3          	and	a5,a5,a4
    80005fe0:	01241583          	lh	a1,18(s0)
    80005fe4:	00f41823          	sh	a5,16(s0)
    80005fe8:	02013403          	ld	s0,32(sp)
    80005fec:	02813083          	ld	ra,40(sp)
    80005ff0:	00098693          	mv	a3,s3
    80005ff4:	00090613          	mv	a2,s2
    80005ff8:	00813983          	ld	s3,8(sp)
    80005ffc:	01013903          	ld	s2,16(sp)
    80006000:	00048513          	mv	a0,s1
    80006004:	01813483          	ld	s1,24(sp)
    80006008:	03010113          	add	sp,sp,48
    8000600c:	0e10006f          	j	800068ec <_write_r>
    80006010:	01259583          	lh	a1,18(a1)
    80006014:	00200693          	li	a3,2
    80006018:	00000613          	li	a2,0
    8000601c:	7bc000ef          	jal	800067d8 <_lseek_r>
    80006020:	01041783          	lh	a5,16(s0)
    80006024:	fb1ff06f          	j	80005fd4 <__swrite+0x34>

0000000080006028 <__sseek>:
    80006028:	ff010113          	add	sp,sp,-16
    8000602c:	00813023          	sd	s0,0(sp)
    80006030:	00058413          	mv	s0,a1
    80006034:	01259583          	lh	a1,18(a1)
    80006038:	00113423          	sd	ra,8(sp)
    8000603c:	79c000ef          	jal	800067d8 <_lseek_r>
    80006040:	fff00793          	li	a5,-1
    80006044:	02f50863          	beq	a0,a5,80006074 <__sseek+0x4c>
    80006048:	01045783          	lhu	a5,16(s0)
    8000604c:	00001737          	lui	a4,0x1
    80006050:	00813083          	ld	ra,8(sp)
    80006054:	00e7e7b3          	or	a5,a5,a4
    80006058:	0107979b          	sllw	a5,a5,0x10
    8000605c:	4107d79b          	sraw	a5,a5,0x10
    80006060:	08a43823          	sd	a0,144(s0)
    80006064:	00f41823          	sh	a5,16(s0)
    80006068:	00013403          	ld	s0,0(sp)
    8000606c:	01010113          	add	sp,sp,16
    80006070:	00008067          	ret
    80006074:	01045783          	lhu	a5,16(s0)
    80006078:	fffff737          	lui	a4,0xfffff
    8000607c:	fff70713          	add	a4,a4,-1 # ffffffffffffefff <__heap_end+0xffffffff7f7dffff>
    80006080:	00e7f7b3          	and	a5,a5,a4
    80006084:	0107979b          	sllw	a5,a5,0x10
    80006088:	4107d79b          	sraw	a5,a5,0x10
    8000608c:	00813083          	ld	ra,8(sp)
    80006090:	00f41823          	sh	a5,16(s0)
    80006094:	00013403          	ld	s0,0(sp)
    80006098:	01010113          	add	sp,sp,16
    8000609c:	00008067          	ret

00000000800060a0 <__sclose>:
    800060a0:	01259583          	lh	a1,18(a1)
    800060a4:	5a80006f          	j	8000664c <_close_r>

00000000800060a8 <_fseeko_r>:
    800060a8:	f4010113          	add	sp,sp,-192
    800060ac:	0a813823          	sd	s0,176(sp)
    800060b0:	0a913423          	sd	s1,168(sp)
    800060b4:	0b213023          	sd	s2,160(sp)
    800060b8:	09413823          	sd	s4,144(sp)
    800060bc:	0a113c23          	sd	ra,184(sp)
    800060c0:	09513423          	sd	s5,136(sp)
    800060c4:	00050493          	mv	s1,a0
    800060c8:	00058413          	mv	s0,a1
    800060cc:	00060a13          	mv	s4,a2
    800060d0:	00068913          	mv	s2,a3
    800060d4:	00050663          	beqz	a0,800060e0 <_fseeko_r+0x38>
    800060d8:	04853783          	ld	a5,72(a0)
    800060dc:	38078e63          	beqz	a5,80006478 <_fseeko_r+0x3d0>
    800060e0:	01045783          	lhu	a5,16(s0)
    800060e4:	10800713          	li	a4,264
    800060e8:	1087f793          	and	a5,a5,264
    800060ec:	1ce78063          	beq	a5,a4,800062ac <_fseeko_r+0x204>
    800060f0:	04843a83          	ld	s5,72(s0)
    800060f4:	400a8a63          	beqz	s5,80006508 <_fseeko_r+0x460>
    800060f8:	09313c23          	sd	s3,152(sp)
    800060fc:	09613023          	sd	s6,128(sp)
    80006100:	00100793          	li	a5,1
    80006104:	10f90463          	beq	s2,a5,8000620c <_fseeko_r+0x164>
    80006108:	ffd97b13          	and	s6,s2,-3
    8000610c:	020b0c63          	beqz	s6,80006144 <_fseeko_r+0x9c>
    80006110:	09813983          	ld	s3,152(sp)
    80006114:	08013b03          	ld	s6,128(sp)
    80006118:	01600793          	li	a5,22
    8000611c:	00f4a023          	sw	a5,0(s1)
    80006120:	fff00513          	li	a0,-1
    80006124:	0b813083          	ld	ra,184(sp)
    80006128:	0b013403          	ld	s0,176(sp)
    8000612c:	0a813483          	ld	s1,168(sp)
    80006130:	0a013903          	ld	s2,160(sp)
    80006134:	09013a03          	ld	s4,144(sp)
    80006138:	08813a83          	ld	s5,136(sp)
    8000613c:	0c010113          	add	sp,sp,192
    80006140:	00008067          	ret
    80006144:	01843703          	ld	a4,24(s0)
    80006148:	00000993          	li	s3,0
    8000614c:	10070863          	beqz	a4,8000625c <_fseeko_r+0x1b4>
    80006150:	01041783          	lh	a5,16(s0)
    80006154:	0017d713          	srl	a4,a5,0x1
    80006158:	40d77713          	and	a4,a4,1037
    8000615c:	02071463          	bnez	a4,80006184 <_fseeko_r+0xdc>
    80006160:	4007f713          	and	a4,a5,1024
    80006164:	10071463          	bnez	a4,8000626c <_fseeko_r+0x1c4>
    80006168:	00000717          	auipc	a4,0x0
    8000616c:	ec070713          	add	a4,a4,-320 # 80006028 <__sseek>
    80006170:	26ea8c63          	beq	s5,a4,800063e8 <_fseeko_r+0x340>
    80006174:	00001737          	lui	a4,0x1
    80006178:	80070713          	add	a4,a4,-2048 # 800 <__stack_shift+0x7e9>
    8000617c:	00e7e7b3          	or	a5,a5,a4
    80006180:	00f41823          	sh	a5,16(s0)
    80006184:	00040593          	mv	a1,s0
    80006188:	00048513          	mv	a0,s1
    8000618c:	eb5fe0ef          	jal	80005040 <_fflush_r>
    80006190:	36051463          	bnez	a0,800064f8 <_fseeko_r+0x450>
    80006194:	03043583          	ld	a1,48(s0)
    80006198:	00090693          	mv	a3,s2
    8000619c:	000a0613          	mv	a2,s4
    800061a0:	00048513          	mv	a0,s1
    800061a4:	000a80e7          	jalr	s5
    800061a8:	fff00793          	li	a5,-1
    800061ac:	34f50663          	beq	a0,a5,800064f8 <_fseeko_r+0x450>
    800061b0:	05843583          	ld	a1,88(s0)
    800061b4:	00058c63          	beqz	a1,800061cc <_fseeko_r+0x124>
    800061b8:	07440793          	add	a5,s0,116
    800061bc:	00f58663          	beq	a1,a5,800061c8 <_fseeko_r+0x120>
    800061c0:	00048513          	mv	a0,s1
    800061c4:	41d000ef          	jal	80006de0 <_free_r>
    800061c8:	04043c23          	sd	zero,88(s0)
    800061cc:	01045783          	lhu	a5,16(s0)
    800061d0:	01843683          	ld	a3,24(s0)
    800061d4:	fffff737          	lui	a4,0xfffff
    800061d8:	7df70713          	add	a4,a4,2015 # fffffffffffff7df <__heap_end+0xffffffff7f7e07df>
    800061dc:	00e7f7b3          	and	a5,a5,a4
    800061e0:	00d43023          	sd	a3,0(s0)
    800061e4:	00042423          	sw	zero,8(s0)
    800061e8:	00f41823          	sh	a5,16(s0)
    800061ec:	00800613          	li	a2,8
    800061f0:	00000593          	li	a1,0
    800061f4:	0a440513          	add	a0,s0,164
    800061f8:	750000ef          	jal	80006948 <memset>
    800061fc:	09813983          	ld	s3,152(sp)
    80006200:	08013b03          	ld	s6,128(sp)
    80006204:	00000513          	li	a0,0
    80006208:	f1dff06f          	j	80006124 <_fseeko_r+0x7c>
    8000620c:	00040593          	mv	a1,s0
    80006210:	00048513          	mv	a0,s1
    80006214:	e2dfe0ef          	jal	80005040 <_fflush_r>
    80006218:	01041783          	lh	a5,16(s0)
    8000621c:	03379713          	sll	a4,a5,0x33
    80006220:	08075e63          	bgez	a4,800062bc <_fseeko_r+0x214>
    80006224:	0047f693          	and	a3,a5,4
    80006228:	09043983          	ld	s3,144(s0)
    8000622c:	01843703          	ld	a4,24(s0)
    80006230:	0a068e63          	beqz	a3,800062ec <_fseeko_r+0x244>
    80006234:	00842683          	lw	a3,8(s0)
    80006238:	05843783          	ld	a5,88(s0)
    8000623c:	40d989b3          	sub	s3,s3,a3
    80006240:	00078663          	beqz	a5,8000624c <_fseeko_r+0x1a4>
    80006244:	07042783          	lw	a5,112(s0)
    80006248:	40f989b3          	sub	s3,s3,a5
    8000624c:	00090b13          	mv	s6,s2
    80006250:	013a0a33          	add	s4,s4,s3
    80006254:	00000913          	li	s2,0
    80006258:	ee071ce3          	bnez	a4,80006150 <_fseeko_r+0xa8>
    8000625c:	00040593          	mv	a1,s0
    80006260:	00048513          	mv	a0,s1
    80006264:	540040ef          	jal	8000a7a4 <__smakebuf_r>
    80006268:	ee9ff06f          	j	80006150 <_fseeko_r+0xa8>
    8000626c:	07713c23          	sd	s7,120(sp)
    80006270:	000a0b93          	mv	s7,s4
    80006274:	1a091e63          	bnez	s2,80006430 <_fseeko_r+0x388>
    80006278:	080b1863          	bnez	s6,80006308 <_fseeko_r+0x260>
    8000627c:	01045783          	lhu	a5,16(s0)
    80006280:	03379713          	sll	a4,a5,0x33
    80006284:	1c075863          	bgez	a4,80006454 <_fseeko_r+0x3ac>
    80006288:	09043503          	ld	a0,144(s0)
    8000628c:	00842783          	lw	a5,8(s0)
    80006290:	05843583          	ld	a1,88(s0)
    80006294:	00078693          	mv	a3,a5
    80006298:	40f509b3          	sub	s3,a0,a5
    8000629c:	1e058263          	beqz	a1,80006480 <_fseeko_r+0x3d8>
    800062a0:	07042703          	lw	a4,112(s0)
    800062a4:	40e989b3          	sub	s3,s3,a4
    800062a8:	0740006f          	j	8000631c <_fseeko_r+0x274>
    800062ac:	00040593          	mv	a1,s0
    800062b0:	00048513          	mv	a0,s1
    800062b4:	d8dfe0ef          	jal	80005040 <_fflush_r>
    800062b8:	e39ff06f          	j	800060f0 <_fseeko_r+0x48>
    800062bc:	03043583          	ld	a1,48(s0)
    800062c0:	00100693          	li	a3,1
    800062c4:	00000613          	li	a2,0
    800062c8:	00048513          	mv	a0,s1
    800062cc:	000a80e7          	jalr	s5
    800062d0:	fff00793          	li	a5,-1
    800062d4:	00050993          	mv	s3,a0
    800062d8:	22f50063          	beq	a0,a5,800064f8 <_fseeko_r+0x450>
    800062dc:	01041783          	lh	a5,16(s0)
    800062e0:	01843703          	ld	a4,24(s0)
    800062e4:	0047f693          	and	a3,a5,4
    800062e8:	f40696e3          	bnez	a3,80006234 <_fseeko_r+0x18c>
    800062ec:	0087f793          	and	a5,a5,8
    800062f0:	f4078ee3          	beqz	a5,8000624c <_fseeko_r+0x1a4>
    800062f4:	00043783          	ld	a5,0(s0)
    800062f8:	f4078ae3          	beqz	a5,8000624c <_fseeko_r+0x1a4>
    800062fc:	40e787b3          	sub	a5,a5,a4
    80006300:	00f989b3          	add	s3,s3,a5
    80006304:	f49ff06f          	j	8000624c <_fseeko_r+0x1a4>
    80006308:	05843583          	ld	a1,88(s0)
    8000630c:	00842683          	lw	a3,8(s0)
    80006310:	16058863          	beqz	a1,80006480 <_fseeko_r+0x3d8>
    80006314:	07042703          	lw	a4,112(s0)
    80006318:	00068793          	mv	a5,a3
    8000631c:	06843683          	ld	a3,104(s0)
    80006320:	01843603          	ld	a2,24(s0)
    80006324:	00f987b3          	add	a5,s3,a5
    80006328:	40c686b3          	sub	a3,a3,a2
    8000632c:	40d787b3          	sub	a5,a5,a3
    80006330:	00d70733          	add	a4,a4,a3
    80006334:	00fbc663          	blt	s7,a5,80006340 <_fseeko_r+0x298>
    80006338:	00e786b3          	add	a3,a5,a4
    8000633c:	16dbe463          	bltu	s7,a3,800064a4 <_fseeko_r+0x3fc>
    80006340:	08842983          	lw	s3,136(s0)
    80006344:	03043583          	ld	a1,48(s0)
    80006348:	00000693          	li	a3,0
    8000634c:	413009bb          	negw	s3,s3
    80006350:	0179f9b3          	and	s3,s3,s7
    80006354:	00098613          	mv	a2,s3
    80006358:	00048513          	mv	a0,s1
    8000635c:	000a80e7          	jalr	s5
    80006360:	fff00793          	li	a5,-1
    80006364:	10f50663          	beq	a0,a5,80006470 <_fseeko_r+0x3c8>
    80006368:	01843783          	ld	a5,24(s0)
    8000636c:	05843583          	ld	a1,88(s0)
    80006370:	00042423          	sw	zero,8(s0)
    80006374:	00f43023          	sd	a5,0(s0)
    80006378:	00058c63          	beqz	a1,80006390 <_fseeko_r+0x2e8>
    8000637c:	07440793          	add	a5,s0,116
    80006380:	00f58663          	beq	a1,a5,8000638c <_fseeko_r+0x2e4>
    80006384:	00048513          	mv	a0,s1
    80006388:	259000ef          	jal	80006de0 <_free_r>
    8000638c:	04043c23          	sd	zero,88(s0)
    80006390:	01045783          	lhu	a5,16(s0)
    80006394:	413b8b33          	sub	s6,s7,s3
    80006398:	fdf7f793          	and	a5,a5,-33
    8000639c:	00f41823          	sh	a5,16(s0)
    800063a0:	033b8863          	beq	s7,s3,800063d0 <_fseeko_r+0x328>
    800063a4:	00040593          	mv	a1,s0
    800063a8:	00048513          	mv	a0,s1
    800063ac:	9c9ff0ef          	jal	80005d74 <__srefill_r>
    800063b0:	0c051063          	bnez	a0,80006470 <_fseeko_r+0x3c8>
    800063b4:	00842783          	lw	a5,8(s0)
    800063b8:	0b67ec63          	bltu	a5,s6,80006470 <_fseeko_r+0x3c8>
    800063bc:	00043703          	ld	a4,0(s0)
    800063c0:	416787bb          	subw	a5,a5,s6
    800063c4:	00f42423          	sw	a5,8(s0)
    800063c8:	016707b3          	add	a5,a4,s6
    800063cc:	00f43023          	sd	a5,0(s0)
    800063d0:	00800613          	li	a2,8
    800063d4:	00000593          	li	a1,0
    800063d8:	0a440513          	add	a0,s0,164
    800063dc:	56c000ef          	jal	80006948 <memset>
    800063e0:	07813b83          	ld	s7,120(sp)
    800063e4:	e19ff06f          	j	800061fc <_fseeko_r+0x154>
    800063e8:	01241583          	lh	a1,18(s0)
    800063ec:	d805c4e3          	bltz	a1,80006174 <_fseeko_r+0xcc>
    800063f0:	00810613          	add	a2,sp,8
    800063f4:	00048513          	mv	a0,s1
    800063f8:	388000ef          	jal	80006780 <_fstat_r>
    800063fc:	0a051063          	bnez	a0,8000649c <_fseeko_r+0x3f4>
    80006400:	00c12703          	lw	a4,12(sp)
    80006404:	0000f7b7          	lui	a5,0xf
    80006408:	000086b7          	lui	a3,0x8
    8000640c:	00f77733          	and	a4,a4,a5
    80006410:	01041783          	lh	a5,16(s0)
    80006414:	d6d710e3          	bne	a4,a3,80006174 <_fseeko_r+0xcc>
    80006418:	07713c23          	sd	s7,120(sp)
    8000641c:	4007e793          	or	a5,a5,1024
    80006420:	40000713          	li	a4,1024
    80006424:	08e42423          	sw	a4,136(s0)
    80006428:	00f41823          	sh	a5,16(s0)
    8000642c:	e45ff06f          	j	80006270 <_fseeko_r+0x1c8>
    80006430:	01241583          	lh	a1,18(s0)
    80006434:	00810613          	add	a2,sp,8
    80006438:	00048513          	mv	a0,s1
    8000643c:	344000ef          	jal	80006780 <_fstat_r>
    80006440:	02051863          	bnez	a0,80006470 <_fseeko_r+0x3c8>
    80006444:	01813b83          	ld	s7,24(sp)
    80006448:	017a0bb3          	add	s7,s4,s7
    8000644c:	ea0b1ee3          	bnez	s6,80006308 <_fseeko_r+0x260>
    80006450:	e2dff06f          	j	8000627c <_fseeko_r+0x1d4>
    80006454:	03043583          	ld	a1,48(s0)
    80006458:	00100693          	li	a3,1
    8000645c:	00000613          	li	a2,0
    80006460:	00048513          	mv	a0,s1
    80006464:	000a80e7          	jalr	s5
    80006468:	fff00793          	li	a5,-1
    8000646c:	e2f510e3          	bne	a0,a5,8000628c <_fseeko_r+0x1e4>
    80006470:	07813b83          	ld	s7,120(sp)
    80006474:	d11ff06f          	j	80006184 <_fseeko_r+0xdc>
    80006478:	824ff0ef          	jal	8000549c <__sinit>
    8000647c:	c65ff06f          	j	800060e0 <_fseeko_r+0x38>
    80006480:	00043703          	ld	a4,0(s0)
    80006484:	01843603          	ld	a2,24(s0)
    80006488:	00000593          	li	a1,0
    8000648c:	40c70733          	sub	a4,a4,a2
    80006490:	40e987b3          	sub	a5,s3,a4
    80006494:	00e68733          	add	a4,a3,a4
    80006498:	e9dff06f          	j	80006334 <_fseeko_r+0x28c>
    8000649c:	01041783          	lh	a5,16(s0)
    800064a0:	cd5ff06f          	j	80006174 <_fseeko_r+0xcc>
    800064a4:	40fb86bb          	subw	a3,s7,a5
    800064a8:	00e787bb          	addw	a5,a5,a4
    800064ac:	00d60633          	add	a2,a2,a3
    800064b0:	417787bb          	subw	a5,a5,s7
    800064b4:	00c43023          	sd	a2,0(s0)
    800064b8:	00f42423          	sw	a5,8(s0)
    800064bc:	00058c63          	beqz	a1,800064d4 <_fseeko_r+0x42c>
    800064c0:	07440793          	add	a5,s0,116
    800064c4:	00f58663          	beq	a1,a5,800064d0 <_fseeko_r+0x428>
    800064c8:	00048513          	mv	a0,s1
    800064cc:	115000ef          	jal	80006de0 <_free_r>
    800064d0:	04043c23          	sd	zero,88(s0)
    800064d4:	01045783          	lhu	a5,16(s0)
    800064d8:	00800613          	li	a2,8
    800064dc:	00000593          	li	a1,0
    800064e0:	fdf7f793          	and	a5,a5,-33
    800064e4:	00f41823          	sh	a5,16(s0)
    800064e8:	0a440513          	add	a0,s0,164
    800064ec:	45c000ef          	jal	80006948 <memset>
    800064f0:	07813b83          	ld	s7,120(sp)
    800064f4:	d09ff06f          	j	800061fc <_fseeko_r+0x154>
    800064f8:	09813983          	ld	s3,152(sp)
    800064fc:	08013b03          	ld	s6,128(sp)
    80006500:	fff00513          	li	a0,-1
    80006504:	c21ff06f          	j	80006124 <_fseeko_r+0x7c>
    80006508:	01d00793          	li	a5,29
    8000650c:	00f4a023          	sw	a5,0(s1)
    80006510:	fff00513          	li	a0,-1
    80006514:	c11ff06f          	j	80006124 <_fseeko_r+0x7c>

0000000080006518 <fseeko>:
    80006518:	00060693          	mv	a3,a2
    8000651c:	00058613          	mv	a2,a1
    80006520:	00050593          	mv	a1,a0
    80006524:	8101b503          	ld	a0,-2032(gp) # 8001e908 <_impure_ptr>
    80006528:	b81ff06f          	j	800060a8 <_fseeko_r>

000000008000652c <_ftello_r>:
    8000652c:	fe010113          	add	sp,sp,-32
    80006530:	00813823          	sd	s0,16(sp)
    80006534:	00913423          	sd	s1,8(sp)
    80006538:	00113c23          	sd	ra,24(sp)
    8000653c:	00050493          	mv	s1,a0
    80006540:	00058413          	mv	s0,a1
    80006544:	00050663          	beqz	a0,80006550 <_ftello_r+0x24>
    80006548:	04853783          	ld	a5,72(a0)
    8000654c:	0c078e63          	beqz	a5,80006628 <_ftello_r+0xfc>
    80006550:	04843703          	ld	a4,72(s0)
    80006554:	0c070e63          	beqz	a4,80006630 <_ftello_r+0x104>
    80006558:	01041783          	lh	a5,16(s0)
    8000655c:	00800693          	li	a3,8
    80006560:	00c7f613          	and	a2,a5,12
    80006564:	08d60e63          	beq	a2,a3,80006600 <_ftello_r+0xd4>
    80006568:	03379693          	sll	a3,a5,0x33
    8000656c:	0406cc63          	bltz	a3,800065c4 <_ftello_r+0x98>
    80006570:	03043583          	ld	a1,48(s0)
    80006574:	00100693          	li	a3,1
    80006578:	00000613          	li	a2,0
    8000657c:	00048513          	mv	a0,s1
    80006580:	000700e7          	jalr	a4
    80006584:	fff00793          	li	a5,-1
    80006588:	0af50863          	beq	a0,a5,80006638 <_ftello_r+0x10c>
    8000658c:	01041783          	lh	a5,16(s0)
    80006590:	0047f713          	and	a4,a5,4
    80006594:	02070e63          	beqz	a4,800065d0 <_ftello_r+0xa4>
    80006598:	00842703          	lw	a4,8(s0)
    8000659c:	05843783          	ld	a5,88(s0)
    800065a0:	40e50533          	sub	a0,a0,a4
    800065a4:	00078663          	beqz	a5,800065b0 <_ftello_r+0x84>
    800065a8:	07042783          	lw	a5,112(s0)
    800065ac:	40f50533          	sub	a0,a0,a5
    800065b0:	01813083          	ld	ra,24(sp)
    800065b4:	01013403          	ld	s0,16(sp)
    800065b8:	00813483          	ld	s1,8(sp)
    800065bc:	02010113          	add	sp,sp,32
    800065c0:	00008067          	ret
    800065c4:	0047f713          	and	a4,a5,4
    800065c8:	09043503          	ld	a0,144(s0)
    800065cc:	fc0716e3          	bnez	a4,80006598 <_ftello_r+0x6c>
    800065d0:	0087f793          	and	a5,a5,8
    800065d4:	fc078ee3          	beqz	a5,800065b0 <_ftello_r+0x84>
    800065d8:	00043783          	ld	a5,0(s0)
    800065dc:	fc078ae3          	beqz	a5,800065b0 <_ftello_r+0x84>
    800065e0:	01843703          	ld	a4,24(s0)
    800065e4:	01813083          	ld	ra,24(sp)
    800065e8:	01013403          	ld	s0,16(sp)
    800065ec:	40e787b3          	sub	a5,a5,a4
    800065f0:	00813483          	ld	s1,8(sp)
    800065f4:	00f50533          	add	a0,a0,a5
    800065f8:	02010113          	add	sp,sp,32
    800065fc:	00008067          	ret
    80006600:	00043683          	ld	a3,0(s0)
    80006604:	f60682e3          	beqz	a3,80006568 <_ftello_r+0x3c>
    80006608:	01843603          	ld	a2,24(s0)
    8000660c:	40c686b3          	sub	a3,a3,a2
    80006610:	f4d05ce3          	blez	a3,80006568 <_ftello_r+0x3c>
    80006614:	1007f693          	and	a3,a5,256
    80006618:	f40688e3          	beqz	a3,80006568 <_ftello_r+0x3c>
    8000661c:	03043583          	ld	a1,48(s0)
    80006620:	00200693          	li	a3,2
    80006624:	f55ff06f          	j	80006578 <_ftello_r+0x4c>
    80006628:	e75fe0ef          	jal	8000549c <__sinit>
    8000662c:	f25ff06f          	j	80006550 <_ftello_r+0x24>
    80006630:	01d00793          	li	a5,29
    80006634:	00f4a023          	sw	a5,0(s1)
    80006638:	fff00513          	li	a0,-1
    8000663c:	f75ff06f          	j	800065b0 <_ftello_r+0x84>

0000000080006640 <ftello>:
    80006640:	00050593          	mv	a1,a0
    80006644:	8101b503          	ld	a0,-2032(gp) # 8001e908 <_impure_ptr>
    80006648:	ee5ff06f          	j	8000652c <_ftello_r>

000000008000664c <_close_r>:
    8000664c:	ff010113          	add	sp,sp,-16
    80006650:	00813023          	sd	s0,0(sp)
    80006654:	00050413          	mv	s0,a0
    80006658:	00058513          	mv	a0,a1
    8000665c:	8a01a823          	sw	zero,-1872(gp) # 8001e9a8 <errno>
    80006660:	00113423          	sd	ra,8(sp)
    80006664:	771090ef          	jal	800105d4 <_close>
    80006668:	fff00793          	li	a5,-1
    8000666c:	00f50a63          	beq	a0,a5,80006680 <_close_r+0x34>
    80006670:	00813083          	ld	ra,8(sp)
    80006674:	00013403          	ld	s0,0(sp)
    80006678:	01010113          	add	sp,sp,16
    8000667c:	00008067          	ret
    80006680:	8b01a783          	lw	a5,-1872(gp) # 8001e9a8 <errno>
    80006684:	fe0786e3          	beqz	a5,80006670 <_close_r+0x24>
    80006688:	00813083          	ld	ra,8(sp)
    8000668c:	00f42023          	sw	a5,0(s0)
    80006690:	00013403          	ld	s0,0(sp)
    80006694:	01010113          	add	sp,sp,16
    80006698:	00008067          	ret

000000008000669c <_reclaim_reent>:
    8000669c:	8101b783          	ld	a5,-2032(gp) # 8001e908 <_impure_ptr>
    800066a0:	0ca78e63          	beq	a5,a0,8000677c <_reclaim_reent+0xe0>
    800066a4:	06853583          	ld	a1,104(a0)
    800066a8:	fd010113          	add	sp,sp,-48
    800066ac:	00913c23          	sd	s1,24(sp)
    800066b0:	02113423          	sd	ra,40(sp)
    800066b4:	02813023          	sd	s0,32(sp)
    800066b8:	00050493          	mv	s1,a0
    800066bc:	04058863          	beqz	a1,8000670c <_reclaim_reent+0x70>
    800066c0:	01213823          	sd	s2,16(sp)
    800066c4:	01313423          	sd	s3,8(sp)
    800066c8:	00000913          	li	s2,0
    800066cc:	20000993          	li	s3,512
    800066d0:	012587b3          	add	a5,a1,s2
    800066d4:	0007b403          	ld	s0,0(a5) # f000 <__stack_shift+0xefe9>
    800066d8:	00040e63          	beqz	s0,800066f4 <_reclaim_reent+0x58>
    800066dc:	00040593          	mv	a1,s0
    800066e0:	00043403          	ld	s0,0(s0)
    800066e4:	00048513          	mv	a0,s1
    800066e8:	6f8000ef          	jal	80006de0 <_free_r>
    800066ec:	fe0418e3          	bnez	s0,800066dc <_reclaim_reent+0x40>
    800066f0:	0684b583          	ld	a1,104(s1)
    800066f4:	00890913          	add	s2,s2,8
    800066f8:	fd391ce3          	bne	s2,s3,800066d0 <_reclaim_reent+0x34>
    800066fc:	00048513          	mv	a0,s1
    80006700:	6e0000ef          	jal	80006de0 <_free_r>
    80006704:	01013903          	ld	s2,16(sp)
    80006708:	00813983          	ld	s3,8(sp)
    8000670c:	0504b583          	ld	a1,80(s1)
    80006710:	00058663          	beqz	a1,8000671c <_reclaim_reent+0x80>
    80006714:	00048513          	mv	a0,s1
    80006718:	6c8000ef          	jal	80006de0 <_free_r>
    8000671c:	0604b403          	ld	s0,96(s1)
    80006720:	00040c63          	beqz	s0,80006738 <_reclaim_reent+0x9c>
    80006724:	00040593          	mv	a1,s0
    80006728:	00043403          	ld	s0,0(s0)
    8000672c:	00048513          	mv	a0,s1
    80006730:	6b0000ef          	jal	80006de0 <_free_r>
    80006734:	fe0418e3          	bnez	s0,80006724 <_reclaim_reent+0x88>
    80006738:	0784b583          	ld	a1,120(s1)
    8000673c:	00058663          	beqz	a1,80006748 <_reclaim_reent+0xac>
    80006740:	00048513          	mv	a0,s1
    80006744:	69c000ef          	jal	80006de0 <_free_r>
    80006748:	0484b783          	ld	a5,72(s1)
    8000674c:	00078e63          	beqz	a5,80006768 <_reclaim_reent+0xcc>
    80006750:	02013403          	ld	s0,32(sp)
    80006754:	02813083          	ld	ra,40(sp)
    80006758:	00048513          	mv	a0,s1
    8000675c:	01813483          	ld	s1,24(sp)
    80006760:	03010113          	add	sp,sp,48
    80006764:	00078067          	jr	a5
    80006768:	02813083          	ld	ra,40(sp)
    8000676c:	02013403          	ld	s0,32(sp)
    80006770:	01813483          	ld	s1,24(sp)
    80006774:	03010113          	add	sp,sp,48
    80006778:	00008067          	ret
    8000677c:	00008067          	ret

0000000080006780 <_fstat_r>:
    80006780:	ff010113          	add	sp,sp,-16
    80006784:	00058713          	mv	a4,a1
    80006788:	00813023          	sd	s0,0(sp)
    8000678c:	00060593          	mv	a1,a2
    80006790:	00050413          	mv	s0,a0
    80006794:	00070513          	mv	a0,a4
    80006798:	8a01a823          	sw	zero,-1872(gp) # 8001e9a8 <errno>
    8000679c:	00113423          	sd	ra,8(sp)
    800067a0:	689090ef          	jal	80010628 <_fstat>
    800067a4:	fff00793          	li	a5,-1
    800067a8:	00f50a63          	beq	a0,a5,800067bc <_fstat_r+0x3c>
    800067ac:	00813083          	ld	ra,8(sp)
    800067b0:	00013403          	ld	s0,0(sp)
    800067b4:	01010113          	add	sp,sp,16
    800067b8:	00008067          	ret
    800067bc:	8b01a783          	lw	a5,-1872(gp) # 8001e9a8 <errno>
    800067c0:	fe0786e3          	beqz	a5,800067ac <_fstat_r+0x2c>
    800067c4:	00813083          	ld	ra,8(sp)
    800067c8:	00f42023          	sw	a5,0(s0)
    800067cc:	00013403          	ld	s0,0(sp)
    800067d0:	01010113          	add	sp,sp,16
    800067d4:	00008067          	ret

00000000800067d8 <_lseek_r>:
    800067d8:	ff010113          	add	sp,sp,-16
    800067dc:	00058713          	mv	a4,a1
    800067e0:	00813023          	sd	s0,0(sp)
    800067e4:	00060593          	mv	a1,a2
    800067e8:	00050413          	mv	s0,a0
    800067ec:	00068613          	mv	a2,a3
    800067f0:	00070513          	mv	a0,a4
    800067f4:	8a01a823          	sw	zero,-1872(gp) # 8001e9a8 <errno>
    800067f8:	00113423          	sd	ra,8(sp)
    800067fc:	689090ef          	jal	80010684 <_lseek>
    80006800:	fff00793          	li	a5,-1
    80006804:	00f50a63          	beq	a0,a5,80006818 <_lseek_r+0x40>
    80006808:	00813083          	ld	ra,8(sp)
    8000680c:	00013403          	ld	s0,0(sp)
    80006810:	01010113          	add	sp,sp,16
    80006814:	00008067          	ret
    80006818:	8b01a783          	lw	a5,-1872(gp) # 8001e9a8 <errno>
    8000681c:	fe0786e3          	beqz	a5,80006808 <_lseek_r+0x30>
    80006820:	00813083          	ld	ra,8(sp)
    80006824:	00f42023          	sw	a5,0(s0)
    80006828:	00013403          	ld	s0,0(sp)
    8000682c:	01010113          	add	sp,sp,16
    80006830:	00008067          	ret

0000000080006834 <_open_r>:
    80006834:	ff010113          	add	sp,sp,-16
    80006838:	00058713          	mv	a4,a1
    8000683c:	00813023          	sd	s0,0(sp)
    80006840:	00060593          	mv	a1,a2
    80006844:	00050413          	mv	s0,a0
    80006848:	00068613          	mv	a2,a3
    8000684c:	00070513          	mv	a0,a4
    80006850:	8a01a823          	sw	zero,-1872(gp) # 8001e9a8 <errno>
    80006854:	00113423          	sd	ra,8(sp)
    80006858:	635090ef          	jal	8001068c <_open>
    8000685c:	fff00793          	li	a5,-1
    80006860:	00f50a63          	beq	a0,a5,80006874 <_open_r+0x40>
    80006864:	00813083          	ld	ra,8(sp)
    80006868:	00013403          	ld	s0,0(sp)
    8000686c:	01010113          	add	sp,sp,16
    80006870:	00008067          	ret
    80006874:	8b01a783          	lw	a5,-1872(gp) # 8001e9a8 <errno>
    80006878:	fe0786e3          	beqz	a5,80006864 <_open_r+0x30>
    8000687c:	00813083          	ld	ra,8(sp)
    80006880:	00f42023          	sw	a5,0(s0)
    80006884:	00013403          	ld	s0,0(sp)
    80006888:	01010113          	add	sp,sp,16
    8000688c:	00008067          	ret

0000000080006890 <_read_r>:
    80006890:	ff010113          	add	sp,sp,-16
    80006894:	00058713          	mv	a4,a1
    80006898:	00813023          	sd	s0,0(sp)
    8000689c:	00060593          	mv	a1,a2
    800068a0:	00050413          	mv	s0,a0
    800068a4:	00068613          	mv	a2,a3
    800068a8:	00070513          	mv	a0,a4
    800068ac:	8a01a823          	sw	zero,-1872(gp) # 8001e9a8 <errno>
    800068b0:	00113423          	sd	ra,8(sp)
    800068b4:	5f9090ef          	jal	800106ac <_read>
    800068b8:	fff00793          	li	a5,-1
    800068bc:	00f50a63          	beq	a0,a5,800068d0 <_read_r+0x40>
    800068c0:	00813083          	ld	ra,8(sp)
    800068c4:	00013403          	ld	s0,0(sp)
    800068c8:	01010113          	add	sp,sp,16
    800068cc:	00008067          	ret
    800068d0:	8b01a783          	lw	a5,-1872(gp) # 8001e9a8 <errno>
    800068d4:	fe0786e3          	beqz	a5,800068c0 <_read_r+0x30>
    800068d8:	00813083          	ld	ra,8(sp)
    800068dc:	00f42023          	sw	a5,0(s0)
    800068e0:	00013403          	ld	s0,0(sp)
    800068e4:	01010113          	add	sp,sp,16
    800068e8:	00008067          	ret

00000000800068ec <_write_r>:
    800068ec:	ff010113          	add	sp,sp,-16
    800068f0:	00058713          	mv	a4,a1
    800068f4:	00813023          	sd	s0,0(sp)
    800068f8:	00060593          	mv	a1,a2
    800068fc:	00050413          	mv	s0,a0
    80006900:	00068613          	mv	a2,a3
    80006904:	00070513          	mv	a0,a4
    80006908:	8a01a823          	sw	zero,-1872(gp) # 8001e9a8 <errno>
    8000690c:	00113423          	sd	ra,8(sp)
    80006910:	5f9090ef          	jal	80010708 <_write>
    80006914:	fff00793          	li	a5,-1
    80006918:	00f50a63          	beq	a0,a5,8000692c <_write_r+0x40>
    8000691c:	00813083          	ld	ra,8(sp)
    80006920:	00013403          	ld	s0,0(sp)
    80006924:	01010113          	add	sp,sp,16
    80006928:	00008067          	ret
    8000692c:	8b01a783          	lw	a5,-1872(gp) # 8001e9a8 <errno>
    80006930:	fe0786e3          	beqz	a5,8000691c <_write_r+0x30>
    80006934:	00813083          	ld	ra,8(sp)
    80006938:	00f42023          	sw	a5,0(s0)
    8000693c:	00013403          	ld	s0,0(sp)
    80006940:	01010113          	add	sp,sp,16
    80006944:	00008067          	ret

0000000080006948 <memset>:
    80006948:	00f00313          	li	t1,15
    8000694c:	00050713          	mv	a4,a0
    80006950:	02c37a63          	bgeu	t1,a2,80006984 <memset+0x3c>
    80006954:	00f77793          	and	a5,a4,15
    80006958:	0a079063          	bnez	a5,800069f8 <memset+0xb0>
    8000695c:	06059e63          	bnez	a1,800069d8 <memset+0x90>
    80006960:	ff067693          	and	a3,a2,-16
    80006964:	00f67613          	and	a2,a2,15
    80006968:	00e686b3          	add	a3,a3,a4
    8000696c:	00b73023          	sd	a1,0(a4)
    80006970:	00b73423          	sd	a1,8(a4)
    80006974:	01070713          	add	a4,a4,16
    80006978:	fed76ae3          	bltu	a4,a3,8000696c <memset+0x24>
    8000697c:	00061463          	bnez	a2,80006984 <memset+0x3c>
    80006980:	00008067          	ret
    80006984:	40c306b3          	sub	a3,t1,a2
    80006988:	00269693          	sll	a3,a3,0x2
    8000698c:	00000297          	auipc	t0,0x0
    80006990:	005686b3          	add	a3,a3,t0
    80006994:	00c68067          	jr	12(a3) # 800c <__stack_shift+0x7ff5>
    80006998:	00b70723          	sb	a1,14(a4)
    8000699c:	00b706a3          	sb	a1,13(a4)
    800069a0:	00b70623          	sb	a1,12(a4)
    800069a4:	00b705a3          	sb	a1,11(a4)
    800069a8:	00b70523          	sb	a1,10(a4)
    800069ac:	00b704a3          	sb	a1,9(a4)
    800069b0:	00b70423          	sb	a1,8(a4)
    800069b4:	00b703a3          	sb	a1,7(a4)
    800069b8:	00b70323          	sb	a1,6(a4)
    800069bc:	00b702a3          	sb	a1,5(a4)
    800069c0:	00b70223          	sb	a1,4(a4)
    800069c4:	00b701a3          	sb	a1,3(a4)
    800069c8:	00b70123          	sb	a1,2(a4)
    800069cc:	00b700a3          	sb	a1,1(a4)
    800069d0:	00b70023          	sb	a1,0(a4)
    800069d4:	00008067          	ret
    800069d8:	0ff5f593          	zext.b	a1,a1
    800069dc:	00859693          	sll	a3,a1,0x8
    800069e0:	00d5e5b3          	or	a1,a1,a3
    800069e4:	01059693          	sll	a3,a1,0x10
    800069e8:	00d5e5b3          	or	a1,a1,a3
    800069ec:	02059693          	sll	a3,a1,0x20
    800069f0:	00d5e5b3          	or	a1,a1,a3
    800069f4:	f6dff06f          	j	80006960 <memset+0x18>
    800069f8:	00279693          	sll	a3,a5,0x2
    800069fc:	00000297          	auipc	t0,0x0
    80006a00:	005686b3          	add	a3,a3,t0
    80006a04:	00008293          	mv	t0,ra
    80006a08:	f98680e7          	jalr	-104(a3)
    80006a0c:	00028093          	mv	ra,t0
    80006a10:	ff078793          	add	a5,a5,-16
    80006a14:	40f70733          	sub	a4,a4,a5
    80006a18:	00f60633          	add	a2,a2,a5
    80006a1c:	f6c374e3          	bgeu	t1,a2,80006984 <memset+0x3c>
    80006a20:	f3dff06f          	j	8000695c <memset+0x14>

0000000080006a24 <memcpy>:
    80006a24:	00a5c7b3          	xor	a5,a1,a0
    80006a28:	0077f793          	and	a5,a5,7
    80006a2c:	00c508b3          	add	a7,a0,a2
    80006a30:	06079463          	bnez	a5,80006a98 <memcpy+0x74>
    80006a34:	00700793          	li	a5,7
    80006a38:	06c7f063          	bgeu	a5,a2,80006a98 <memcpy+0x74>
    80006a3c:	00757793          	and	a5,a0,7
    80006a40:	00050713          	mv	a4,a0
    80006a44:	06079a63          	bnez	a5,80006ab8 <memcpy+0x94>
    80006a48:	ff88f613          	and	a2,a7,-8
    80006a4c:	40e606b3          	sub	a3,a2,a4
    80006a50:	04000793          	li	a5,64
    80006a54:	08d7ce63          	blt	a5,a3,80006af0 <memcpy+0xcc>
    80006a58:	00058693          	mv	a3,a1
    80006a5c:	00070793          	mv	a5,a4
    80006a60:	02c77863          	bgeu	a4,a2,80006a90 <memcpy+0x6c>
    80006a64:	0006b803          	ld	a6,0(a3)
    80006a68:	00878793          	add	a5,a5,8
    80006a6c:	00868693          	add	a3,a3,8
    80006a70:	ff07bc23          	sd	a6,-8(a5)
    80006a74:	fec7e8e3          	bltu	a5,a2,80006a64 <memcpy+0x40>
    80006a78:	fff60793          	add	a5,a2,-1
    80006a7c:	40e787b3          	sub	a5,a5,a4
    80006a80:	ff87f793          	and	a5,a5,-8
    80006a84:	00878793          	add	a5,a5,8
    80006a88:	00f70733          	add	a4,a4,a5
    80006a8c:	00f585b3          	add	a1,a1,a5
    80006a90:	01176863          	bltu	a4,a7,80006aa0 <memcpy+0x7c>
    80006a94:	00008067          	ret
    80006a98:	00050713          	mv	a4,a0
    80006a9c:	05157863          	bgeu	a0,a7,80006aec <memcpy+0xc8>
    80006aa0:	0005c783          	lbu	a5,0(a1)
    80006aa4:	00170713          	add	a4,a4,1
    80006aa8:	00158593          	add	a1,a1,1
    80006aac:	fef70fa3          	sb	a5,-1(a4)
    80006ab0:	fee898e3          	bne	a7,a4,80006aa0 <memcpy+0x7c>
    80006ab4:	00008067          	ret
    80006ab8:	0005c683          	lbu	a3,0(a1)
    80006abc:	00170713          	add	a4,a4,1
    80006ac0:	00777793          	and	a5,a4,7
    80006ac4:	fed70fa3          	sb	a3,-1(a4)
    80006ac8:	00158593          	add	a1,a1,1
    80006acc:	f6078ee3          	beqz	a5,80006a48 <memcpy+0x24>
    80006ad0:	0005c683          	lbu	a3,0(a1)
    80006ad4:	00170713          	add	a4,a4,1
    80006ad8:	00777793          	and	a5,a4,7
    80006adc:	fed70fa3          	sb	a3,-1(a4)
    80006ae0:	00158593          	add	a1,a1,1
    80006ae4:	fc079ae3          	bnez	a5,80006ab8 <memcpy+0x94>
    80006ae8:	f61ff06f          	j	80006a48 <memcpy+0x24>
    80006aec:	00008067          	ret
    80006af0:	ff010113          	add	sp,sp,-16
    80006af4:	00813423          	sd	s0,8(sp)
    80006af8:	04000413          	li	s0,64
    80006afc:	0005b383          	ld	t2,0(a1)
    80006b00:	0085b283          	ld	t0,8(a1)
    80006b04:	0105bf83          	ld	t6,16(a1)
    80006b08:	0185bf03          	ld	t5,24(a1)
    80006b0c:	0205be83          	ld	t4,32(a1)
    80006b10:	0285be03          	ld	t3,40(a1)
    80006b14:	0305b303          	ld	t1,48(a1)
    80006b18:	0385b803          	ld	a6,56(a1)
    80006b1c:	0405b683          	ld	a3,64(a1)
    80006b20:	04870713          	add	a4,a4,72
    80006b24:	40e607b3          	sub	a5,a2,a4
    80006b28:	fa773c23          	sd	t2,-72(a4)
    80006b2c:	fc573023          	sd	t0,-64(a4)
    80006b30:	fdf73423          	sd	t6,-56(a4)
    80006b34:	fde73823          	sd	t5,-48(a4)
    80006b38:	fdd73c23          	sd	t4,-40(a4)
    80006b3c:	ffc73023          	sd	t3,-32(a4)
    80006b40:	fe673423          	sd	t1,-24(a4)
    80006b44:	ff073823          	sd	a6,-16(a4)
    80006b48:	fed73c23          	sd	a3,-8(a4)
    80006b4c:	04858593          	add	a1,a1,72
    80006b50:	faf446e3          	blt	s0,a5,80006afc <memcpy+0xd8>
    80006b54:	00058693          	mv	a3,a1
    80006b58:	00070793          	mv	a5,a4
    80006b5c:	02c77863          	bgeu	a4,a2,80006b8c <memcpy+0x168>
    80006b60:	0006b803          	ld	a6,0(a3)
    80006b64:	00878793          	add	a5,a5,8
    80006b68:	00868693          	add	a3,a3,8
    80006b6c:	ff07bc23          	sd	a6,-8(a5)
    80006b70:	fec7e8e3          	bltu	a5,a2,80006b60 <memcpy+0x13c>
    80006b74:	fff60793          	add	a5,a2,-1
    80006b78:	40e787b3          	sub	a5,a5,a4
    80006b7c:	ff87f793          	and	a5,a5,-8
    80006b80:	00878793          	add	a5,a5,8
    80006b84:	00f70733          	add	a4,a4,a5
    80006b88:	00f585b3          	add	a1,a1,a5
    80006b8c:	01176863          	bltu	a4,a7,80006b9c <memcpy+0x178>
    80006b90:	00813403          	ld	s0,8(sp)
    80006b94:	01010113          	add	sp,sp,16
    80006b98:	00008067          	ret
    80006b9c:	0005c783          	lbu	a5,0(a1)
    80006ba0:	00170713          	add	a4,a4,1
    80006ba4:	00158593          	add	a1,a1,1
    80006ba8:	fef70fa3          	sb	a5,-1(a4)
    80006bac:	fee882e3          	beq	a7,a4,80006b90 <memcpy+0x16c>
    80006bb0:	0005c783          	lbu	a5,0(a1)
    80006bb4:	00170713          	add	a4,a4,1
    80006bb8:	00158593          	add	a1,a1,1
    80006bbc:	fef70fa3          	sb	a5,-1(a4)
    80006bc0:	fce89ee3          	bne	a7,a4,80006b9c <memcpy+0x178>
    80006bc4:	fcdff06f          	j	80006b90 <memcpy+0x16c>

0000000080006bc8 <strlen>:
    80006bc8:	00757793          	and	a5,a0,7
    80006bcc:	00050713          	mv	a4,a0
    80006bd0:	08079663          	bnez	a5,80006c5c <strlen+0x94>
    80006bd4:	0feff6b7          	lui	a3,0xfeff
    80006bd8:	00469693          	sll	a3,a3,0x4
    80006bdc:	eff68693          	add	a3,a3,-257 # fefeeff <__heap_size+0xf6feeff>
    80006be0:	01069693          	sll	a3,a3,0x10
    80006be4:	eff68693          	add	a3,a3,-257
    80006be8:	00f69693          	sll	a3,a3,0xf
    80006bec:	f7f68693          	add	a3,a3,-129
    80006bf0:	fff00593          	li	a1,-1
    80006bf4:	00073603          	ld	a2,0(a4)
    80006bf8:	00870713          	add	a4,a4,8
    80006bfc:	00d677b3          	and	a5,a2,a3
    80006c00:	00d787b3          	add	a5,a5,a3
    80006c04:	00c7e7b3          	or	a5,a5,a2
    80006c08:	00d7e7b3          	or	a5,a5,a3
    80006c0c:	feb784e3          	beq	a5,a1,80006bf4 <strlen+0x2c>
    80006c10:	ff874683          	lbu	a3,-8(a4)
    80006c14:	40a707b3          	sub	a5,a4,a0
    80006c18:	06068463          	beqz	a3,80006c80 <strlen+0xb8>
    80006c1c:	ff974683          	lbu	a3,-7(a4)
    80006c20:	04068c63          	beqz	a3,80006c78 <strlen+0xb0>
    80006c24:	ffa74683          	lbu	a3,-6(a4)
    80006c28:	06068463          	beqz	a3,80006c90 <strlen+0xc8>
    80006c2c:	ffb74683          	lbu	a3,-5(a4)
    80006c30:	04068c63          	beqz	a3,80006c88 <strlen+0xc0>
    80006c34:	ffc74683          	lbu	a3,-4(a4)
    80006c38:	06068063          	beqz	a3,80006c98 <strlen+0xd0>
    80006c3c:	ffd74683          	lbu	a3,-3(a4)
    80006c40:	06068063          	beqz	a3,80006ca0 <strlen+0xd8>
    80006c44:	ffe74503          	lbu	a0,-2(a4)
    80006c48:	00a03533          	snez	a0,a0
    80006c4c:	00f50533          	add	a0,a0,a5
    80006c50:	ffe50513          	add	a0,a0,-2
    80006c54:	00008067          	ret
    80006c58:	f6068ee3          	beqz	a3,80006bd4 <strlen+0xc>
    80006c5c:	00074783          	lbu	a5,0(a4)
    80006c60:	00170713          	add	a4,a4,1
    80006c64:	00777693          	and	a3,a4,7
    80006c68:	fe0798e3          	bnez	a5,80006c58 <strlen+0x90>
    80006c6c:	40a70733          	sub	a4,a4,a0
    80006c70:	fff70513          	add	a0,a4,-1
    80006c74:	00008067          	ret
    80006c78:	ff978513          	add	a0,a5,-7
    80006c7c:	00008067          	ret
    80006c80:	ff878513          	add	a0,a5,-8
    80006c84:	00008067          	ret
    80006c88:	ffb78513          	add	a0,a5,-5
    80006c8c:	00008067          	ret
    80006c90:	ffa78513          	add	a0,a5,-6
    80006c94:	00008067          	ret
    80006c98:	ffc78513          	add	a0,a5,-4
    80006c9c:	00008067          	ret
    80006ca0:	ffd78513          	add	a0,a5,-3
    80006ca4:	00008067          	ret

0000000080006ca8 <_malloc_trim_r>:
    80006ca8:	fd010113          	add	sp,sp,-48
    80006cac:	02813023          	sd	s0,32(sp)
    80006cb0:	00913c23          	sd	s1,24(sp)
    80006cb4:	01213823          	sd	s2,16(sp)
    80006cb8:	01313423          	sd	s3,8(sp)
    80006cbc:	01413023          	sd	s4,0(sp)
    80006cc0:	00058993          	mv	s3,a1
    80006cc4:	02113423          	sd	ra,40(sp)
    80006cc8:	00050913          	mv	s2,a0
    80006ccc:	00017a17          	auipc	s4,0x17
    80006cd0:	274a0a13          	add	s4,s4,628 # 8001df40 <__malloc_av_>
    80006cd4:	449000ef          	jal	8000791c <__malloc_lock>
    80006cd8:	010a3703          	ld	a4,16(s4)
    80006cdc:	000017b7          	lui	a5,0x1
    80006ce0:	fdf78793          	add	a5,a5,-33 # fdf <__stack_shift+0xfc8>
    80006ce4:	00873483          	ld	s1,8(a4)
    80006ce8:	00001737          	lui	a4,0x1
    80006cec:	ffc4f493          	and	s1,s1,-4
    80006cf0:	00f48433          	add	s0,s1,a5
    80006cf4:	41340433          	sub	s0,s0,s3
    80006cf8:	00c45413          	srl	s0,s0,0xc
    80006cfc:	fff40413          	add	s0,s0,-1
    80006d00:	00c41413          	sll	s0,s0,0xc
    80006d04:	00e44e63          	blt	s0,a4,80006d20 <_malloc_trim_r+0x78>
    80006d08:	00000593          	li	a1,0
    80006d0c:	00090513          	mv	a0,s2
    80006d10:	074040ef          	jal	8000ad84 <_sbrk_r>
    80006d14:	010a3783          	ld	a5,16(s4)
    80006d18:	009787b3          	add	a5,a5,s1
    80006d1c:	02f50863          	beq	a0,a5,80006d4c <_malloc_trim_r+0xa4>
    80006d20:	00090513          	mv	a0,s2
    80006d24:	3fd000ef          	jal	80007920 <__malloc_unlock>
    80006d28:	02813083          	ld	ra,40(sp)
    80006d2c:	02013403          	ld	s0,32(sp)
    80006d30:	01813483          	ld	s1,24(sp)
    80006d34:	01013903          	ld	s2,16(sp)
    80006d38:	00813983          	ld	s3,8(sp)
    80006d3c:	00013a03          	ld	s4,0(sp)
    80006d40:	00000513          	li	a0,0
    80006d44:	03010113          	add	sp,sp,48
    80006d48:	00008067          	ret
    80006d4c:	408005b3          	neg	a1,s0
    80006d50:	00090513          	mv	a0,s2
    80006d54:	030040ef          	jal	8000ad84 <_sbrk_r>
    80006d58:	fff00793          	li	a5,-1
    80006d5c:	04f50863          	beq	a0,a5,80006dac <_malloc_trim_r+0x104>
    80006d60:	b1018713          	add	a4,gp,-1264 # 8001ec08 <__malloc_current_mallinfo>
    80006d64:	00072783          	lw	a5,0(a4) # 1000 <__stack_shift+0xfe9>
    80006d68:	010a3683          	ld	a3,16(s4)
    80006d6c:	408484b3          	sub	s1,s1,s0
    80006d70:	0014e493          	or	s1,s1,1
    80006d74:	408787bb          	subw	a5,a5,s0
    80006d78:	00090513          	mv	a0,s2
    80006d7c:	0096b423          	sd	s1,8(a3)
    80006d80:	00f72023          	sw	a5,0(a4)
    80006d84:	39d000ef          	jal	80007920 <__malloc_unlock>
    80006d88:	02813083          	ld	ra,40(sp)
    80006d8c:	02013403          	ld	s0,32(sp)
    80006d90:	01813483          	ld	s1,24(sp)
    80006d94:	01013903          	ld	s2,16(sp)
    80006d98:	00813983          	ld	s3,8(sp)
    80006d9c:	00013a03          	ld	s4,0(sp)
    80006da0:	00100513          	li	a0,1
    80006da4:	03010113          	add	sp,sp,48
    80006da8:	00008067          	ret
    80006dac:	00000593          	li	a1,0
    80006db0:	00090513          	mv	a0,s2
    80006db4:	7d1030ef          	jal	8000ad84 <_sbrk_r>
    80006db8:	010a3703          	ld	a4,16(s4)
    80006dbc:	01f00693          	li	a3,31
    80006dc0:	40e507b3          	sub	a5,a0,a4
    80006dc4:	f4f6dee3          	bge	a3,a5,80006d20 <_malloc_trim_r+0x78>
    80006dc8:	8181b683          	ld	a3,-2024(gp) # 8001e910 <__malloc_sbrk_base>
    80006dcc:	40d50533          	sub	a0,a0,a3
    80006dd0:	0017e793          	or	a5,a5,1
    80006dd4:	b0a1a823          	sw	a0,-1264(gp) # 8001ec08 <__malloc_current_mallinfo>
    80006dd8:	00f73423          	sd	a5,8(a4)
    80006ddc:	f45ff06f          	j	80006d20 <_malloc_trim_r+0x78>

0000000080006de0 <_free_r>:
    80006de0:	18058863          	beqz	a1,80006f70 <_free_r+0x190>
    80006de4:	fe010113          	add	sp,sp,-32
    80006de8:	00813823          	sd	s0,16(sp)
    80006dec:	00913423          	sd	s1,8(sp)
    80006df0:	00058413          	mv	s0,a1
    80006df4:	00050493          	mv	s1,a0
    80006df8:	00113c23          	sd	ra,24(sp)
    80006dfc:	321000ef          	jal	8000791c <__malloc_lock>
    80006e00:	ff843583          	ld	a1,-8(s0)
    80006e04:	ff040713          	add	a4,s0,-16
    80006e08:	00017517          	auipc	a0,0x17
    80006e0c:	13850513          	add	a0,a0,312 # 8001df40 <__malloc_av_>
    80006e10:	ffe5f793          	and	a5,a1,-2
    80006e14:	00f70633          	add	a2,a4,a5
    80006e18:	00863683          	ld	a3,8(a2)
    80006e1c:	01053803          	ld	a6,16(a0)
    80006e20:	ffc6f693          	and	a3,a3,-4
    80006e24:	1ac80863          	beq	a6,a2,80006fd4 <_free_r+0x1f4>
    80006e28:	00d63423          	sd	a3,8(a2)
    80006e2c:	0015f593          	and	a1,a1,1
    80006e30:	00d60833          	add	a6,a2,a3
    80006e34:	0a059463          	bnez	a1,80006edc <_free_r+0xfc>
    80006e38:	ff043303          	ld	t1,-16(s0)
    80006e3c:	00883583          	ld	a1,8(a6)
    80006e40:	00017897          	auipc	a7,0x17
    80006e44:	11088893          	add	a7,a7,272 # 8001df50 <__malloc_av_+0x10>
    80006e48:	40670733          	sub	a4,a4,t1
    80006e4c:	01073803          	ld	a6,16(a4)
    80006e50:	006787b3          	add	a5,a5,t1
    80006e54:	0015f593          	and	a1,a1,1
    80006e58:	15180863          	beq	a6,a7,80006fa8 <_free_r+0x1c8>
    80006e5c:	01873303          	ld	t1,24(a4)
    80006e60:	00683c23          	sd	t1,24(a6)
    80006e64:	01033823          	sd	a6,16(t1)
    80006e68:	1a058c63          	beqz	a1,80007020 <_free_r+0x240>
    80006e6c:	0017e693          	or	a3,a5,1
    80006e70:	00d73423          	sd	a3,8(a4)
    80006e74:	00f63023          	sd	a5,0(a2)
    80006e78:	1ff00693          	li	a3,511
    80006e7c:	08f6e063          	bltu	a3,a5,80006efc <_free_r+0x11c>
    80006e80:	0037d793          	srl	a5,a5,0x3
    80006e84:	0017869b          	addw	a3,a5,1
    80006e88:	0016969b          	sllw	a3,a3,0x1
    80006e8c:	00369693          	sll	a3,a3,0x3
    80006e90:	00853803          	ld	a6,8(a0)
    80006e94:	00d506b3          	add	a3,a0,a3
    80006e98:	0006b583          	ld	a1,0(a3)
    80006e9c:	4027d61b          	sraw	a2,a5,0x2
    80006ea0:	00100793          	li	a5,1
    80006ea4:	00c797b3          	sll	a5,a5,a2
    80006ea8:	0107e7b3          	or	a5,a5,a6
    80006eac:	ff068613          	add	a2,a3,-16
    80006eb0:	00c73c23          	sd	a2,24(a4)
    80006eb4:	00b73823          	sd	a1,16(a4)
    80006eb8:	00f53423          	sd	a5,8(a0)
    80006ebc:	00e6b023          	sd	a4,0(a3)
    80006ec0:	00e5bc23          	sd	a4,24(a1)
    80006ec4:	01013403          	ld	s0,16(sp)
    80006ec8:	01813083          	ld	ra,24(sp)
    80006ecc:	00048513          	mv	a0,s1
    80006ed0:	00813483          	ld	s1,8(sp)
    80006ed4:	02010113          	add	sp,sp,32
    80006ed8:	2490006f          	j	80007920 <__malloc_unlock>
    80006edc:	00883583          	ld	a1,8(a6)
    80006ee0:	0015f593          	and	a1,a1,1
    80006ee4:	08058863          	beqz	a1,80006f74 <_free_r+0x194>
    80006ee8:	0017e693          	or	a3,a5,1
    80006eec:	fed43c23          	sd	a3,-8(s0)
    80006ef0:	00f63023          	sd	a5,0(a2)
    80006ef4:	1ff00693          	li	a3,511
    80006ef8:	f8f6f4e3          	bgeu	a3,a5,80006e80 <_free_r+0xa0>
    80006efc:	0097d693          	srl	a3,a5,0x9
    80006f00:	00400613          	li	a2,4
    80006f04:	12d66263          	bltu	a2,a3,80007028 <_free_r+0x248>
    80006f08:	0067d693          	srl	a3,a5,0x6
    80006f0c:	0396859b          	addw	a1,a3,57
    80006f10:	0015959b          	sllw	a1,a1,0x1
    80006f14:	0386861b          	addw	a2,a3,56
    80006f18:	00359593          	sll	a1,a1,0x3
    80006f1c:	00b505b3          	add	a1,a0,a1
    80006f20:	0005b683          	ld	a3,0(a1)
    80006f24:	ff058593          	add	a1,a1,-16
    80006f28:	00d59863          	bne	a1,a3,80006f38 <_free_r+0x158>
    80006f2c:	15c0006f          	j	80007088 <_free_r+0x2a8>
    80006f30:	0106b683          	ld	a3,16(a3)
    80006f34:	00d58863          	beq	a1,a3,80006f44 <_free_r+0x164>
    80006f38:	0086b603          	ld	a2,8(a3)
    80006f3c:	ffc67613          	and	a2,a2,-4
    80006f40:	fec7e8e3          	bltu	a5,a2,80006f30 <_free_r+0x150>
    80006f44:	0186b583          	ld	a1,24(a3)
    80006f48:	00b73c23          	sd	a1,24(a4)
    80006f4c:	00d73823          	sd	a3,16(a4)
    80006f50:	01013403          	ld	s0,16(sp)
    80006f54:	01813083          	ld	ra,24(sp)
    80006f58:	00e5b823          	sd	a4,16(a1)
    80006f5c:	00048513          	mv	a0,s1
    80006f60:	00813483          	ld	s1,8(sp)
    80006f64:	00e6bc23          	sd	a4,24(a3)
    80006f68:	02010113          	add	sp,sp,32
    80006f6c:	1b50006f          	j	80007920 <__malloc_unlock>
    80006f70:	00008067          	ret
    80006f74:	00d787b3          	add	a5,a5,a3
    80006f78:	00017897          	auipc	a7,0x17
    80006f7c:	fd888893          	add	a7,a7,-40 # 8001df50 <__malloc_av_+0x10>
    80006f80:	01063683          	ld	a3,16(a2)
    80006f84:	0f168063          	beq	a3,a7,80007064 <_free_r+0x284>
    80006f88:	01863803          	ld	a6,24(a2)
    80006f8c:	0017e593          	or	a1,a5,1
    80006f90:	00f70633          	add	a2,a4,a5
    80006f94:	0106bc23          	sd	a6,24(a3)
    80006f98:	00d83823          	sd	a3,16(a6)
    80006f9c:	00b73423          	sd	a1,8(a4)
    80006fa0:	00f63023          	sd	a5,0(a2)
    80006fa4:	ed5ff06f          	j	80006e78 <_free_r+0x98>
    80006fa8:	14059463          	bnez	a1,800070f0 <_free_r+0x310>
    80006fac:	01063583          	ld	a1,16(a2)
    80006fb0:	01863603          	ld	a2,24(a2)
    80006fb4:	00f686b3          	add	a3,a3,a5
    80006fb8:	0016e793          	or	a5,a3,1
    80006fbc:	00c5bc23          	sd	a2,24(a1)
    80006fc0:	00b63823          	sd	a1,16(a2)
    80006fc4:	00f73423          	sd	a5,8(a4)
    80006fc8:	00d70733          	add	a4,a4,a3
    80006fcc:	00d73023          	sd	a3,0(a4)
    80006fd0:	ef5ff06f          	j	80006ec4 <_free_r+0xe4>
    80006fd4:	0015f593          	and	a1,a1,1
    80006fd8:	00d786b3          	add	a3,a5,a3
    80006fdc:	02059063          	bnez	a1,80006ffc <_free_r+0x21c>
    80006fe0:	ff043583          	ld	a1,-16(s0)
    80006fe4:	40b70733          	sub	a4,a4,a1
    80006fe8:	01873783          	ld	a5,24(a4)
    80006fec:	01073603          	ld	a2,16(a4)
    80006ff0:	00b686b3          	add	a3,a3,a1
    80006ff4:	00f63c23          	sd	a5,24(a2)
    80006ff8:	00c7b823          	sd	a2,16(a5)
    80006ffc:	0016e793          	or	a5,a3,1
    80007000:	00f73423          	sd	a5,8(a4)
    80007004:	00e53823          	sd	a4,16(a0)
    80007008:	8201b783          	ld	a5,-2016(gp) # 8001e918 <__malloc_trim_threshold>
    8000700c:	eaf6ece3          	bltu	a3,a5,80006ec4 <_free_r+0xe4>
    80007010:	8c81b583          	ld	a1,-1848(gp) # 8001e9c0 <__malloc_top_pad>
    80007014:	00048513          	mv	a0,s1
    80007018:	c91ff0ef          	jal	80006ca8 <_malloc_trim_r>
    8000701c:	ea9ff06f          	j	80006ec4 <_free_r+0xe4>
    80007020:	00d787b3          	add	a5,a5,a3
    80007024:	f5dff06f          	j	80006f80 <_free_r+0x1a0>
    80007028:	01400613          	li	a2,20
    8000702c:	02d67263          	bgeu	a2,a3,80007050 <_free_r+0x270>
    80007030:	05400613          	li	a2,84
    80007034:	06d66863          	bltu	a2,a3,800070a4 <_free_r+0x2c4>
    80007038:	00c7d693          	srl	a3,a5,0xc
    8000703c:	06f6859b          	addw	a1,a3,111
    80007040:	0015959b          	sllw	a1,a1,0x1
    80007044:	06e6861b          	addw	a2,a3,110
    80007048:	00359593          	sll	a1,a1,0x3
    8000704c:	ed1ff06f          	j	80006f1c <_free_r+0x13c>
    80007050:	05c6859b          	addw	a1,a3,92
    80007054:	0015959b          	sllw	a1,a1,0x1
    80007058:	05b6861b          	addw	a2,a3,91
    8000705c:	00359593          	sll	a1,a1,0x3
    80007060:	ebdff06f          	j	80006f1c <_free_r+0x13c>
    80007064:	02e53423          	sd	a4,40(a0)
    80007068:	02e53023          	sd	a4,32(a0)
    8000706c:	0017e693          	or	a3,a5,1
    80007070:	01173c23          	sd	a7,24(a4)
    80007074:	01173823          	sd	a7,16(a4)
    80007078:	00d73423          	sd	a3,8(a4)
    8000707c:	00f70733          	add	a4,a4,a5
    80007080:	00f73023          	sd	a5,0(a4)
    80007084:	e41ff06f          	j	80006ec4 <_free_r+0xe4>
    80007088:	00853803          	ld	a6,8(a0)
    8000708c:	4026561b          	sraw	a2,a2,0x2
    80007090:	00100793          	li	a5,1
    80007094:	00c797b3          	sll	a5,a5,a2
    80007098:	0107e7b3          	or	a5,a5,a6
    8000709c:	00f53423          	sd	a5,8(a0)
    800070a0:	ea9ff06f          	j	80006f48 <_free_r+0x168>
    800070a4:	15400613          	li	a2,340
    800070a8:	00d66e63          	bltu	a2,a3,800070c4 <_free_r+0x2e4>
    800070ac:	00f7d693          	srl	a3,a5,0xf
    800070b0:	0786859b          	addw	a1,a3,120
    800070b4:	0015959b          	sllw	a1,a1,0x1
    800070b8:	0776861b          	addw	a2,a3,119
    800070bc:	00359593          	sll	a1,a1,0x3
    800070c0:	e5dff06f          	j	80006f1c <_free_r+0x13c>
    800070c4:	55400613          	li	a2,1364
    800070c8:	00d66e63          	bltu	a2,a3,800070e4 <_free_r+0x304>
    800070cc:	0127d693          	srl	a3,a5,0x12
    800070d0:	07d6859b          	addw	a1,a3,125
    800070d4:	0015959b          	sllw	a1,a1,0x1
    800070d8:	07c6861b          	addw	a2,a3,124
    800070dc:	00359593          	sll	a1,a1,0x3
    800070e0:	e3dff06f          	j	80006f1c <_free_r+0x13c>
    800070e4:	7f000593          	li	a1,2032
    800070e8:	07e00613          	li	a2,126
    800070ec:	e31ff06f          	j	80006f1c <_free_r+0x13c>
    800070f0:	0017e693          	or	a3,a5,1
    800070f4:	00d73423          	sd	a3,8(a4)
    800070f8:	00f63023          	sd	a5,0(a2)
    800070fc:	dc9ff06f          	j	80006ec4 <_free_r+0xe4>

0000000080007100 <_malloc_r>:
    80007100:	fa010113          	add	sp,sp,-96
    80007104:	04913423          	sd	s1,72(sp)
    80007108:	05213023          	sd	s2,64(sp)
    8000710c:	04113c23          	sd	ra,88(sp)
    80007110:	04813823          	sd	s0,80(sp)
    80007114:	03313c23          	sd	s3,56(sp)
    80007118:	01758493          	add	s1,a1,23
    8000711c:	02e00793          	li	a5,46
    80007120:	00050913          	mv	s2,a0
    80007124:	0897e263          	bltu	a5,s1,800071a8 <_malloc_r+0xa8>
    80007128:	02000793          	li	a5,32
    8000712c:	22b7e663          	bltu	a5,a1,80007358 <_malloc_r+0x258>
    80007130:	7ec000ef          	jal	8000791c <__malloc_lock>
    80007134:	05000793          	li	a5,80
    80007138:	00400593          	li	a1,4
    8000713c:	02000493          	li	s1,32
    80007140:	00017997          	auipc	s3,0x17
    80007144:	e0098993          	add	s3,s3,-512 # 8001df40 <__malloc_av_>
    80007148:	00f987b3          	add	a5,s3,a5
    8000714c:	0087b403          	ld	s0,8(a5)
    80007150:	ff078713          	add	a4,a5,-16
    80007154:	36e40a63          	beq	s0,a4,800074c8 <_malloc_r+0x3c8>
    80007158:	00843783          	ld	a5,8(s0)
    8000715c:	01843683          	ld	a3,24(s0)
    80007160:	01043603          	ld	a2,16(s0)
    80007164:	ffc7f793          	and	a5,a5,-4
    80007168:	00f407b3          	add	a5,s0,a5
    8000716c:	0087b703          	ld	a4,8(a5)
    80007170:	00d63c23          	sd	a3,24(a2)
    80007174:	00c6b823          	sd	a2,16(a3)
    80007178:	00176713          	or	a4,a4,1
    8000717c:	00090513          	mv	a0,s2
    80007180:	00e7b423          	sd	a4,8(a5)
    80007184:	79c000ef          	jal	80007920 <__malloc_unlock>
    80007188:	01040513          	add	a0,s0,16
    8000718c:	05813083          	ld	ra,88(sp)
    80007190:	05013403          	ld	s0,80(sp)
    80007194:	04813483          	ld	s1,72(sp)
    80007198:	04013903          	ld	s2,64(sp)
    8000719c:	03813983          	ld	s3,56(sp)
    800071a0:	06010113          	add	sp,sp,96
    800071a4:	00008067          	ret
    800071a8:	800007b7          	lui	a5,0x80000
    800071ac:	ff04f493          	and	s1,s1,-16
    800071b0:	fff7c793          	not	a5,a5
    800071b4:	1a97e263          	bltu	a5,s1,80007358 <_malloc_r+0x258>
    800071b8:	1ab4e063          	bltu	s1,a1,80007358 <_malloc_r+0x258>
    800071bc:	760000ef          	jal	8000791c <__malloc_lock>
    800071c0:	1f700793          	li	a5,503
    800071c4:	4497fe63          	bgeu	a5,s1,80007620 <_malloc_r+0x520>
    800071c8:	0094d793          	srl	a5,s1,0x9
    800071cc:	18078e63          	beqz	a5,80007368 <_malloc_r+0x268>
    800071d0:	00400713          	li	a4,4
    800071d4:	36f76463          	bltu	a4,a5,8000753c <_malloc_r+0x43c>
    800071d8:	0064d793          	srl	a5,s1,0x6
    800071dc:	0397859b          	addw	a1,a5,57 # ffffffff80000039 <__heap_end+0xfffffffeff7e1039>
    800071e0:	0015961b          	sllw	a2,a1,0x1
    800071e4:	0387881b          	addw	a6,a5,56
    800071e8:	00361613          	sll	a2,a2,0x3
    800071ec:	00017997          	auipc	s3,0x17
    800071f0:	d5498993          	add	s3,s3,-684 # 8001df40 <__malloc_av_>
    800071f4:	00c98633          	add	a2,s3,a2
    800071f8:	00863403          	ld	s0,8(a2)
    800071fc:	ff060613          	add	a2,a2,-16
    80007200:	02860863          	beq	a2,s0,80007230 <_malloc_r+0x130>
    80007204:	01f00513          	li	a0,31
    80007208:	0140006f          	j	8000721c <_malloc_r+0x11c>
    8000720c:	01843683          	ld	a3,24(s0)
    80007210:	2a075863          	bgez	a4,800074c0 <_malloc_r+0x3c0>
    80007214:	00d60e63          	beq	a2,a3,80007230 <_malloc_r+0x130>
    80007218:	00068413          	mv	s0,a3
    8000721c:	00843783          	ld	a5,8(s0)
    80007220:	ffc7f793          	and	a5,a5,-4
    80007224:	40978733          	sub	a4,a5,s1
    80007228:	fee552e3          	bge	a0,a4,8000720c <_malloc_r+0x10c>
    8000722c:	00080593          	mv	a1,a6
    80007230:	0209b403          	ld	s0,32(s3)
    80007234:	00017897          	auipc	a7,0x17
    80007238:	d1c88893          	add	a7,a7,-740 # 8001df50 <__malloc_av_+0x10>
    8000723c:	27140e63          	beq	s0,a7,800074b8 <_malloc_r+0x3b8>
    80007240:	00843783          	ld	a5,8(s0)
    80007244:	01f00693          	li	a3,31
    80007248:	ffc7f793          	and	a5,a5,-4
    8000724c:	40978733          	sub	a4,a5,s1
    80007250:	38e6ca63          	blt	a3,a4,800075e4 <_malloc_r+0x4e4>
    80007254:	0319b423          	sd	a7,40(s3)
    80007258:	0319b023          	sd	a7,32(s3)
    8000725c:	36075463          	bgez	a4,800075c4 <_malloc_r+0x4c4>
    80007260:	1ff00713          	li	a4,511
    80007264:	0089b503          	ld	a0,8(s3)
    80007268:	26f76863          	bltu	a4,a5,800074d8 <_malloc_r+0x3d8>
    8000726c:	0037d793          	srl	a5,a5,0x3
    80007270:	0017871b          	addw	a4,a5,1
    80007274:	0017171b          	sllw	a4,a4,0x1
    80007278:	00371713          	sll	a4,a4,0x3
    8000727c:	00e98733          	add	a4,s3,a4
    80007280:	00073603          	ld	a2,0(a4)
    80007284:	4027d79b          	sraw	a5,a5,0x2
    80007288:	00100693          	li	a3,1
    8000728c:	00f697b3          	sll	a5,a3,a5
    80007290:	00f56533          	or	a0,a0,a5
    80007294:	ff070793          	add	a5,a4,-16
    80007298:	00f43c23          	sd	a5,24(s0)
    8000729c:	00c43823          	sd	a2,16(s0)
    800072a0:	00a9b423          	sd	a0,8(s3)
    800072a4:	00873023          	sd	s0,0(a4)
    800072a8:	00863c23          	sd	s0,24(a2)
    800072ac:	4025d79b          	sraw	a5,a1,0x2
    800072b0:	00100613          	li	a2,1
    800072b4:	00f61633          	sll	a2,a2,a5
    800072b8:	0cc56063          	bltu	a0,a2,80007378 <_malloc_r+0x278>
    800072bc:	00a677b3          	and	a5,a2,a0
    800072c0:	02079463          	bnez	a5,800072e8 <_malloc_r+0x1e8>
    800072c4:	00161613          	sll	a2,a2,0x1
    800072c8:	ffc5f593          	and	a1,a1,-4
    800072cc:	00a677b3          	and	a5,a2,a0
    800072d0:	0045859b          	addw	a1,a1,4
    800072d4:	00079a63          	bnez	a5,800072e8 <_malloc_r+0x1e8>
    800072d8:	00161613          	sll	a2,a2,0x1
    800072dc:	00a677b3          	and	a5,a2,a0
    800072e0:	0045859b          	addw	a1,a1,4
    800072e4:	fe078ae3          	beqz	a5,800072d8 <_malloc_r+0x1d8>
    800072e8:	01f00813          	li	a6,31
    800072ec:	0015831b          	addw	t1,a1,1
    800072f0:	0013131b          	sllw	t1,t1,0x1
    800072f4:	00331313          	sll	t1,t1,0x3
    800072f8:	ff030313          	add	t1,t1,-16
    800072fc:	00698333          	add	t1,s3,t1
    80007300:	00030513          	mv	a0,t1
    80007304:	01853783          	ld	a5,24(a0)
    80007308:	00058e13          	mv	t3,a1
    8000730c:	24f50c63          	beq	a0,a5,80007564 <_malloc_r+0x464>
    80007310:	0087b703          	ld	a4,8(a5)
    80007314:	00078413          	mv	s0,a5
    80007318:	0187b783          	ld	a5,24(a5)
    8000731c:	ffc77713          	and	a4,a4,-4
    80007320:	409706b3          	sub	a3,a4,s1
    80007324:	24d84c63          	blt	a6,a3,8000757c <_malloc_r+0x47c>
    80007328:	fe06c2e3          	bltz	a3,8000730c <_malloc_r+0x20c>
    8000732c:	00e40733          	add	a4,s0,a4
    80007330:	00873683          	ld	a3,8(a4)
    80007334:	01043603          	ld	a2,16(s0)
    80007338:	00090513          	mv	a0,s2
    8000733c:	0016e693          	or	a3,a3,1
    80007340:	00d73423          	sd	a3,8(a4)
    80007344:	00f63c23          	sd	a5,24(a2)
    80007348:	00c7b823          	sd	a2,16(a5)
    8000734c:	5d4000ef          	jal	80007920 <__malloc_unlock>
    80007350:	01040513          	add	a0,s0,16
    80007354:	e39ff06f          	j	8000718c <_malloc_r+0x8c>
    80007358:	00c00793          	li	a5,12
    8000735c:	00f92023          	sw	a5,0(s2)
    80007360:	00000513          	li	a0,0
    80007364:	e29ff06f          	j	8000718c <_malloc_r+0x8c>
    80007368:	40000613          	li	a2,1024
    8000736c:	04000593          	li	a1,64
    80007370:	03f00813          	li	a6,63
    80007374:	e79ff06f          	j	800071ec <_malloc_r+0xec>
    80007378:	0109b403          	ld	s0,16(s3)
    8000737c:	03513423          	sd	s5,40(sp)
    80007380:	00843783          	ld	a5,8(s0)
    80007384:	ffc7fa93          	and	s5,a5,-4
    80007388:	009ae863          	bltu	s5,s1,80007398 <_malloc_r+0x298>
    8000738c:	409a8733          	sub	a4,s5,s1
    80007390:	01f00793          	li	a5,31
    80007394:	0ee7c063          	blt	a5,a4,80007474 <_malloc_r+0x374>
    80007398:	01913423          	sd	s9,8(sp)
    8000739c:	81818c93          	add	s9,gp,-2024 # 8001e910 <__malloc_sbrk_base>
    800073a0:	000cb703          	ld	a4,0(s9)
    800073a4:	03413823          	sd	s4,48(sp)
    800073a8:	01713c23          	sd	s7,24(sp)
    800073ac:	8c81ba03          	ld	s4,-1848(gp) # 8001e9c0 <__malloc_top_pad>
    800073b0:	03613023          	sd	s6,32(sp)
    800073b4:	fff00793          	li	a5,-1
    800073b8:	01540bb3          	add	s7,s0,s5
    800073bc:	01448a33          	add	s4,s1,s4
    800073c0:	3ef70a63          	beq	a4,a5,800077b4 <_malloc_r+0x6b4>
    800073c4:	000017b7          	lui	a5,0x1
    800073c8:	01f78793          	add	a5,a5,31 # 101f <__stack_shift+0x1008>
    800073cc:	00fa0a33          	add	s4,s4,a5
    800073d0:	fffff7b7          	lui	a5,0xfffff
    800073d4:	00fa7a33          	and	s4,s4,a5
    800073d8:	000a0593          	mv	a1,s4
    800073dc:	00090513          	mv	a0,s2
    800073e0:	1a5030ef          	jal	8000ad84 <_sbrk_r>
    800073e4:	fff00793          	li	a5,-1
    800073e8:	00050b13          	mv	s6,a0
    800073ec:	48f50263          	beq	a0,a5,80007870 <_malloc_r+0x770>
    800073f0:	01813823          	sd	s8,16(sp)
    800073f4:	25756e63          	bltu	a0,s7,80007650 <_malloc_r+0x550>
    800073f8:	b1018c13          	add	s8,gp,-1264 # 8001ec08 <__malloc_current_mallinfo>
    800073fc:	000c2783          	lw	a5,0(s8)
    80007400:	0147873b          	addw	a4,a5,s4
    80007404:	00ec2023          	sw	a4,0(s8)
    80007408:	00070693          	mv	a3,a4
    8000740c:	2cab9863          	bne	s7,a0,800076dc <_malloc_r+0x5dc>
    80007410:	03451793          	sll	a5,a0,0x34
    80007414:	2c079463          	bnez	a5,800076dc <_malloc_r+0x5dc>
    80007418:	0109bb03          	ld	s6,16(s3)
    8000741c:	014a87b3          	add	a5,s5,s4
    80007420:	0017e793          	or	a5,a5,1
    80007424:	00fb3423          	sd	a5,8(s6)
    80007428:	8c018693          	add	a3,gp,-1856 # 8001e9b8 <__malloc_max_sbrked_mem>
    8000742c:	0006b603          	ld	a2,0(a3)
    80007430:	00e67463          	bgeu	a2,a4,80007438 <_malloc_r+0x338>
    80007434:	00e6b023          	sd	a4,0(a3)
    80007438:	8b818693          	add	a3,gp,-1864 # 8001e9b0 <__malloc_max_total_mem>
    8000743c:	0006b603          	ld	a2,0(a3)
    80007440:	00e67463          	bgeu	a2,a4,80007448 <_malloc_r+0x348>
    80007444:	00e6b023          	sd	a4,0(a3)
    80007448:	01013c03          	ld	s8,16(sp)
    8000744c:	000b0413          	mv	s0,s6
    80007450:	ffc7f793          	and	a5,a5,-4
    80007454:	40978733          	sub	a4,a5,s1
    80007458:	3a97ea63          	bltu	a5,s1,8000780c <_malloc_r+0x70c>
    8000745c:	01f00793          	li	a5,31
    80007460:	3ae7d663          	bge	a5,a4,8000780c <_malloc_r+0x70c>
    80007464:	03013a03          	ld	s4,48(sp)
    80007468:	02013b03          	ld	s6,32(sp)
    8000746c:	01813b83          	ld	s7,24(sp)
    80007470:	00813c83          	ld	s9,8(sp)
    80007474:	0014e793          	or	a5,s1,1
    80007478:	00f43423          	sd	a5,8(s0)
    8000747c:	009404b3          	add	s1,s0,s1
    80007480:	0099b823          	sd	s1,16(s3)
    80007484:	00176713          	or	a4,a4,1
    80007488:	00090513          	mv	a0,s2
    8000748c:	00e4b423          	sd	a4,8(s1)
    80007490:	490000ef          	jal	80007920 <__malloc_unlock>
    80007494:	05813083          	ld	ra,88(sp)
    80007498:	01040513          	add	a0,s0,16
    8000749c:	05013403          	ld	s0,80(sp)
    800074a0:	02813a83          	ld	s5,40(sp)
    800074a4:	04813483          	ld	s1,72(sp)
    800074a8:	04013903          	ld	s2,64(sp)
    800074ac:	03813983          	ld	s3,56(sp)
    800074b0:	06010113          	add	sp,sp,96
    800074b4:	00008067          	ret
    800074b8:	0089b503          	ld	a0,8(s3)
    800074bc:	df1ff06f          	j	800072ac <_malloc_r+0x1ac>
    800074c0:	01043603          	ld	a2,16(s0)
    800074c4:	ca5ff06f          	j	80007168 <_malloc_r+0x68>
    800074c8:	0187b403          	ld	s0,24(a5) # fffffffffffff018 <__heap_end+0xffffffff7f7e0018>
    800074cc:	0025859b          	addw	a1,a1,2
    800074d0:	d68780e3          	beq	a5,s0,80007230 <_malloc_r+0x130>
    800074d4:	c85ff06f          	j	80007158 <_malloc_r+0x58>
    800074d8:	0097d713          	srl	a4,a5,0x9
    800074dc:	00400693          	li	a3,4
    800074e0:	14e6fc63          	bgeu	a3,a4,80007638 <_malloc_r+0x538>
    800074e4:	01400693          	li	a3,20
    800074e8:	34e6e463          	bltu	a3,a4,80007830 <_malloc_r+0x730>
    800074ec:	05c7061b          	addw	a2,a4,92
    800074f0:	0016161b          	sllw	a2,a2,0x1
    800074f4:	05b7069b          	addw	a3,a4,91
    800074f8:	00361613          	sll	a2,a2,0x3
    800074fc:	00c98633          	add	a2,s3,a2
    80007500:	00063703          	ld	a4,0(a2)
    80007504:	ff060613          	add	a2,a2,-16
    80007508:	00e61863          	bne	a2,a4,80007518 <_malloc_r+0x418>
    8000750c:	2b00006f          	j	800077bc <_malloc_r+0x6bc>
    80007510:	01073703          	ld	a4,16(a4)
    80007514:	00e60863          	beq	a2,a4,80007524 <_malloc_r+0x424>
    80007518:	00873683          	ld	a3,8(a4)
    8000751c:	ffc6f693          	and	a3,a3,-4
    80007520:	fed7e8e3          	bltu	a5,a3,80007510 <_malloc_r+0x410>
    80007524:	01873603          	ld	a2,24(a4)
    80007528:	00c43c23          	sd	a2,24(s0)
    8000752c:	00e43823          	sd	a4,16(s0)
    80007530:	00863823          	sd	s0,16(a2)
    80007534:	00873c23          	sd	s0,24(a4)
    80007538:	d75ff06f          	j	800072ac <_malloc_r+0x1ac>
    8000753c:	01400713          	li	a4,20
    80007540:	12f77263          	bgeu	a4,a5,80007664 <_malloc_r+0x564>
    80007544:	05400713          	li	a4,84
    80007548:	30f76463          	bltu	a4,a5,80007850 <_malloc_r+0x750>
    8000754c:	00c4d793          	srl	a5,s1,0xc
    80007550:	06f7859b          	addw	a1,a5,111
    80007554:	0015961b          	sllw	a2,a1,0x1
    80007558:	06e7881b          	addw	a6,a5,110
    8000755c:	00361613          	sll	a2,a2,0x3
    80007560:	c8dff06f          	j	800071ec <_malloc_r+0xec>
    80007564:	001e0e1b          	addw	t3,t3,1
    80007568:	003e7793          	and	a5,t3,3
    8000756c:	01050513          	add	a0,a0,16
    80007570:	10078a63          	beqz	a5,80007684 <_malloc_r+0x584>
    80007574:	01853783          	ld	a5,24(a0)
    80007578:	d95ff06f          	j	8000730c <_malloc_r+0x20c>
    8000757c:	01043603          	ld	a2,16(s0)
    80007580:	0014e593          	or	a1,s1,1
    80007584:	00b43423          	sd	a1,8(s0)
    80007588:	00f63c23          	sd	a5,24(a2)
    8000758c:	00c7b823          	sd	a2,16(a5)
    80007590:	009404b3          	add	s1,s0,s1
    80007594:	0299b423          	sd	s1,40(s3)
    80007598:	0299b023          	sd	s1,32(s3)
    8000759c:	0016e793          	or	a5,a3,1
    800075a0:	0114bc23          	sd	a7,24(s1)
    800075a4:	0114b823          	sd	a7,16(s1)
    800075a8:	00f4b423          	sd	a5,8(s1)
    800075ac:	00e40733          	add	a4,s0,a4
    800075b0:	00090513          	mv	a0,s2
    800075b4:	00d73023          	sd	a3,0(a4)
    800075b8:	368000ef          	jal	80007920 <__malloc_unlock>
    800075bc:	01040513          	add	a0,s0,16
    800075c0:	bcdff06f          	j	8000718c <_malloc_r+0x8c>
    800075c4:	00f407b3          	add	a5,s0,a5
    800075c8:	0087b703          	ld	a4,8(a5)
    800075cc:	00090513          	mv	a0,s2
    800075d0:	00176713          	or	a4,a4,1
    800075d4:	00e7b423          	sd	a4,8(a5)
    800075d8:	348000ef          	jal	80007920 <__malloc_unlock>
    800075dc:	01040513          	add	a0,s0,16
    800075e0:	badff06f          	j	8000718c <_malloc_r+0x8c>
    800075e4:	0014e693          	or	a3,s1,1
    800075e8:	00d43423          	sd	a3,8(s0)
    800075ec:	009404b3          	add	s1,s0,s1
    800075f0:	0299b423          	sd	s1,40(s3)
    800075f4:	0299b023          	sd	s1,32(s3)
    800075f8:	00176693          	or	a3,a4,1
    800075fc:	0114bc23          	sd	a7,24(s1)
    80007600:	0114b823          	sd	a7,16(s1)
    80007604:	00d4b423          	sd	a3,8(s1)
    80007608:	00f407b3          	add	a5,s0,a5
    8000760c:	00090513          	mv	a0,s2
    80007610:	00e7b023          	sd	a4,0(a5)
    80007614:	30c000ef          	jal	80007920 <__malloc_unlock>
    80007618:	01040513          	add	a0,s0,16
    8000761c:	b71ff06f          	j	8000718c <_malloc_r+0x8c>
    80007620:	0034d593          	srl	a1,s1,0x3
    80007624:	0015879b          	addw	a5,a1,1
    80007628:	0017979b          	sllw	a5,a5,0x1
    8000762c:	0005859b          	sext.w	a1,a1
    80007630:	00379793          	sll	a5,a5,0x3
    80007634:	b0dff06f          	j	80007140 <_malloc_r+0x40>
    80007638:	0067d713          	srl	a4,a5,0x6
    8000763c:	0397061b          	addw	a2,a4,57
    80007640:	0016161b          	sllw	a2,a2,0x1
    80007644:	0387069b          	addw	a3,a4,56
    80007648:	00361613          	sll	a2,a2,0x3
    8000764c:	eb1ff06f          	j	800074fc <_malloc_r+0x3fc>
    80007650:	07340e63          	beq	s0,s3,800076cc <_malloc_r+0x5cc>
    80007654:	0109b403          	ld	s0,16(s3)
    80007658:	01013c03          	ld	s8,16(sp)
    8000765c:	00843783          	ld	a5,8(s0)
    80007660:	df1ff06f          	j	80007450 <_malloc_r+0x350>
    80007664:	05c7859b          	addw	a1,a5,92
    80007668:	0015961b          	sllw	a2,a1,0x1
    8000766c:	05b7881b          	addw	a6,a5,91
    80007670:	00361613          	sll	a2,a2,0x3
    80007674:	b79ff06f          	j	800071ec <_malloc_r+0xec>
    80007678:	01033783          	ld	a5,16(t1)
    8000767c:	fff5859b          	addw	a1,a1,-1
    80007680:	28679a63          	bne	a5,t1,80007914 <_malloc_r+0x814>
    80007684:	0035f793          	and	a5,a1,3
    80007688:	ff030313          	add	t1,t1,-16
    8000768c:	fe0796e3          	bnez	a5,80007678 <_malloc_r+0x578>
    80007690:	0089b703          	ld	a4,8(s3)
    80007694:	fff64793          	not	a5,a2
    80007698:	00e7f7b3          	and	a5,a5,a4
    8000769c:	00f9b423          	sd	a5,8(s3)
    800076a0:	00161613          	sll	a2,a2,0x1
    800076a4:	ccc7eae3          	bltu	a5,a2,80007378 <_malloc_r+0x278>
    800076a8:	cc0608e3          	beqz	a2,80007378 <_malloc_r+0x278>
    800076ac:	00f67733          	and	a4,a2,a5
    800076b0:	00071a63          	bnez	a4,800076c4 <_malloc_r+0x5c4>
    800076b4:	00161613          	sll	a2,a2,0x1
    800076b8:	00f67733          	and	a4,a2,a5
    800076bc:	004e0e1b          	addw	t3,t3,4
    800076c0:	fe070ae3          	beqz	a4,800076b4 <_malloc_r+0x5b4>
    800076c4:	000e0593          	mv	a1,t3
    800076c8:	c25ff06f          	j	800072ec <_malloc_r+0x1ec>
    800076cc:	b1018c13          	add	s8,gp,-1264 # 8001ec08 <__malloc_current_mallinfo>
    800076d0:	000c2783          	lw	a5,0(s8)
    800076d4:	014786bb          	addw	a3,a5,s4
    800076d8:	00dc2023          	sw	a3,0(s8)
    800076dc:	000cb703          	ld	a4,0(s9)
    800076e0:	fff00793          	li	a5,-1
    800076e4:	18f70c63          	beq	a4,a5,8000787c <_malloc_r+0x77c>
    800076e8:	417b07b3          	sub	a5,s6,s7
    800076ec:	00d787bb          	addw	a5,a5,a3
    800076f0:	00fc2023          	sw	a5,0(s8)
    800076f4:	00fb7c93          	and	s9,s6,15
    800076f8:	0c0c8e63          	beqz	s9,800077d4 <_malloc_r+0x6d4>
    800076fc:	419b0b33          	sub	s6,s6,s9
    80007700:	00001737          	lui	a4,0x1
    80007704:	01070713          	add	a4,a4,16 # 1010 <__stack_shift+0xff9>
    80007708:	010b0b13          	add	s6,s6,16
    8000770c:	41970bb3          	sub	s7,a4,s9
    80007710:	014b0a33          	add	s4,s6,s4
    80007714:	414b8bb3          	sub	s7,s7,s4
    80007718:	034b9b93          	sll	s7,s7,0x34
    8000771c:	034bdb93          	srl	s7,s7,0x34
    80007720:	000b8593          	mv	a1,s7
    80007724:	00090513          	mv	a0,s2
    80007728:	65c030ef          	jal	8000ad84 <_sbrk_r>
    8000772c:	fff00793          	li	a5,-1
    80007730:	18f50a63          	beq	a0,a5,800078c4 <_malloc_r+0x7c4>
    80007734:	41650533          	sub	a0,a0,s6
    80007738:	000b869b          	sext.w	a3,s7
    8000773c:	01750a33          	add	s4,a0,s7
    80007740:	000c2703          	lw	a4,0(s8)
    80007744:	0169b823          	sd	s6,16(s3)
    80007748:	001a6793          	or	a5,s4,1
    8000774c:	00d7073b          	addw	a4,a4,a3
    80007750:	00ec2023          	sw	a4,0(s8)
    80007754:	00fb3423          	sd	a5,8(s6)
    80007758:	cd3408e3          	beq	s0,s3,80007428 <_malloc_r+0x328>
    8000775c:	01f00613          	li	a2,31
    80007760:	0b567063          	bgeu	a2,s5,80007800 <_malloc_r+0x700>
    80007764:	00843683          	ld	a3,8(s0)
    80007768:	fe8a8793          	add	a5,s5,-24
    8000776c:	ff07f793          	and	a5,a5,-16
    80007770:	0016f693          	and	a3,a3,1
    80007774:	00f6e6b3          	or	a3,a3,a5
    80007778:	00d43423          	sd	a3,8(s0)
    8000777c:	00900593          	li	a1,9
    80007780:	00f406b3          	add	a3,s0,a5
    80007784:	00b6b423          	sd	a1,8(a3)
    80007788:	00b6b823          	sd	a1,16(a3)
    8000778c:	00f66663          	bltu	a2,a5,80007798 <_malloc_r+0x698>
    80007790:	008b3783          	ld	a5,8(s6)
    80007794:	c95ff06f          	j	80007428 <_malloc_r+0x328>
    80007798:	01040593          	add	a1,s0,16
    8000779c:	00090513          	mv	a0,s2
    800077a0:	e40ff0ef          	jal	80006de0 <_free_r>
    800077a4:	0109bb03          	ld	s6,16(s3)
    800077a8:	000c2703          	lw	a4,0(s8)
    800077ac:	008b3783          	ld	a5,8(s6)
    800077b0:	c79ff06f          	j	80007428 <_malloc_r+0x328>
    800077b4:	020a0a13          	add	s4,s4,32
    800077b8:	c21ff06f          	j	800073d8 <_malloc_r+0x2d8>
    800077bc:	4026d69b          	sraw	a3,a3,0x2
    800077c0:	00100793          	li	a5,1
    800077c4:	00d797b3          	sll	a5,a5,a3
    800077c8:	00f56533          	or	a0,a0,a5
    800077cc:	00a9b423          	sd	a0,8(s3)
    800077d0:	d59ff06f          	j	80007528 <_malloc_r+0x428>
    800077d4:	014b0bb3          	add	s7,s6,s4
    800077d8:	41700bb3          	neg	s7,s7
    800077dc:	034b9b93          	sll	s7,s7,0x34
    800077e0:	034bdb93          	srl	s7,s7,0x34
    800077e4:	000b8593          	mv	a1,s7
    800077e8:	00090513          	mv	a0,s2
    800077ec:	598030ef          	jal	8000ad84 <_sbrk_r>
    800077f0:	fff00793          	li	a5,-1
    800077f4:	00000693          	li	a3,0
    800077f8:	f2f51ee3          	bne	a0,a5,80007734 <_malloc_r+0x634>
    800077fc:	f45ff06f          	j	80007740 <_malloc_r+0x640>
    80007800:	01013c03          	ld	s8,16(sp)
    80007804:	00100793          	li	a5,1
    80007808:	00fb3423          	sd	a5,8(s6)
    8000780c:	00090513          	mv	a0,s2
    80007810:	110000ef          	jal	80007920 <__malloc_unlock>
    80007814:	00000513          	li	a0,0
    80007818:	03013a03          	ld	s4,48(sp)
    8000781c:	02813a83          	ld	s5,40(sp)
    80007820:	02013b03          	ld	s6,32(sp)
    80007824:	01813b83          	ld	s7,24(sp)
    80007828:	00813c83          	ld	s9,8(sp)
    8000782c:	961ff06f          	j	8000718c <_malloc_r+0x8c>
    80007830:	05400693          	li	a3,84
    80007834:	04e6e863          	bltu	a3,a4,80007884 <_malloc_r+0x784>
    80007838:	00c7d713          	srl	a4,a5,0xc
    8000783c:	06f7061b          	addw	a2,a4,111
    80007840:	0016161b          	sllw	a2,a2,0x1
    80007844:	06e7069b          	addw	a3,a4,110
    80007848:	00361613          	sll	a2,a2,0x3
    8000784c:	cb1ff06f          	j	800074fc <_malloc_r+0x3fc>
    80007850:	15400713          	li	a4,340
    80007854:	04f76863          	bltu	a4,a5,800078a4 <_malloc_r+0x7a4>
    80007858:	00f4d793          	srl	a5,s1,0xf
    8000785c:	0787859b          	addw	a1,a5,120
    80007860:	0015961b          	sllw	a2,a1,0x1
    80007864:	0777881b          	addw	a6,a5,119
    80007868:	00361613          	sll	a2,a2,0x3
    8000786c:	981ff06f          	j	800071ec <_malloc_r+0xec>
    80007870:	0109b403          	ld	s0,16(s3)
    80007874:	00843783          	ld	a5,8(s0)
    80007878:	bd9ff06f          	j	80007450 <_malloc_r+0x350>
    8000787c:	016cb023          	sd	s6,0(s9)
    80007880:	e75ff06f          	j	800076f4 <_malloc_r+0x5f4>
    80007884:	15400693          	li	a3,340
    80007888:	04e6e863          	bltu	a3,a4,800078d8 <_malloc_r+0x7d8>
    8000788c:	00f7d713          	srl	a4,a5,0xf
    80007890:	0787061b          	addw	a2,a4,120
    80007894:	0016161b          	sllw	a2,a2,0x1
    80007898:	0777069b          	addw	a3,a4,119
    8000789c:	00361613          	sll	a2,a2,0x3
    800078a0:	c5dff06f          	j	800074fc <_malloc_r+0x3fc>
    800078a4:	55400713          	li	a4,1364
    800078a8:	04f76863          	bltu	a4,a5,800078f8 <_malloc_r+0x7f8>
    800078ac:	0124d793          	srl	a5,s1,0x12
    800078b0:	07d7859b          	addw	a1,a5,125
    800078b4:	0015961b          	sllw	a2,a1,0x1
    800078b8:	07c7881b          	addw	a6,a5,124
    800078bc:	00361613          	sll	a2,a2,0x3
    800078c0:	92dff06f          	j	800071ec <_malloc_r+0xec>
    800078c4:	ff0c8c93          	add	s9,s9,-16
    800078c8:	019a0a33          	add	s4,s4,s9
    800078cc:	416a0a33          	sub	s4,s4,s6
    800078d0:	00000693          	li	a3,0
    800078d4:	e6dff06f          	j	80007740 <_malloc_r+0x640>
    800078d8:	55400693          	li	a3,1364
    800078dc:	02e6e663          	bltu	a3,a4,80007908 <_malloc_r+0x808>
    800078e0:	0127d713          	srl	a4,a5,0x12
    800078e4:	07d7061b          	addw	a2,a4,125
    800078e8:	0016161b          	sllw	a2,a2,0x1
    800078ec:	07c7069b          	addw	a3,a4,124
    800078f0:	00361613          	sll	a2,a2,0x3
    800078f4:	c09ff06f          	j	800074fc <_malloc_r+0x3fc>
    800078f8:	7f000613          	li	a2,2032
    800078fc:	07f00593          	li	a1,127
    80007900:	07e00813          	li	a6,126
    80007904:	8e9ff06f          	j	800071ec <_malloc_r+0xec>
    80007908:	7f000613          	li	a2,2032
    8000790c:	07e00693          	li	a3,126
    80007910:	bedff06f          	j	800074fc <_malloc_r+0x3fc>
    80007914:	0089b783          	ld	a5,8(s3)
    80007918:	d89ff06f          	j	800076a0 <_malloc_r+0x5a0>

000000008000791c <__malloc_lock>:
    8000791c:	00008067          	ret

0000000080007920 <__malloc_unlock>:
    80007920:	00008067          	ret

0000000080007924 <_vfprintf_r>:
    80007924:	db010113          	add	sp,sp,-592
    80007928:	24113423          	sd	ra,584(sp)
    8000792c:	24813023          	sd	s0,576(sp)
    80007930:	22913c23          	sd	s1,568(sp)
    80007934:	21713423          	sd	s7,520(sp)
    80007938:	00058493          	mv	s1,a1
    8000793c:	00060b93          	mv	s7,a2
    80007940:	02d13023          	sd	a3,32(sp)
    80007944:	00050413          	mv	s0,a0
    80007948:	00a13423          	sd	a0,8(sp)
    8000794c:	3d0030ef          	jal	8000ad1c <_localeconv_r>
    80007950:	00053703          	ld	a4,0(a0)
    80007954:	00070513          	mv	a0,a4
    80007958:	04e13823          	sd	a4,80(sp)
    8000795c:	a6cff0ef          	jal	80006bc8 <strlen>
    80007960:	04a13423          	sd	a0,72(sp)
    80007964:	0c013823          	sd	zero,208(sp)
    80007968:	0c013c23          	sd	zero,216(sp)
    8000796c:	00040863          	beqz	s0,8000797c <_vfprintf_r+0x58>
    80007970:	04843703          	ld	a4,72(s0)
    80007974:	00071463          	bnez	a4,8000797c <_vfprintf_r+0x58>
    80007978:	2550106f          	j	800093cc <_vfprintf_r+0x1aa8>
    8000797c:	01049683          	lh	a3,16(s1)
    80007980:	0ac4a703          	lw	a4,172(s1)
    80007984:	03269613          	sll	a2,a3,0x32
    80007988:	02064063          	bltz	a2,800079a8 <_vfprintf_r+0x84>
    8000798c:	ffffe637          	lui	a2,0xffffe
    80007990:	fff60613          	add	a2,a2,-1 # ffffffffffffdfff <__heap_end+0xffffffff7f7defff>
    80007994:	000025b7          	lui	a1,0x2
    80007998:	00b6e6b3          	or	a3,a3,a1
    8000799c:	00c77733          	and	a4,a4,a2
    800079a0:	00d49823          	sh	a3,16(s1)
    800079a4:	0ae4a623          	sw	a4,172(s1)
    800079a8:	03271693          	sll	a3,a4,0x32
    800079ac:	0006d463          	bgez	a3,800079b4 <_vfprintf_r+0x90>
    800079b0:	2880206f          	j	80009c38 <_vfprintf_r+0x2314>
    800079b4:	01049703          	lh	a4,16(s1)
    800079b8:	00877693          	and	a3,a4,8
    800079bc:	32068c63          	beqz	a3,80007cf4 <_vfprintf_r+0x3d0>
    800079c0:	0184b683          	ld	a3,24(s1)
    800079c4:	32068863          	beqz	a3,80007cf4 <_vfprintf_r+0x3d0>
    800079c8:	01a77713          	and	a4,a4,26
    800079cc:	00a00693          	li	a3,10
    800079d0:	34d70463          	beq	a4,a3,80007d18 <_vfprintf_r+0x3f4>
    800079d4:	23213823          	sd	s2,560(sp)
    800079d8:	23313423          	sd	s3,552(sp)
    800079dc:	1fb13423          	sd	s11,488(sp)
    800079e0:	23413023          	sd	s4,544(sp)
    800079e4:	21513c23          	sd	s5,536(sp)
    800079e8:	21613823          	sd	s6,528(sp)
    800079ec:	21813023          	sd	s8,512(sp)
    800079f0:	1f913c23          	sd	s9,504(sp)
    800079f4:	1fa13823          	sd	s10,496(sp)
    800079f8:	000b8d93          	mv	s11,s7
    800079fc:	000dc703          	lbu	a4,0(s11)
    80007a00:	16010993          	add	s3,sp,352
    80007a04:	0f313023          	sd	s3,224(sp)
    80007a08:	0e013823          	sd	zero,240(sp)
    80007a0c:	0e012423          	sw	zero,232(sp)
    80007a10:	02013823          	sd	zero,48(sp)
    80007a14:	04013c23          	sd	zero,88(sp)
    80007a18:	06013423          	sd	zero,104(sp)
    80007a1c:	06013c23          	sd	zero,120(sp)
    80007a20:	08013023          	sd	zero,128(sp)
    80007a24:	06013823          	sd	zero,112(sp)
    80007a28:	00013823          	sd	zero,16(sp)
    80007a2c:	01000413          	li	s0,16
    80007a30:	00098913          	mv	s2,s3
    80007a34:	24070a63          	beqz	a4,80007c88 <_vfprintf_r+0x364>
    80007a38:	000d8a93          	mv	s5,s11
    80007a3c:	02500693          	li	a3,37
    80007a40:	3ed70663          	beq	a4,a3,80007e2c <_vfprintf_r+0x508>
    80007a44:	001ac703          	lbu	a4,1(s5)
    80007a48:	001a8a93          	add	s5,s5,1
    80007a4c:	fe071ae3          	bnez	a4,80007a40 <_vfprintf_r+0x11c>
    80007a50:	41ba8a3b          	subw	s4,s5,s11
    80007a54:	220a0a63          	beqz	s4,80007c88 <_vfprintf_r+0x364>
    80007a58:	0e812703          	lw	a4,232(sp)
    80007a5c:	0f013683          	ld	a3,240(sp)
    80007a60:	01b93023          	sd	s11,0(s2)
    80007a64:	0017071b          	addw	a4,a4,1
    80007a68:	014686b3          	add	a3,a3,s4
    80007a6c:	01493423          	sd	s4,8(s2)
    80007a70:	0ed13823          	sd	a3,240(sp)
    80007a74:	0ee12423          	sw	a4,232(sp)
    80007a78:	0007069b          	sext.w	a3,a4
    80007a7c:	00700713          	li	a4,7
    80007a80:	01090913          	add	s2,s2,16
    80007a84:	3ad74c63          	blt	a4,a3,80007e3c <_vfprintf_r+0x518>
    80007a88:	01013783          	ld	a5,16(sp)
    80007a8c:	000ac703          	lbu	a4,0(s5)
    80007a90:	014787bb          	addw	a5,a5,s4
    80007a94:	00f13823          	sd	a5,16(sp)
    80007a98:	1e070863          	beqz	a4,80007c88 <_vfprintf_r+0x364>
    80007a9c:	001ac303          	lbu	t1,1(s5)
    80007aa0:	0a0107a3          	sb	zero,175(sp)
    80007aa4:	001a8a93          	add	s5,s5,1
    80007aa8:	fff00b13          	li	s6,-1
    80007aac:	00000c13          	li	s8,0
    80007ab0:	00000d13          	li	s10,0
    80007ab4:	05a00a13          	li	s4,90
    80007ab8:	001a8a93          	add	s5,s5,1
    80007abc:	0003031b          	sext.w	t1,t1
    80007ac0:	fe03079b          	addw	a5,t1,-32
    80007ac4:	0007871b          	sext.w	a4,a5
    80007ac8:	06ea6063          	bltu	s4,a4,80007b28 <_vfprintf_r+0x204>
    80007acc:	02079713          	sll	a4,a5,0x20
    80007ad0:	01e75793          	srl	a5,a4,0x1e
    80007ad4:	00016717          	auipc	a4,0x16
    80007ad8:	cb070713          	add	a4,a4,-848 # 8001d784 <_ctype_+0x104>
    80007adc:	00e787b3          	add	a5,a5,a4
    80007ae0:	0007a783          	lw	a5,0(a5)
    80007ae4:	00e787b3          	add	a5,a5,a4
    80007ae8:	00078067          	jr	a5
    80007aec:	00000c13          	li	s8,0
    80007af0:	00900693          	li	a3,9
    80007af4:	000ac703          	lbu	a4,0(s5)
    80007af8:	002c179b          	sllw	a5,s8,0x2
    80007afc:	01878c3b          	addw	s8,a5,s8
    80007b00:	fd03031b          	addw	t1,t1,-48
    80007b04:	001c1c1b          	sllw	s8,s8,0x1
    80007b08:	fd07079b          	addw	a5,a4,-48
    80007b0c:	01830c3b          	addw	s8,t1,s8
    80007b10:	001a8a93          	add	s5,s5,1
    80007b14:	0007031b          	sext.w	t1,a4
    80007b18:	fcf6fee3          	bgeu	a3,a5,80007af4 <_vfprintf_r+0x1d0>
    80007b1c:	fe03079b          	addw	a5,t1,-32
    80007b20:	0007871b          	sext.w	a4,a5
    80007b24:	faea74e3          	bgeu	s4,a4,80007acc <_vfprintf_r+0x1a8>
    80007b28:	16030063          	beqz	t1,80007c88 <_vfprintf_r+0x364>
    80007b2c:	0e610c23          	sb	t1,248(sp)
    80007b30:	0a0107a3          	sb	zero,175(sp)
    80007b34:	00100b93          	li	s7,1
    80007b38:	00100693          	li	a3,1
    80007b3c:	0f810d93          	add	s11,sp,248
    80007b40:	00013c23          	sd	zero,24(sp)
    80007b44:	00000b13          	li	s6,0
    80007b48:	04013023          	sd	zero,64(sp)
    80007b4c:	02013c23          	sd	zero,56(sp)
    80007b50:	02013423          	sd	zero,40(sp)
    80007b54:	002d7293          	and	t0,s10,2
    80007b58:	00028463          	beqz	t0,80007b60 <_vfprintf_r+0x23c>
    80007b5c:	002b8b9b          	addw	s7,s7,2
    80007b60:	084d7f93          	and	t6,s10,132
    80007b64:	0f013a03          	ld	s4,240(sp)
    80007b68:	000f9863          	bnez	t6,80007b78 <_vfprintf_r+0x254>
    80007b6c:	417c073b          	subw	a4,s8,s7
    80007b70:	00e05463          	blez	a4,80007b78 <_vfprintf_r+0x254>
    80007b74:	7a10006f          	j	80008b14 <_vfprintf_r+0x11f0>
    80007b78:	0af14703          	lbu	a4,175(sp)
    80007b7c:	02070c63          	beqz	a4,80007bb4 <_vfprintf_r+0x290>
    80007b80:	0e812703          	lw	a4,232(sp)
    80007b84:	0af10613          	add	a2,sp,175
    80007b88:	00c93023          	sd	a2,0(s2)
    80007b8c:	0017071b          	addw	a4,a4,1
    80007b90:	00100613          	li	a2,1
    80007b94:	001a0a13          	add	s4,s4,1
    80007b98:	00c93423          	sd	a2,8(s2)
    80007b9c:	0ee12423          	sw	a4,232(sp)
    80007ba0:	0007061b          	sext.w	a2,a4
    80007ba4:	0f413823          	sd	s4,240(sp)
    80007ba8:	00700713          	li	a4,7
    80007bac:	01090913          	add	s2,s2,16
    80007bb0:	6ec74663          	blt	a4,a2,8000829c <_vfprintf_r+0x978>
    80007bb4:	02028e63          	beqz	t0,80007bf0 <_vfprintf_r+0x2cc>
    80007bb8:	0e812703          	lw	a4,232(sp)
    80007bbc:	00200613          	li	a2,2
    80007bc0:	002a0a13          	add	s4,s4,2
    80007bc4:	0017071b          	addw	a4,a4,1
    80007bc8:	0b010793          	add	a5,sp,176
    80007bcc:	00c93423          	sd	a2,8(s2)
    80007bd0:	00f93023          	sd	a5,0(s2)
    80007bd4:	0007061b          	sext.w	a2,a4
    80007bd8:	0ee12423          	sw	a4,232(sp)
    80007bdc:	0f413823          	sd	s4,240(sp)
    80007be0:	00700713          	li	a4,7
    80007be4:	01090913          	add	s2,s2,16
    80007be8:	00c75463          	bge	a4,a2,80007bf0 <_vfprintf_r+0x2cc>
    80007bec:	0580106f          	j	80008c44 <_vfprintf_r+0x1320>
    80007bf0:	08000713          	li	a4,128
    80007bf4:	4cef84e3          	beq	t6,a4,800088bc <_vfprintf_r+0xf98>
    80007bf8:	40db0b3b          	subw	s6,s6,a3
    80007bfc:	5d6046e3          	bgtz	s6,800089c8 <_vfprintf_r+0x10a4>
    80007c00:	100d7713          	and	a4,s10,256
    80007c04:	340718e3          	bnez	a4,80008754 <_vfprintf_r+0xe30>
    80007c08:	0e812703          	lw	a4,232(sp)
    80007c0c:	00da0a33          	add	s4,s4,a3
    80007c10:	01b93023          	sd	s11,0(s2)
    80007c14:	0017071b          	addw	a4,a4,1
    80007c18:	00d93423          	sd	a3,8(s2)
    80007c1c:	0f413823          	sd	s4,240(sp)
    80007c20:	0ee12423          	sw	a4,232(sp)
    80007c24:	00700793          	li	a5,7
    80007c28:	78e7cc63          	blt	a5,a4,800083c0 <_vfprintf_r+0xa9c>
    80007c2c:	01090913          	add	s2,s2,16
    80007c30:	004d7e13          	and	t3,s10,4
    80007c34:	000e0863          	beqz	t3,80007c44 <_vfprintf_r+0x320>
    80007c38:	417c0b3b          	subw	s6,s8,s7
    80007c3c:	01605463          	blez	s6,80007c44 <_vfprintf_r+0x320>
    80007c40:	03c0106f          	j	80008c7c <_vfprintf_r+0x1358>
    80007c44:	000c0793          	mv	a5,s8
    80007c48:	017c5463          	bge	s8,s7,80007c50 <_vfprintf_r+0x32c>
    80007c4c:	000b8793          	mv	a5,s7
    80007c50:	01013703          	ld	a4,16(sp)
    80007c54:	00e787bb          	addw	a5,a5,a4
    80007c58:	00f13823          	sd	a5,16(sp)
    80007c5c:	660a12e3          	bnez	s4,80008ac0 <_vfprintf_r+0x119c>
    80007c60:	01813783          	ld	a5,24(sp)
    80007c64:	0e012423          	sw	zero,232(sp)
    80007c68:	00078863          	beqz	a5,80007c78 <_vfprintf_r+0x354>
    80007c6c:	01813583          	ld	a1,24(sp)
    80007c70:	00813503          	ld	a0,8(sp)
    80007c74:	96cff0ef          	jal	80006de0 <_free_r>
    80007c78:	00098913          	mv	s2,s3
    80007c7c:	000a8d93          	mv	s11,s5
    80007c80:	000dc703          	lbu	a4,0(s11)
    80007c84:	da071ae3          	bnez	a4,80007a38 <_vfprintf_r+0x114>
    80007c88:	0f013783          	ld	a5,240(sp)
    80007c8c:	00078463          	beqz	a5,80007c94 <_vfprintf_r+0x370>
    80007c90:	4d90106f          	j	80009968 <_vfprintf_r+0x2044>
    80007c94:	0104d783          	lhu	a5,16(s1)
    80007c98:	23013903          	ld	s2,560(sp)
    80007c9c:	22813983          	ld	s3,552(sp)
    80007ca0:	0407f793          	and	a5,a5,64
    80007ca4:	22013a03          	ld	s4,544(sp)
    80007ca8:	21813a83          	ld	s5,536(sp)
    80007cac:	21013b03          	ld	s6,528(sp)
    80007cb0:	20013c03          	ld	s8,512(sp)
    80007cb4:	1f813c83          	ld	s9,504(sp)
    80007cb8:	1f013d03          	ld	s10,496(sp)
    80007cbc:	1e813d83          	ld	s11,488(sp)
    80007cc0:	00078463          	beqz	a5,80007cc8 <_vfprintf_r+0x3a4>
    80007cc4:	7750106f          	j	80009c38 <_vfprintf_r+0x2314>
    80007cc8:	24813083          	ld	ra,584(sp)
    80007ccc:	24013403          	ld	s0,576(sp)
    80007cd0:	01013503          	ld	a0,16(sp)
    80007cd4:	23813483          	ld	s1,568(sp)
    80007cd8:	20813b83          	ld	s7,520(sp)
    80007cdc:	25010113          	add	sp,sp,592
    80007ce0:	00008067          	ret
    80007ce4:	010d6d13          	or	s10,s10,16
    80007ce8:	000ac303          	lbu	t1,0(s5)
    80007cec:	000d0d1b          	sext.w	s10,s10
    80007cf0:	dc9ff06f          	j	80007ab8 <_vfprintf_r+0x194>
    80007cf4:	00813503          	ld	a0,8(sp)
    80007cf8:	00048593          	mv	a1,s1
    80007cfc:	519020ef          	jal	8000aa14 <__swsetup_r>
    80007d00:	00050463          	beqz	a0,80007d08 <_vfprintf_r+0x3e4>
    80007d04:	7350106f          	j	80009c38 <_vfprintf_r+0x2314>
    80007d08:	01049703          	lh	a4,16(s1)
    80007d0c:	00a00693          	li	a3,10
    80007d10:	01a77713          	and	a4,a4,26
    80007d14:	ccd710e3          	bne	a4,a3,800079d4 <_vfprintf_r+0xb0>
    80007d18:	01249703          	lh	a4,18(s1)
    80007d1c:	ca074ce3          	bltz	a4,800079d4 <_vfprintf_r+0xb0>
    80007d20:	02013683          	ld	a3,32(sp)
    80007d24:	00813503          	ld	a0,8(sp)
    80007d28:	000b8613          	mv	a2,s7
    80007d2c:	00048593          	mv	a1,s1
    80007d30:	3a8020ef          	jal	8000a0d8 <__sbprintf>
    80007d34:	00a13823          	sd	a0,16(sp)
    80007d38:	f91ff06f          	j	80007cc8 <_vfprintf_r+0x3a4>
    80007d3c:	010d6e13          	or	t3,s10,16
    80007d40:	000e0d1b          	sext.w	s10,t3
    80007d44:	02013683          	ld	a3,32(sp)
    80007d48:	020d7793          	and	a5,s10,32
    80007d4c:	00868713          	add	a4,a3,8
    80007d50:	6a078c63          	beqz	a5,80008408 <_vfprintf_r+0xae4>
    80007d54:	0006b783          	ld	a5,0(a3)
    80007d58:	00078a13          	mv	s4,a5
    80007d5c:	6c07cc63          	bltz	a5,80008434 <_vfprintf_r+0xb10>
    80007d60:	000b5463          	bgez	s6,80007d68 <_vfprintf_r+0x444>
    80007d64:	2e00106f          	j	80009044 <_vfprintf_r+0x1720>
    80007d68:	f7fd7b93          	and	s7,s10,-129
    80007d6c:	000b8b9b          	sext.w	s7,s7
    80007d70:	000a0463          	beqz	s4,80007d78 <_vfprintf_r+0x454>
    80007d74:	6b80106f          	j	8000942c <_vfprintf_r+0x1b08>
    80007d78:	000b0463          	beqz	s6,80007d80 <_vfprintf_r+0x45c>
    80007d7c:	1440206f          	j	80009ec0 <_vfprintf_r+0x259c>
    80007d80:	00000693          	li	a3,0
    80007d84:	02e13023          	sd	a4,32(sp)
    80007d88:	000b8d13          	mv	s10,s7
    80007d8c:	15c10d93          	add	s11,sp,348
    80007d90:	0af14703          	lbu	a4,175(sp)
    80007d94:	000b0813          	mv	a6,s6
    80007d98:	00db5463          	bge	s6,a3,80007da0 <_vfprintf_r+0x47c>
    80007d9c:	00068813          	mv	a6,a3
    80007da0:	00013c23          	sd	zero,24(sp)
    80007da4:	04013023          	sd	zero,64(sp)
    80007da8:	02013c23          	sd	zero,56(sp)
    80007dac:	02013423          	sd	zero,40(sp)
    80007db0:	00080b9b          	sext.w	s7,a6
    80007db4:	da0700e3          	beqz	a4,80007b54 <_vfprintf_r+0x230>
    80007db8:	001b8b9b          	addw	s7,s7,1
    80007dbc:	d99ff06f          	j	80007b54 <_vfprintf_r+0x230>
    80007dc0:	010d6e13          	or	t3,s10,16
    80007dc4:	000e0d1b          	sext.w	s10,t3
    80007dc8:	02013683          	ld	a3,32(sp)
    80007dcc:	020d7793          	and	a5,s10,32
    80007dd0:	00868713          	add	a4,a3,8
    80007dd4:	60078663          	beqz	a5,800083e0 <_vfprintf_r+0xabc>
    80007dd8:	0006ba03          	ld	s4,0(a3)
    80007ddc:	bffd7b93          	and	s7,s10,-1025
    80007de0:	000b8b9b          	sext.w	s7,s7
    80007de4:	02e13023          	sd	a4,32(sp)
    80007de8:	00000793          	li	a5,0
    80007dec:	00000713          	li	a4,0
    80007df0:	0ae107a3          	sb	a4,175(sp)
    80007df4:	640b4e63          	bltz	s6,80008450 <_vfprintf_r+0xb2c>
    80007df8:	f7fbfe13          	and	t3,s7,-129
    80007dfc:	000e0d1b          	sext.w	s10,t3
    80007e00:	4e0a14e3          	bnez	s4,80008ae8 <_vfprintf_r+0x11c4>
    80007e04:	260b16e3          	bnez	s6,80008870 <_vfprintf_r+0xf4c>
    80007e08:	00078463          	beqz	a5,80007e10 <_vfprintf_r+0x4ec>
    80007e0c:	19c0106f          	j	80008fa8 <_vfprintf_r+0x1684>
    80007e10:	001bf693          	and	a3,s7,1
    80007e14:	15c10d93          	add	s11,sp,348
    80007e18:	f6068ce3          	beqz	a3,80007d90 <_vfprintf_r+0x46c>
    80007e1c:	03000793          	li	a5,48
    80007e20:	14f10da3          	sb	a5,347(sp)
    80007e24:	15b10d93          	add	s11,sp,347
    80007e28:	f69ff06f          	j	80007d90 <_vfprintf_r+0x46c>
    80007e2c:	41ba8a3b          	subw	s4,s5,s11
    80007e30:	c20a14e3          	bnez	s4,80007a58 <_vfprintf_r+0x134>
    80007e34:	000ac703          	lbu	a4,0(s5)
    80007e38:	c61ff06f          	j	80007a98 <_vfprintf_r+0x174>
    80007e3c:	00813503          	ld	a0,8(sp)
    80007e40:	0e010613          	add	a2,sp,224
    80007e44:	00048593          	mv	a1,s1
    80007e48:	35c020ef          	jal	8000a1a4 <__sprint_r>
    80007e4c:	e40514e3          	bnez	a0,80007c94 <_vfprintf_r+0x370>
    80007e50:	00098913          	mv	s2,s3
    80007e54:	c35ff06f          	j	80007a88 <_vfprintf_r+0x164>
    80007e58:	008d7713          	and	a4,s10,8
    80007e5c:	00070463          	beqz	a4,80007e64 <_vfprintf_r+0x540>
    80007e60:	1b40106f          	j	80009014 <_vfprintf_r+0x16f0>
    80007e64:	02013783          	ld	a5,32(sp)
    80007e68:	00613c23          	sd	t1,24(sp)
    80007e6c:	0007b503          	ld	a0,0(a5)
    80007e70:	00878c93          	add	s9,a5,8
    80007e74:	0a80b0ef          	jal	80012f1c <__extenddftf2>
    80007e78:	01813303          	ld	t1,24(sp)
    80007e7c:	00050713          	mv	a4,a0
    80007e80:	03913023          	sd	s9,32(sp)
    80007e84:	0d010513          	add	a0,sp,208
    80007e88:	00613c23          	sd	t1,24(sp)
    80007e8c:	0ce13823          	sd	a4,208(sp)
    80007e90:	0cb13c23          	sd	a1,216(sp)
    80007e94:	3b8030ef          	jal	8000b24c <_ldcheck>
    80007e98:	0aa12c23          	sw	a0,184(sp)
    80007e9c:	00200713          	li	a4,2
    80007ea0:	01813303          	ld	t1,24(sp)
    80007ea4:	00e51463          	bne	a0,a4,80007eac <_vfprintf_r+0x588>
    80007ea8:	58c0106f          	j	80009434 <_vfprintf_r+0x1b10>
    80007eac:	00100713          	li	a4,1
    80007eb0:	00e51463          	bne	a0,a4,80007eb8 <_vfprintf_r+0x594>
    80007eb4:	71c0106f          	j	800095d0 <_vfprintf_r+0x1cac>
    80007eb8:	06100713          	li	a4,97
    80007ebc:	00e31463          	bne	t1,a4,80007ec4 <_vfprintf_r+0x5a0>
    80007ec0:	3c00106f          	j	80009280 <_vfprintf_r+0x195c>
    80007ec4:	04100713          	li	a4,65
    80007ec8:	05800793          	li	a5,88
    80007ecc:	00e31463          	bne	t1,a4,80007ed4 <_vfprintf_r+0x5b0>
    80007ed0:	3b40106f          	j	80009284 <_vfprintf_r+0x1960>
    80007ed4:	fff00713          	li	a4,-1
    80007ed8:	00eb1463          	bne	s6,a4,80007ee0 <_vfprintf_r+0x5bc>
    80007edc:	7b10106f          	j	80009e8c <_vfprintf_r+0x2568>
    80007ee0:	fdf37713          	and	a4,t1,-33
    80007ee4:	04700693          	li	a3,71
    80007ee8:	00013c23          	sd	zero,24(sp)
    80007eec:	00d71463          	bne	a4,a3,80007ef4 <_vfprintf_r+0x5d0>
    80007ef0:	7b10106f          	j	80009ea0 <_vfprintf_r+0x257c>
    80007ef4:	0d013783          	ld	a5,208(sp)
    80007ef8:	0d813e83          	ld	t4,216(sp)
    80007efc:	100d6713          	or	a4,s10,256
    80007f00:	02f13423          	sd	a5,40(sp)
    80007f04:	06013023          	sd	zero,96(sp)
    80007f08:	00070a1b          	sext.w	s4,a4
    80007f0c:	000ed463          	bgez	t4,80007f14 <_vfprintf_r+0x5f0>
    80007f10:	4b90106f          	j	80009bc8 <_vfprintf_r+0x22a4>
    80007f14:	fbf3069b          	addw	a3,t1,-65
    80007f18:	02500713          	li	a4,37
    80007f1c:	00d77463          	bgeu	a4,a3,80007f24 <_vfprintf_r+0x600>
    80007f20:	5510106f          	j	80009c70 <_vfprintf_r+0x234c>
    80007f24:	00100713          	li	a4,1
    80007f28:	00100b93          	li	s7,1
    80007f2c:	02571713          	sll	a4,a4,0x25
    80007f30:	00db96b3          	sll	a3,s7,a3
    80007f34:	02070713          	add	a4,a4,32
    80007f38:	00e6f733          	and	a4,a3,a4
    80007f3c:	00070463          	beqz	a4,80007f44 <_vfprintf_r+0x620>
    80007f40:	3510106f          	j	80009a90 <_vfprintf_r+0x216c>
    80007f44:	00100713          	li	a4,1
    80007f48:	02471713          	sll	a4,a4,0x24
    80007f4c:	01070713          	add	a4,a4,16
    80007f50:	00e6f733          	and	a4,a3,a4
    80007f54:	00070463          	beqz	a4,80007f5c <_vfprintf_r+0x638>
    80007f58:	6f90106f          	j	80009e50 <_vfprintf_r+0x252c>
    80007f5c:	00100713          	li	a4,1
    80007f60:	02071713          	sll	a4,a4,0x20
    80007f64:	00170713          	add	a4,a4,1
    80007f68:	00e6f6b3          	and	a3,a3,a4
    80007f6c:	00069463          	bnez	a3,80007f74 <_vfprintf_r+0x650>
    80007f70:	2750106f          	j	800099e4 <_vfprintf_r+0x20c0>
    80007f74:	02813503          	ld	a0,40(sp)
    80007f78:	000e8593          	mv	a1,t4
    80007f7c:	0b810613          	add	a2,sp,184
    80007f80:	02613823          	sd	t1,48(sp)
    80007f84:	75d020ef          	jal	8000aee0 <frexpl>
    80007f88:	00016717          	auipc	a4,0x16
    80007f8c:	98870713          	add	a4,a4,-1656 # 8001d910 <blanks.1+0x10>
    80007f90:	00073603          	ld	a2,0(a4)
    80007f94:	00873683          	ld	a3,8(a4)
    80007f98:	7c5090ef          	jal	80011f5c <__multf3>
    80007f9c:	00000613          	li	a2,0
    80007fa0:	00000693          	li	a3,0
    80007fa4:	00050c93          	mv	s9,a0
    80007fa8:	00058a13          	mv	s4,a1
    80007fac:	57d090ef          	jal	80011d28 <__eqtf2>
    80007fb0:	03013303          	ld	t1,48(sp)
    80007fb4:	00051463          	bnez	a0,80007fbc <_vfprintf_r+0x698>
    80007fb8:	0b712c23          	sw	s7,184(sp)
    80007fbc:	00015797          	auipc	a5,0x15
    80007fc0:	55c78793          	add	a5,a5,1372 # 8001d518 <s_box+0x2d0>
    80007fc4:	06100713          	li	a4,97
    80007fc8:	02f13c23          	sd	a5,56(sp)
    80007fcc:	00e31863          	bne	t1,a4,80007fdc <_vfprintf_r+0x6b8>
    80007fd0:	00015797          	auipc	a5,0x15
    80007fd4:	53078793          	add	a5,a5,1328 # 8001d500 <s_box+0x2b8>
    80007fd8:	02f13c23          	sd	a5,56(sp)
    80007fdc:	00016697          	auipc	a3,0x16
    80007fe0:	94468693          	add	a3,a3,-1724 # 8001d920 <blanks.1+0x20>
    80007fe4:	0006b783          	ld	a5,0(a3)
    80007fe8:	020b1713          	sll	a4,s6,0x20
    80007fec:	02075713          	srl	a4,a4,0x20
    80007ff0:	02f13423          	sd	a5,40(sp)
    80007ff4:	0086b783          	ld	a5,8(a3)
    80007ff8:	00170713          	add	a4,a4,1
    80007ffc:	000b069b          	sext.w	a3,s6
    80008000:	02f13823          	sd	a5,48(sp)
    80008004:	00ed87b3          	add	a5,s11,a4
    80008008:	05513023          	sd	s5,64(sp)
    8000800c:	09213423          	sd	s2,136(sp)
    80008010:	00048b93          	mv	s7,s1
    80008014:	03813a83          	ld	s5,56(sp)
    80008018:	08d13823          	sd	a3,144(sp)
    8000801c:	06613423          	sd	t1,104(sp)
    80008020:	000d8913          	mv	s2,s11
    80008024:	00078493          	mv	s1,a5
    80008028:	0180006f          	j	80008040 <_vfprintf_r+0x71c>
    8000802c:	00000613          	li	a2,0
    80008030:	00000693          	li	a3,0
    80008034:	4f5090ef          	jal	80011d28 <__eqtf2>
    80008038:	00051463          	bnez	a0,80008040 <_vfprintf_r+0x71c>
    8000803c:	76d0106f          	j	80009fa8 <_vfprintf_r+0x2684>
    80008040:	02813603          	ld	a2,40(sp)
    80008044:	03013683          	ld	a3,48(sp)
    80008048:	000c8513          	mv	a0,s9
    8000804c:	000a0593          	mv	a1,s4
    80008050:	70d090ef          	jal	80011f5c <__multf3>
    80008054:	00058a13          	mv	s4,a1
    80008058:	00050c93          	mv	s9,a0
    8000805c:	5cd0a0ef          	jal	80012e28 <__fixtfsi>
    80008060:	00050b1b          	sext.w	s6,a0
    80008064:	6310a0ef          	jal	80012e94 <__floatsitf>
    80008068:	00058693          	mv	a3,a1
    8000806c:	00050613          	mv	a2,a0
    80008070:	000a0593          	mv	a1,s4
    80008074:	000c8513          	mv	a0,s9
    80008078:	5840a0ef          	jal	800125fc <__subtf3>
    8000807c:	016a86b3          	add	a3,s5,s6
    80008080:	0006c683          	lbu	a3,0(a3)
    80008084:	00090893          	mv	a7,s2
    80008088:	00190913          	add	s2,s2,1
    8000808c:	fed90fa3          	sb	a3,-1(s2)
    80008090:	00050c93          	mv	s9,a0
    80008094:	00058a13          	mv	s4,a1
    80008098:	f9249ae3          	bne	s1,s2,8000802c <_vfprintf_r+0x708>
    8000809c:	00016697          	auipc	a3,0x16
    800080a0:	89468693          	add	a3,a3,-1900 # 8001d930 <blanks.1+0x30>
    800080a4:	06813303          	ld	t1,104(sp)
    800080a8:	0006b603          	ld	a2,0(a3)
    800080ac:	0086b683          	ld	a3,8(a3)
    800080b0:	02613823          	sd	t1,48(sp)
    800080b4:	03113423          	sd	a7,40(sp)
    800080b8:	04013a83          	ld	s5,64(sp)
    800080bc:	06c13423          	sd	a2,104(sp)
    800080c0:	04d13023          	sd	a3,64(sp)
    800080c4:	4f1090ef          	jal	80011db4 <__getf2>
    800080c8:	000b8493          	mv	s1,s7
    800080cc:	02813883          	ld	a7,40(sp)
    800080d0:	00090b93          	mv	s7,s2
    800080d4:	03013303          	ld	t1,48(sp)
    800080d8:	08813903          	ld	s2,136(sp)
    800080dc:	02a04a63          	bgtz	a0,80008110 <_vfprintf_r+0x7ec>
    800080e0:	06813603          	ld	a2,104(sp)
    800080e4:	04013683          	ld	a3,64(sp)
    800080e8:	000c8513          	mv	a0,s9
    800080ec:	000a0593          	mv	a1,s4
    800080f0:	02613423          	sd	t1,40(sp)
    800080f4:	03113823          	sd	a7,48(sp)
    800080f8:	431090ef          	jal	80011d28 <__eqtf2>
    800080fc:	02813303          	ld	t1,40(sp)
    80008100:	04051e63          	bnez	a0,8000815c <_vfprintf_r+0x838>
    80008104:	001b7b13          	and	s6,s6,1
    80008108:	03013883          	ld	a7,48(sp)
    8000810c:	040b0863          	beqz	s6,8000815c <_vfprintf_r+0x838>
    80008110:	03813783          	ld	a5,56(sp)
    80008114:	0d113423          	sd	a7,200(sp)
    80008118:	fffbc603          	lbu	a2,-1(s7)
    8000811c:	00f7c583          	lbu	a1,15(a5)
    80008120:	000b8693          	mv	a3,s7
    80008124:	02c59063          	bne	a1,a2,80008144 <_vfprintf_r+0x820>
    80008128:	03000513          	li	a0,48
    8000812c:	fea68fa3          	sb	a0,-1(a3)
    80008130:	0c813683          	ld	a3,200(sp)
    80008134:	fff68793          	add	a5,a3,-1
    80008138:	0cf13423          	sd	a5,200(sp)
    8000813c:	fff6c603          	lbu	a2,-1(a3)
    80008140:	fec586e3          	beq	a1,a2,8000812c <_vfprintf_r+0x808>
    80008144:	0016059b          	addw	a1,a2,1
    80008148:	03900513          	li	a0,57
    8000814c:	0ff5f593          	zext.b	a1,a1
    80008150:	00a61463          	bne	a2,a0,80008158 <_vfprintf_r+0x834>
    80008154:	1190106f          	j	80009a6c <_vfprintf_r+0x2148>
    80008158:	feb68fa3          	sb	a1,-1(a3)
    8000815c:	000b8693          	mv	a3,s7
    80008160:	0b812783          	lw	a5,184(sp)
    80008164:	41b6873b          	subw	a4,a3,s11
    80008168:	02e13823          	sd	a4,48(sp)
    8000816c:	fff7871b          	addw	a4,a5,-1
    80008170:	02f13423          	sd	a5,40(sp)
    80008174:	06100613          	li	a2,97
    80008178:	0ae12c23          	sw	a4,184(sp)
    8000817c:	00c31463          	bne	t1,a2,80008184 <_vfprintf_r+0x860>
    80008180:	6a10106f          	j	8000a020 <_vfprintf_r+0x26fc>
    80008184:	04100613          	li	a2,65
    80008188:	05000693          	li	a3,80
    8000818c:	00c30463          	beq	t1,a2,80008194 <_vfprintf_r+0x870>
    80008190:	0d10106f          	j	80009a60 <_vfprintf_r+0x213c>
    80008194:	00100613          	li	a2,1
    80008198:	0cd10023          	sb	a3,192(sp)
    8000819c:	02b00693          	li	a3,43
    800081a0:	00075a63          	bgez	a4,800081b4 <_vfprintf_r+0x890>
    800081a4:	02813783          	ld	a5,40(sp)
    800081a8:	00100713          	li	a4,1
    800081ac:	02d00693          	li	a3,45
    800081b0:	40f7073b          	subw	a4,a4,a5
    800081b4:	0cd100a3          	sb	a3,193(sp)
    800081b8:	00900693          	li	a3,9
    800081bc:	00e6c463          	blt	a3,a4,800081c4 <_vfprintf_r+0x8a0>
    800081c0:	49d0106f          	j	80009e5c <_vfprintf_r+0x2538>
    800081c4:	0cf10893          	add	a7,sp,207
    800081c8:	00088513          	mv	a0,a7
    800081cc:	00a00813          	li	a6,10
    800081d0:	06300f13          	li	t5,99
    800081d4:	030767bb          	remw	a5,a4,a6
    800081d8:	00050693          	mv	a3,a0
    800081dc:	00070613          	mv	a2,a4
    800081e0:	fff50513          	add	a0,a0,-1
    800081e4:	0307879b          	addw	a5,a5,48
    800081e8:	fef68fa3          	sb	a5,-1(a3)
    800081ec:	0307473b          	divw	a4,a4,a6
    800081f0:	fecf42e3          	blt	t5,a2,800081d4 <_vfprintf_r+0x8b0>
    800081f4:	0307059b          	addw	a1,a4,48
    800081f8:	feb50fa3          	sb	a1,-1(a0)
    800081fc:	ffe68713          	add	a4,a3,-2
    80008200:	01176463          	bltu	a4,a7,80008208 <_vfprintf_r+0x8e4>
    80008204:	6250106f          	j	8000a028 <_vfprintf_r+0x2704>
    80008208:	0c210613          	add	a2,sp,194
    8000820c:	00074783          	lbu	a5,0(a4)
    80008210:	00170713          	add	a4,a4,1
    80008214:	00160613          	add	a2,a2,1
    80008218:	fef60fa3          	sb	a5,-1(a2)
    8000821c:	ff1718e3          	bne	a4,a7,8000820c <_vfprintf_r+0x8e8>
    80008220:	1e010793          	add	a5,sp,480
    80008224:	40d786b3          	sub	a3,a5,a3
    80008228:	ef36879b          	addw	a5,a3,-269
    8000822c:	06f13423          	sd	a5,104(sp)
    80008230:	06813703          	ld	a4,104(sp)
    80008234:	03013783          	ld	a5,48(sp)
    80008238:	00100613          	li	a2,1
    8000823c:	00e786bb          	addw	a3,a5,a4
    80008240:	00068713          	mv	a4,a3
    80008244:	00f64463          	blt	a2,a5,8000824c <_vfprintf_r+0x928>
    80008248:	4690106f          	j	80009eb0 <_vfprintf_r+0x258c>
    8000824c:	04813783          	ld	a5,72(sp)
    80008250:	00f706bb          	addw	a3,a4,a5
    80008254:	fff6c813          	not	a6,a3
    80008258:	bffd7e13          	and	t3,s10,-1025
    8000825c:	43f85813          	sra	a6,a6,0x3f
    80008260:	000e0e1b          	sext.w	t3,t3
    80008264:	0106f833          	and	a6,a3,a6
    80008268:	100e6d13          	or	s10,t3,256
    8000826c:	00080b9b          	sext.w	s7,a6
    80008270:	04013023          	sd	zero,64(sp)
    80008274:	02013c23          	sd	zero,56(sp)
    80008278:	02013423          	sd	zero,40(sp)
    8000827c:	06013783          	ld	a5,96(sp)
    80008280:	00079463          	bnez	a5,80008288 <_vfprintf_r+0x964>
    80008284:	7f80106f          	j	80009a7c <_vfprintf_r+0x2158>
    80008288:	02d00713          	li	a4,45
    8000828c:	0ae107a3          	sb	a4,175(sp)
    80008290:	00000b13          	li	s6,0
    80008294:	001b8b9b          	addw	s7,s7,1
    80008298:	8bdff06f          	j	80007b54 <_vfprintf_r+0x230>
    8000829c:	00813503          	ld	a0,8(sp)
    800082a0:	0e010613          	add	a2,sp,224
    800082a4:	00048593          	mv	a1,s1
    800082a8:	08d13c23          	sd	a3,152(sp)
    800082ac:	08613823          	sd	t1,144(sp)
    800082b0:	09f13423          	sd	t6,136(sp)
    800082b4:	06513023          	sd	t0,96(sp)
    800082b8:	6ed010ef          	jal	8000a1a4 <__sprint_r>
    800082bc:	00051ce3          	bnez	a0,80008ad4 <_vfprintf_r+0x11b0>
    800082c0:	0f013a03          	ld	s4,240(sp)
    800082c4:	09813683          	ld	a3,152(sp)
    800082c8:	09013303          	ld	t1,144(sp)
    800082cc:	08813f83          	ld	t6,136(sp)
    800082d0:	06013283          	ld	t0,96(sp)
    800082d4:	00098913          	mv	s2,s3
    800082d8:	8ddff06f          	j	80007bb4 <_vfprintf_r+0x290>
    800082dc:	0e812683          	lw	a3,232(sp)
    800082e0:	03013783          	ld	a5,48(sp)
    800082e4:	00100613          	li	a2,1
    800082e8:	00168b1b          	addw	s6,a3,1
    800082ec:	01b93023          	sd	s11,0(s2)
    800082f0:	001a0a13          	add	s4,s4,1
    800082f4:	000b0693          	mv	a3,s6
    800082f8:	01090c93          	add	s9,s2,16
    800082fc:	3af65ae3          	bge	a2,a5,80008eb0 <_vfprintf_r+0x158c>
    80008300:	00100613          	li	a2,1
    80008304:	0ed12423          	sw	a3,232(sp)
    80008308:	00c93423          	sd	a2,8(s2)
    8000830c:	0f413823          	sd	s4,240(sp)
    80008310:	00700693          	li	a3,7
    80008314:	0166d463          	bge	a3,s6,8000831c <_vfprintf_r+0x9f8>
    80008318:	7cd0006f          	j	800092e4 <_vfprintf_r+0x19c0>
    8000831c:	04813783          	ld	a5,72(sp)
    80008320:	05013703          	ld	a4,80(sp)
    80008324:	001b0b1b          	addw	s6,s6,1
    80008328:	00fa0a33          	add	s4,s4,a5
    8000832c:	00ecb023          	sd	a4,0(s9)
    80008330:	00fcb423          	sd	a5,8(s9)
    80008334:	0f413823          	sd	s4,240(sp)
    80008338:	0f612423          	sw	s6,232(sp)
    8000833c:	00700693          	li	a3,7
    80008340:	010c8c93          	add	s9,s9,16
    80008344:	0166d463          	bge	a3,s6,8000834c <_vfprintf_r+0xa28>
    80008348:	7c10006f          	j	80009308 <_vfprintf_r+0x19e4>
    8000834c:	03013783          	ld	a5,48(sp)
    80008350:	0d013503          	ld	a0,208(sp)
    80008354:	0d813583          	ld	a1,216(sp)
    80008358:	00000613          	li	a2,0
    8000835c:	00000693          	li	a3,0
    80008360:	fff7891b          	addw	s2,a5,-1
    80008364:	1c5090ef          	jal	80011d28 <__eqtf2>
    80008368:	380504e3          	beqz	a0,80008ef0 <_vfprintf_r+0x15cc>
    8000836c:	001d8793          	add	a5,s11,1
    80008370:	001b0b1b          	addw	s6,s6,1
    80008374:	012a0a33          	add	s4,s4,s2
    80008378:	00fcb023          	sd	a5,0(s9)
    8000837c:	012cb423          	sd	s2,8(s9)
    80008380:	0f413823          	sd	s4,240(sp)
    80008384:	0f612423          	sw	s6,232(sp)
    80008388:	00700793          	li	a5,7
    8000838c:	3567c0e3          	blt	a5,s6,80008ecc <_vfprintf_r+0x15a8>
    80008390:	010c8c93          	add	s9,s9,16
    80008394:	06813703          	ld	a4,104(sp)
    80008398:	0c010793          	add	a5,sp,192
    8000839c:	001b069b          	addw	a3,s6,1
    800083a0:	01470a33          	add	s4,a4,s4
    800083a4:	00fcb023          	sd	a5,0(s9)
    800083a8:	00ecb423          	sd	a4,8(s9)
    800083ac:	0f413823          	sd	s4,240(sp)
    800083b0:	0ed12423          	sw	a3,232(sp)
    800083b4:	00700793          	li	a5,7
    800083b8:	010c8913          	add	s2,s9,16
    800083bc:	86d7dae3          	bge	a5,a3,80007c30 <_vfprintf_r+0x30c>
    800083c0:	00813503          	ld	a0,8(sp)
    800083c4:	0e010613          	add	a2,sp,224
    800083c8:	00048593          	mv	a1,s1
    800083cc:	5d9010ef          	jal	8000a1a4 <__sprint_r>
    800083d0:	70051263          	bnez	a0,80008ad4 <_vfprintf_r+0x11b0>
    800083d4:	0f013a03          	ld	s4,240(sp)
    800083d8:	00098913          	mv	s2,s3
    800083dc:	855ff06f          	j	80007c30 <_vfprintf_r+0x30c>
    800083e0:	010d7793          	and	a5,s10,16
    800083e4:	3e0796e3          	bnez	a5,80008fd0 <_vfprintf_r+0x16ac>
    800083e8:	02013683          	ld	a3,32(sp)
    800083ec:	040d7793          	and	a5,s10,64
    800083f0:	0006aa03          	lw	s4,0(a3)
    800083f4:	00079463          	bnez	a5,800083fc <_vfprintf_r+0xad8>
    800083f8:	1a00106f          	j	80009598 <_vfprintf_r+0x1c74>
    800083fc:	030a1a13          	sll	s4,s4,0x30
    80008400:	030a5a13          	srl	s4,s4,0x30
    80008404:	9d9ff06f          	j	80007ddc <_vfprintf_r+0x4b8>
    80008408:	010d7793          	and	a5,s10,16
    8000840c:	420794e3          	bnez	a5,80009034 <_vfprintf_r+0x1710>
    80008410:	02013683          	ld	a3,32(sp)
    80008414:	040d7793          	and	a5,s10,64
    80008418:	0006aa03          	lw	s4,0(a3)
    8000841c:	00079463          	bnez	a5,80008424 <_vfprintf_r+0xb00>
    80008420:	1880106f          	j	800095a8 <_vfprintf_r+0x1c84>
    80008424:	010a1a1b          	sllw	s4,s4,0x10
    80008428:	410a5a1b          	sraw	s4,s4,0x10
    8000842c:	000a0793          	mv	a5,s4
    80008430:	9207d8e3          	bgez	a5,80007d60 <_vfprintf_r+0x43c>
    80008434:	02e13023          	sd	a4,32(sp)
    80008438:	02d00713          	li	a4,45
    8000843c:	0ae107a3          	sb	a4,175(sp)
    80008440:	41400a33          	neg	s4,s4
    80008444:	000d0b93          	mv	s7,s10
    80008448:	00100793          	li	a5,1
    8000844c:	9a0b56e3          	bgez	s6,80007df8 <_vfprintf_r+0x4d4>
    80008450:	00100713          	li	a4,1
    80008454:	6ae78063          	beq	a5,a4,80008af4 <_vfprintf_r+0x11d0>
    80008458:	00200713          	li	a4,2
    8000845c:	42e78663          	beq	a5,a4,80008888 <_vfprintf_r+0xf64>
    80008460:	15c10693          	add	a3,sp,348
    80008464:	00068d93          	mv	s11,a3
    80008468:	007a7713          	and	a4,s4,7
    8000846c:	03070713          	add	a4,a4,48
    80008470:	feed8fa3          	sb	a4,-1(s11)
    80008474:	003a5a13          	srl	s4,s4,0x3
    80008478:	000d8613          	mv	a2,s11
    8000847c:	fffd8d93          	add	s11,s11,-1
    80008480:	fe0a14e3          	bnez	s4,80008468 <_vfprintf_r+0xb44>
    80008484:	001bf593          	and	a1,s7,1
    80008488:	42058463          	beqz	a1,800088b0 <_vfprintf_r+0xf8c>
    8000848c:	03000593          	li	a1,48
    80008490:	42b70063          	beq	a4,a1,800088b0 <_vfprintf_r+0xf8c>
    80008494:	ffe60613          	add	a2,a2,-2
    80008498:	febd8fa3          	sb	a1,-1(s11)
    8000849c:	40c686bb          	subw	a3,a3,a2
    800084a0:	000b8d13          	mv	s10,s7
    800084a4:	00060d93          	mv	s11,a2
    800084a8:	8e9ff06f          	j	80007d90 <_vfprintf_r+0x46c>
    800084ac:	02013783          	ld	a5,32(sp)
    800084b0:	0a0107a3          	sb	zero,175(sp)
    800084b4:	0007bd83          	ld	s11,0(a5)
    800084b8:	00878c93          	add	s9,a5,8
    800084bc:	4c0d8ae3          	beqz	s11,80009190 <_vfprintf_r+0x186c>
    800084c0:	000b5463          	bgez	s6,800084c8 <_vfprintf_r+0xba4>
    800084c4:	7d90006f          	j	8000949c <_vfprintf_r+0x1b78>
    800084c8:	000b0613          	mv	a2,s6
    800084cc:	00000593          	li	a1,0
    800084d0:	000d8513          	mv	a0,s11
    800084d4:	02613023          	sd	t1,32(sp)
    800084d8:	67c020ef          	jal	8000ab54 <memchr>
    800084dc:	00a13c23          	sd	a0,24(sp)
    800084e0:	02013303          	ld	t1,32(sp)
    800084e4:	00051463          	bnez	a0,800084ec <_vfprintf_r+0xbc8>
    800084e8:	75c0106f          	j	80009c44 <_vfprintf_r+0x2320>
    800084ec:	01813783          	ld	a5,24(sp)
    800084f0:	0af14703          	lbu	a4,175(sp)
    800084f4:	03913023          	sd	s9,32(sp)
    800084f8:	41b786bb          	subw	a3,a5,s11
    800084fc:	fff6c813          	not	a6,a3
    80008500:	43f85813          	sra	a6,a6,0x3f
    80008504:	00013c23          	sd	zero,24(sp)
    80008508:	04013023          	sd	zero,64(sp)
    8000850c:	02013c23          	sd	zero,56(sp)
    80008510:	02013423          	sd	zero,40(sp)
    80008514:	00d87bb3          	and	s7,a6,a3
    80008518:	00000b13          	li	s6,0
    8000851c:	88071ee3          	bnez	a4,80007db8 <_vfprintf_r+0x494>
    80008520:	e34ff06f          	j	80007b54 <_vfprintf_r+0x230>
    80008524:	02013703          	ld	a4,32(sp)
    80008528:	0a0107a3          	sb	zero,175(sp)
    8000852c:	00100b93          	li	s7,1
    80008530:	00072783          	lw	a5,0(a4)
    80008534:	00870713          	add	a4,a4,8
    80008538:	02e13023          	sd	a4,32(sp)
    8000853c:	0ef10c23          	sb	a5,248(sp)
    80008540:	00100693          	li	a3,1
    80008544:	0f810d93          	add	s11,sp,248
    80008548:	df8ff06f          	j	80007b40 <_vfprintf_r+0x21c>
    8000854c:	02013783          	ld	a5,32(sp)
    80008550:	0007ac03          	lw	s8,0(a5)
    80008554:	00878793          	add	a5,a5,8
    80008558:	260c56e3          	bgez	s8,80008fc4 <_vfprintf_r+0x16a0>
    8000855c:	41800c3b          	negw	s8,s8
    80008560:	02f13023          	sd	a5,32(sp)
    80008564:	004d6d13          	or	s10,s10,4
    80008568:	000ac303          	lbu	t1,0(s5)
    8000856c:	000d0d1b          	sext.w	s10,s10
    80008570:	d48ff06f          	j	80007ab8 <_vfprintf_r+0x194>
    80008574:	02b00793          	li	a5,43
    80008578:	000ac303          	lbu	t1,0(s5)
    8000857c:	0af107a3          	sb	a5,175(sp)
    80008580:	d38ff06f          	j	80007ab8 <_vfprintf_r+0x194>
    80008584:	080d6d13          	or	s10,s10,128
    80008588:	000ac303          	lbu	t1,0(s5)
    8000858c:	000d0d1b          	sext.w	s10,s10
    80008590:	d28ff06f          	j	80007ab8 <_vfprintf_r+0x194>
    80008594:	000ac303          	lbu	t1,0(s5)
    80008598:	02a00693          	li	a3,42
    8000859c:	001a8713          	add	a4,s5,1
    800085a0:	00d31463          	bne	t1,a3,800085a8 <_vfprintf_r+0xc84>
    800085a4:	2910106f          	j	8000a034 <_vfprintf_r+0x2710>
    800085a8:	fd03079b          	addw	a5,t1,-48
    800085ac:	00900593          	li	a1,9
    800085b0:	00000693          	li	a3,0
    800085b4:	00900613          	li	a2,9
    800085b8:	00070a93          	mv	s5,a4
    800085bc:	00000b13          	li	s6,0
    800085c0:	d0f5e063          	bltu	a1,a5,80007ac0 <_vfprintf_r+0x19c>
    800085c4:	00074303          	lbu	t1,0(a4)
    800085c8:	00269b1b          	sllw	s6,a3,0x2
    800085cc:	00db0b3b          	addw	s6,s6,a3
    800085d0:	001b1b1b          	sllw	s6,s6,0x1
    800085d4:	00fb06bb          	addw	a3,s6,a5
    800085d8:	fd03079b          	addw	a5,t1,-48
    800085dc:	00068b13          	mv	s6,a3
    800085e0:	00170713          	add	a4,a4,1
    800085e4:	fef670e3          	bgeu	a2,a5,800085c4 <_vfprintf_r+0xca0>
    800085e8:	2e06c4e3          	bltz	a3,800090d0 <_vfprintf_r+0x17ac>
    800085ec:	00070a93          	mv	s5,a4
    800085f0:	cd0ff06f          	j	80007ac0 <_vfprintf_r+0x19c>
    800085f4:	010d6b93          	or	s7,s10,16
    800085f8:	000b8b9b          	sext.w	s7,s7
    800085fc:	02013683          	ld	a3,32(sp)
    80008600:	020bf793          	and	a5,s7,32
    80008604:	00868713          	add	a4,a3,8
    80008608:	16078ae3          	beqz	a5,80008f7c <_vfprintf_r+0x1658>
    8000860c:	0006ba03          	ld	s4,0(a3)
    80008610:	00100793          	li	a5,1
    80008614:	02e13023          	sd	a4,32(sp)
    80008618:	fd4ff06f          	j	80007dec <_vfprintf_r+0x4c8>
    8000861c:	001d6d13          	or	s10,s10,1
    80008620:	000ac303          	lbu	t1,0(s5)
    80008624:	000d0d1b          	sext.w	s10,s10
    80008628:	c90ff06f          	j	80007ab8 <_vfprintf_r+0x194>
    8000862c:	0af14783          	lbu	a5,175(sp)
    80008630:	000ac303          	lbu	t1,0(s5)
    80008634:	c8079263          	bnez	a5,80007ab8 <_vfprintf_r+0x194>
    80008638:	02000793          	li	a5,32
    8000863c:	0af107a3          	sb	a5,175(sp)
    80008640:	c78ff06f          	j	80007ab8 <_vfprintf_r+0x194>
    80008644:	00813b83          	ld	s7,8(sp)
    80008648:	000b8513          	mv	a0,s7
    8000864c:	6d0020ef          	jal	8000ad1c <_localeconv_r>
    80008650:	00853783          	ld	a5,8(a0)
    80008654:	00078513          	mv	a0,a5
    80008658:	06f13823          	sd	a5,112(sp)
    8000865c:	d6cfe0ef          	jal	80006bc8 <strlen>
    80008660:	00050793          	mv	a5,a0
    80008664:	000b8513          	mv	a0,s7
    80008668:	08f13023          	sd	a5,128(sp)
    8000866c:	00078b93          	mv	s7,a5
    80008670:	6ac020ef          	jal	8000ad1c <_localeconv_r>
    80008674:	01053703          	ld	a4,16(a0)
    80008678:	000ac303          	lbu	t1,0(s5)
    8000867c:	06e13c23          	sd	a4,120(sp)
    80008680:	c20b8c63          	beqz	s7,80007ab8 <_vfprintf_r+0x194>
    80008684:	c2070a63          	beqz	a4,80007ab8 <_vfprintf_r+0x194>
    80008688:	00074783          	lbu	a5,0(a4)
    8000868c:	c2078663          	beqz	a5,80007ab8 <_vfprintf_r+0x194>
    80008690:	400d6d13          	or	s10,s10,1024
    80008694:	000d0d1b          	sext.w	s10,s10
    80008698:	c20ff06f          	j	80007ab8 <_vfprintf_r+0x194>
    8000869c:	008d6d13          	or	s10,s10,8
    800086a0:	000ac303          	lbu	t1,0(s5)
    800086a4:	000d0d1b          	sext.w	s10,s10
    800086a8:	c10ff06f          	j	80007ab8 <_vfprintf_r+0x194>
    800086ac:	020d6d13          	or	s10,s10,32
    800086b0:	000ac303          	lbu	t1,0(s5)
    800086b4:	000d0d1b          	sext.w	s10,s10
    800086b8:	c00ff06f          	j	80007ab8 <_vfprintf_r+0x194>
    800086bc:	02013703          	ld	a4,32(sp)
    800086c0:	000087b7          	lui	a5,0x8
    800086c4:	83078793          	add	a5,a5,-2000 # 7830 <__stack_shift+0x7819>
    800086c8:	0af11823          	sh	a5,176(sp)
    800086cc:	00870793          	add	a5,a4,8
    800086d0:	002d6b93          	or	s7,s10,2
    800086d4:	02f13023          	sd	a5,32(sp)
    800086d8:	00015797          	auipc	a5,0x15
    800086dc:	e2878793          	add	a5,a5,-472 # 8001d500 <s_box+0x2b8>
    800086e0:	04f13c23          	sd	a5,88(sp)
    800086e4:	00073a03          	ld	s4,0(a4)
    800086e8:	000b8b9b          	sext.w	s7,s7
    800086ec:	00200793          	li	a5,2
    800086f0:	07800313          	li	t1,120
    800086f4:	ef8ff06f          	j	80007dec <_vfprintf_r+0x4c8>
    800086f8:	02013703          	ld	a4,32(sp)
    800086fc:	020d7793          	and	a5,s10,32
    80008700:	00073703          	ld	a4,0(a4)
    80008704:	0e0786e3          	beqz	a5,80008ff0 <_vfprintf_r+0x16cc>
    80008708:	01013783          	ld	a5,16(sp)
    8000870c:	00f73023          	sd	a5,0(a4)
    80008710:	02013783          	ld	a5,32(sp)
    80008714:	000a8d93          	mv	s11,s5
    80008718:	00878793          	add	a5,a5,8
    8000871c:	02f13023          	sd	a5,32(sp)
    80008720:	d60ff06f          	j	80007c80 <_vfprintf_r+0x35c>
    80008724:	000ac303          	lbu	t1,0(s5)
    80008728:	06c00793          	li	a5,108
    8000872c:	22f308e3          	beq	t1,a5,8000915c <_vfprintf_r+0x1838>
    80008730:	010d6d13          	or	s10,s10,16
    80008734:	000d0d1b          	sext.w	s10,s10
    80008738:	b80ff06f          	j	80007ab8 <_vfprintf_r+0x194>
    8000873c:	000ac303          	lbu	t1,0(s5)
    80008740:	06800793          	li	a5,104
    80008744:	20f302e3          	beq	t1,a5,80009148 <_vfprintf_r+0x1824>
    80008748:	040d6d13          	or	s10,s10,64
    8000874c:	000d0d1b          	sext.w	s10,s10
    80008750:	b68ff06f          	j	80007ab8 <_vfprintf_r+0x194>
    80008754:	06500713          	li	a4,101
    80008758:	b86752e3          	bge	a4,t1,800082dc <_vfprintf_r+0x9b8>
    8000875c:	0d013503          	ld	a0,208(sp)
    80008760:	0d813583          	ld	a1,216(sp)
    80008764:	00000613          	li	a2,0
    80008768:	00000693          	li	a3,0
    8000876c:	5bc090ef          	jal	80011d28 <__eqtf2>
    80008770:	5c051e63          	bnez	a0,80008d4c <_vfprintf_r+0x1428>
    80008774:	0e812783          	lw	a5,232(sp)
    80008778:	00015717          	auipc	a4,0x15
    8000877c:	dc070713          	add	a4,a4,-576 # 8001d538 <s_box+0x2f0>
    80008780:	00e93023          	sd	a4,0(s2)
    80008784:	0017879b          	addw	a5,a5,1
    80008788:	00100713          	li	a4,1
    8000878c:	001a0a13          	add	s4,s4,1
    80008790:	00e93423          	sd	a4,8(s2)
    80008794:	0ef12423          	sw	a5,232(sp)
    80008798:	0007871b          	sext.w	a4,a5
    8000879c:	0f413823          	sd	s4,240(sp)
    800087a0:	00700793          	li	a5,7
    800087a4:	01090913          	add	s2,s2,16
    800087a8:	42e7c8e3          	blt	a5,a4,800093d8 <_vfprintf_r+0x1ab4>
    800087ac:	0b812783          	lw	a5,184(sp)
    800087b0:	03013703          	ld	a4,48(sp)
    800087b4:	00e7d0e3          	bge	a5,a4,80008fb4 <_vfprintf_r+0x1690>
    800087b8:	04813703          	ld	a4,72(sp)
    800087bc:	0e812783          	lw	a5,232(sp)
    800087c0:	05013683          	ld	a3,80(sp)
    800087c4:	00ea0a33          	add	s4,s4,a4
    800087c8:	0017879b          	addw	a5,a5,1
    800087cc:	00e93423          	sd	a4,8(s2)
    800087d0:	00d93023          	sd	a3,0(s2)
    800087d4:	0007871b          	sext.w	a4,a5
    800087d8:	0ef12423          	sw	a5,232(sp)
    800087dc:	0f413823          	sd	s4,240(sp)
    800087e0:	00700793          	li	a5,7
    800087e4:	01090913          	add	s2,s2,16
    800087e8:	18e7c4e3          	blt	a5,a4,80009170 <_vfprintf_r+0x184c>
    800087ec:	03013783          	ld	a5,48(sp)
    800087f0:	fff78b1b          	addw	s6,a5,-1
    800087f4:	c3605e63          	blez	s6,80007c30 <_vfprintf_r+0x30c>
    800087f8:	01000713          	li	a4,16
    800087fc:	0e812783          	lw	a5,232(sp)
    80008800:	00015897          	auipc	a7,0x15
    80008804:	0f088893          	add	a7,a7,240 # 8001d8f0 <zeroes.0>
    80008808:	3f675ee3          	bge	a4,s6,80009404 <_vfprintf_r+0x1ae0>
    8000880c:	03513423          	sd	s5,40(sp)
    80008810:	01000d93          	li	s11,16
    80008814:	000b0a93          	mv	s5,s6
    80008818:	00700c93          	li	s9,7
    8000881c:	00088b13          	mv	s6,a7
    80008820:	00c0006f          	j	8000882c <_vfprintf_r+0xf08>
    80008824:	ff0a8a9b          	addw	s5,s5,-16
    80008828:	3d5dd8e3          	bge	s11,s5,800093f8 <_vfprintf_r+0x1ad4>
    8000882c:	0017879b          	addw	a5,a5,1
    80008830:	010a0a13          	add	s4,s4,16
    80008834:	01693023          	sd	s6,0(s2)
    80008838:	01b93423          	sd	s11,8(s2)
    8000883c:	0f413823          	sd	s4,240(sp)
    80008840:	0ef12423          	sw	a5,232(sp)
    80008844:	01090913          	add	s2,s2,16
    80008848:	fcfcdee3          	bge	s9,a5,80008824 <_vfprintf_r+0xf00>
    8000884c:	00813503          	ld	a0,8(sp)
    80008850:	0e010613          	add	a2,sp,224
    80008854:	00048593          	mv	a1,s1
    80008858:	14d010ef          	jal	8000a1a4 <__sprint_r>
    8000885c:	26051c63          	bnez	a0,80008ad4 <_vfprintf_r+0x11b0>
    80008860:	0f013a03          	ld	s4,240(sp)
    80008864:	0e812783          	lw	a5,232(sp)
    80008868:	00098913          	mv	s2,s3
    8000886c:	fb9ff06f          	j	80008824 <_vfprintf_r+0xf00>
    80008870:	00100713          	li	a4,1
    80008874:	00e79463          	bne	a5,a4,8000887c <_vfprintf_r+0xf58>
    80008878:	4fc0106f          	j	80009d74 <_vfprintf_r+0x2450>
    8000887c:	00200713          	li	a4,2
    80008880:	000d0b93          	mv	s7,s10
    80008884:	bce79ee3          	bne	a5,a4,80008460 <_vfprintf_r+0xb3c>
    80008888:	05813703          	ld	a4,88(sp)
    8000888c:	15c10693          	add	a3,sp,348
    80008890:	00068d93          	mv	s11,a3
    80008894:	00fa7793          	and	a5,s4,15
    80008898:	00f707b3          	add	a5,a4,a5
    8000889c:	0007c783          	lbu	a5,0(a5)
    800088a0:	004a5a13          	srl	s4,s4,0x4
    800088a4:	fffd8d93          	add	s11,s11,-1
    800088a8:	00fd8023          	sb	a5,0(s11)
    800088ac:	fe0a14e3          	bnez	s4,80008894 <_vfprintf_r+0xf70>
    800088b0:	41b686bb          	subw	a3,a3,s11
    800088b4:	000b8d13          	mv	s10,s7
    800088b8:	cd8ff06f          	j	80007d90 <_vfprintf_r+0x46c>
    800088bc:	417c0cbb          	subw	s9,s8,s7
    800088c0:	b3905c63          	blez	s9,80007bf8 <_vfprintf_r+0x2d4>
    800088c4:	01000593          	li	a1,16
    800088c8:	0e812603          	lw	a2,232(sp)
    800088cc:	00015897          	auipc	a7,0x15
    800088d0:	02488893          	add	a7,a7,36 # 8001d8f0 <zeroes.0>
    800088d4:	0b95d063          	bge	a1,s9,80008974 <_vfprintf_r+0x1050>
    800088d8:	00090793          	mv	a5,s2
    800088dc:	000a0713          	mv	a4,s4
    800088e0:	000c8913          	mv	s2,s9
    800088e4:	01000f13          	li	t5,16
    800088e8:	000b8c93          	mv	s9,s7
    800088ec:	00700f93          	li	t6,7
    800088f0:	06613023          	sd	t1,96(sp)
    800088f4:	00068b93          	mv	s7,a3
    800088f8:	00088a13          	mv	s4,a7
    800088fc:	00c0006f          	j	80008908 <_vfprintf_r+0xfe4>
    80008900:	ff09091b          	addw	s2,s2,-16
    80008904:	052f5a63          	bge	t5,s2,80008958 <_vfprintf_r+0x1034>
    80008908:	0016061b          	addw	a2,a2,1
    8000890c:	01070713          	add	a4,a4,16
    80008910:	0147b023          	sd	s4,0(a5)
    80008914:	01e7b423          	sd	t5,8(a5)
    80008918:	0ee13823          	sd	a4,240(sp)
    8000891c:	0ec12423          	sw	a2,232(sp)
    80008920:	01078793          	add	a5,a5,16
    80008924:	fccfdee3          	bge	t6,a2,80008900 <_vfprintf_r+0xfdc>
    80008928:	00813503          	ld	a0,8(sp)
    8000892c:	0e010613          	add	a2,sp,224
    80008930:	00048593          	mv	a1,s1
    80008934:	071010ef          	jal	8000a1a4 <__sprint_r>
    80008938:	18051e63          	bnez	a0,80008ad4 <_vfprintf_r+0x11b0>
    8000893c:	01000f13          	li	t5,16
    80008940:	ff09091b          	addw	s2,s2,-16
    80008944:	0f013703          	ld	a4,240(sp)
    80008948:	0e812603          	lw	a2,232(sp)
    8000894c:	00098793          	mv	a5,s3
    80008950:	00700f93          	li	t6,7
    80008954:	fb2f4ae3          	blt	t5,s2,80008908 <_vfprintf_r+0xfe4>
    80008958:	06013303          	ld	t1,96(sp)
    8000895c:	000b8693          	mv	a3,s7
    80008960:	000a0893          	mv	a7,s4
    80008964:	000c8b93          	mv	s7,s9
    80008968:	00070a13          	mv	s4,a4
    8000896c:	00090c93          	mv	s9,s2
    80008970:	00078913          	mv	s2,a5
    80008974:	0016059b          	addw	a1,a2,1
    80008978:	019a0a33          	add	s4,s4,s9
    8000897c:	01193023          	sd	a7,0(s2)
    80008980:	01993423          	sd	s9,8(s2)
    80008984:	0f413823          	sd	s4,240(sp)
    80008988:	0eb12423          	sw	a1,232(sp)
    8000898c:	00700713          	li	a4,7
    80008990:	01090913          	add	s2,s2,16
    80008994:	a6b75263          	bge	a4,a1,80007bf8 <_vfprintf_r+0x2d4>
    80008998:	00813503          	ld	a0,8(sp)
    8000899c:	0e010613          	add	a2,sp,224
    800089a0:	00048593          	mv	a1,s1
    800089a4:	08d13423          	sd	a3,136(sp)
    800089a8:	06613023          	sd	t1,96(sp)
    800089ac:	7f8010ef          	jal	8000a1a4 <__sprint_r>
    800089b0:	12051263          	bnez	a0,80008ad4 <_vfprintf_r+0x11b0>
    800089b4:	0f013a03          	ld	s4,240(sp)
    800089b8:	08813683          	ld	a3,136(sp)
    800089bc:	06013303          	ld	t1,96(sp)
    800089c0:	00098913          	mv	s2,s3
    800089c4:	a34ff06f          	j	80007bf8 <_vfprintf_r+0x2d4>
    800089c8:	0e812603          	lw	a2,232(sp)
    800089cc:	00015897          	auipc	a7,0x15
    800089d0:	f2488893          	add	a7,a7,-220 # 8001d8f0 <zeroes.0>
    800089d4:	09645c63          	bge	s0,s6,80008a6c <_vfprintf_r+0x1148>
    800089d8:	00090793          	mv	a5,s2
    800089dc:	000a0713          	mv	a4,s4
    800089e0:	000b0913          	mv	s2,s6
    800089e4:	00700c93          	li	s9,7
    800089e8:	06613023          	sd	t1,96(sp)
    800089ec:	00068a13          	mv	s4,a3
    800089f0:	00088b13          	mv	s6,a7
    800089f4:	00c0006f          	j	80008a00 <_vfprintf_r+0x10dc>
    800089f8:	ff09091b          	addw	s2,s2,-16
    800089fc:	05245c63          	bge	s0,s2,80008a54 <_vfprintf_r+0x1130>
    80008a00:	0016069b          	addw	a3,a2,1
    80008a04:	01070713          	add	a4,a4,16
    80008a08:	00015617          	auipc	a2,0x15
    80008a0c:	ee860613          	add	a2,a2,-280 # 8001d8f0 <zeroes.0>
    80008a10:	00c7b023          	sd	a2,0(a5)
    80008a14:	0087b423          	sd	s0,8(a5)
    80008a18:	0ee13823          	sd	a4,240(sp)
    80008a1c:	0006861b          	sext.w	a2,a3
    80008a20:	0ed12423          	sw	a3,232(sp)
    80008a24:	01078793          	add	a5,a5,16
    80008a28:	fcccd8e3          	bge	s9,a2,800089f8 <_vfprintf_r+0x10d4>
    80008a2c:	00813503          	ld	a0,8(sp)
    80008a30:	0e010613          	add	a2,sp,224
    80008a34:	00048593          	mv	a1,s1
    80008a38:	76c010ef          	jal	8000a1a4 <__sprint_r>
    80008a3c:	08051c63          	bnez	a0,80008ad4 <_vfprintf_r+0x11b0>
    80008a40:	ff09091b          	addw	s2,s2,-16
    80008a44:	0f013703          	ld	a4,240(sp)
    80008a48:	0e812603          	lw	a2,232(sp)
    80008a4c:	00098793          	mv	a5,s3
    80008a50:	fb2448e3          	blt	s0,s2,80008a00 <_vfprintf_r+0x10dc>
    80008a54:	06013303          	ld	t1,96(sp)
    80008a58:	000a0693          	mv	a3,s4
    80008a5c:	000b0893          	mv	a7,s6
    80008a60:	00070a13          	mv	s4,a4
    80008a64:	00090b13          	mv	s6,s2
    80008a68:	00078913          	mv	s2,a5
    80008a6c:	0016059b          	addw	a1,a2,1
    80008a70:	016a0a33          	add	s4,s4,s6
    80008a74:	01193023          	sd	a7,0(s2)
    80008a78:	01693423          	sd	s6,8(s2)
    80008a7c:	0f413823          	sd	s4,240(sp)
    80008a80:	0eb12423          	sw	a1,232(sp)
    80008a84:	00700713          	li	a4,7
    80008a88:	01090913          	add	s2,s2,16
    80008a8c:	96b75a63          	bge	a4,a1,80007c00 <_vfprintf_r+0x2dc>
    80008a90:	00813503          	ld	a0,8(sp)
    80008a94:	0e010613          	add	a2,sp,224
    80008a98:	00048593          	mv	a1,s1
    80008a9c:	08d13423          	sd	a3,136(sp)
    80008aa0:	06613023          	sd	t1,96(sp)
    80008aa4:	700010ef          	jal	8000a1a4 <__sprint_r>
    80008aa8:	02051663          	bnez	a0,80008ad4 <_vfprintf_r+0x11b0>
    80008aac:	0f013a03          	ld	s4,240(sp)
    80008ab0:	08813683          	ld	a3,136(sp)
    80008ab4:	06013303          	ld	t1,96(sp)
    80008ab8:	00098913          	mv	s2,s3
    80008abc:	944ff06f          	j	80007c00 <_vfprintf_r+0x2dc>
    80008ac0:	00813503          	ld	a0,8(sp)
    80008ac4:	0e010613          	add	a2,sp,224
    80008ac8:	00048593          	mv	a1,s1
    80008acc:	6d8010ef          	jal	8000a1a4 <__sprint_r>
    80008ad0:	98050863          	beqz	a0,80007c60 <_vfprintf_r+0x33c>
    80008ad4:	01813583          	ld	a1,24(sp)
    80008ad8:	9a058e63          	beqz	a1,80007c94 <_vfprintf_r+0x370>
    80008adc:	00813503          	ld	a0,8(sp)
    80008ae0:	b00fe0ef          	jal	80006de0 <_free_r>
    80008ae4:	9b0ff06f          	j	80007c94 <_vfprintf_r+0x370>
    80008ae8:	00100713          	li	a4,1
    80008aec:	000d0b93          	mv	s7,s10
    80008af0:	96e794e3          	bne	a5,a4,80008458 <_vfprintf_r+0xb34>
    80008af4:	00900793          	li	a5,9
    80008af8:	5547ee63          	bltu	a5,s4,80009054 <_vfprintf_r+0x1730>
    80008afc:	030a0a1b          	addw	s4,s4,48
    80008b00:	15410da3          	sb	s4,347(sp)
    80008b04:	000b8d13          	mv	s10,s7
    80008b08:	00100693          	li	a3,1
    80008b0c:	15b10d93          	add	s11,sp,347
    80008b10:	a80ff06f          	j	80007d90 <_vfprintf_r+0x46c>
    80008b14:	01000593          	li	a1,16
    80008b18:	0e812603          	lw	a2,232(sp)
    80008b1c:	00015c97          	auipc	s9,0x15
    80008b20:	de4c8c93          	add	s9,s9,-540 # 8001d900 <blanks.1>
    80008b24:	0ae5dc63          	bge	a1,a4,80008bdc <_vfprintf_r+0x12b8>
    80008b28:	00090793          	mv	a5,s2
    80008b2c:	00070913          	mv	s2,a4
    80008b30:	000c8713          	mv	a4,s9
    80008b34:	01000893          	li	a7,16
    80008b38:	000b8c93          	mv	s9,s7
    80008b3c:	00700393          	li	t2,7
    80008b40:	00068b93          	mv	s7,a3
    80008b44:	06513023          	sd	t0,96(sp)
    80008b48:	000a0693          	mv	a3,s4
    80008b4c:	09f13423          	sd	t6,136(sp)
    80008b50:	08613823          	sd	t1,144(sp)
    80008b54:	00070a13          	mv	s4,a4
    80008b58:	00c0006f          	j	80008b64 <_vfprintf_r+0x1240>
    80008b5c:	ff09091b          	addw	s2,s2,-16
    80008b60:	0528da63          	bge	a7,s2,80008bb4 <_vfprintf_r+0x1290>
    80008b64:	0016061b          	addw	a2,a2,1
    80008b68:	01068693          	add	a3,a3,16
    80008b6c:	0147b023          	sd	s4,0(a5)
    80008b70:	0117b423          	sd	a7,8(a5)
    80008b74:	0ed13823          	sd	a3,240(sp)
    80008b78:	0ec12423          	sw	a2,232(sp)
    80008b7c:	01078793          	add	a5,a5,16
    80008b80:	fcc3dee3          	bge	t2,a2,80008b5c <_vfprintf_r+0x1238>
    80008b84:	00813503          	ld	a0,8(sp)
    80008b88:	0e010613          	add	a2,sp,224
    80008b8c:	00048593          	mv	a1,s1
    80008b90:	614010ef          	jal	8000a1a4 <__sprint_r>
    80008b94:	f40510e3          	bnez	a0,80008ad4 <_vfprintf_r+0x11b0>
    80008b98:	01000893          	li	a7,16
    80008b9c:	ff09091b          	addw	s2,s2,-16
    80008ba0:	0f013683          	ld	a3,240(sp)
    80008ba4:	0e812603          	lw	a2,232(sp)
    80008ba8:	00098793          	mv	a5,s3
    80008bac:	00700393          	li	t2,7
    80008bb0:	fb28cae3          	blt	a7,s2,80008b64 <_vfprintf_r+0x1240>
    80008bb4:	06013283          	ld	t0,96(sp)
    80008bb8:	08813f83          	ld	t6,136(sp)
    80008bbc:	09013303          	ld	t1,144(sp)
    80008bc0:	00090713          	mv	a4,s2
    80008bc4:	00078913          	mv	s2,a5
    80008bc8:	000a0793          	mv	a5,s4
    80008bcc:	00068a13          	mv	s4,a3
    80008bd0:	000b8693          	mv	a3,s7
    80008bd4:	000c8b93          	mv	s7,s9
    80008bd8:	00078c93          	mv	s9,a5
    80008bdc:	00ea0a33          	add	s4,s4,a4
    80008be0:	0016059b          	addw	a1,a2,1
    80008be4:	00e93423          	sd	a4,8(s2)
    80008be8:	01993023          	sd	s9,0(s2)
    80008bec:	0f413823          	sd	s4,240(sp)
    80008bf0:	0eb12423          	sw	a1,232(sp)
    80008bf4:	00700713          	li	a4,7
    80008bf8:	01090913          	add	s2,s2,16
    80008bfc:	00b74463          	blt	a4,a1,80008c04 <_vfprintf_r+0x12e0>
    80008c00:	f79fe06f          	j	80007b78 <_vfprintf_r+0x254>
    80008c04:	00813503          	ld	a0,8(sp)
    80008c08:	0e010613          	add	a2,sp,224
    80008c0c:	00048593          	mv	a1,s1
    80008c10:	08d13c23          	sd	a3,152(sp)
    80008c14:	08613823          	sd	t1,144(sp)
    80008c18:	09f13423          	sd	t6,136(sp)
    80008c1c:	06513023          	sd	t0,96(sp)
    80008c20:	584010ef          	jal	8000a1a4 <__sprint_r>
    80008c24:	ea0518e3          	bnez	a0,80008ad4 <_vfprintf_r+0x11b0>
    80008c28:	0f013a03          	ld	s4,240(sp)
    80008c2c:	09813683          	ld	a3,152(sp)
    80008c30:	09013303          	ld	t1,144(sp)
    80008c34:	08813f83          	ld	t6,136(sp)
    80008c38:	06013283          	ld	t0,96(sp)
    80008c3c:	00098913          	mv	s2,s3
    80008c40:	f39fe06f          	j	80007b78 <_vfprintf_r+0x254>
    80008c44:	00813503          	ld	a0,8(sp)
    80008c48:	0e010613          	add	a2,sp,224
    80008c4c:	00048593          	mv	a1,s1
    80008c50:	08d13823          	sd	a3,144(sp)
    80008c54:	08613423          	sd	t1,136(sp)
    80008c58:	07f13023          	sd	t6,96(sp)
    80008c5c:	548010ef          	jal	8000a1a4 <__sprint_r>
    80008c60:	e6051ae3          	bnez	a0,80008ad4 <_vfprintf_r+0x11b0>
    80008c64:	0f013a03          	ld	s4,240(sp)
    80008c68:	09013683          	ld	a3,144(sp)
    80008c6c:	08813303          	ld	t1,136(sp)
    80008c70:	06013f83          	ld	t6,96(sp)
    80008c74:	00098913          	mv	s2,s3
    80008c78:	f79fe06f          	j	80007bf0 <_vfprintf_r+0x2cc>
    80008c7c:	01000713          	li	a4,16
    80008c80:	0e812783          	lw	a5,232(sp)
    80008c84:	00015c97          	auipc	s9,0x15
    80008c88:	c7cc8c93          	add	s9,s9,-900 # 8001d900 <blanks.1>
    80008c8c:	09675063          	bge	a4,s6,80008d0c <_vfprintf_r+0x13e8>
    80008c90:	000c8713          	mv	a4,s9
    80008c94:	01000d93          	li	s11,16
    80008c98:	000b0c93          	mv	s9,s6
    80008c9c:	00700d13          	li	s10,7
    80008ca0:	000a8b13          	mv	s6,s5
    80008ca4:	00070a93          	mv	s5,a4
    80008ca8:	00c0006f          	j	80008cb4 <_vfprintf_r+0x1390>
    80008cac:	ff0c8c9b          	addw	s9,s9,-16
    80008cb0:	059dd663          	bge	s11,s9,80008cfc <_vfprintf_r+0x13d8>
    80008cb4:	0017879b          	addw	a5,a5,1
    80008cb8:	010a0a13          	add	s4,s4,16
    80008cbc:	01593023          	sd	s5,0(s2)
    80008cc0:	01b93423          	sd	s11,8(s2)
    80008cc4:	0f413823          	sd	s4,240(sp)
    80008cc8:	0ef12423          	sw	a5,232(sp)
    80008ccc:	01090913          	add	s2,s2,16
    80008cd0:	fcfd5ee3          	bge	s10,a5,80008cac <_vfprintf_r+0x1388>
    80008cd4:	00813503          	ld	a0,8(sp)
    80008cd8:	0e010613          	add	a2,sp,224
    80008cdc:	00048593          	mv	a1,s1
    80008ce0:	4c4010ef          	jal	8000a1a4 <__sprint_r>
    80008ce4:	de0518e3          	bnez	a0,80008ad4 <_vfprintf_r+0x11b0>
    80008ce8:	ff0c8c9b          	addw	s9,s9,-16
    80008cec:	0f013a03          	ld	s4,240(sp)
    80008cf0:	0e812783          	lw	a5,232(sp)
    80008cf4:	00098913          	mv	s2,s3
    80008cf8:	fb9dcee3          	blt	s11,s9,80008cb4 <_vfprintf_r+0x1390>
    80008cfc:	000a8713          	mv	a4,s5
    80008d00:	000b0a93          	mv	s5,s6
    80008d04:	000c8b13          	mv	s6,s9
    80008d08:	00070c93          	mv	s9,a4
    80008d0c:	0017871b          	addw	a4,a5,1
    80008d10:	016a0a33          	add	s4,s4,s6
    80008d14:	01993023          	sd	s9,0(s2)
    80008d18:	01693423          	sd	s6,8(s2)
    80008d1c:	0f413823          	sd	s4,240(sp)
    80008d20:	0ee12423          	sw	a4,232(sp)
    80008d24:	00700793          	li	a5,7
    80008d28:	00e7c463          	blt	a5,a4,80008d30 <_vfprintf_r+0x140c>
    80008d2c:	f19fe06f          	j	80007c44 <_vfprintf_r+0x320>
    80008d30:	00813503          	ld	a0,8(sp)
    80008d34:	0e010613          	add	a2,sp,224
    80008d38:	00048593          	mv	a1,s1
    80008d3c:	468010ef          	jal	8000a1a4 <__sprint_r>
    80008d40:	d8051ae3          	bnez	a0,80008ad4 <_vfprintf_r+0x11b0>
    80008d44:	0f013a03          	ld	s4,240(sp)
    80008d48:	efdfe06f          	j	80007c44 <_vfprintf_r+0x320>
    80008d4c:	0b812583          	lw	a1,184(sp)
    80008d50:	5cb05e63          	blez	a1,8000932c <_vfprintf_r+0x1a08>
    80008d54:	02813783          	ld	a5,40(sp)
    80008d58:	03013703          	ld	a4,48(sp)
    80008d5c:	00078b1b          	sext.w	s6,a5
    80008d60:	36f74263          	blt	a4,a5,800090c4 <_vfprintf_r+0x17a0>
    80008d64:	03605663          	blez	s6,80008d90 <_vfprintf_r+0x146c>
    80008d68:	0e812703          	lw	a4,232(sp)
    80008d6c:	016a0a33          	add	s4,s4,s6
    80008d70:	01b93023          	sd	s11,0(s2)
    80008d74:	0017069b          	addw	a3,a4,1
    80008d78:	01693423          	sd	s6,8(s2)
    80008d7c:	0f413823          	sd	s4,240(sp)
    80008d80:	0ed12423          	sw	a3,232(sp)
    80008d84:	00700713          	li	a4,7
    80008d88:	01090913          	add	s2,s2,16
    80008d8c:	36d74ae3          	blt	a4,a3,80009900 <_vfprintf_r+0x1fdc>
    80008d90:	fffb4713          	not	a4,s6
    80008d94:	02813783          	ld	a5,40(sp)
    80008d98:	43f75713          	sra	a4,a4,0x3f
    80008d9c:	00eb7b33          	and	s6,s6,a4
    80008da0:	41678b3b          	subw	s6,a5,s6
    80008da4:	41604663          	bgtz	s6,800091b0 <_vfprintf_r+0x188c>
    80008da8:	02813783          	ld	a5,40(sp)
    80008dac:	400d7713          	and	a4,s10,1024
    80008db0:	00fd8cb3          	add	s9,s11,a5
    80008db4:	0e0716e3          	bnez	a4,800096a0 <_vfprintf_r+0x1d7c>
    80008db8:	0b812703          	lw	a4,184(sp)
    80008dbc:	03013783          	ld	a5,48(sp)
    80008dc0:	46f74663          	blt	a4,a5,8000922c <_vfprintf_r+0x1908>
    80008dc4:	001d7693          	and	a3,s10,1
    80008dc8:	46069263          	bnez	a3,8000922c <_vfprintf_r+0x1908>
    80008dcc:	03013683          	ld	a3,48(sp)
    80008dd0:	00dd87b3          	add	a5,s11,a3
    80008dd4:	41978b33          	sub	s6,a5,s9
    80008dd8:	40e686bb          	subw	a3,a3,a4
    80008ddc:	000b079b          	sext.w	a5,s6
    80008de0:	00f6d463          	bge	a3,a5,80008de8 <_vfprintf_r+0x14c4>
    80008de4:	00068b13          	mv	s6,a3
    80008de8:	000b0b1b          	sext.w	s6,s6
    80008dec:	03605663          	blez	s6,80008e18 <_vfprintf_r+0x14f4>
    80008df0:	0e812783          	lw	a5,232(sp)
    80008df4:	016a0a33          	add	s4,s4,s6
    80008df8:	01993023          	sd	s9,0(s2)
    80008dfc:	0017871b          	addw	a4,a5,1
    80008e00:	01693423          	sd	s6,8(s2)
    80008e04:	0f413823          	sd	s4,240(sp)
    80008e08:	0ee12423          	sw	a4,232(sp)
    80008e0c:	00700793          	li	a5,7
    80008e10:	01090913          	add	s2,s2,16
    80008e14:	6ae7c4e3          	blt	a5,a4,80009cbc <_vfprintf_r+0x2398>
    80008e18:	fffb4793          	not	a5,s6
    80008e1c:	43f7d793          	sra	a5,a5,0x3f
    80008e20:	00fb7b33          	and	s6,s6,a5
    80008e24:	41668b3b          	subw	s6,a3,s6
    80008e28:	01604463          	bgtz	s6,80008e30 <_vfprintf_r+0x150c>
    80008e2c:	e05fe06f          	j	80007c30 <_vfprintf_r+0x30c>
    80008e30:	01000713          	li	a4,16
    80008e34:	0e812783          	lw	a5,232(sp)
    80008e38:	00015897          	auipc	a7,0x15
    80008e3c:	ab888893          	add	a7,a7,-1352 # 8001d8f0 <zeroes.0>
    80008e40:	5d675263          	bge	a4,s6,80009404 <_vfprintf_r+0x1ae0>
    80008e44:	03513423          	sd	s5,40(sp)
    80008e48:	01000d93          	li	s11,16
    80008e4c:	00048a93          	mv	s5,s1
    80008e50:	00700c93          	li	s9,7
    80008e54:	000b0493          	mv	s1,s6
    80008e58:	00088b13          	mv	s6,a7
    80008e5c:	00c0006f          	j	80008e68 <_vfprintf_r+0x1544>
    80008e60:	ff04849b          	addw	s1,s1,-16
    80008e64:	5c9dd0e3          	bge	s11,s1,80009c24 <_vfprintf_r+0x2300>
    80008e68:	0017879b          	addw	a5,a5,1
    80008e6c:	010a0a13          	add	s4,s4,16
    80008e70:	01693023          	sd	s6,0(s2)
    80008e74:	01b93423          	sd	s11,8(s2)
    80008e78:	0f413823          	sd	s4,240(sp)
    80008e7c:	0ef12423          	sw	a5,232(sp)
    80008e80:	01090913          	add	s2,s2,16
    80008e84:	fcfcdee3          	bge	s9,a5,80008e60 <_vfprintf_r+0x153c>
    80008e88:	00813503          	ld	a0,8(sp)
    80008e8c:	0e010613          	add	a2,sp,224
    80008e90:	000a8593          	mv	a1,s5
    80008e94:	310010ef          	jal	8000a1a4 <__sprint_r>
    80008e98:	00050463          	beqz	a0,80008ea0 <_vfprintf_r+0x157c>
    80008e9c:	1540106f          	j	80009ff0 <_vfprintf_r+0x26cc>
    80008ea0:	0f013a03          	ld	s4,240(sp)
    80008ea4:	0e812783          	lw	a5,232(sp)
    80008ea8:	00098913          	mv	s2,s3
    80008eac:	fb5ff06f          	j	80008e60 <_vfprintf_r+0x153c>
    80008eb0:	001d7593          	and	a1,s10,1
    80008eb4:	c4059663          	bnez	a1,80008300 <_vfprintf_r+0x9dc>
    80008eb8:	00c93423          	sd	a2,8(s2)
    80008ebc:	0f413823          	sd	s4,240(sp)
    80008ec0:	0f612423          	sw	s6,232(sp)
    80008ec4:	00700793          	li	a5,7
    80008ec8:	cd67d663          	bge	a5,s6,80008394 <_vfprintf_r+0xa70>
    80008ecc:	00813503          	ld	a0,8(sp)
    80008ed0:	0e010613          	add	a2,sp,224
    80008ed4:	00048593          	mv	a1,s1
    80008ed8:	2cc010ef          	jal	8000a1a4 <__sprint_r>
    80008edc:	be051ce3          	bnez	a0,80008ad4 <_vfprintf_r+0x11b0>
    80008ee0:	0f013a03          	ld	s4,240(sp)
    80008ee4:	0e812b03          	lw	s6,232(sp)
    80008ee8:	00098c93          	mv	s9,s3
    80008eec:	ca8ff06f          	j	80008394 <_vfprintf_r+0xa70>
    80008ef0:	03013703          	ld	a4,48(sp)
    80008ef4:	00100793          	li	a5,1
    80008ef8:	c8e7de63          	bge	a5,a4,80008394 <_vfprintf_r+0xa70>
    80008efc:	01100793          	li	a5,17
    80008f00:	00015897          	auipc	a7,0x15
    80008f04:	9f088893          	add	a7,a7,-1552 # 8001d8f0 <zeroes.0>
    80008f08:	64e7d863          	bge	a5,a4,80009558 <_vfprintf_r+0x1c34>
    80008f0c:	00048793          	mv	a5,s1
    80008f10:	03513423          	sd	s5,40(sp)
    80008f14:	00090493          	mv	s1,s2
    80008f18:	01000693          	li	a3,16
    80008f1c:	00700d93          	li	s11,7
    80008f20:	00088a93          	mv	s5,a7
    80008f24:	00078913          	mv	s2,a5
    80008f28:	00c0006f          	j	80008f34 <_vfprintf_r+0x1610>
    80008f2c:	ff04849b          	addw	s1,s1,-16
    80008f30:	6096da63          	bge	a3,s1,80009544 <_vfprintf_r+0x1c20>
    80008f34:	001b0b1b          	addw	s6,s6,1
    80008f38:	010a0a13          	add	s4,s4,16
    80008f3c:	015cb023          	sd	s5,0(s9)
    80008f40:	00dcb423          	sd	a3,8(s9)
    80008f44:	0f413823          	sd	s4,240(sp)
    80008f48:	0f612423          	sw	s6,232(sp)
    80008f4c:	010c8c93          	add	s9,s9,16
    80008f50:	fd6ddee3          	bge	s11,s6,80008f2c <_vfprintf_r+0x1608>
    80008f54:	00813503          	ld	a0,8(sp)
    80008f58:	0e010613          	add	a2,sp,224
    80008f5c:	00090593          	mv	a1,s2
    80008f60:	244010ef          	jal	8000a1a4 <__sprint_r>
    80008f64:	680518e3          	bnez	a0,80009df4 <_vfprintf_r+0x24d0>
    80008f68:	0f013a03          	ld	s4,240(sp)
    80008f6c:	0e812b03          	lw	s6,232(sp)
    80008f70:	00098c93          	mv	s9,s3
    80008f74:	01000693          	li	a3,16
    80008f78:	fb5ff06f          	j	80008f2c <_vfprintf_r+0x1608>
    80008f7c:	010bf793          	and	a5,s7,16
    80008f80:	04079e63          	bnez	a5,80008fdc <_vfprintf_r+0x16b8>
    80008f84:	02013683          	ld	a3,32(sp)
    80008f88:	040bf793          	and	a5,s7,64
    80008f8c:	0006aa03          	lw	s4,0(a3)
    80008f90:	5e078863          	beqz	a5,80009580 <_vfprintf_r+0x1c5c>
    80008f94:	030a1a13          	sll	s4,s4,0x30
    80008f98:	030a5a13          	srl	s4,s4,0x30
    80008f9c:	02e13023          	sd	a4,32(sp)
    80008fa0:	00100793          	li	a5,1
    80008fa4:	e49fe06f          	j	80007dec <_vfprintf_r+0x4c8>
    80008fa8:	00000693          	li	a3,0
    80008fac:	15c10d93          	add	s11,sp,348
    80008fb0:	de1fe06f          	j	80007d90 <_vfprintf_r+0x46c>
    80008fb4:	001d7793          	and	a5,s10,1
    80008fb8:	00079463          	bnez	a5,80008fc0 <_vfprintf_r+0x169c>
    80008fbc:	c75fe06f          	j	80007c30 <_vfprintf_r+0x30c>
    80008fc0:	ff8ff06f          	j	800087b8 <_vfprintf_r+0xe94>
    80008fc4:	000ac303          	lbu	t1,0(s5)
    80008fc8:	02f13023          	sd	a5,32(sp)
    80008fcc:	aedfe06f          	j	80007ab8 <_vfprintf_r+0x194>
    80008fd0:	02013783          	ld	a5,32(sp)
    80008fd4:	0007ba03          	ld	s4,0(a5)
    80008fd8:	e05fe06f          	j	80007ddc <_vfprintf_r+0x4b8>
    80008fdc:	02013783          	ld	a5,32(sp)
    80008fe0:	02e13023          	sd	a4,32(sp)
    80008fe4:	0007ba03          	ld	s4,0(a5)
    80008fe8:	00100793          	li	a5,1
    80008fec:	e01fe06f          	j	80007dec <_vfprintf_r+0x4c8>
    80008ff0:	010d7793          	and	a5,s10,16
    80008ff4:	f0079a63          	bnez	a5,80008708 <_vfprintf_r+0xde4>
    80008ff8:	040d7793          	and	a5,s10,64
    80008ffc:	160790e3          	bnez	a5,8000995c <_vfprintf_r+0x2038>
    80009000:	200d7e13          	and	t3,s10,512
    80009004:	01013783          	ld	a5,16(sp)
    80009008:	680e08e3          	beqz	t3,80009e98 <_vfprintf_r+0x2574>
    8000900c:	00f70023          	sb	a5,0(a4)
    80009010:	f00ff06f          	j	80008710 <_vfprintf_r+0xdec>
    80009014:	02013783          	ld	a5,32(sp)
    80009018:	00f78c93          	add	s9,a5,15
    8000901c:	ff0cfc93          	and	s9,s9,-16
    80009020:	010c8793          	add	a5,s9,16
    80009024:	000cb703          	ld	a4,0(s9)
    80009028:	008cb583          	ld	a1,8(s9)
    8000902c:	02f13023          	sd	a5,32(sp)
    80009030:	e55fe06f          	j	80007e84 <_vfprintf_r+0x560>
    80009034:	02013783          	ld	a5,32(sp)
    80009038:	0007b783          	ld	a5,0(a5)
    8000903c:	00078a13          	mv	s4,a5
    80009040:	d1dfe06f          	j	80007d5c <_vfprintf_r+0x438>
    80009044:	02e13023          	sd	a4,32(sp)
    80009048:	00900793          	li	a5,9
    8000904c:	000d0b93          	mv	s7,s10
    80009050:	ab47f6e3          	bgeu	a5,s4,80008afc <_vfprintf_r+0x11d8>
    80009054:	15c10693          	add	a3,sp,348
    80009058:	07813883          	ld	a7,120(sp)
    8000905c:	400bf813          	and	a6,s7,1024
    80009060:	00000613          	li	a2,0
    80009064:	00068593          	mv	a1,a3
    80009068:	00a00713          	li	a4,10
    8000906c:	00900d13          	li	s10,9
    80009070:	0ff00c93          	li	s9,255
    80009074:	0140006f          	j	80009088 <_vfprintf_r+0x1764>
    80009078:	02ea57b3          	divu	a5,s4,a4
    8000907c:	034d7a63          	bgeu	s10,s4,800090b0 <_vfprintf_r+0x178c>
    80009080:	00078a13          	mv	s4,a5
    80009084:	000d8593          	mv	a1,s11
    80009088:	fff58d93          	add	s11,a1,-1 # 1fff <__stack_shift+0x1fe8>
    8000908c:	0016061b          	addw	a2,a2,1
    80009090:	02ea77b3          	remu	a5,s4,a4
    80009094:	0307879b          	addw	a5,a5,48
    80009098:	fef58fa3          	sb	a5,-1(a1)
    8000909c:	fc080ee3          	beqz	a6,80009078 <_vfprintf_r+0x1754>
    800090a0:	0008c783          	lbu	a5,0(a7)
    800090a4:	fcf61ae3          	bne	a2,a5,80009078 <_vfprintf_r+0x1754>
    800090a8:	fd9788e3          	beq	a5,s9,80009078 <_vfprintf_r+0x1754>
    800090ac:	594d6e63          	bltu	s10,s4,80009648 <_vfprintf_r+0x1d24>
    800090b0:	02c13823          	sd	a2,48(sp)
    800090b4:	07113c23          	sd	a7,120(sp)
    800090b8:	41b686bb          	subw	a3,a3,s11
    800090bc:	000b8d13          	mv	s10,s7
    800090c0:	cd1fe06f          	j	80007d90 <_vfprintf_r+0x46c>
    800090c4:	00070b1b          	sext.w	s6,a4
    800090c8:	cb6040e3          	bgtz	s6,80008d68 <_vfprintf_r+0x1444>
    800090cc:	cc5ff06f          	j	80008d90 <_vfprintf_r+0x146c>
    800090d0:	fff00b13          	li	s6,-1
    800090d4:	00070a93          	mv	s5,a4
    800090d8:	9e9fe06f          	j	80007ac0 <_vfprintf_r+0x19c>
    800090dc:	00014797          	auipc	a5,0x14
    800090e0:	43c78793          	add	a5,a5,1084 # 8001d518 <s_box+0x2d0>
    800090e4:	04f13c23          	sd	a5,88(sp)
    800090e8:	02013683          	ld	a3,32(sp)
    800090ec:	020d7793          	and	a5,s10,32
    800090f0:	00868713          	add	a4,a3,8
    800090f4:	1c078e63          	beqz	a5,800092d0 <_vfprintf_r+0x19ac>
    800090f8:	0006ba03          	ld	s4,0(a3)
    800090fc:	001d7793          	and	a5,s10,1
    80009100:	00078e63          	beqz	a5,8000911c <_vfprintf_r+0x17f8>
    80009104:	000a0c63          	beqz	s4,8000911c <_vfprintf_r+0x17f8>
    80009108:	002d6e13          	or	t3,s10,2
    8000910c:	03000793          	li	a5,48
    80009110:	0af10823          	sb	a5,176(sp)
    80009114:	0a6108a3          	sb	t1,177(sp)
    80009118:	000e0d1b          	sext.w	s10,t3
    8000911c:	bffd7b93          	and	s7,s10,-1025
    80009120:	000b8b9b          	sext.w	s7,s7
    80009124:	02e13023          	sd	a4,32(sp)
    80009128:	00200793          	li	a5,2
    8000912c:	cc1fe06f          	j	80007dec <_vfprintf_r+0x4c8>
    80009130:	000d0b93          	mv	s7,s10
    80009134:	cc8ff06f          	j	800085fc <_vfprintf_r+0xcd8>
    80009138:	00014797          	auipc	a5,0x14
    8000913c:	3c878793          	add	a5,a5,968 # 8001d500 <s_box+0x2b8>
    80009140:	04f13c23          	sd	a5,88(sp)
    80009144:	fa5ff06f          	j	800090e8 <_vfprintf_r+0x17c4>
    80009148:	200d6d13          	or	s10,s10,512
    8000914c:	001ac303          	lbu	t1,1(s5)
    80009150:	000d0d1b          	sext.w	s10,s10
    80009154:	001a8a93          	add	s5,s5,1
    80009158:	961fe06f          	j	80007ab8 <_vfprintf_r+0x194>
    8000915c:	020d6d13          	or	s10,s10,32
    80009160:	001ac303          	lbu	t1,1(s5)
    80009164:	000d0d1b          	sext.w	s10,s10
    80009168:	001a8a93          	add	s5,s5,1
    8000916c:	94dfe06f          	j	80007ab8 <_vfprintf_r+0x194>
    80009170:	00813503          	ld	a0,8(sp)
    80009174:	0e010613          	add	a2,sp,224
    80009178:	00048593          	mv	a1,s1
    8000917c:	028010ef          	jal	8000a1a4 <__sprint_r>
    80009180:	94051ae3          	bnez	a0,80008ad4 <_vfprintf_r+0x11b0>
    80009184:	0f013a03          	ld	s4,240(sp)
    80009188:	00098913          	mv	s2,s3
    8000918c:	e60ff06f          	j	800087ec <_vfprintf_r+0xec8>
    80009190:	00600793          	li	a5,6
    80009194:	000b069b          	sext.w	a3,s6
    80009198:	7967e463          	bltu	a5,s6,80009920 <_vfprintf_r+0x1ffc>
    8000919c:	00068b93          	mv	s7,a3
    800091a0:	03913023          	sd	s9,32(sp)
    800091a4:	00014d97          	auipc	s11,0x14
    800091a8:	38cd8d93          	add	s11,s11,908 # 8001d530 <s_box+0x2e8>
    800091ac:	995fe06f          	j	80007b40 <_vfprintf_r+0x21c>
    800091b0:	01000693          	li	a3,16
    800091b4:	0e812703          	lw	a4,232(sp)
    800091b8:	00014897          	auipc	a7,0x14
    800091bc:	73888893          	add	a7,a7,1848 # 8001d8f0 <zeroes.0>
    800091c0:	4566d263          	bge	a3,s6,80009604 <_vfprintf_r+0x1ce0>
    800091c4:	07513023          	sd	s5,96(sp)
    800091c8:	01000693          	li	a3,16
    800091cc:	000b0a93          	mv	s5,s6
    800091d0:	00700c93          	li	s9,7
    800091d4:	00088b13          	mv	s6,a7
    800091d8:	00c0006f          	j	800091e4 <_vfprintf_r+0x18c0>
    800091dc:	ff0a8a9b          	addw	s5,s5,-16
    800091e0:	4156dc63          	bge	a3,s5,800095f8 <_vfprintf_r+0x1cd4>
    800091e4:	0017071b          	addw	a4,a4,1
    800091e8:	010a0a13          	add	s4,s4,16
    800091ec:	01693023          	sd	s6,0(s2)
    800091f0:	00d93423          	sd	a3,8(s2)
    800091f4:	0f413823          	sd	s4,240(sp)
    800091f8:	0ee12423          	sw	a4,232(sp)
    800091fc:	01090913          	add	s2,s2,16
    80009200:	fcecdee3          	bge	s9,a4,800091dc <_vfprintf_r+0x18b8>
    80009204:	00813503          	ld	a0,8(sp)
    80009208:	0e010613          	add	a2,sp,224
    8000920c:	00048593          	mv	a1,s1
    80009210:	795000ef          	jal	8000a1a4 <__sprint_r>
    80009214:	8c0510e3          	bnez	a0,80008ad4 <_vfprintf_r+0x11b0>
    80009218:	0f013a03          	ld	s4,240(sp)
    8000921c:	0e812703          	lw	a4,232(sp)
    80009220:	00098913          	mv	s2,s3
    80009224:	01000693          	li	a3,16
    80009228:	fb5ff06f          	j	800091dc <_vfprintf_r+0x18b8>
    8000922c:	0e812683          	lw	a3,232(sp)
    80009230:	04813783          	ld	a5,72(sp)
    80009234:	05013603          	ld	a2,80(sp)
    80009238:	01090913          	add	s2,s2,16
    8000923c:	00fa0a33          	add	s4,s4,a5
    80009240:	fec93823          	sd	a2,-16(s2)
    80009244:	0016861b          	addw	a2,a3,1
    80009248:	fef93c23          	sd	a5,-8(s2)
    8000924c:	0f413823          	sd	s4,240(sp)
    80009250:	0ec12423          	sw	a2,232(sp)
    80009254:	00700693          	li	a3,7
    80009258:	b6c6dae3          	bge	a3,a2,80008dcc <_vfprintf_r+0x14a8>
    8000925c:	00813503          	ld	a0,8(sp)
    80009260:	0e010613          	add	a2,sp,224
    80009264:	00048593          	mv	a1,s1
    80009268:	73d000ef          	jal	8000a1a4 <__sprint_r>
    8000926c:	860514e3          	bnez	a0,80008ad4 <_vfprintf_r+0x11b0>
    80009270:	0b812703          	lw	a4,184(sp)
    80009274:	0f013a03          	ld	s4,240(sp)
    80009278:	00098913          	mv	s2,s3
    8000927c:	b51ff06f          	j	80008dcc <_vfprintf_r+0x14a8>
    80009280:	07800793          	li	a5,120
    80009284:	03000693          	li	a3,48
    80009288:	002d6713          	or	a4,s10,2
    8000928c:	0af108a3          	sb	a5,177(sp)
    80009290:	0ad10823          	sb	a3,176(sp)
    80009294:	06300793          	li	a5,99
    80009298:	0007071b          	sext.w	a4,a4
    8000929c:	7167cc63          	blt	a5,s6,800099b4 <_vfprintf_r+0x2090>
    800092a0:	0d013783          	ld	a5,208(sp)
    800092a4:	0d813e83          	ld	t4,216(sp)
    800092a8:	102d6e13          	or	t3,s10,258
    800092ac:	02f13423          	sd	a5,40(sp)
    800092b0:	000e0a1b          	sext.w	s4,t3
    800092b4:	100ec4e3          	bltz	t4,80009bbc <_vfprintf_r+0x2298>
    800092b8:	fbf3069b          	addw	a3,t1,-65
    800092bc:	00070d13          	mv	s10,a4
    800092c0:	06013023          	sd	zero,96(sp)
    800092c4:	00013c23          	sd	zero,24(sp)
    800092c8:	0f810d93          	add	s11,sp,248
    800092cc:	c59fe06f          	j	80007f24 <_vfprintf_r+0x600>
    800092d0:	010d7793          	and	a5,s10,16
    800092d4:	0c078e63          	beqz	a5,800093b0 <_vfprintf_r+0x1a8c>
    800092d8:	02013783          	ld	a5,32(sp)
    800092dc:	0007ba03          	ld	s4,0(a5)
    800092e0:	e1dff06f          	j	800090fc <_vfprintf_r+0x17d8>
    800092e4:	00813503          	ld	a0,8(sp)
    800092e8:	0e010613          	add	a2,sp,224
    800092ec:	00048593          	mv	a1,s1
    800092f0:	6b5000ef          	jal	8000a1a4 <__sprint_r>
    800092f4:	fe051063          	bnez	a0,80008ad4 <_vfprintf_r+0x11b0>
    800092f8:	0f013a03          	ld	s4,240(sp)
    800092fc:	0e812b03          	lw	s6,232(sp)
    80009300:	00098c93          	mv	s9,s3
    80009304:	818ff06f          	j	8000831c <_vfprintf_r+0x9f8>
    80009308:	00813503          	ld	a0,8(sp)
    8000930c:	0e010613          	add	a2,sp,224
    80009310:	00048593          	mv	a1,s1
    80009314:	691000ef          	jal	8000a1a4 <__sprint_r>
    80009318:	fa051e63          	bnez	a0,80008ad4 <_vfprintf_r+0x11b0>
    8000931c:	0f013a03          	ld	s4,240(sp)
    80009320:	0e812b03          	lw	s6,232(sp)
    80009324:	00098c93          	mv	s9,s3
    80009328:	824ff06f          	j	8000834c <_vfprintf_r+0xa28>
    8000932c:	0e812703          	lw	a4,232(sp)
    80009330:	00014697          	auipc	a3,0x14
    80009334:	20868693          	add	a3,a3,520 # 8001d538 <s_box+0x2f0>
    80009338:	00d93023          	sd	a3,0(s2)
    8000933c:	0017071b          	addw	a4,a4,1
    80009340:	00100693          	li	a3,1
    80009344:	001a0a13          	add	s4,s4,1
    80009348:	00d93423          	sd	a3,8(s2)
    8000934c:	0ee12423          	sw	a4,232(sp)
    80009350:	0007069b          	sext.w	a3,a4
    80009354:	0f413823          	sd	s4,240(sp)
    80009358:	00700713          	li	a4,7
    8000935c:	01090913          	add	s2,s2,16
    80009360:	56d74e63          	blt	a4,a3,800098dc <_vfprintf_r+0x1fb8>
    80009364:	18059063          	bnez	a1,800094e4 <_vfprintf_r+0x1bc0>
    80009368:	03013783          	ld	a5,48(sp)
    8000936c:	001d7713          	and	a4,s10,1
    80009370:	00e7e733          	or	a4,a5,a4
    80009374:	00071463          	bnez	a4,8000937c <_vfprintf_r+0x1a58>
    80009378:	8b9fe06f          	j	80007c30 <_vfprintf_r+0x30c>
    8000937c:	0e812703          	lw	a4,232(sp)
    80009380:	04813783          	ld	a5,72(sp)
    80009384:	05013683          	ld	a3,80(sp)
    80009388:	01478633          	add	a2,a5,s4
    8000938c:	00d93023          	sd	a3,0(s2)
    80009390:	0017069b          	addw	a3,a4,1
    80009394:	00f93423          	sd	a5,8(s2)
    80009398:	0ec13823          	sd	a2,240(sp)
    8000939c:	0ed12423          	sw	a3,232(sp)
    800093a0:	00700713          	li	a4,7
    800093a4:	5ed74463          	blt	a4,a3,8000998c <_vfprintf_r+0x2068>
    800093a8:	01090913          	add	s2,s2,16
    800093ac:	16c0006f          	j	80009518 <_vfprintf_r+0x1bf4>
    800093b0:	02013683          	ld	a3,32(sp)
    800093b4:	040d7793          	and	a5,s10,64
    800093b8:	0006aa03          	lw	s4,0(a3)
    800093bc:	20078263          	beqz	a5,800095c0 <_vfprintf_r+0x1c9c>
    800093c0:	030a1a13          	sll	s4,s4,0x30
    800093c4:	030a5a13          	srl	s4,s4,0x30
    800093c8:	d35ff06f          	j	800090fc <_vfprintf_r+0x17d8>
    800093cc:	00813503          	ld	a0,8(sp)
    800093d0:	8ccfc0ef          	jal	8000549c <__sinit>
    800093d4:	da8fe06f          	j	8000797c <_vfprintf_r+0x58>
    800093d8:	00813503          	ld	a0,8(sp)
    800093dc:	0e010613          	add	a2,sp,224
    800093e0:	00048593          	mv	a1,s1
    800093e4:	5c1000ef          	jal	8000a1a4 <__sprint_r>
    800093e8:	ee051663          	bnez	a0,80008ad4 <_vfprintf_r+0x11b0>
    800093ec:	0f013a03          	ld	s4,240(sp)
    800093f0:	00098913          	mv	s2,s3
    800093f4:	bb8ff06f          	j	800087ac <_vfprintf_r+0xe88>
    800093f8:	000b0893          	mv	a7,s6
    800093fc:	000a8b13          	mv	s6,s5
    80009400:	02813a83          	ld	s5,40(sp)
    80009404:	0017871b          	addw	a4,a5,1
    80009408:	01193023          	sd	a7,0(s2)
    8000940c:	01693423          	sd	s6,8(s2)
    80009410:	016a0a33          	add	s4,s4,s6
    80009414:	0f413823          	sd	s4,240(sp)
    80009418:	0ee12423          	sw	a4,232(sp)
    8000941c:	00700793          	li	a5,7
    80009420:	00e7c463          	blt	a5,a4,80009428 <_vfprintf_r+0x1b04>
    80009424:	809fe06f          	j	80007c2c <_vfprintf_r+0x308>
    80009428:	f99fe06f          	j	800083c0 <_vfprintf_r+0xa9c>
    8000942c:	02e13023          	sd	a4,32(sp)
    80009430:	ec4ff06f          	j	80008af4 <_vfprintf_r+0x11d0>
    80009434:	0d013503          	ld	a0,208(sp)
    80009438:	0d813583          	ld	a1,216(sp)
    8000943c:	00000613          	li	a2,0
    80009440:	00000693          	li	a3,0
    80009444:	245080ef          	jal	80011e88 <__letf2>
    80009448:	01813303          	ld	t1,24(sp)
    8000944c:	7c054463          	bltz	a0,80009c14 <_vfprintf_r+0x22f0>
    80009450:	0af14703          	lbu	a4,175(sp)
    80009454:	04700693          	li	a3,71
    80009458:	00014d97          	auipc	s11,0x14
    8000945c:	090d8d93          	add	s11,s11,144 # 8001d4e8 <s_box+0x2a0>
    80009460:	0066c663          	blt	a3,t1,8000946c <_vfprintf_r+0x1b48>
    80009464:	00014d97          	auipc	s11,0x14
    80009468:	07cd8d93          	add	s11,s11,124 # 8001d4e0 <s_box+0x298>
    8000946c:	f7fd7e13          	and	t3,s10,-129
    80009470:	00013c23          	sd	zero,24(sp)
    80009474:	04013023          	sd	zero,64(sp)
    80009478:	02013c23          	sd	zero,56(sp)
    8000947c:	02013423          	sd	zero,40(sp)
    80009480:	000e0d1b          	sext.w	s10,t3
    80009484:	00300b93          	li	s7,3
    80009488:	00300693          	li	a3,3
    8000948c:	00000b13          	li	s6,0
    80009490:	00070463          	beqz	a4,80009498 <_vfprintf_r+0x1b74>
    80009494:	925fe06f          	j	80007db8 <_vfprintf_r+0x494>
    80009498:	ebcfe06f          	j	80007b54 <_vfprintf_r+0x230>
    8000949c:	000d8513          	mv	a0,s11
    800094a0:	06613023          	sd	t1,96(sp)
    800094a4:	f24fd0ef          	jal	80006bc8 <strlen>
    800094a8:	0005069b          	sext.w	a3,a0
    800094ac:	0af14703          	lbu	a4,175(sp)
    800094b0:	fff6c813          	not	a6,a3
    800094b4:	43f85813          	sra	a6,a6,0x3f
    800094b8:	03913023          	sd	s9,32(sp)
    800094bc:	00013c23          	sd	zero,24(sp)
    800094c0:	04013023          	sd	zero,64(sp)
    800094c4:	02013c23          	sd	zero,56(sp)
    800094c8:	02013423          	sd	zero,40(sp)
    800094cc:	06013303          	ld	t1,96(sp)
    800094d0:	00d87bb3          	and	s7,a6,a3
    800094d4:	00000b13          	li	s6,0
    800094d8:	00070463          	beqz	a4,800094e0 <_vfprintf_r+0x1bbc>
    800094dc:	8ddfe06f          	j	80007db8 <_vfprintf_r+0x494>
    800094e0:	e74fe06f          	j	80007b54 <_vfprintf_r+0x230>
    800094e4:	0e812703          	lw	a4,232(sp)
    800094e8:	04813783          	ld	a5,72(sp)
    800094ec:	05013683          	ld	a3,80(sp)
    800094f0:	01090913          	add	s2,s2,16
    800094f4:	01478633          	add	a2,a5,s4
    800094f8:	fed93823          	sd	a3,-16(s2)
    800094fc:	0017069b          	addw	a3,a4,1
    80009500:	fef93c23          	sd	a5,-8(s2)
    80009504:	0ec13823          	sd	a2,240(sp)
    80009508:	0ed12423          	sw	a3,232(sp)
    8000950c:	00700713          	li	a4,7
    80009510:	46d74e63          	blt	a4,a3,8000998c <_vfprintf_r+0x2068>
    80009514:	0605c4e3          	bltz	a1,80009d7c <_vfprintf_r+0x2458>
    80009518:	03013783          	ld	a5,48(sp)
    8000951c:	0016871b          	addw	a4,a3,1
    80009520:	01b93023          	sd	s11,0(s2)
    80009524:	00c78a33          	add	s4,a5,a2
    80009528:	00f93423          	sd	a5,8(s2)
    8000952c:	0f413823          	sd	s4,240(sp)
    80009530:	0ee12423          	sw	a4,232(sp)
    80009534:	00700793          	li	a5,7
    80009538:	00e7c463          	blt	a5,a4,80009540 <_vfprintf_r+0x1c1c>
    8000953c:	ef0fe06f          	j	80007c2c <_vfprintf_r+0x308>
    80009540:	e81fe06f          	j	800083c0 <_vfprintf_r+0xa9c>
    80009544:	000a8893          	mv	a7,s5
    80009548:	02813a83          	ld	s5,40(sp)
    8000954c:	00090793          	mv	a5,s2
    80009550:	00048913          	mv	s2,s1
    80009554:	00078493          	mv	s1,a5
    80009558:	001b0b1b          	addw	s6,s6,1
    8000955c:	012a0a33          	add	s4,s4,s2
    80009560:	011cb023          	sd	a7,0(s9)
    80009564:	012cb423          	sd	s2,8(s9)
    80009568:	0f413823          	sd	s4,240(sp)
    8000956c:	0f612423          	sw	s6,232(sp)
    80009570:	00700793          	li	a5,7
    80009574:	0167c463          	blt	a5,s6,8000957c <_vfprintf_r+0x1c58>
    80009578:	e19fe06f          	j	80008390 <_vfprintf_r+0xa6c>
    8000957c:	951ff06f          	j	80008ecc <_vfprintf_r+0x15a8>
    80009580:	200bf793          	and	a5,s7,512
    80009584:	3c078263          	beqz	a5,80009948 <_vfprintf_r+0x2024>
    80009588:	0ffa7a13          	zext.b	s4,s4
    8000958c:	02e13023          	sd	a4,32(sp)
    80009590:	00100793          	li	a5,1
    80009594:	859fe06f          	j	80007dec <_vfprintf_r+0x4c8>
    80009598:	200d7793          	and	a5,s10,512
    8000959c:	3a078063          	beqz	a5,8000993c <_vfprintf_r+0x2018>
    800095a0:	0ffa7a13          	zext.b	s4,s4
    800095a4:	839fe06f          	j	80007ddc <_vfprintf_r+0x4b8>
    800095a8:	200d7793          	and	a5,s10,512
    800095ac:	38078463          	beqz	a5,80009934 <_vfprintf_r+0x2010>
    800095b0:	018a1a1b          	sllw	s4,s4,0x18
    800095b4:	418a5a1b          	sraw	s4,s4,0x18
    800095b8:	000a0793          	mv	a5,s4
    800095bc:	fa0fe06f          	j	80007d5c <_vfprintf_r+0x438>
    800095c0:	200d7793          	and	a5,s10,512
    800095c4:	36078263          	beqz	a5,80009928 <_vfprintf_r+0x2004>
    800095c8:	0ffa7a13          	zext.b	s4,s4
    800095cc:	b31ff06f          	j	800090fc <_vfprintf_r+0x17d8>
    800095d0:	0d813783          	ld	a5,216(sp)
    800095d4:	3a07c463          	bltz	a5,8000997c <_vfprintf_r+0x2058>
    800095d8:	0af14703          	lbu	a4,175(sp)
    800095dc:	04700693          	li	a3,71
    800095e0:	00014d97          	auipc	s11,0x14
    800095e4:	f18d8d93          	add	s11,s11,-232 # 8001d4f8 <s_box+0x2b0>
    800095e8:	e866c2e3          	blt	a3,t1,8000946c <_vfprintf_r+0x1b48>
    800095ec:	00014d97          	auipc	s11,0x14
    800095f0:	f04d8d93          	add	s11,s11,-252 # 8001d4f0 <s_box+0x2a8>
    800095f4:	e79ff06f          	j	8000946c <_vfprintf_r+0x1b48>
    800095f8:	000b0893          	mv	a7,s6
    800095fc:	000a8b13          	mv	s6,s5
    80009600:	06013a83          	ld	s5,96(sp)
    80009604:	0017069b          	addw	a3,a4,1
    80009608:	016a0a33          	add	s4,s4,s6
    8000960c:	01193023          	sd	a7,0(s2)
    80009610:	01693423          	sd	s6,8(s2)
    80009614:	0f413823          	sd	s4,240(sp)
    80009618:	0ed12423          	sw	a3,232(sp)
    8000961c:	00700713          	li	a4,7
    80009620:	01090913          	add	s2,s2,16
    80009624:	f8d75263          	bge	a4,a3,80008da8 <_vfprintf_r+0x1484>
    80009628:	00813503          	ld	a0,8(sp)
    8000962c:	0e010613          	add	a2,sp,224
    80009630:	00048593          	mv	a1,s1
    80009634:	371000ef          	jal	8000a1a4 <__sprint_r>
    80009638:	c8051e63          	bnez	a0,80008ad4 <_vfprintf_r+0x11b0>
    8000963c:	0f013a03          	ld	s4,240(sp)
    80009640:	00098913          	mv	s2,s3
    80009644:	f64ff06f          	j	80008da8 <_vfprintf_r+0x1484>
    80009648:	08013783          	ld	a5,128(sp)
    8000964c:	07013583          	ld	a1,112(sp)
    80009650:	02d13c23          	sd	a3,56(sp)
    80009654:	40fd8db3          	sub	s11,s11,a5
    80009658:	00078613          	mv	a2,a5
    8000965c:	000d8513          	mv	a0,s11
    80009660:	03013823          	sd	a6,48(sp)
    80009664:	02613423          	sd	t1,40(sp)
    80009668:	01113c23          	sd	a7,24(sp)
    8000966c:	5d8010ef          	jal	8000ac44 <strncpy>
    80009670:	01813883          	ld	a7,24(sp)
    80009674:	00a00793          	li	a5,10
    80009678:	02fa57b3          	divu	a5,s4,a5
    8000967c:	0018c603          	lbu	a2,1(a7)
    80009680:	02813303          	ld	t1,40(sp)
    80009684:	03013803          	ld	a6,48(sp)
    80009688:	00c03633          	snez	a2,a2
    8000968c:	00c888b3          	add	a7,a7,a2
    80009690:	03813683          	ld	a3,56(sp)
    80009694:	00000613          	li	a2,0
    80009698:	00a00713          	li	a4,10
    8000969c:	9e5ff06f          	j	80009080 <_vfprintf_r+0x175c>
    800096a0:	03013783          	ld	a5,48(sp)
    800096a4:	07513023          	sd	s5,96(sp)
    800096a8:	09a13423          	sd	s10,136(sp)
    800096ac:	00fd85b3          	add	a1,s11,a5
    800096b0:	00090793          	mv	a5,s2
    800096b4:	03813903          	ld	s2,56(sp)
    800096b8:	09813823          	sd	s8,144(sp)
    800096bc:	03713c23          	sd	s7,56(sp)
    800096c0:	09b13c23          	sd	s11,152(sp)
    800096c4:	000c8d13          	mv	s10,s9
    800096c8:	08013c03          	ld	s8,128(sp)
    800096cc:	07813c83          	ld	s9,120(sp)
    800096d0:	00813a83          	ld	s5,8(sp)
    800096d4:	04013d83          	ld	s11,64(sp)
    800096d8:	00700693          	li	a3,7
    800096dc:	01000713          	li	a4,16
    800096e0:	00014b17          	auipc	s6,0x14
    800096e4:	210b0b13          	add	s6,s6,528 # 8001d8f0 <zeroes.0>
    800096e8:	000a0613          	mv	a2,s4
    800096ec:	00058b93          	mv	s7,a1
    800096f0:	09205e63          	blez	s2,8000978c <_vfprintf_r+0x1e68>
    800096f4:	19b05263          	blez	s11,80009878 <_vfprintf_r+0x1f54>
    800096f8:	fffd8d9b          	addw	s11,s11,-1
    800096fc:	0e812583          	lw	a1,232(sp)
    80009700:	07013503          	ld	a0,112(sp)
    80009704:	01860633          	add	a2,a2,s8
    80009708:	0187b423          	sd	s8,8(a5)
    8000970c:	00a7b023          	sd	a0,0(a5)
    80009710:	0015851b          	addw	a0,a1,1
    80009714:	0ec13823          	sd	a2,240(sp)
    80009718:	0ea12423          	sw	a0,232(sp)
    8000971c:	01078793          	add	a5,a5,16
    80009720:	16a6c263          	blt	a3,a0,80009884 <_vfprintf_r+0x1f60>
    80009724:	000cc583          	lbu	a1,0(s9)
    80009728:	41ab8f33          	sub	t5,s7,s10
    8000972c:	000f051b          	sext.w	a0,t5
    80009730:	0005881b          	sext.w	a6,a1
    80009734:	00a5d463          	bge	a1,a0,8000973c <_vfprintf_r+0x1e18>
    80009738:	00080f13          	mv	t5,a6
    8000973c:	000f0a1b          	sext.w	s4,t5
    80009740:	03405863          	blez	s4,80009770 <_vfprintf_r+0x1e4c>
    80009744:	0e812583          	lw	a1,232(sp)
    80009748:	01460633          	add	a2,a2,s4
    8000974c:	01a7b023          	sd	s10,0(a5)
    80009750:	0015851b          	addw	a0,a1,1
    80009754:	0147b423          	sd	s4,8(a5)
    80009758:	0ec13823          	sd	a2,240(sp)
    8000975c:	0ea12423          	sw	a0,232(sp)
    80009760:	14a6c663          	blt	a3,a0,800098ac <_vfprintf_r+0x1f88>
    80009764:	000cc583          	lbu	a1,0(s9)
    80009768:	01078793          	add	a5,a5,16
    8000976c:	0005881b          	sext.w	a6,a1
    80009770:	fffa4513          	not	a0,s4
    80009774:	43f55513          	sra	a0,a0,0x3f
    80009778:	00aa7f33          	and	t5,s4,a0
    8000977c:	41e80a3b          	subw	s4,a6,t5
    80009780:	05404463          	bgtz	s4,800097c8 <_vfprintf_r+0x1ea4>
    80009784:	00bd0d33          	add	s10,s10,a1
    80009788:	f72046e3          	bgtz	s2,800096f4 <_vfprintf_r+0x1dd0>
    8000978c:	f7b046e3          	bgtz	s11,800096f8 <_vfprintf_r+0x1dd4>
    80009790:	09813d83          	ld	s11,152(sp)
    80009794:	00078913          	mv	s2,a5
    80009798:	03013783          	ld	a5,48(sp)
    8000979c:	07913c23          	sd	s9,120(sp)
    800097a0:	000d0c93          	mv	s9,s10
    800097a4:	00fd8733          	add	a4,s11,a5
    800097a8:	06013a83          	ld	s5,96(sp)
    800097ac:	08813d03          	ld	s10,136(sp)
    800097b0:	09013c03          	ld	s8,144(sp)
    800097b4:	03813b83          	ld	s7,56(sp)
    800097b8:	00060a13          	mv	s4,a2
    800097bc:	df977e63          	bgeu	a4,s9,80008db8 <_vfprintf_r+0x1494>
    800097c0:	00070c93          	mv	s9,a4
    800097c4:	df4ff06f          	j	80008db8 <_vfprintf_r+0x1494>
    800097c8:	0e812583          	lw	a1,232(sp)
    800097cc:	00014f17          	auipc	t5,0x14
    800097d0:	124f0f13          	add	t5,t5,292 # 8001d8f0 <zeroes.0>
    800097d4:	07475c63          	bge	a4,s4,8000984c <_vfprintf_r+0x1f28>
    800097d8:	03213423          	sd	s2,40(sp)
    800097dc:	000a0913          	mv	s2,s4
    800097e0:	000b0a13          	mv	s4,s6
    800097e4:	00c0006f          	j	800097f0 <_vfprintf_r+0x1ecc>
    800097e8:	ff09091b          	addw	s2,s2,-16
    800097ec:	05275a63          	bge	a4,s2,80009840 <_vfprintf_r+0x1f1c>
    800097f0:	0015859b          	addw	a1,a1,1
    800097f4:	01060613          	add	a2,a2,16
    800097f8:	0167b023          	sd	s6,0(a5)
    800097fc:	00e7b423          	sd	a4,8(a5)
    80009800:	0ec13823          	sd	a2,240(sp)
    80009804:	0eb12423          	sw	a1,232(sp)
    80009808:	01078793          	add	a5,a5,16
    8000980c:	fcb6dee3          	bge	a3,a1,800097e8 <_vfprintf_r+0x1ec4>
    80009810:	0e010613          	add	a2,sp,224
    80009814:	00048593          	mv	a1,s1
    80009818:	000a8513          	mv	a0,s5
    8000981c:	189000ef          	jal	8000a1a4 <__sprint_r>
    80009820:	aa051a63          	bnez	a0,80008ad4 <_vfprintf_r+0x11b0>
    80009824:	01000713          	li	a4,16
    80009828:	ff09091b          	addw	s2,s2,-16
    8000982c:	0f013603          	ld	a2,240(sp)
    80009830:	0e812583          	lw	a1,232(sp)
    80009834:	00098793          	mv	a5,s3
    80009838:	00700693          	li	a3,7
    8000983c:	fb274ae3          	blt	a4,s2,800097f0 <_vfprintf_r+0x1ecc>
    80009840:	000a0f13          	mv	t5,s4
    80009844:	00090a13          	mv	s4,s2
    80009848:	02813903          	ld	s2,40(sp)
    8000984c:	0015851b          	addw	a0,a1,1
    80009850:	01460633          	add	a2,a2,s4
    80009854:	01e7b023          	sd	t5,0(a5)
    80009858:	0147b423          	sd	s4,8(a5)
    8000985c:	0ec13823          	sd	a2,240(sp)
    80009860:	0ea12423          	sw	a0,232(sp)
    80009864:	36a6ce63          	blt	a3,a0,80009be0 <_vfprintf_r+0x22bc>
    80009868:	000cc583          	lbu	a1,0(s9)
    8000986c:	01078793          	add	a5,a5,16
    80009870:	00bd0d33          	add	s10,s10,a1
    80009874:	f15ff06f          	j	80009788 <_vfprintf_r+0x1e64>
    80009878:	fffc8c93          	add	s9,s9,-1
    8000987c:	fff9091b          	addw	s2,s2,-1
    80009880:	e7dff06f          	j	800096fc <_vfprintf_r+0x1dd8>
    80009884:	0e010613          	add	a2,sp,224
    80009888:	00048593          	mv	a1,s1
    8000988c:	000a8513          	mv	a0,s5
    80009890:	115000ef          	jal	8000a1a4 <__sprint_r>
    80009894:	a4051063          	bnez	a0,80008ad4 <_vfprintf_r+0x11b0>
    80009898:	0f013603          	ld	a2,240(sp)
    8000989c:	00098793          	mv	a5,s3
    800098a0:	01000713          	li	a4,16
    800098a4:	00700693          	li	a3,7
    800098a8:	e7dff06f          	j	80009724 <_vfprintf_r+0x1e00>
    800098ac:	0e010613          	add	a2,sp,224
    800098b0:	00048593          	mv	a1,s1
    800098b4:	000a8513          	mv	a0,s5
    800098b8:	0ed000ef          	jal	8000a1a4 <__sprint_r>
    800098bc:	a0051c63          	bnez	a0,80008ad4 <_vfprintf_r+0x11b0>
    800098c0:	000cc583          	lbu	a1,0(s9)
    800098c4:	0f013603          	ld	a2,240(sp)
    800098c8:	00098793          	mv	a5,s3
    800098cc:	0005881b          	sext.w	a6,a1
    800098d0:	01000713          	li	a4,16
    800098d4:	00700693          	li	a3,7
    800098d8:	e99ff06f          	j	80009770 <_vfprintf_r+0x1e4c>
    800098dc:	00813503          	ld	a0,8(sp)
    800098e0:	0e010613          	add	a2,sp,224
    800098e4:	00048593          	mv	a1,s1
    800098e8:	0bd000ef          	jal	8000a1a4 <__sprint_r>
    800098ec:	9e051463          	bnez	a0,80008ad4 <_vfprintf_r+0x11b0>
    800098f0:	0b812583          	lw	a1,184(sp)
    800098f4:	0f013a03          	ld	s4,240(sp)
    800098f8:	00098913          	mv	s2,s3
    800098fc:	a69ff06f          	j	80009364 <_vfprintf_r+0x1a40>
    80009900:	00813503          	ld	a0,8(sp)
    80009904:	0e010613          	add	a2,sp,224
    80009908:	00048593          	mv	a1,s1
    8000990c:	099000ef          	jal	8000a1a4 <__sprint_r>
    80009910:	9c051263          	bnez	a0,80008ad4 <_vfprintf_r+0x11b0>
    80009914:	0f013a03          	ld	s4,240(sp)
    80009918:	00098913          	mv	s2,s3
    8000991c:	c74ff06f          	j	80008d90 <_vfprintf_r+0x146c>
    80009920:	00600693          	li	a3,6
    80009924:	879ff06f          	j	8000919c <_vfprintf_r+0x1878>
    80009928:	020a1a13          	sll	s4,s4,0x20
    8000992c:	020a5a13          	srl	s4,s4,0x20
    80009930:	fccff06f          	j	800090fc <_vfprintf_r+0x17d8>
    80009934:	000a0793          	mv	a5,s4
    80009938:	c24fe06f          	j	80007d5c <_vfprintf_r+0x438>
    8000993c:	020a1a13          	sll	s4,s4,0x20
    80009940:	020a5a13          	srl	s4,s4,0x20
    80009944:	c98fe06f          	j	80007ddc <_vfprintf_r+0x4b8>
    80009948:	020a1a13          	sll	s4,s4,0x20
    8000994c:	020a5a13          	srl	s4,s4,0x20
    80009950:	02e13023          	sd	a4,32(sp)
    80009954:	00100793          	li	a5,1
    80009958:	c94fe06f          	j	80007dec <_vfprintf_r+0x4c8>
    8000995c:	01013783          	ld	a5,16(sp)
    80009960:	00f71023          	sh	a5,0(a4)
    80009964:	dadfe06f          	j	80008710 <_vfprintf_r+0xdec>
    80009968:	00813503          	ld	a0,8(sp)
    8000996c:	0e010613          	add	a2,sp,224
    80009970:	00048593          	mv	a1,s1
    80009974:	031000ef          	jal	8000a1a4 <__sprint_r>
    80009978:	b1cfe06f          	j	80007c94 <_vfprintf_r+0x370>
    8000997c:	02d00793          	li	a5,45
    80009980:	0af107a3          	sb	a5,175(sp)
    80009984:	02d00713          	li	a4,45
    80009988:	c55ff06f          	j	800095dc <_vfprintf_r+0x1cb8>
    8000998c:	00813503          	ld	a0,8(sp)
    80009990:	0e010613          	add	a2,sp,224
    80009994:	00048593          	mv	a1,s1
    80009998:	00d000ef          	jal	8000a1a4 <__sprint_r>
    8000999c:	92051c63          	bnez	a0,80008ad4 <_vfprintf_r+0x11b0>
    800099a0:	0b812583          	lw	a1,184(sp)
    800099a4:	0f013603          	ld	a2,240(sp)
    800099a8:	0e812683          	lw	a3,232(sp)
    800099ac:	00098913          	mv	s2,s3
    800099b0:	b65ff06f          	j	80009514 <_vfprintf_r+0x1bf0>
    800099b4:	00813503          	ld	a0,8(sp)
    800099b8:	001b059b          	addw	a1,s6,1
    800099bc:	02e13423          	sd	a4,40(sp)
    800099c0:	00613c23          	sd	t1,24(sp)
    800099c4:	f3cfd0ef          	jal	80007100 <_malloc_r>
    800099c8:	01813303          	ld	t1,24(sp)
    800099cc:	02813703          	ld	a4,40(sp)
    800099d0:	00050d93          	mv	s11,a0
    800099d4:	6c050663          	beqz	a0,8000a0a0 <_vfprintf_r+0x277c>
    800099d8:	00a13c23          	sd	a0,24(sp)
    800099dc:	00070d13          	mv	s10,a4
    800099e0:	d14fe06f          	j	80007ef4 <_vfprintf_r+0x5d0>
    800099e4:	02813583          	ld	a1,40(sp)
    800099e8:	00813503          	ld	a0,8(sp)
    800099ec:	000b0713          	mv	a4,s6
    800099f0:	000e8613          	mv	a2,t4
    800099f4:	0c810893          	add	a7,sp,200
    800099f8:	0bc10813          	add	a6,sp,188
    800099fc:	0b810793          	add	a5,sp,184
    80009a00:	00200693          	li	a3,2
    80009a04:	02613c23          	sd	t1,56(sp)
    80009a08:	03d13823          	sd	t4,48(sp)
    80009a0c:	5fc010ef          	jal	8000b008 <_ldtoa_r>
    80009a10:	03813303          	ld	t1,56(sp)
    80009a14:	04700713          	li	a4,71
    80009a18:	03013e83          	ld	t4,48(sp)
    80009a1c:	00050d93          	mv	s11,a0
    80009a20:	68e31e63          	bne	t1,a4,8000a0bc <_vfprintf_r+0x2798>
    80009a24:	001d7713          	and	a4,s10,1
    80009a28:	28071463          	bnez	a4,80009cb0 <_vfprintf_r+0x238c>
    80009a2c:	0b812783          	lw	a5,184(sp)
    80009a30:	02f13423          	sd	a5,40(sp)
    80009a34:	0c813783          	ld	a5,200(sp)
    80009a38:	41b787bb          	subw	a5,a5,s11
    80009a3c:	02f13823          	sd	a5,48(sp)
    80009a40:	02813783          	ld	a5,40(sp)
    80009a44:	ffd00713          	li	a4,-3
    80009a48:	00e7c463          	blt	a5,a4,80009a50 <_vfprintf_r+0x212c>
    80009a4c:	10fb5c63          	bge	s6,a5,80009b64 <_vfprintf_r+0x2240>
    80009a50:	02813783          	ld	a5,40(sp)
    80009a54:	ffe3031b          	addw	t1,t1,-2
    80009a58:	fff7871b          	addw	a4,a5,-1
    80009a5c:	0ae12c23          	sw	a4,184(sp)
    80009a60:	0ff37693          	zext.b	a3,t1
    80009a64:	00000613          	li	a2,0
    80009a68:	f30fe06f          	j	80008198 <_vfprintf_r+0x874>
    80009a6c:	03813783          	ld	a5,56(sp)
    80009a70:	00a7c583          	lbu	a1,10(a5)
    80009a74:	feb68fa3          	sb	a1,-1(a3)
    80009a78:	ee4fe06f          	j	8000815c <_vfprintf_r+0x838>
    80009a7c:	0af14703          	lbu	a4,175(sp)
    80009a80:	00000b13          	li	s6,0
    80009a84:	00070463          	beqz	a4,80009a8c <_vfprintf_r+0x2168>
    80009a88:	b30fe06f          	j	80007db8 <_vfprintf_r+0x494>
    80009a8c:	8c8fe06f          	j	80007b54 <_vfprintf_r+0x230>
    80009a90:	000b0713          	mv	a4,s6
    80009a94:	00300693          	li	a3,3
    80009a98:	02813583          	ld	a1,40(sp)
    80009a9c:	00813503          	ld	a0,8(sp)
    80009aa0:	000e8613          	mv	a2,t4
    80009aa4:	0c810893          	add	a7,sp,200
    80009aa8:	0bc10813          	add	a6,sp,188
    80009aac:	0b810793          	add	a5,sp,184
    80009ab0:	04613023          	sd	t1,64(sp)
    80009ab4:	02e13c23          	sd	a4,56(sp)
    80009ab8:	03d13823          	sd	t4,48(sp)
    80009abc:	54c010ef          	jal	8000b008 <_ldtoa_r>
    80009ac0:	03013e83          	ld	t4,48(sp)
    80009ac4:	03813703          	ld	a4,56(sp)
    80009ac8:	04013303          	ld	t1,64(sp)
    80009acc:	00050d93          	mv	s11,a0
    80009ad0:	fdf37b93          	and	s7,t1,-33
    80009ad4:	04600693          	li	a3,70
    80009ad8:	00ed8cb3          	add	s9,s11,a4
    80009adc:	00db9c63          	bne	s7,a3,80009af4 <_vfprintf_r+0x21d0>
    80009ae0:	000dc603          	lbu	a2,0(s11)
    80009ae4:	03000693          	li	a3,48
    80009ae8:	3ed60063          	beq	a2,a3,80009ec8 <_vfprintf_r+0x25a4>
    80009aec:	0b812683          	lw	a3,184(sp)
    80009af0:	00dc8cb3          	add	s9,s9,a3
    80009af4:	02813503          	ld	a0,40(sp)
    80009af8:	00000613          	li	a2,0
    80009afc:	00000693          	li	a3,0
    80009b00:	000e8593          	mv	a1,t4
    80009b04:	02613823          	sd	t1,48(sp)
    80009b08:	220080ef          	jal	80011d28 <__eqtf2>
    80009b0c:	03013303          	ld	t1,48(sp)
    80009b10:	1c050e63          	beqz	a0,80009cec <_vfprintf_r+0x23c8>
    80009b14:	0c813783          	ld	a5,200(sp)
    80009b18:	0197fe63          	bgeu	a5,s9,80009b34 <_vfprintf_r+0x2210>
    80009b1c:	03000693          	li	a3,48
    80009b20:	00178713          	add	a4,a5,1
    80009b24:	0ce13423          	sd	a4,200(sp)
    80009b28:	00d78023          	sb	a3,0(a5)
    80009b2c:	0c813783          	ld	a5,200(sp)
    80009b30:	ff97e8e3          	bltu	a5,s9,80009b20 <_vfprintf_r+0x21fc>
    80009b34:	0b812703          	lw	a4,184(sp)
    80009b38:	02e13423          	sd	a4,40(sp)
    80009b3c:	41b787bb          	subw	a5,a5,s11
    80009b40:	04700713          	li	a4,71
    80009b44:	02f13823          	sd	a5,48(sp)
    80009b48:	eeeb8ce3          	beq	s7,a4,80009a40 <_vfprintf_r+0x211c>
    80009b4c:	04600713          	li	a4,70
    80009b50:	1aeb8663          	beq	s7,a4,80009cfc <_vfprintf_r+0x23d8>
    80009b54:	02813783          	ld	a5,40(sp)
    80009b58:	fff7871b          	addw	a4,a5,-1
    80009b5c:	0ae12c23          	sw	a4,184(sp)
    80009b60:	f01ff06f          	j	80009a60 <_vfprintf_r+0x213c>
    80009b64:	03013783          	ld	a5,48(sp)
    80009b68:	02813703          	ld	a4,40(sp)
    80009b6c:	1cf74663          	blt	a4,a5,80009d38 <_vfprintf_r+0x2414>
    80009b70:	02813783          	ld	a5,40(sp)
    80009b74:	001d7713          	and	a4,s10,1
    80009b78:	00078693          	mv	a3,a5
    80009b7c:	00070663          	beqz	a4,80009b88 <_vfprintf_r+0x2264>
    80009b80:	04813703          	ld	a4,72(sp)
    80009b84:	00f706bb          	addw	a3,a4,a5
    80009b88:	400d7e13          	and	t3,s10,1024
    80009b8c:	000e0663          	beqz	t3,80009b98 <_vfprintf_r+0x2274>
    80009b90:	02813783          	ld	a5,40(sp)
    80009b94:	36f04e63          	bgtz	a5,80009f10 <_vfprintf_r+0x25ec>
    80009b98:	fff6c813          	not	a6,a3
    80009b9c:	43f85813          	sra	a6,a6,0x3f
    80009ba0:	0106f833          	and	a6,a3,a6
    80009ba4:	00080b9b          	sext.w	s7,a6
    80009ba8:	000a0d13          	mv	s10,s4
    80009bac:	06700313          	li	t1,103
    80009bb0:	04013023          	sd	zero,64(sp)
    80009bb4:	02013c23          	sd	zero,56(sp)
    80009bb8:	ec4fe06f          	j	8000827c <_vfprintf_r+0x958>
    80009bbc:	00070d13          	mv	s10,a4
    80009bc0:	00013c23          	sd	zero,24(sp)
    80009bc4:	0f810d93          	add	s11,sp,248
    80009bc8:	fff00713          	li	a4,-1
    80009bcc:	03f71713          	sll	a4,a4,0x3f
    80009bd0:	02d00793          	li	a5,45
    80009bd4:	00eeceb3          	xor	t4,t4,a4
    80009bd8:	06f13023          	sd	a5,96(sp)
    80009bdc:	b38fe06f          	j	80007f14 <_vfprintf_r+0x5f0>
    80009be0:	0e010613          	add	a2,sp,224
    80009be4:	00048593          	mv	a1,s1
    80009be8:	000a8513          	mv	a0,s5
    80009bec:	5b8000ef          	jal	8000a1a4 <__sprint_r>
    80009bf0:	00050463          	beqz	a0,80009bf8 <_vfprintf_r+0x22d4>
    80009bf4:	ee1fe06f          	j	80008ad4 <_vfprintf_r+0x11b0>
    80009bf8:	000cc583          	lbu	a1,0(s9)
    80009bfc:	0f013603          	ld	a2,240(sp)
    80009c00:	00098793          	mv	a5,s3
    80009c04:	01000713          	li	a4,16
    80009c08:	00700693          	li	a3,7
    80009c0c:	00bd0d33          	add	s10,s10,a1
    80009c10:	b79ff06f          	j	80009788 <_vfprintf_r+0x1e64>
    80009c14:	02d00793          	li	a5,45
    80009c18:	0af107a3          	sb	a5,175(sp)
    80009c1c:	02d00713          	li	a4,45
    80009c20:	835ff06f          	j	80009454 <_vfprintf_r+0x1b30>
    80009c24:	000b0893          	mv	a7,s6
    80009c28:	00048b13          	mv	s6,s1
    80009c2c:	000a8493          	mv	s1,s5
    80009c30:	02813a83          	ld	s5,40(sp)
    80009c34:	fd0ff06f          	j	80009404 <_vfprintf_r+0x1ae0>
    80009c38:	fff00793          	li	a5,-1
    80009c3c:	00f13823          	sd	a5,16(sp)
    80009c40:	888fe06f          	j	80007cc8 <_vfprintf_r+0x3a4>
    80009c44:	0af14703          	lbu	a4,175(sp)
    80009c48:	03913023          	sd	s9,32(sp)
    80009c4c:	04013023          	sd	zero,64(sp)
    80009c50:	02013c23          	sd	zero,56(sp)
    80009c54:	02013423          	sd	zero,40(sp)
    80009c58:	000b0b93          	mv	s7,s6
    80009c5c:	000b0693          	mv	a3,s6
    80009c60:	00000b13          	li	s6,0
    80009c64:	00070463          	beqz	a4,80009c6c <_vfprintf_r+0x2348>
    80009c68:	950fe06f          	j	80007db8 <_vfprintf_r+0x494>
    80009c6c:	ee9fd06f          	j	80007b54 <_vfprintf_r+0x230>
    80009c70:	02813583          	ld	a1,40(sp)
    80009c74:	00813503          	ld	a0,8(sp)
    80009c78:	000b0713          	mv	a4,s6
    80009c7c:	000e8613          	mv	a2,t4
    80009c80:	0c810893          	add	a7,sp,200
    80009c84:	0bc10813          	add	a6,sp,188
    80009c88:	0b810793          	add	a5,sp,184
    80009c8c:	00200693          	li	a3,2
    80009c90:	02613c23          	sd	t1,56(sp)
    80009c94:	03d13823          	sd	t4,48(sp)
    80009c98:	370010ef          	jal	8000b008 <_ldtoa_r>
    80009c9c:	001d7713          	and	a4,s10,1
    80009ca0:	03013e83          	ld	t4,48(sp)
    80009ca4:	03813303          	ld	t1,56(sp)
    80009ca8:	00050d93          	mv	s11,a0
    80009cac:	d80700e3          	beqz	a4,80009a2c <_vfprintf_r+0x2108>
    80009cb0:	016d8cb3          	add	s9,s11,s6
    80009cb4:	04700b93          	li	s7,71
    80009cb8:	e3dff06f          	j	80009af4 <_vfprintf_r+0x21d0>
    80009cbc:	00813503          	ld	a0,8(sp)
    80009cc0:	0e010613          	add	a2,sp,224
    80009cc4:	00048593          	mv	a1,s1
    80009cc8:	4dc000ef          	jal	8000a1a4 <__sprint_r>
    80009ccc:	00050463          	beqz	a0,80009cd4 <_vfprintf_r+0x23b0>
    80009cd0:	e05fe06f          	j	80008ad4 <_vfprintf_r+0x11b0>
    80009cd4:	0b812683          	lw	a3,184(sp)
    80009cd8:	03013783          	ld	a5,48(sp)
    80009cdc:	0f013a03          	ld	s4,240(sp)
    80009ce0:	00098913          	mv	s2,s3
    80009ce4:	40d786bb          	subw	a3,a5,a3
    80009ce8:	930ff06f          	j	80008e18 <_vfprintf_r+0x14f4>
    80009cec:	0b812783          	lw	a5,184(sp)
    80009cf0:	02f13423          	sd	a5,40(sp)
    80009cf4:	000c8793          	mv	a5,s9
    80009cf8:	e45ff06f          	j	80009b3c <_vfprintf_r+0x2218>
    80009cfc:	02813783          	ld	a5,40(sp)
    80009d00:	001d7713          	and	a4,s10,1
    80009d04:	00eb6733          	or	a4,s6,a4
    80009d08:	34f05a63          	blez	a5,8000a05c <_vfprintf_r+0x2738>
    80009d0c:	2e071863          	bnez	a4,80009ffc <_vfprintf_r+0x26d8>
    80009d10:	02813683          	ld	a3,40(sp)
    80009d14:	06600313          	li	t1,102
    80009d18:	400d7e13          	and	t3,s10,1024
    80009d1c:	1e0e1c63          	bnez	t3,80009f14 <_vfprintf_r+0x25f0>
    80009d20:	fff6c813          	not	a6,a3
    80009d24:	43f85813          	sra	a6,a6,0x3f
    80009d28:	0106f833          	and	a6,a3,a6
    80009d2c:	00080b9b          	sext.w	s7,a6
    80009d30:	000a0d13          	mv	s10,s4
    80009d34:	e7dff06f          	j	80009bb0 <_vfprintf_r+0x228c>
    80009d38:	04813783          	ld	a5,72(sp)
    80009d3c:	03013703          	ld	a4,48(sp)
    80009d40:	06700313          	li	t1,103
    80009d44:	00e786bb          	addw	a3,a5,a4
    80009d48:	02813783          	ld	a5,40(sp)
    80009d4c:	fcf046e3          	bgtz	a5,80009d18 <_vfprintf_r+0x23f4>
    80009d50:	40f6873b          	subw	a4,a3,a5
    80009d54:	0017071b          	addw	a4,a4,1
    80009d58:	0007069b          	sext.w	a3,a4
    80009d5c:	fff6c613          	not	a2,a3
    80009d60:	43f65613          	sra	a2,a2,0x3f
    80009d64:	00c77733          	and	a4,a4,a2
    80009d68:	00070b9b          	sext.w	s7,a4
    80009d6c:	000a0d13          	mv	s10,s4
    80009d70:	e41ff06f          	j	80009bb0 <_vfprintf_r+0x228c>
    80009d74:	000d0b93          	mv	s7,s10
    80009d78:	d85fe06f          	j	80008afc <_vfprintf_r+0x11d8>
    80009d7c:	ff000713          	li	a4,-16
    80009d80:	40b00b3b          	negw	s6,a1
    80009d84:	00014897          	auipc	a7,0x14
    80009d88:	b6c88893          	add	a7,a7,-1172 # 8001d8f0 <zeroes.0>
    80009d8c:	06e5de63          	bge	a1,a4,80009e08 <_vfprintf_r+0x24e4>
    80009d90:	03513423          	sd	s5,40(sp)
    80009d94:	01000a13          	li	s4,16
    80009d98:	00700c93          	li	s9,7
    80009d9c:	00088a93          	mv	s5,a7
    80009da0:	00c0006f          	j	80009dac <_vfprintf_r+0x2488>
    80009da4:	ff0b0b1b          	addw	s6,s6,-16
    80009da8:	056a5c63          	bge	s4,s6,80009e00 <_vfprintf_r+0x24dc>
    80009dac:	0016869b          	addw	a3,a3,1
    80009db0:	01060613          	add	a2,a2,16
    80009db4:	01593023          	sd	s5,0(s2)
    80009db8:	01493423          	sd	s4,8(s2)
    80009dbc:	0ec13823          	sd	a2,240(sp)
    80009dc0:	0ed12423          	sw	a3,232(sp)
    80009dc4:	01090913          	add	s2,s2,16
    80009dc8:	fcdcdee3          	bge	s9,a3,80009da4 <_vfprintf_r+0x2480>
    80009dcc:	00813503          	ld	a0,8(sp)
    80009dd0:	0e010613          	add	a2,sp,224
    80009dd4:	00048593          	mv	a1,s1
    80009dd8:	3cc000ef          	jal	8000a1a4 <__sprint_r>
    80009ddc:	00050463          	beqz	a0,80009de4 <_vfprintf_r+0x24c0>
    80009de0:	cf5fe06f          	j	80008ad4 <_vfprintf_r+0x11b0>
    80009de4:	0f013603          	ld	a2,240(sp)
    80009de8:	0e812683          	lw	a3,232(sp)
    80009dec:	00098913          	mv	s2,s3
    80009df0:	fb5ff06f          	j	80009da4 <_vfprintf_r+0x2480>
    80009df4:	01813583          	ld	a1,24(sp)
    80009df8:	00090493          	mv	s1,s2
    80009dfc:	cddfe06f          	j	80008ad8 <_vfprintf_r+0x11b4>
    80009e00:	000a8893          	mv	a7,s5
    80009e04:	02813a83          	ld	s5,40(sp)
    80009e08:	0016869b          	addw	a3,a3,1
    80009e0c:	01660633          	add	a2,a2,s6
    80009e10:	01193023          	sd	a7,0(s2)
    80009e14:	01693423          	sd	s6,8(s2)
    80009e18:	0ec13823          	sd	a2,240(sp)
    80009e1c:	0ed12423          	sw	a3,232(sp)
    80009e20:	00700713          	li	a4,7
    80009e24:	d8d75263          	bge	a4,a3,800093a8 <_vfprintf_r+0x1a84>
    80009e28:	00813503          	ld	a0,8(sp)
    80009e2c:	0e010613          	add	a2,sp,224
    80009e30:	00048593          	mv	a1,s1
    80009e34:	370000ef          	jal	8000a1a4 <__sprint_r>
    80009e38:	00050463          	beqz	a0,80009e40 <_vfprintf_r+0x251c>
    80009e3c:	c99fe06f          	j	80008ad4 <_vfprintf_r+0x11b0>
    80009e40:	0f013603          	ld	a2,240(sp)
    80009e44:	0e812683          	lw	a3,232(sp)
    80009e48:	00098913          	mv	s2,s3
    80009e4c:	eccff06f          	j	80009518 <_vfprintf_r+0x1bf4>
    80009e50:	001b071b          	addw	a4,s6,1
    80009e54:	00200693          	li	a3,2
    80009e58:	c41ff06f          	j	80009a98 <_vfprintf_r+0x2174>
    80009e5c:	0c210693          	add	a3,sp,194
    80009e60:	00061863          	bnez	a2,80009e70 <_vfprintf_r+0x254c>
    80009e64:	03000693          	li	a3,48
    80009e68:	0cd10123          	sb	a3,194(sp)
    80009e6c:	0c310693          	add	a3,sp,195
    80009e70:	1e010793          	add	a5,sp,480
    80009e74:	40f68633          	sub	a2,a3,a5
    80009e78:	0307071b          	addw	a4,a4,48
    80009e7c:	1216079b          	addw	a5,a2,289
    80009e80:	00e68023          	sb	a4,0(a3)
    80009e84:	06f13423          	sd	a5,104(sp)
    80009e88:	ba8fe06f          	j	80008230 <_vfprintf_r+0x90c>
    80009e8c:	00013c23          	sd	zero,24(sp)
    80009e90:	00600b13          	li	s6,6
    80009e94:	860fe06f          	j	80007ef4 <_vfprintf_r+0x5d0>
    80009e98:	00f72023          	sw	a5,0(a4)
    80009e9c:	875fe06f          	j	80008710 <_vfprintf_r+0xdec>
    80009ea0:	000b0463          	beqz	s6,80009ea8 <_vfprintf_r+0x2584>
    80009ea4:	850fe06f          	j	80007ef4 <_vfprintf_r+0x5d0>
    80009ea8:	00100b13          	li	s6,1
    80009eac:	848fe06f          	j	80007ef4 <_vfprintf_r+0x5d0>
    80009eb0:	001d7613          	and	a2,s10,1
    80009eb4:	00061463          	bnez	a2,80009ebc <_vfprintf_r+0x2598>
    80009eb8:	b9cfe06f          	j	80008254 <_vfprintf_r+0x930>
    80009ebc:	b90fe06f          	j	8000824c <_vfprintf_r+0x928>
    80009ec0:	02e13023          	sd	a4,32(sp)
    80009ec4:	c39fe06f          	j	80008afc <_vfprintf_r+0x11d8>
    80009ec8:	02813503          	ld	a0,40(sp)
    80009ecc:	000e8593          	mv	a1,t4
    80009ed0:	00000613          	li	a2,0
    80009ed4:	00000693          	li	a3,0
    80009ed8:	04613023          	sd	t1,64(sp)
    80009edc:	02e13c23          	sd	a4,56(sp)
    80009ee0:	03d13823          	sd	t4,48(sp)
    80009ee4:	645070ef          	jal	80011d28 <__eqtf2>
    80009ee8:	03013e83          	ld	t4,48(sp)
    80009eec:	03813703          	ld	a4,56(sp)
    80009ef0:	04013303          	ld	t1,64(sp)
    80009ef4:	10051e63          	bnez	a0,8000a010 <_vfprintf_r+0x26ec>
    80009ef8:	0b812783          	lw	a5,184(sp)
    80009efc:	00fc8833          	add	a6,s9,a5
    80009f00:	02f13423          	sd	a5,40(sp)
    80009f04:	41b807bb          	subw	a5,a6,s11
    80009f08:	02f13823          	sd	a5,48(sp)
    80009f0c:	c41ff06f          	j	80009b4c <_vfprintf_r+0x2228>
    80009f10:	06700313          	li	t1,103
    80009f14:	07813783          	ld	a5,120(sp)
    80009f18:	0ff00613          	li	a2,255
    80009f1c:	0007c703          	lbu	a4,0(a5)
    80009f20:	18c70863          	beq	a4,a2,8000a0b0 <_vfprintf_r+0x278c>
    80009f24:	00078613          	mv	a2,a5
    80009f28:	02813783          	ld	a5,40(sp)
    80009f2c:	00000893          	li	a7,0
    80009f30:	00000813          	li	a6,0
    80009f34:	0ff00593          	li	a1,255
    80009f38:	0007051b          	sext.w	a0,a4
    80009f3c:	00f75e63          	bge	a4,a5,80009f58 <_vfprintf_r+0x2634>
    80009f40:	00164703          	lbu	a4,1(a2)
    80009f44:	40a787bb          	subw	a5,a5,a0
    80009f48:	04070a63          	beqz	a4,80009f9c <_vfprintf_r+0x2678>
    80009f4c:	0018081b          	addw	a6,a6,1
    80009f50:	00160613          	add	a2,a2,1
    80009f54:	feb712e3          	bne	a4,a1,80009f38 <_vfprintf_r+0x2614>
    80009f58:	06c13c23          	sd	a2,120(sp)
    80009f5c:	03013c23          	sd	a6,56(sp)
    80009f60:	05113023          	sd	a7,64(sp)
    80009f64:	02f13423          	sd	a5,40(sp)
    80009f68:	04013783          	ld	a5,64(sp)
    80009f6c:	03813703          	ld	a4,56(sp)
    80009f70:	000a0d13          	mv	s10,s4
    80009f74:	00e7873b          	addw	a4,a5,a4
    80009f78:	08013783          	ld	a5,128(sp)
    80009f7c:	02f7073b          	mulw	a4,a4,a5
    80009f80:	00d7073b          	addw	a4,a4,a3
    80009f84:	0007069b          	sext.w	a3,a4
    80009f88:	fff6c613          	not	a2,a3
    80009f8c:	43f65613          	sra	a2,a2,0x3f
    80009f90:	00c77733          	and	a4,a4,a2
    80009f94:	00070b9b          	sext.w	s7,a4
    80009f98:	ae4fe06f          	j	8000827c <_vfprintf_r+0x958>
    80009f9c:	00064703          	lbu	a4,0(a2)
    80009fa0:	0018889b          	addw	a7,a7,1
    80009fa4:	fb1ff06f          	j	80009f54 <_vfprintf_r+0x2630>
    80009fa8:	09013683          	ld	a3,144(sp)
    80009fac:	000b8493          	mv	s1,s7
    80009fb0:	00090b93          	mv	s7,s2
    80009fb4:	00dd86bb          	addw	a3,s11,a3
    80009fb8:	417686bb          	subw	a3,a3,s7
    80009fbc:	02069613          	sll	a2,a3,0x20
    80009fc0:	04013a83          	ld	s5,64(sp)
    80009fc4:	06813303          	ld	t1,104(sp)
    80009fc8:	08813903          	ld	s2,136(sp)
    80009fcc:	00065463          	bgez	a2,80009fd4 <_vfprintf_r+0x26b0>
    80009fd0:	98cfe06f          	j	8000815c <_vfprintf_r+0x838>
    80009fd4:	0016869b          	addw	a3,a3,1
    80009fd8:	00db86b3          	add	a3,s7,a3
    80009fdc:	03000613          	li	a2,48
    80009fe0:	001b8b93          	add	s7,s7,1
    80009fe4:	fecb8fa3          	sb	a2,-1(s7)
    80009fe8:	ff769ce3          	bne	a3,s7,80009fe0 <_vfprintf_r+0x26bc>
    80009fec:	974fe06f          	j	80008160 <_vfprintf_r+0x83c>
    80009ff0:	01813583          	ld	a1,24(sp)
    80009ff4:	000a8493          	mv	s1,s5
    80009ff8:	ae1fe06f          	j	80008ad8 <_vfprintf_r+0x11b4>
    80009ffc:	04813703          	ld	a4,72(sp)
    8000a000:	06600313          	li	t1,102
    8000a004:	016706bb          	addw	a3,a4,s6
    8000a008:	00f686bb          	addw	a3,a3,a5
    8000a00c:	d0dff06f          	j	80009d18 <_vfprintf_r+0x23f4>
    8000a010:	00100693          	li	a3,1
    8000a014:	40e686bb          	subw	a3,a3,a4
    8000a018:	0ad12c23          	sw	a3,184(sp)
    8000a01c:	ad5ff06f          	j	80009af0 <_vfprintf_r+0x21cc>
    8000a020:	07000693          	li	a3,112
    8000a024:	970fe06f          	j	80008194 <_vfprintf_r+0x870>
    8000a028:	00200793          	li	a5,2
    8000a02c:	06f13423          	sd	a5,104(sp)
    8000a030:	a00fe06f          	j	80008230 <_vfprintf_r+0x90c>
    8000a034:	02013683          	ld	a3,32(sp)
    8000a038:	0006a783          	lw	a5,0(a3)
    8000a03c:	00868693          	add	a3,a3,8
    8000a040:	00078b1b          	sext.w	s6,a5
    8000a044:	0007d463          	bgez	a5,8000a04c <_vfprintf_r+0x2728>
    8000a048:	fff00b13          	li	s6,-1
    8000a04c:	001ac303          	lbu	t1,1(s5)
    8000a050:	02d13023          	sd	a3,32(sp)
    8000a054:	00070a93          	mv	s5,a4
    8000a058:	a61fd06f          	j	80007ab8 <_vfprintf_r+0x194>
    8000a05c:	00071c63          	bnez	a4,8000a074 <_vfprintf_r+0x2750>
    8000a060:	000a0d13          	mv	s10,s4
    8000a064:	00100b93          	li	s7,1
    8000a068:	06600313          	li	t1,102
    8000a06c:	00100693          	li	a3,1
    8000a070:	b41ff06f          	j	80009bb0 <_vfprintf_r+0x228c>
    8000a074:	04813783          	ld	a5,72(sp)
    8000a078:	000a0d13          	mv	s10,s4
    8000a07c:	06600313          	li	t1,102
    8000a080:	0017871b          	addw	a4,a5,1
    8000a084:	0167073b          	addw	a4,a4,s6
    8000a088:	0007069b          	sext.w	a3,a4
    8000a08c:	fff6c613          	not	a2,a3
    8000a090:	43f65613          	sra	a2,a2,0x3f
    8000a094:	00c77733          	and	a4,a4,a2
    8000a098:	00070b9b          	sext.w	s7,a4
    8000a09c:	b15ff06f          	j	80009bb0 <_vfprintf_r+0x228c>
    8000a0a0:	0104d783          	lhu	a5,16(s1)
    8000a0a4:	0407e793          	or	a5,a5,64
    8000a0a8:	00f49823          	sh	a5,16(s1)
    8000a0ac:	be9fd06f          	j	80007c94 <_vfprintf_r+0x370>
    8000a0b0:	04013023          	sd	zero,64(sp)
    8000a0b4:	02013c23          	sd	zero,56(sp)
    8000a0b8:	eb1ff06f          	j	80009f68 <_vfprintf_r+0x2644>
    8000a0bc:	000b0713          	mv	a4,s6
    8000a0c0:	a11ff06f          	j	80009ad0 <_vfprintf_r+0x21ac>

000000008000a0c4 <vfprintf>:
    8000a0c4:	00060693          	mv	a3,a2
    8000a0c8:	00058613          	mv	a2,a1
    8000a0cc:	00050593          	mv	a1,a0
    8000a0d0:	8101b503          	ld	a0,-2032(gp) # 8001e908 <_impure_ptr>
    8000a0d4:	851fd06f          	j	80007924 <_vfprintf_r>

000000008000a0d8 <__sbprintf>:
    8000a0d8:	b3010113          	add	sp,sp,-1232
    8000a0dc:	0125d703          	lhu	a4,18(a1)
    8000a0e0:	0105d783          	lhu	a5,16(a1)
    8000a0e4:	4c813023          	sd	s0,1216(sp)
    8000a0e8:	00058413          	mv	s0,a1
    8000a0ec:	000105b7          	lui	a1,0x10
    8000a0f0:	ffd5859b          	addw	a1,a1,-3 # fffd <__stack_shift+0xffe6>
    8000a0f4:	0ac42e03          	lw	t3,172(s0)
    8000a0f8:	03043303          	ld	t1,48(s0)
    8000a0fc:	04043883          	ld	a7,64(s0)
    8000a100:	0107171b          	sllw	a4,a4,0x10
    8000a104:	00b7f7b3          	and	a5,a5,a1
    8000a108:	00e7e7b3          	or	a5,a5,a4
    8000a10c:	40000813          	li	a6,1024
    8000a110:	00f12823          	sw	a5,16(sp)
    8000a114:	00010593          	mv	a1,sp
    8000a118:	0b010793          	add	a5,sp,176
    8000a11c:	4a913c23          	sd	s1,1208(sp)
    8000a120:	4b213823          	sd	s2,1200(sp)
    8000a124:	4c113423          	sd	ra,1224(sp)
    8000a128:	00050913          	mv	s2,a0
    8000a12c:	0bc12623          	sw	t3,172(sp)
    8000a130:	02613823          	sd	t1,48(sp)
    8000a134:	05113023          	sd	a7,64(sp)
    8000a138:	00f13023          	sd	a5,0(sp)
    8000a13c:	00f13c23          	sd	a5,24(sp)
    8000a140:	01012623          	sw	a6,12(sp)
    8000a144:	03012023          	sw	a6,32(sp)
    8000a148:	02012423          	sw	zero,40(sp)
    8000a14c:	fd8fd0ef          	jal	80007924 <_vfprintf_r>
    8000a150:	00050493          	mv	s1,a0
    8000a154:	02055c63          	bgez	a0,8000a18c <__sbprintf+0xb4>
    8000a158:	01015783          	lhu	a5,16(sp)
    8000a15c:	0407f793          	and	a5,a5,64
    8000a160:	00078863          	beqz	a5,8000a170 <__sbprintf+0x98>
    8000a164:	01045783          	lhu	a5,16(s0)
    8000a168:	0407e793          	or	a5,a5,64
    8000a16c:	00f41823          	sh	a5,16(s0)
    8000a170:	4c813083          	ld	ra,1224(sp)
    8000a174:	4c013403          	ld	s0,1216(sp)
    8000a178:	4b013903          	ld	s2,1200(sp)
    8000a17c:	00048513          	mv	a0,s1
    8000a180:	4b813483          	ld	s1,1208(sp)
    8000a184:	4d010113          	add	sp,sp,1232
    8000a188:	00008067          	ret
    8000a18c:	00010593          	mv	a1,sp
    8000a190:	00090513          	mv	a0,s2
    8000a194:	eadfa0ef          	jal	80005040 <_fflush_r>
    8000a198:	fc0500e3          	beqz	a0,8000a158 <__sbprintf+0x80>
    8000a19c:	fff00493          	li	s1,-1
    8000a1a0:	fb9ff06f          	j	8000a158 <__sbprintf+0x80>

000000008000a1a4 <__sprint_r>:
    8000a1a4:	01063783          	ld	a5,16(a2)
    8000a1a8:	ff010113          	add	sp,sp,-16
    8000a1ac:	00813023          	sd	s0,0(sp)
    8000a1b0:	00113423          	sd	ra,8(sp)
    8000a1b4:	00060413          	mv	s0,a2
    8000a1b8:	00079e63          	bnez	a5,8000a1d4 <__sprint_r+0x30>
    8000a1bc:	00813083          	ld	ra,8(sp)
    8000a1c0:	00042423          	sw	zero,8(s0)
    8000a1c4:	00013403          	ld	s0,0(sp)
    8000a1c8:	00000513          	li	a0,0
    8000a1cc:	01010113          	add	sp,sp,16
    8000a1d0:	00008067          	ret
    8000a1d4:	0c8000ef          	jal	8000a29c <__sfvwrite_r>
    8000a1d8:	00813083          	ld	ra,8(sp)
    8000a1dc:	00043823          	sd	zero,16(s0)
    8000a1e0:	00042423          	sw	zero,8(s0)
    8000a1e4:	00013403          	ld	s0,0(sp)
    8000a1e8:	01010113          	add	sp,sp,16
    8000a1ec:	00008067          	ret

000000008000a1f0 <__sflags>:
    8000a1f0:	0005c783          	lbu	a5,0(a1)
    8000a1f4:	07200713          	li	a4,114
    8000a1f8:	08e78263          	beq	a5,a4,8000a27c <__sflags+0x8c>
    8000a1fc:	07700713          	li	a4,119
    8000a200:	00e78e63          	beq	a5,a4,8000a21c <__sflags+0x2c>
    8000a204:	06100713          	li	a4,97
    8000a208:	08e78263          	beq	a5,a4,8000a28c <__sflags+0x9c>
    8000a20c:	01600793          	li	a5,22
    8000a210:	00f52023          	sw	a5,0(a0)
    8000a214:	00000513          	li	a0,0
    8000a218:	00008067          	ret
    8000a21c:	60000313          	li	t1,1536
    8000a220:	00100713          	li	a4,1
    8000a224:	00800513          	li	a0,8
    8000a228:	0015c783          	lbu	a5,1(a1)
    8000a22c:	000018b7          	lui	a7,0x1
    8000a230:	00158593          	add	a1,a1,1
    8000a234:	02b00693          	li	a3,43
    8000a238:	07800813          	li	a6,120
    8000a23c:	80088893          	add	a7,a7,-2048 # 800 <__stack_shift+0x7e9>
    8000a240:	00078e63          	beqz	a5,8000a25c <__sflags+0x6c>
    8000a244:	02d78263          	beq	a5,a3,8000a268 <__sflags+0x78>
    8000a248:	01079463          	bne	a5,a6,8000a250 <__sflags+0x60>
    8000a24c:	01176733          	or	a4,a4,a7
    8000a250:	0015c783          	lbu	a5,1(a1)
    8000a254:	00158593          	add	a1,a1,1
    8000a258:	fe0796e3          	bnez	a5,8000a244 <__sflags+0x54>
    8000a25c:	00e367b3          	or	a5,t1,a4
    8000a260:	00f62023          	sw	a5,0(a2)
    8000a264:	00008067          	ret
    8000a268:	fe357513          	and	a0,a0,-29
    8000a26c:	ffc77713          	and	a4,a4,-4
    8000a270:	01056513          	or	a0,a0,16
    8000a274:	00276713          	or	a4,a4,2
    8000a278:	fd9ff06f          	j	8000a250 <__sflags+0x60>
    8000a27c:	00000313          	li	t1,0
    8000a280:	00000713          	li	a4,0
    8000a284:	00400513          	li	a0,4
    8000a288:	fa1ff06f          	j	8000a228 <__sflags+0x38>
    8000a28c:	20800313          	li	t1,520
    8000a290:	00100713          	li	a4,1
    8000a294:	10800513          	li	a0,264
    8000a298:	f91ff06f          	j	8000a228 <__sflags+0x38>

000000008000a29c <__sfvwrite_r>:
    8000a29c:	01063783          	ld	a5,16(a2)
    8000a2a0:	2c078063          	beqz	a5,8000a560 <__sfvwrite_r+0x2c4>
    8000a2a4:	01059703          	lh	a4,16(a1)
    8000a2a8:	fa010113          	add	sp,sp,-96
    8000a2ac:	04813823          	sd	s0,80(sp)
    8000a2b0:	03513423          	sd	s5,40(sp)
    8000a2b4:	01713c23          	sd	s7,24(sp)
    8000a2b8:	04113c23          	sd	ra,88(sp)
    8000a2bc:	00877793          	and	a5,a4,8
    8000a2c0:	00060b93          	mv	s7,a2
    8000a2c4:	00050a93          	mv	s5,a0
    8000a2c8:	00058413          	mv	s0,a1
    8000a2cc:	0a078063          	beqz	a5,8000a36c <__sfvwrite_r+0xd0>
    8000a2d0:	0185b783          	ld	a5,24(a1)
    8000a2d4:	08078c63          	beqz	a5,8000a36c <__sfvwrite_r+0xd0>
    8000a2d8:	04913423          	sd	s1,72(sp)
    8000a2dc:	05213023          	sd	s2,64(sp)
    8000a2e0:	03313c23          	sd	s3,56(sp)
    8000a2e4:	03413823          	sd	s4,48(sp)
    8000a2e8:	00277793          	and	a5,a4,2
    8000a2ec:	000bb483          	ld	s1,0(s7)
    8000a2f0:	0a078663          	beqz	a5,8000a39c <__sfvwrite_r+0x100>
    8000a2f4:	04043783          	ld	a5,64(s0)
    8000a2f8:	03043583          	ld	a1,48(s0)
    8000a2fc:	80000a37          	lui	s4,0x80000
    8000a300:	00000993          	li	s3,0
    8000a304:	00000913          	li	s2,0
    8000a308:	c00a4a13          	xor	s4,s4,-1024
    8000a30c:	00098613          	mv	a2,s3
    8000a310:	000a8513          	mv	a0,s5
    8000a314:	04090463          	beqz	s2,8000a35c <__sfvwrite_r+0xc0>
    8000a318:	00090693          	mv	a3,s2
    8000a31c:	012a7463          	bgeu	s4,s2,8000a324 <__sfvwrite_r+0x88>
    8000a320:	000a0693          	mv	a3,s4
    8000a324:	0006869b          	sext.w	a3,a3
    8000a328:	000780e7          	jalr	a5
    8000a32c:	44a05a63          	blez	a0,8000a780 <__sfvwrite_r+0x4e4>
    8000a330:	010bb783          	ld	a5,16(s7)
    8000a334:	00a989b3          	add	s3,s3,a0
    8000a338:	40a90933          	sub	s2,s2,a0
    8000a33c:	40a787b3          	sub	a5,a5,a0
    8000a340:	00fbb823          	sd	a5,16(s7)
    8000a344:	18078e63          	beqz	a5,8000a4e0 <__sfvwrite_r+0x244>
    8000a348:	04043783          	ld	a5,64(s0)
    8000a34c:	03043583          	ld	a1,48(s0)
    8000a350:	00098613          	mv	a2,s3
    8000a354:	000a8513          	mv	a0,s5
    8000a358:	fc0910e3          	bnez	s2,8000a318 <__sfvwrite_r+0x7c>
    8000a35c:	0004b983          	ld	s3,0(s1)
    8000a360:	0084b903          	ld	s2,8(s1)
    8000a364:	01048493          	add	s1,s1,16
    8000a368:	fa5ff06f          	j	8000a30c <__sfvwrite_r+0x70>
    8000a36c:	00040593          	mv	a1,s0
    8000a370:	000a8513          	mv	a0,s5
    8000a374:	6a0000ef          	jal	8000aa14 <__swsetup_r>
    8000a378:	1c051663          	bnez	a0,8000a544 <__sfvwrite_r+0x2a8>
    8000a37c:	01041703          	lh	a4,16(s0)
    8000a380:	04913423          	sd	s1,72(sp)
    8000a384:	05213023          	sd	s2,64(sp)
    8000a388:	03313c23          	sd	s3,56(sp)
    8000a38c:	03413823          	sd	s4,48(sp)
    8000a390:	00277793          	and	a5,a4,2
    8000a394:	000bb483          	ld	s1,0(s7)
    8000a398:	f4079ee3          	bnez	a5,8000a2f4 <__sfvwrite_r+0x58>
    8000a39c:	03613023          	sd	s6,32(sp)
    8000a3a0:	01813823          	sd	s8,16(sp)
    8000a3a4:	01913423          	sd	s9,8(sp)
    8000a3a8:	00177793          	and	a5,a4,1
    8000a3ac:	08079e63          	bnez	a5,8000a448 <__sfvwrite_r+0x1ac>
    8000a3b0:	00c42a03          	lw	s4,12(s0)
    8000a3b4:	00043783          	ld	a5,0(s0)
    8000a3b8:	80000b37          	lui	s6,0x80000
    8000a3bc:	00000c13          	li	s8,0
    8000a3c0:	00000913          	li	s2,0
    8000a3c4:	fffb4b13          	not	s6,s6
    8000a3c8:	00078513          	mv	a0,a5
    8000a3cc:	06090663          	beqz	s2,8000a438 <__sfvwrite_r+0x19c>
    8000a3d0:	20077693          	and	a3,a4,512
    8000a3d4:	1e068e63          	beqz	a3,8000a5d0 <__sfvwrite_r+0x334>
    8000a3d8:	29497863          	bgeu	s2,s4,8000a668 <__sfvwrite_r+0x3cc>
    8000a3dc:	00090c93          	mv	s9,s2
    8000a3e0:	00090a13          	mv	s4,s2
    8000a3e4:	000a0613          	mv	a2,s4
    8000a3e8:	000c0593          	mv	a1,s8
    8000a3ec:	1e9000ef          	jal	8000add4 <memmove>
    8000a3f0:	00c42703          	lw	a4,12(s0)
    8000a3f4:	00043783          	ld	a5,0(s0)
    8000a3f8:	00090993          	mv	s3,s2
    8000a3fc:	4197073b          	subw	a4,a4,s9
    8000a400:	01478a33          	add	s4,a5,s4
    8000a404:	00e42623          	sw	a4,12(s0)
    8000a408:	01443023          	sd	s4,0(s0)
    8000a40c:	00000913          	li	s2,0
    8000a410:	010bb783          	ld	a5,16(s7)
    8000a414:	013c0c33          	add	s8,s8,s3
    8000a418:	413787b3          	sub	a5,a5,s3
    8000a41c:	00fbb823          	sd	a5,16(s7)
    8000a420:	0a078a63          	beqz	a5,8000a4d4 <__sfvwrite_r+0x238>
    8000a424:	00043783          	ld	a5,0(s0)
    8000a428:	01041703          	lh	a4,16(s0)
    8000a42c:	00c42a03          	lw	s4,12(s0)
    8000a430:	00078513          	mv	a0,a5
    8000a434:	f8091ee3          	bnez	s2,8000a3d0 <__sfvwrite_r+0x134>
    8000a438:	0004bc03          	ld	s8,0(s1)
    8000a43c:	0084b903          	ld	s2,8(s1)
    8000a440:	01048493          	add	s1,s1,16
    8000a444:	f85ff06f          	j	8000a3c8 <__sfvwrite_r+0x12c>
    8000a448:	00000b13          	li	s6,0
    8000a44c:	00000513          	li	a0,0
    8000a450:	00000c93          	li	s9,0
    8000a454:	00000c13          	li	s8,0
    8000a458:	100c0863          	beqz	s8,8000a568 <__sfvwrite_r+0x2cc>
    8000a45c:	12050063          	beqz	a0,8000a57c <__sfvwrite_r+0x2e0>
    8000a460:	000b0a13          	mv	s4,s6
    8000a464:	016c7463          	bgeu	s8,s6,8000a46c <__sfvwrite_r+0x1d0>
    8000a468:	000c0a13          	mv	s4,s8
    8000a46c:	00043503          	ld	a0,0(s0)
    8000a470:	01843703          	ld	a4,24(s0)
    8000a474:	00c42783          	lw	a5,12(s0)
    8000a478:	02042683          	lw	a3,32(s0)
    8000a47c:	000a0913          	mv	s2,s4
    8000a480:	00a77663          	bgeu	a4,a0,8000a48c <__sfvwrite_r+0x1f0>
    8000a484:	00d789bb          	addw	s3,a5,a3
    8000a488:	1149ca63          	blt	s3,s4,8000a59c <__sfvwrite_r+0x300>
    8000a48c:	26da4c63          	blt	s4,a3,8000a704 <__sfvwrite_r+0x468>
    8000a490:	04043783          	ld	a5,64(s0)
    8000a494:	03043583          	ld	a1,48(s0)
    8000a498:	000c8613          	mv	a2,s9
    8000a49c:	000a8513          	mv	a0,s5
    8000a4a0:	000780e7          	jalr	a5
    8000a4a4:	00050913          	mv	s2,a0
    8000a4a8:	06a05a63          	blez	a0,8000a51c <__sfvwrite_r+0x280>
    8000a4ac:	0005079b          	sext.w	a5,a0
    8000a4b0:	40fb0b3b          	subw	s6,s6,a5
    8000a4b4:	00100513          	li	a0,1
    8000a4b8:	040b0a63          	beqz	s6,8000a50c <__sfvwrite_r+0x270>
    8000a4bc:	010bb783          	ld	a5,16(s7)
    8000a4c0:	012c8cb3          	add	s9,s9,s2
    8000a4c4:	412c0c33          	sub	s8,s8,s2
    8000a4c8:	412787b3          	sub	a5,a5,s2
    8000a4cc:	00fbb823          	sd	a5,16(s7)
    8000a4d0:	f80794e3          	bnez	a5,8000a458 <__sfvwrite_r+0x1bc>
    8000a4d4:	02013b03          	ld	s6,32(sp)
    8000a4d8:	01013c03          	ld	s8,16(sp)
    8000a4dc:	00813c83          	ld	s9,8(sp)
    8000a4e0:	05813083          	ld	ra,88(sp)
    8000a4e4:	05013403          	ld	s0,80(sp)
    8000a4e8:	04813483          	ld	s1,72(sp)
    8000a4ec:	04013903          	ld	s2,64(sp)
    8000a4f0:	03813983          	ld	s3,56(sp)
    8000a4f4:	03013a03          	ld	s4,48(sp)
    8000a4f8:	02813a83          	ld	s5,40(sp)
    8000a4fc:	01813b83          	ld	s7,24(sp)
    8000a500:	00000513          	li	a0,0
    8000a504:	06010113          	add	sp,sp,96
    8000a508:	00008067          	ret
    8000a50c:	00040593          	mv	a1,s0
    8000a510:	000a8513          	mv	a0,s5
    8000a514:	b2dfa0ef          	jal	80005040 <_fflush_r>
    8000a518:	fa0502e3          	beqz	a0,8000a4bc <__sfvwrite_r+0x220>
    8000a51c:	01041783          	lh	a5,16(s0)
    8000a520:	02013b03          	ld	s6,32(sp)
    8000a524:	01013c03          	ld	s8,16(sp)
    8000a528:	00813c83          	ld	s9,8(sp)
    8000a52c:	04813483          	ld	s1,72(sp)
    8000a530:	04013903          	ld	s2,64(sp)
    8000a534:	03813983          	ld	s3,56(sp)
    8000a538:	03013a03          	ld	s4,48(sp)
    8000a53c:	0407e793          	or	a5,a5,64
    8000a540:	00f41823          	sh	a5,16(s0)
    8000a544:	05813083          	ld	ra,88(sp)
    8000a548:	05013403          	ld	s0,80(sp)
    8000a54c:	02813a83          	ld	s5,40(sp)
    8000a550:	01813b83          	ld	s7,24(sp)
    8000a554:	fff00513          	li	a0,-1
    8000a558:	06010113          	add	sp,sp,96
    8000a55c:	00008067          	ret
    8000a560:	00000513          	li	a0,0
    8000a564:	00008067          	ret
    8000a568:	0084bc03          	ld	s8,8(s1)
    8000a56c:	00048793          	mv	a5,s1
    8000a570:	01048493          	add	s1,s1,16
    8000a574:	fe0c0ae3          	beqz	s8,8000a568 <__sfvwrite_r+0x2cc>
    8000a578:	0007bc83          	ld	s9,0(a5)
    8000a57c:	000c0613          	mv	a2,s8
    8000a580:	00a00593          	li	a1,10
    8000a584:	000c8513          	mv	a0,s9
    8000a588:	5cc000ef          	jal	8000ab54 <memchr>
    8000a58c:	1e050663          	beqz	a0,8000a778 <__sfvwrite_r+0x4dc>
    8000a590:	00150513          	add	a0,a0,1
    8000a594:	41950b3b          	subw	s6,a0,s9
    8000a598:	ec9ff06f          	j	8000a460 <__sfvwrite_r+0x1c4>
    8000a59c:	000c8593          	mv	a1,s9
    8000a5a0:	00098613          	mv	a2,s3
    8000a5a4:	031000ef          	jal	8000add4 <memmove>
    8000a5a8:	00043783          	ld	a5,0(s0)
    8000a5ac:	00040593          	mv	a1,s0
    8000a5b0:	000a8513          	mv	a0,s5
    8000a5b4:	013787b3          	add	a5,a5,s3
    8000a5b8:	00f43023          	sd	a5,0(s0)
    8000a5bc:	a85fa0ef          	jal	80005040 <_fflush_r>
    8000a5c0:	f4051ee3          	bnez	a0,8000a51c <__sfvwrite_r+0x280>
    8000a5c4:	00098793          	mv	a5,s3
    8000a5c8:	00098913          	mv	s2,s3
    8000a5cc:	ee5ff06f          	j	8000a4b0 <__sfvwrite_r+0x214>
    8000a5d0:	01843703          	ld	a4,24(s0)
    8000a5d4:	04f76263          	bltu	a4,a5,8000a618 <__sfvwrite_r+0x37c>
    8000a5d8:	02042703          	lw	a4,32(s0)
    8000a5dc:	02e96e63          	bltu	s2,a4,8000a618 <__sfvwrite_r+0x37c>
    8000a5e0:	00090693          	mv	a3,s2
    8000a5e4:	012b7463          	bgeu	s6,s2,8000a5ec <__sfvwrite_r+0x350>
    8000a5e8:	000b0693          	mv	a3,s6
    8000a5ec:	02e6e73b          	remw	a4,a3,a4
    8000a5f0:	04043783          	ld	a5,64(s0)
    8000a5f4:	03043583          	ld	a1,48(s0)
    8000a5f8:	000c0613          	mv	a2,s8
    8000a5fc:	000a8513          	mv	a0,s5
    8000a600:	40e686bb          	subw	a3,a3,a4
    8000a604:	000780e7          	jalr	a5
    8000a608:	00050993          	mv	s3,a0
    8000a60c:	f0a058e3          	blez	a0,8000a51c <__sfvwrite_r+0x280>
    8000a610:	41390933          	sub	s2,s2,s3
    8000a614:	dfdff06f          	j	8000a410 <__sfvwrite_r+0x174>
    8000a618:	000a0993          	mv	s3,s4
    8000a61c:	01497463          	bgeu	s2,s4,8000a624 <__sfvwrite_r+0x388>
    8000a620:	00090993          	mv	s3,s2
    8000a624:	00078513          	mv	a0,a5
    8000a628:	00098613          	mv	a2,s3
    8000a62c:	000c0593          	mv	a1,s8
    8000a630:	7a4000ef          	jal	8000add4 <memmove>
    8000a634:	00c42703          	lw	a4,12(s0)
    8000a638:	00043783          	ld	a5,0(s0)
    8000a63c:	413706bb          	subw	a3,a4,s3
    8000a640:	013787b3          	add	a5,a5,s3
    8000a644:	00d42623          	sw	a3,12(s0)
    8000a648:	00f43023          	sd	a5,0(s0)
    8000a64c:	fc0692e3          	bnez	a3,8000a610 <__sfvwrite_r+0x374>
    8000a650:	00040593          	mv	a1,s0
    8000a654:	000a8513          	mv	a0,s5
    8000a658:	9e9fa0ef          	jal	80005040 <_fflush_r>
    8000a65c:	ec0510e3          	bnez	a0,8000a51c <__sfvwrite_r+0x280>
    8000a660:	41390933          	sub	s2,s2,s3
    8000a664:	dadff06f          	j	8000a410 <__sfvwrite_r+0x174>
    8000a668:	48077693          	and	a3,a4,1152
    8000a66c:	0c068263          	beqz	a3,8000a730 <__sfvwrite_r+0x494>
    8000a670:	02042603          	lw	a2,32(s0)
    8000a674:	01843583          	ld	a1,24(s0)
    8000a678:	0016169b          	sllw	a3,a2,0x1
    8000a67c:	00c686bb          	addw	a3,a3,a2
    8000a680:	40b787b3          	sub	a5,a5,a1
    8000a684:	01f6d99b          	srlw	s3,a3,0x1f
    8000a688:	00078c9b          	sext.w	s9,a5
    8000a68c:	00d989bb          	addw	s3,s3,a3
    8000a690:	001c8693          	add	a3,s9,1
    8000a694:	4019d99b          	sraw	s3,s3,0x1
    8000a698:	012686b3          	add	a3,a3,s2
    8000a69c:	00d9f663          	bgeu	s3,a3,8000a6a8 <__sfvwrite_r+0x40c>
    8000a6a0:	0017869b          	addw	a3,a5,1
    8000a6a4:	012689bb          	addw	s3,a3,s2
    8000a6a8:	40077713          	and	a4,a4,1024
    8000a6ac:	08070663          	beqz	a4,8000a738 <__sfvwrite_r+0x49c>
    8000a6b0:	00098593          	mv	a1,s3
    8000a6b4:	000a8513          	mv	a0,s5
    8000a6b8:	a49fc0ef          	jal	80007100 <_malloc_r>
    8000a6bc:	00050a13          	mv	s4,a0
    8000a6c0:	0c050463          	beqz	a0,8000a788 <__sfvwrite_r+0x4ec>
    8000a6c4:	01843583          	ld	a1,24(s0)
    8000a6c8:	000c8613          	mv	a2,s9
    8000a6cc:	b58fc0ef          	jal	80006a24 <memcpy>
    8000a6d0:	01045783          	lhu	a5,16(s0)
    8000a6d4:	b7f7f793          	and	a5,a5,-1153
    8000a6d8:	0807e793          	or	a5,a5,128
    8000a6dc:	00f41823          	sh	a5,16(s0)
    8000a6e0:	019a0533          	add	a0,s4,s9
    8000a6e4:	419987bb          	subw	a5,s3,s9
    8000a6e8:	01443c23          	sd	s4,24(s0)
    8000a6ec:	00a43023          	sd	a0,0(s0)
    8000a6f0:	03342023          	sw	s3,32(s0)
    8000a6f4:	00090c93          	mv	s9,s2
    8000a6f8:	00f42623          	sw	a5,12(s0)
    8000a6fc:	00090a13          	mv	s4,s2
    8000a700:	ce5ff06f          	j	8000a3e4 <__sfvwrite_r+0x148>
    8000a704:	000a0613          	mv	a2,s4
    8000a708:	000c8593          	mv	a1,s9
    8000a70c:	6c8000ef          	jal	8000add4 <memmove>
    8000a710:	00c42683          	lw	a3,12(s0)
    8000a714:	00043703          	ld	a4,0(s0)
    8000a718:	000a079b          	sext.w	a5,s4
    8000a71c:	414686bb          	subw	a3,a3,s4
    8000a720:	01470733          	add	a4,a4,s4
    8000a724:	00d42623          	sw	a3,12(s0)
    8000a728:	00e43023          	sd	a4,0(s0)
    8000a72c:	d85ff06f          	j	8000a4b0 <__sfvwrite_r+0x214>
    8000a730:	000a0c93          	mv	s9,s4
    8000a734:	cb1ff06f          	j	8000a3e4 <__sfvwrite_r+0x148>
    8000a738:	00098613          	mv	a2,s3
    8000a73c:	000a8513          	mv	a0,s5
    8000a740:	4b5030ef          	jal	8000e3f4 <_realloc_r>
    8000a744:	00050a13          	mv	s4,a0
    8000a748:	f8051ce3          	bnez	a0,8000a6e0 <__sfvwrite_r+0x444>
    8000a74c:	01843583          	ld	a1,24(s0)
    8000a750:	000a8513          	mv	a0,s5
    8000a754:	e8cfc0ef          	jal	80006de0 <_free_r>
    8000a758:	01041783          	lh	a5,16(s0)
    8000a75c:	00c00713          	li	a4,12
    8000a760:	02013b03          	ld	s6,32(sp)
    8000a764:	01013c03          	ld	s8,16(sp)
    8000a768:	00813c83          	ld	s9,8(sp)
    8000a76c:	00eaa023          	sw	a4,0(s5)
    8000a770:	f7f7f793          	and	a5,a5,-129
    8000a774:	db9ff06f          	j	8000a52c <__sfvwrite_r+0x290>
    8000a778:	001c0b1b          	addw	s6,s8,1
    8000a77c:	ce5ff06f          	j	8000a460 <__sfvwrite_r+0x1c4>
    8000a780:	01041783          	lh	a5,16(s0)
    8000a784:	da9ff06f          	j	8000a52c <__sfvwrite_r+0x290>
    8000a788:	00c00713          	li	a4,12
    8000a78c:	01041783          	lh	a5,16(s0)
    8000a790:	02013b03          	ld	s6,32(sp)
    8000a794:	01013c03          	ld	s8,16(sp)
    8000a798:	00813c83          	ld	s9,8(sp)
    8000a79c:	00eaa023          	sw	a4,0(s5)
    8000a7a0:	d8dff06f          	j	8000a52c <__sfvwrite_r+0x290>

000000008000a7a4 <__smakebuf_r>:
    8000a7a4:	01059783          	lh	a5,16(a1)
    8000a7a8:	f6010113          	add	sp,sp,-160
    8000a7ac:	08813823          	sd	s0,144(sp)
    8000a7b0:	08113c23          	sd	ra,152(sp)
    8000a7b4:	0027f713          	and	a4,a5,2
    8000a7b8:	00058413          	mv	s0,a1
    8000a7bc:	02070463          	beqz	a4,8000a7e4 <__smakebuf_r+0x40>
    8000a7c0:	07758793          	add	a5,a1,119
    8000a7c4:	00f5b023          	sd	a5,0(a1)
    8000a7c8:	00f5bc23          	sd	a5,24(a1)
    8000a7cc:	00100793          	li	a5,1
    8000a7d0:	02f5a023          	sw	a5,32(a1)
    8000a7d4:	09813083          	ld	ra,152(sp)
    8000a7d8:	09013403          	ld	s0,144(sp)
    8000a7dc:	0a010113          	add	sp,sp,160
    8000a7e0:	00008067          	ret
    8000a7e4:	01259583          	lh	a1,18(a1)
    8000a7e8:	08913423          	sd	s1,136(sp)
    8000a7ec:	09213023          	sd	s2,128(sp)
    8000a7f0:	07313c23          	sd	s3,120(sp)
    8000a7f4:	07413823          	sd	s4,112(sp)
    8000a7f8:	00050493          	mv	s1,a0
    8000a7fc:	0805c663          	bltz	a1,8000a888 <__smakebuf_r+0xe4>
    8000a800:	00810613          	add	a2,sp,8
    8000a804:	f7dfb0ef          	jal	80006780 <_fstat_r>
    8000a808:	06054e63          	bltz	a0,8000a884 <__smakebuf_r+0xe0>
    8000a80c:	00c12903          	lw	s2,12(sp)
    8000a810:	0000f7b7          	lui	a5,0xf
    8000a814:	000019b7          	lui	s3,0x1
    8000a818:	00f97933          	and	s2,s2,a5
    8000a81c:	000027b7          	lui	a5,0x2
    8000a820:	40f90933          	sub	s2,s2,a5
    8000a824:	00193913          	seqz	s2,s2
    8000a828:	40000a13          	li	s4,1024
    8000a82c:	80098993          	add	s3,s3,-2048 # 800 <__stack_shift+0x7e9>
    8000a830:	000a0593          	mv	a1,s4
    8000a834:	00048513          	mv	a0,s1
    8000a838:	8c9fc0ef          	jal	80007100 <_malloc_r>
    8000a83c:	01041783          	lh	a5,16(s0)
    8000a840:	06050863          	beqz	a0,8000a8b0 <__smakebuf_r+0x10c>
    8000a844:	0807e793          	or	a5,a5,128
    8000a848:	00a43023          	sd	a0,0(s0)
    8000a84c:	00a43c23          	sd	a0,24(s0)
    8000a850:	00f41823          	sh	a5,16(s0)
    8000a854:	03442023          	sw	s4,32(s0)
    8000a858:	0a091063          	bnez	s2,8000a8f8 <__smakebuf_r+0x154>
    8000a85c:	0137e7b3          	or	a5,a5,s3
    8000a860:	09813083          	ld	ra,152(sp)
    8000a864:	00f41823          	sh	a5,16(s0)
    8000a868:	09013403          	ld	s0,144(sp)
    8000a86c:	08813483          	ld	s1,136(sp)
    8000a870:	08013903          	ld	s2,128(sp)
    8000a874:	07813983          	ld	s3,120(sp)
    8000a878:	07013a03          	ld	s4,112(sp)
    8000a87c:	0a010113          	add	sp,sp,160
    8000a880:	00008067          	ret
    8000a884:	01041783          	lh	a5,16(s0)
    8000a888:	0807f793          	and	a5,a5,128
    8000a88c:	00000913          	li	s2,0
    8000a890:	04078e63          	beqz	a5,8000a8ec <__smakebuf_r+0x148>
    8000a894:	04000a13          	li	s4,64
    8000a898:	000a0593          	mv	a1,s4
    8000a89c:	00048513          	mv	a0,s1
    8000a8a0:	861fc0ef          	jal	80007100 <_malloc_r>
    8000a8a4:	01041783          	lh	a5,16(s0)
    8000a8a8:	00000993          	li	s3,0
    8000a8ac:	f8051ce3          	bnez	a0,8000a844 <__smakebuf_r+0xa0>
    8000a8b0:	2007f713          	and	a4,a5,512
    8000a8b4:	04071e63          	bnez	a4,8000a910 <__smakebuf_r+0x16c>
    8000a8b8:	ffc7f793          	and	a5,a5,-4
    8000a8bc:	0027e793          	or	a5,a5,2
    8000a8c0:	07740713          	add	a4,s0,119
    8000a8c4:	00f41823          	sh	a5,16(s0)
    8000a8c8:	00100793          	li	a5,1
    8000a8cc:	08813483          	ld	s1,136(sp)
    8000a8d0:	08013903          	ld	s2,128(sp)
    8000a8d4:	07813983          	ld	s3,120(sp)
    8000a8d8:	07013a03          	ld	s4,112(sp)
    8000a8dc:	00e43023          	sd	a4,0(s0)
    8000a8e0:	00e43c23          	sd	a4,24(s0)
    8000a8e4:	02f42023          	sw	a5,32(s0)
    8000a8e8:	eedff06f          	j	8000a7d4 <__smakebuf_r+0x30>
    8000a8ec:	40000a13          	li	s4,1024
    8000a8f0:	00000993          	li	s3,0
    8000a8f4:	f3dff06f          	j	8000a830 <__smakebuf_r+0x8c>
    8000a8f8:	01241583          	lh	a1,18(s0)
    8000a8fc:	00048513          	mv	a0,s1
    8000a900:	434000ef          	jal	8000ad34 <_isatty_r>
    8000a904:	02051063          	bnez	a0,8000a924 <__smakebuf_r+0x180>
    8000a908:	01041783          	lh	a5,16(s0)
    8000a90c:	f51ff06f          	j	8000a85c <__smakebuf_r+0xb8>
    8000a910:	08813483          	ld	s1,136(sp)
    8000a914:	08013903          	ld	s2,128(sp)
    8000a918:	07813983          	ld	s3,120(sp)
    8000a91c:	07013a03          	ld	s4,112(sp)
    8000a920:	eb5ff06f          	j	8000a7d4 <__smakebuf_r+0x30>
    8000a924:	01045783          	lhu	a5,16(s0)
    8000a928:	ffc7f793          	and	a5,a5,-4
    8000a92c:	0017e793          	or	a5,a5,1
    8000a930:	0107979b          	sllw	a5,a5,0x10
    8000a934:	4107d79b          	sraw	a5,a5,0x10
    8000a938:	f25ff06f          	j	8000a85c <__smakebuf_r+0xb8>

000000008000a93c <__swhatbuf_r>:
    8000a93c:	f7010113          	add	sp,sp,-144
    8000a940:	08813023          	sd	s0,128(sp)
    8000a944:	00058413          	mv	s0,a1
    8000a948:	01259583          	lh	a1,18(a1)
    8000a94c:	06913c23          	sd	s1,120(sp)
    8000a950:	07213823          	sd	s2,112(sp)
    8000a954:	08113423          	sd	ra,136(sp)
    8000a958:	00060493          	mv	s1,a2
    8000a95c:	00068913          	mv	s2,a3
    8000a960:	0405ca63          	bltz	a1,8000a9b4 <__swhatbuf_r+0x78>
    8000a964:	00810613          	add	a2,sp,8
    8000a968:	e19fb0ef          	jal	80006780 <_fstat_r>
    8000a96c:	04054463          	bltz	a0,8000a9b4 <__swhatbuf_r+0x78>
    8000a970:	00c12783          	lw	a5,12(sp)
    8000a974:	0000f737          	lui	a4,0xf
    8000a978:	08813083          	ld	ra,136(sp)
    8000a97c:	00e7f7b3          	and	a5,a5,a4
    8000a980:	00002737          	lui	a4,0x2
    8000a984:	40e787b3          	sub	a5,a5,a4
    8000a988:	08013403          	ld	s0,128(sp)
    8000a98c:	0017b793          	seqz	a5,a5
    8000a990:	00f92023          	sw	a5,0(s2)
    8000a994:	40000713          	li	a4,1024
    8000a998:	00e4b023          	sd	a4,0(s1)
    8000a99c:	00001537          	lui	a0,0x1
    8000a9a0:	07813483          	ld	s1,120(sp)
    8000a9a4:	07013903          	ld	s2,112(sp)
    8000a9a8:	80050513          	add	a0,a0,-2048 # 800 <__stack_shift+0x7e9>
    8000a9ac:	09010113          	add	sp,sp,144
    8000a9b0:	00008067          	ret
    8000a9b4:	01045783          	lhu	a5,16(s0)
    8000a9b8:	0807f793          	and	a5,a5,128
    8000a9bc:	02078863          	beqz	a5,8000a9ec <__swhatbuf_r+0xb0>
    8000a9c0:	08813083          	ld	ra,136(sp)
    8000a9c4:	08013403          	ld	s0,128(sp)
    8000a9c8:	00000793          	li	a5,0
    8000a9cc:	00f92023          	sw	a5,0(s2)
    8000a9d0:	04000713          	li	a4,64
    8000a9d4:	00e4b023          	sd	a4,0(s1)
    8000a9d8:	07013903          	ld	s2,112(sp)
    8000a9dc:	07813483          	ld	s1,120(sp)
    8000a9e0:	00000513          	li	a0,0
    8000a9e4:	09010113          	add	sp,sp,144
    8000a9e8:	00008067          	ret
    8000a9ec:	08813083          	ld	ra,136(sp)
    8000a9f0:	08013403          	ld	s0,128(sp)
    8000a9f4:	00f92023          	sw	a5,0(s2)
    8000a9f8:	40000713          	li	a4,1024
    8000a9fc:	00e4b023          	sd	a4,0(s1)
    8000aa00:	07013903          	ld	s2,112(sp)
    8000aa04:	07813483          	ld	s1,120(sp)
    8000aa08:	00000513          	li	a0,0
    8000aa0c:	09010113          	add	sp,sp,144
    8000aa10:	00008067          	ret

000000008000aa14 <__swsetup_r>:
    8000aa14:	fe010113          	add	sp,sp,-32
    8000aa18:	00813823          	sd	s0,16(sp)
    8000aa1c:	00913423          	sd	s1,8(sp)
    8000aa20:	00113c23          	sd	ra,24(sp)
    8000aa24:	8101b783          	ld	a5,-2032(gp) # 8001e908 <_impure_ptr>
    8000aa28:	00050493          	mv	s1,a0
    8000aa2c:	00058413          	mv	s0,a1
    8000aa30:	00078663          	beqz	a5,8000aa3c <__swsetup_r+0x28>
    8000aa34:	0487b703          	ld	a4,72(a5) # 2048 <__stack_shift+0x2031>
    8000aa38:	0e070c63          	beqz	a4,8000ab30 <__swsetup_r+0x11c>
    8000aa3c:	01041783          	lh	a5,16(s0)
    8000aa40:	0087f713          	and	a4,a5,8
    8000aa44:	06070a63          	beqz	a4,8000aab8 <__swsetup_r+0xa4>
    8000aa48:	01843703          	ld	a4,24(s0)
    8000aa4c:	08070663          	beqz	a4,8000aad8 <__swsetup_r+0xc4>
    8000aa50:	0017f693          	and	a3,a5,1
    8000aa54:	02068863          	beqz	a3,8000aa84 <__swsetup_r+0x70>
    8000aa58:	02042683          	lw	a3,32(s0)
    8000aa5c:	00042623          	sw	zero,12(s0)
    8000aa60:	00000513          	li	a0,0
    8000aa64:	40d006bb          	negw	a3,a3
    8000aa68:	02d42423          	sw	a3,40(s0)
    8000aa6c:	02070a63          	beqz	a4,8000aaa0 <__swsetup_r+0x8c>
    8000aa70:	01813083          	ld	ra,24(sp)
    8000aa74:	01013403          	ld	s0,16(sp)
    8000aa78:	00813483          	ld	s1,8(sp)
    8000aa7c:	02010113          	add	sp,sp,32
    8000aa80:	00008067          	ret
    8000aa84:	0027f693          	and	a3,a5,2
    8000aa88:	00000613          	li	a2,0
    8000aa8c:	00069463          	bnez	a3,8000aa94 <__swsetup_r+0x80>
    8000aa90:	02042603          	lw	a2,32(s0)
    8000aa94:	00c42623          	sw	a2,12(s0)
    8000aa98:	00000513          	li	a0,0
    8000aa9c:	fc071ae3          	bnez	a4,8000aa70 <__swsetup_r+0x5c>
    8000aaa0:	0807f713          	and	a4,a5,128
    8000aaa4:	fc0706e3          	beqz	a4,8000aa70 <__swsetup_r+0x5c>
    8000aaa8:	0407e793          	or	a5,a5,64
    8000aaac:	00f41823          	sh	a5,16(s0)
    8000aab0:	fff00513          	li	a0,-1
    8000aab4:	fbdff06f          	j	8000aa70 <__swsetup_r+0x5c>
    8000aab8:	0107f713          	and	a4,a5,16
    8000aabc:	08070063          	beqz	a4,8000ab3c <__swsetup_r+0x128>
    8000aac0:	0047f713          	and	a4,a5,4
    8000aac4:	02071c63          	bnez	a4,8000aafc <__swsetup_r+0xe8>
    8000aac8:	01843703          	ld	a4,24(s0)
    8000aacc:	0087e793          	or	a5,a5,8
    8000aad0:	00f41823          	sh	a5,16(s0)
    8000aad4:	f6071ee3          	bnez	a4,8000aa50 <__swsetup_r+0x3c>
    8000aad8:	2807f693          	and	a3,a5,640
    8000aadc:	20000613          	li	a2,512
    8000aae0:	f6c688e3          	beq	a3,a2,8000aa50 <__swsetup_r+0x3c>
    8000aae4:	00040593          	mv	a1,s0
    8000aae8:	00048513          	mv	a0,s1
    8000aaec:	cb9ff0ef          	jal	8000a7a4 <__smakebuf_r>
    8000aaf0:	01041783          	lh	a5,16(s0)
    8000aaf4:	01843703          	ld	a4,24(s0)
    8000aaf8:	f59ff06f          	j	8000aa50 <__swsetup_r+0x3c>
    8000aafc:	05843583          	ld	a1,88(s0)
    8000ab00:	00058e63          	beqz	a1,8000ab1c <__swsetup_r+0x108>
    8000ab04:	07440713          	add	a4,s0,116
    8000ab08:	00e58863          	beq	a1,a4,8000ab18 <__swsetup_r+0x104>
    8000ab0c:	00048513          	mv	a0,s1
    8000ab10:	ad0fc0ef          	jal	80006de0 <_free_r>
    8000ab14:	01041783          	lh	a5,16(s0)
    8000ab18:	04043c23          	sd	zero,88(s0)
    8000ab1c:	01843703          	ld	a4,24(s0)
    8000ab20:	fdb7f793          	and	a5,a5,-37
    8000ab24:	00042423          	sw	zero,8(s0)
    8000ab28:	00e43023          	sd	a4,0(s0)
    8000ab2c:	fa1ff06f          	j	8000aacc <__swsetup_r+0xb8>
    8000ab30:	00078513          	mv	a0,a5
    8000ab34:	969fa0ef          	jal	8000549c <__sinit>
    8000ab38:	f05ff06f          	j	8000aa3c <__swsetup_r+0x28>
    8000ab3c:	00900713          	li	a4,9
    8000ab40:	00e4a023          	sw	a4,0(s1)
    8000ab44:	0407e793          	or	a5,a5,64
    8000ab48:	00f41823          	sh	a5,16(s0)
    8000ab4c:	fff00513          	li	a0,-1
    8000ab50:	f21ff06f          	j	8000aa70 <__swsetup_r+0x5c>

000000008000ab54 <memchr>:
    8000ab54:	00757793          	and	a5,a0,7
    8000ab58:	0ff5f693          	zext.b	a3,a1
    8000ab5c:	02078a63          	beqz	a5,8000ab90 <memchr+0x3c>
    8000ab60:	fff60793          	add	a5,a2,-1
    8000ab64:	02060e63          	beqz	a2,8000aba0 <memchr+0x4c>
    8000ab68:	fff00613          	li	a2,-1
    8000ab6c:	0180006f          	j	8000ab84 <memchr+0x30>
    8000ab70:	00150513          	add	a0,a0,1
    8000ab74:	00757713          	and	a4,a0,7
    8000ab78:	00070e63          	beqz	a4,8000ab94 <memchr+0x40>
    8000ab7c:	fff78793          	add	a5,a5,-1
    8000ab80:	02c78063          	beq	a5,a2,8000aba0 <memchr+0x4c>
    8000ab84:	00054703          	lbu	a4,0(a0)
    8000ab88:	fed714e3          	bne	a4,a3,8000ab70 <memchr+0x1c>
    8000ab8c:	00008067          	ret
    8000ab90:	00060793          	mv	a5,a2
    8000ab94:	00700713          	li	a4,7
    8000ab98:	00f76863          	bltu	a4,a5,8000aba8 <memchr+0x54>
    8000ab9c:	08079663          	bnez	a5,8000ac28 <memchr+0xd4>
    8000aba0:	00000513          	li	a0,0
    8000aba4:	00008067          	ret
    8000aba8:	0ff5f593          	zext.b	a1,a1
    8000abac:	f0101837          	lui	a6,0xf0101
    8000abb0:	00859713          	sll	a4,a1,0x8
    8000abb4:	feff08b7          	lui	a7,0xfeff0
    8000abb8:	00481813          	sll	a6,a6,0x4
    8000abbc:	00b70733          	add	a4,a4,a1
    8000abc0:	eff88893          	add	a7,a7,-257 # fffffffffefefeff <__heap_end+0xffffffff7e7d0eff>
    8000abc4:	10180813          	add	a6,a6,257 # fffffffff0101101 <__heap_end+0xffffffff6f8e2101>
    8000abc8:	01071593          	sll	a1,a4,0x10
    8000abcc:	01089893          	sll	a7,a7,0x10
    8000abd0:	01081813          	sll	a6,a6,0x10
    8000abd4:	00e585b3          	add	a1,a1,a4
    8000abd8:	eff88893          	add	a7,a7,-257
    8000abdc:	10180813          	add	a6,a6,257
    8000abe0:	02059713          	sll	a4,a1,0x20
    8000abe4:	01089893          	sll	a7,a7,0x10
    8000abe8:	00f81813          	sll	a6,a6,0xf
    8000abec:	00e585b3          	add	a1,a1,a4
    8000abf0:	eff88893          	add	a7,a7,-257
    8000abf4:	08080813          	add	a6,a6,128
    8000abf8:	00700313          	li	t1,7
    8000abfc:	0100006f          	j	8000ac0c <memchr+0xb8>
    8000ac00:	ff878793          	add	a5,a5,-8
    8000ac04:	00850513          	add	a0,a0,8
    8000ac08:	f8f37ae3          	bgeu	t1,a5,8000ab9c <memchr+0x48>
    8000ac0c:	00053703          	ld	a4,0(a0)
    8000ac10:	00e5c733          	xor	a4,a1,a4
    8000ac14:	01170633          	add	a2,a4,a7
    8000ac18:	fff74713          	not	a4,a4
    8000ac1c:	00e67733          	and	a4,a2,a4
    8000ac20:	01077733          	and	a4,a4,a6
    8000ac24:	fc070ee3          	beqz	a4,8000ac00 <memchr+0xac>
    8000ac28:	00f507b3          	add	a5,a0,a5
    8000ac2c:	00c0006f          	j	8000ac38 <memchr+0xe4>
    8000ac30:	00150513          	add	a0,a0,1
    8000ac34:	f6a786e3          	beq	a5,a0,8000aba0 <memchr+0x4c>
    8000ac38:	00054703          	lbu	a4,0(a0)
    8000ac3c:	fed71ae3          	bne	a4,a3,8000ac30 <memchr+0xdc>
    8000ac40:	00008067          	ret

000000008000ac44 <strncpy>:
    8000ac44:	00a5e7b3          	or	a5,a1,a0
    8000ac48:	0077f793          	and	a5,a5,7
    8000ac4c:	00079663          	bnez	a5,8000ac58 <strncpy+0x14>
    8000ac50:	00700793          	li	a5,7
    8000ac54:	04c7e663          	bltu	a5,a2,8000aca0 <strncpy+0x5c>
    8000ac58:	00050713          	mv	a4,a0
    8000ac5c:	01c0006f          	j	8000ac78 <strncpy+0x34>
    8000ac60:	fff5c683          	lbu	a3,-1(a1)
    8000ac64:	fff60813          	add	a6,a2,-1
    8000ac68:	fed78fa3          	sb	a3,-1(a5)
    8000ac6c:	00068e63          	beqz	a3,8000ac88 <strncpy+0x44>
    8000ac70:	00078713          	mv	a4,a5
    8000ac74:	00080613          	mv	a2,a6
    8000ac78:	00158593          	add	a1,a1,1
    8000ac7c:	00170793          	add	a5,a4,1 # 2001 <__stack_shift+0x1fea>
    8000ac80:	fe0610e3          	bnez	a2,8000ac60 <strncpy+0x1c>
    8000ac84:	00008067          	ret
    8000ac88:	00c70733          	add	a4,a4,a2
    8000ac8c:	08080263          	beqz	a6,8000ad10 <strncpy+0xcc>
    8000ac90:	00178793          	add	a5,a5,1
    8000ac94:	fe078fa3          	sb	zero,-1(a5)
    8000ac98:	fee79ce3          	bne	a5,a4,8000ac90 <strncpy+0x4c>
    8000ac9c:	00008067          	ret
    8000aca0:	f0101837          	lui	a6,0xf0101
    8000aca4:	feff08b7          	lui	a7,0xfeff0
    8000aca8:	00481813          	sll	a6,a6,0x4
    8000acac:	eff88893          	add	a7,a7,-257 # fffffffffefefeff <__heap_end+0xffffffff7e7d0eff>
    8000acb0:	10180813          	add	a6,a6,257 # fffffffff0101101 <__heap_end+0xffffffff6f8e2101>
    8000acb4:	01089893          	sll	a7,a7,0x10
    8000acb8:	01081813          	sll	a6,a6,0x10
    8000acbc:	eff88893          	add	a7,a7,-257
    8000acc0:	10180813          	add	a6,a6,257
    8000acc4:	01089893          	sll	a7,a7,0x10
    8000acc8:	00f81813          	sll	a6,a6,0xf
    8000accc:	00050713          	mv	a4,a0
    8000acd0:	eff88893          	add	a7,a7,-257
    8000acd4:	08080813          	add	a6,a6,128
    8000acd8:	00700e13          	li	t3,7
    8000acdc:	0180006f          	j	8000acf4 <strncpy+0xb0>
    8000ace0:	00d73023          	sd	a3,0(a4)
    8000ace4:	ff860613          	add	a2,a2,-8
    8000ace8:	00870713          	add	a4,a4,8
    8000acec:	00858593          	add	a1,a1,8
    8000acf0:	f8ce74e3          	bgeu	t3,a2,8000ac78 <strncpy+0x34>
    8000acf4:	0005b683          	ld	a3,0(a1)
    8000acf8:	011687b3          	add	a5,a3,a7
    8000acfc:	fff6c313          	not	t1,a3
    8000ad00:	0067f7b3          	and	a5,a5,t1
    8000ad04:	0107f7b3          	and	a5,a5,a6
    8000ad08:	fc078ce3          	beqz	a5,8000ace0 <strncpy+0x9c>
    8000ad0c:	f6dff06f          	j	8000ac78 <strncpy+0x34>
    8000ad10:	00008067          	ret

000000008000ad14 <__localeconv_l>:
    8000ad14:	10050513          	add	a0,a0,256
    8000ad18:	00008067          	ret

000000008000ad1c <_localeconv_r>:
    8000ad1c:	00014517          	auipc	a0,0x14
    8000ad20:	b3450513          	add	a0,a0,-1228 # 8001e850 <__global_locale+0x100>
    8000ad24:	00008067          	ret

000000008000ad28 <localeconv>:
    8000ad28:	00014517          	auipc	a0,0x14
    8000ad2c:	b2850513          	add	a0,a0,-1240 # 8001e850 <__global_locale+0x100>
    8000ad30:	00008067          	ret

000000008000ad34 <_isatty_r>:
    8000ad34:	ff010113          	add	sp,sp,-16
    8000ad38:	00813023          	sd	s0,0(sp)
    8000ad3c:	00050413          	mv	s0,a0
    8000ad40:	00058513          	mv	a0,a1
    8000ad44:	8a01a823          	sw	zero,-1872(gp) # 8001e9a8 <errno>
    8000ad48:	00113423          	sd	ra,8(sp)
    8000ad4c:	109050ef          	jal	80010654 <_isatty>
    8000ad50:	fff00793          	li	a5,-1
    8000ad54:	00f50a63          	beq	a0,a5,8000ad68 <_isatty_r+0x34>
    8000ad58:	00813083          	ld	ra,8(sp)
    8000ad5c:	00013403          	ld	s0,0(sp)
    8000ad60:	01010113          	add	sp,sp,16
    8000ad64:	00008067          	ret
    8000ad68:	8b01a783          	lw	a5,-1872(gp) # 8001e9a8 <errno>
    8000ad6c:	fe0786e3          	beqz	a5,8000ad58 <_isatty_r+0x24>
    8000ad70:	00813083          	ld	ra,8(sp)
    8000ad74:	00f42023          	sw	a5,0(s0)
    8000ad78:	00013403          	ld	s0,0(sp)
    8000ad7c:	01010113          	add	sp,sp,16
    8000ad80:	00008067          	ret

000000008000ad84 <_sbrk_r>:
    8000ad84:	ff010113          	add	sp,sp,-16
    8000ad88:	00813023          	sd	s0,0(sp)
    8000ad8c:	00050413          	mv	s0,a0
    8000ad90:	00058513          	mv	a0,a1
    8000ad94:	8a01a823          	sw	zero,-1872(gp) # 8001e9a8 <errno>
    8000ad98:	00113423          	sd	ra,8(sp)
    8000ad9c:	119050ef          	jal	800106b4 <_sbrk>
    8000ada0:	fff00793          	li	a5,-1
    8000ada4:	00f50a63          	beq	a0,a5,8000adb8 <_sbrk_r+0x34>
    8000ada8:	00813083          	ld	ra,8(sp)
    8000adac:	00013403          	ld	s0,0(sp)
    8000adb0:	01010113          	add	sp,sp,16
    8000adb4:	00008067          	ret
    8000adb8:	8b01a783          	lw	a5,-1872(gp) # 8001e9a8 <errno>
    8000adbc:	fe0786e3          	beqz	a5,8000ada8 <_sbrk_r+0x24>
    8000adc0:	00813083          	ld	ra,8(sp)
    8000adc4:	00f42023          	sw	a5,0(s0)
    8000adc8:	00013403          	ld	s0,0(sp)
    8000adcc:	01010113          	add	sp,sp,16
    8000add0:	00008067          	ret

000000008000add4 <memmove>:
    8000add4:	02a5f663          	bgeu	a1,a0,8000ae00 <memmove+0x2c>
    8000add8:	00c58733          	add	a4,a1,a2
    8000addc:	02e57263          	bgeu	a0,a4,8000ae00 <memmove+0x2c>
    8000ade0:	00c507b3          	add	a5,a0,a2
    8000ade4:	04060663          	beqz	a2,8000ae30 <memmove+0x5c>
    8000ade8:	fff74683          	lbu	a3,-1(a4)
    8000adec:	fff78793          	add	a5,a5,-1
    8000adf0:	fff70713          	add	a4,a4,-1
    8000adf4:	00d78023          	sb	a3,0(a5)
    8000adf8:	fef518e3          	bne	a0,a5,8000ade8 <memmove+0x14>
    8000adfc:	00008067          	ret
    8000ae00:	01f00793          	li	a5,31
    8000ae04:	02c7e863          	bltu	a5,a2,8000ae34 <memmove+0x60>
    8000ae08:	00050793          	mv	a5,a0
    8000ae0c:	fff60693          	add	a3,a2,-1
    8000ae10:	0c060263          	beqz	a2,8000aed4 <memmove+0x100>
    8000ae14:	00168693          	add	a3,a3,1
    8000ae18:	00d786b3          	add	a3,a5,a3
    8000ae1c:	0005c703          	lbu	a4,0(a1)
    8000ae20:	00178793          	add	a5,a5,1
    8000ae24:	00158593          	add	a1,a1,1
    8000ae28:	fee78fa3          	sb	a4,-1(a5)
    8000ae2c:	fed798e3          	bne	a5,a3,8000ae1c <memmove+0x48>
    8000ae30:	00008067          	ret
    8000ae34:	00b567b3          	or	a5,a0,a1
    8000ae38:	0077f793          	and	a5,a5,7
    8000ae3c:	08079663          	bnez	a5,8000aec8 <memmove+0xf4>
    8000ae40:	fe060893          	add	a7,a2,-32
    8000ae44:	fe08f893          	and	a7,a7,-32
    8000ae48:	02088893          	add	a7,a7,32
    8000ae4c:	011506b3          	add	a3,a0,a7
    8000ae50:	00058713          	mv	a4,a1
    8000ae54:	00050793          	mv	a5,a0
    8000ae58:	00073803          	ld	a6,0(a4)
    8000ae5c:	02070713          	add	a4,a4,32
    8000ae60:	02078793          	add	a5,a5,32
    8000ae64:	ff07b023          	sd	a6,-32(a5)
    8000ae68:	fe873803          	ld	a6,-24(a4)
    8000ae6c:	ff07b423          	sd	a6,-24(a5)
    8000ae70:	ff073803          	ld	a6,-16(a4)
    8000ae74:	ff07b823          	sd	a6,-16(a5)
    8000ae78:	ff873803          	ld	a6,-8(a4)
    8000ae7c:	ff07bc23          	sd	a6,-8(a5)
    8000ae80:	fcd79ce3          	bne	a5,a3,8000ae58 <memmove+0x84>
    8000ae84:	01867813          	and	a6,a2,24
    8000ae88:	011585b3          	add	a1,a1,a7
    8000ae8c:	01f67713          	and	a4,a2,31
    8000ae90:	04080463          	beqz	a6,8000aed8 <memmove+0x104>
    8000ae94:	ff870813          	add	a6,a4,-8
    8000ae98:	ff887813          	and	a6,a6,-8
    8000ae9c:	00880813          	add	a6,a6,8
    8000aea0:	010687b3          	add	a5,a3,a6
    8000aea4:	00058713          	mv	a4,a1
    8000aea8:	00073883          	ld	a7,0(a4)
    8000aeac:	00868693          	add	a3,a3,8
    8000aeb0:	00870713          	add	a4,a4,8
    8000aeb4:	ff16bc23          	sd	a7,-8(a3)
    8000aeb8:	fef698e3          	bne	a3,a5,8000aea8 <memmove+0xd4>
    8000aebc:	00767613          	and	a2,a2,7
    8000aec0:	010585b3          	add	a1,a1,a6
    8000aec4:	f49ff06f          	j	8000ae0c <memmove+0x38>
    8000aec8:	fff60693          	add	a3,a2,-1
    8000aecc:	00050793          	mv	a5,a0
    8000aed0:	f45ff06f          	j	8000ae14 <memmove+0x40>
    8000aed4:	00008067          	ret
    8000aed8:	00070613          	mv	a2,a4
    8000aedc:	f31ff06f          	j	8000ae0c <memmove+0x38>

000000008000aee0 <frexpl>:
    8000aee0:	fc010113          	add	sp,sp,-64
    8000aee4:	03213023          	sd	s2,32(sp)
    8000aee8:	00008937          	lui	s2,0x8
    8000aeec:	02813823          	sd	s0,48(sp)
    8000aef0:	02913423          	sd	s1,40(sp)
    8000aef4:	01613023          	sd	s6,0(sp)
    8000aef8:	02113c23          	sd	ra,56(sp)
    8000aefc:	0305d493          	srl	s1,a1,0x30
    8000af00:	fff90913          	add	s2,s2,-1 # 7fff <__stack_shift+0x7fe8>
    8000af04:	0124f4b3          	and	s1,s1,s2
    8000af08:	00062023          	sw	zero,0(a2)
    8000af0c:	00058413          	mv	s0,a1
    8000af10:	00050b13          	mv	s6,a0
    8000af14:	07248a63          	beq	s1,s2,8000af88 <frexpl+0xa8>
    8000af18:	01513423          	sd	s5,8(sp)
    8000af1c:	00000693          	li	a3,0
    8000af20:	00060a93          	mv	s5,a2
    8000af24:	00000613          	li	a2,0
    8000af28:	01313c23          	sd	s3,24(sp)
    8000af2c:	01413823          	sd	s4,16(sp)
    8000af30:	00058993          	mv	s3,a1
    8000af34:	00050a13          	mv	s4,a0
    8000af38:	5f1060ef          	jal	80011d28 <__eqtf2>
    8000af3c:	08050e63          	beqz	a0,8000afd8 <frexpl+0xf8>
    8000af40:	00000693          	li	a3,0
    8000af44:	06048063          	beqz	s1,8000afa4 <frexpl+0xc4>
    8000af48:	ffffc737          	lui	a4,0xffffc
    8000af4c:	f80017b7          	lui	a5,0xf8001
    8000af50:	0027071b          	addw	a4,a4,2 # ffffffffffffc002 <__heap_end+0xffffffff7f7dd002>
    8000af54:	02479793          	sll	a5,a5,0x24
    8000af58:	00e484bb          	addw	s1,s1,a4
    8000af5c:	fff78793          	add	a5,a5,-1 # fffffffff8000fff <__heap_end+0xffffffff777e1fff>
    8000af60:	01fff437          	lui	s0,0x1fff
    8000af64:	00f9f9b3          	and	s3,s3,a5
    8000af68:	00d484bb          	addw	s1,s1,a3
    8000af6c:	02541413          	sll	s0,s0,0x25
    8000af70:	009aa023          	sw	s1,0(s5)
    8000af74:	000a0513          	mv	a0,s4
    8000af78:	0089e5b3          	or	a1,s3,s0
    8000af7c:	01013a03          	ld	s4,16(sp)
    8000af80:	01813983          	ld	s3,24(sp)
    8000af84:	00813a83          	ld	s5,8(sp)
    8000af88:	03813083          	ld	ra,56(sp)
    8000af8c:	03013403          	ld	s0,48(sp)
    8000af90:	02813483          	ld	s1,40(sp)
    8000af94:	02013903          	ld	s2,32(sp)
    8000af98:	00013b03          	ld	s6,0(sp)
    8000af9c:	04010113          	add	sp,sp,64
    8000afa0:	00008067          	ret
    8000afa4:	00013797          	auipc	a5,0x13
    8000afa8:	99c78793          	add	a5,a5,-1636 # 8001d940 <blanks.1+0x40>
    8000afac:	0087b683          	ld	a3,8(a5)
    8000afb0:	0007b603          	ld	a2,0(a5)
    8000afb4:	000b0513          	mv	a0,s6
    8000afb8:	00040593          	mv	a1,s0
    8000afbc:	7a1060ef          	jal	80011f5c <__multf3>
    8000afc0:	0305d493          	srl	s1,a1,0x30
    8000afc4:	00058993          	mv	s3,a1
    8000afc8:	00050a13          	mv	s4,a0
    8000afcc:	0124f4b3          	and	s1,s1,s2
    8000afd0:	f8e00693          	li	a3,-114
    8000afd4:	f75ff06f          	j	8000af48 <frexpl+0x68>
    8000afd8:	03813083          	ld	ra,56(sp)
    8000afdc:	00040593          	mv	a1,s0
    8000afe0:	03013403          	ld	s0,48(sp)
    8000afe4:	01813983          	ld	s3,24(sp)
    8000afe8:	01013a03          	ld	s4,16(sp)
    8000afec:	00813a83          	ld	s5,8(sp)
    8000aff0:	02813483          	ld	s1,40(sp)
    8000aff4:	02013903          	ld	s2,32(sp)
    8000aff8:	000b0513          	mv	a0,s6
    8000affc:	00013b03          	ld	s6,0(sp)
    8000b000:	04010113          	add	sp,sp,64
    8000b004:	00008067          	ret

000000008000b008 <_ldtoa_r>:
    8000b008:	00013317          	auipc	t1,0x13
    8000b00c:	96830313          	add	t1,t1,-1688 # 8001d970 <blanks.1+0x70>
    8000b010:	00033f03          	ld	t5,0(t1)
    8000b014:	00833e83          	ld	t4,8(t1)
    8000b018:	01032e03          	lw	t3,16(t1)
    8000b01c:	05053303          	ld	t1,80(a0)
    8000b020:	f4010113          	add	sp,sp,-192
    8000b024:	0a913423          	sd	s1,168(sp)
    8000b028:	0b213023          	sd	s2,160(sp)
    8000b02c:	09413823          	sd	s4,144(sp)
    8000b030:	09513423          	sd	s5,136(sp)
    8000b034:	09613023          	sd	s6,128(sp)
    8000b038:	07713c23          	sd	s7,120(sp)
    8000b03c:	07813823          	sd	s8,112(sp)
    8000b040:	07a13023          	sd	s10,96(sp)
    8000b044:	0a113c23          	sd	ra,184(sp)
    8000b048:	0a813823          	sd	s0,176(sp)
    8000b04c:	09313c23          	sd	s3,152(sp)
    8000b050:	07913423          	sd	s9,104(sp)
    8000b054:	03e13c23          	sd	t5,56(sp)
    8000b058:	05d13023          	sd	t4,64(sp)
    8000b05c:	05c12423          	sw	t3,72(sp)
    8000b060:	00050a13          	mv	s4,a0
    8000b064:	00058913          	mv	s2,a1
    8000b068:	00060493          	mv	s1,a2
    8000b06c:	00068b13          	mv	s6,a3
    8000b070:	00070b93          	mv	s7,a4
    8000b074:	00078a93          	mv	s5,a5
    8000b078:	00080d13          	mv	s10,a6
    8000b07c:	00088c13          	mv	s8,a7
    8000b080:	00030863          	beqz	t1,8000b090 <_ldtoa_r+0x88>
    8000b084:	00030593          	mv	a1,t1
    8000b088:	551010ef          	jal	8000cdd8 <__freedtoa>
    8000b08c:	040a3823          	sd	zero,80(s4) # ffffffff80000050 <__heap_end+0xfffffffeff7e1050>
    8000b090:	04412783          	lw	a5,68(sp)
    8000b094:	0004a593          	slti	a1,s1,0
    8000b098:	00149413          	sll	s0,s1,0x1
    8000b09c:	4017d71b          	sraw	a4,a5,0x1
    8000b0a0:	0204d993          	srl	s3,s1,0x20
    8000b0a4:	00e5f5b3          	and	a1,a1,a4
    8000b0a8:	00145413          	srl	s0,s0,0x1
    8000b0ac:	0004a693          	slti	a3,s1,0
    8000b0b0:	00149c93          	sll	s9,s1,0x1
    8000b0b4:	ffffc737          	lui	a4,0xffffc
    8000b0b8:	0109999b          	sllw	s3,s3,0x10
    8000b0bc:	00b7c7b3          	xor	a5,a5,a1
    8000b0c0:	00dd2023          	sw	a3,0(s10)
    8000b0c4:	031cdc93          	srl	s9,s9,0x31
    8000b0c8:	f917071b          	addw	a4,a4,-111 # ffffffffffffbf91 <__heap_end+0xffffffff7f7dcf91>
    8000b0cc:	0109d99b          	srlw	s3,s3,0x10
    8000b0d0:	00090613          	mv	a2,s2
    8000b0d4:	00040693          	mv	a3,s0
    8000b0d8:	00090513          	mv	a0,s2
    8000b0dc:	00040593          	mv	a1,s0
    8000b0e0:	04f12223          	sw	a5,68(sp)
    8000b0e4:	00ec8d3b          	addw	s10,s9,a4
    8000b0e8:	03213423          	sd	s2,40(sp)
    8000b0ec:	02912823          	sw	s1,48(sp)
    8000b0f0:	03312a23          	sw	s3,52(sp)
    8000b0f4:	4e1070ef          	jal	80012dd4 <__unordtf2>
    8000b0f8:	14051463          	bnez	a0,8000b240 <_ldtoa_r+0x238>
    8000b0fc:	00013797          	auipc	a5,0x13
    8000b100:	85478793          	add	a5,a5,-1964 # 8001d950 <blanks.1+0x50>
    8000b104:	05b13c23          	sd	s11,88(sp)
    8000b108:	0087bd83          	ld	s11,8(a5)
    8000b10c:	0007b603          	ld	a2,0(a5)
    8000b110:	00090513          	mv	a0,s2
    8000b114:	000d8693          	mv	a3,s11
    8000b118:	00040593          	mv	a1,s0
    8000b11c:	00c13c23          	sd	a2,24(sp)
    8000b120:	4b5070ef          	jal	80012dd4 <__unordtf2>
    8000b124:	0a051063          	bnez	a0,8000b1c4 <_ldtoa_r+0x1bc>
    8000b128:	01813603          	ld	a2,24(sp)
    8000b12c:	000d8693          	mv	a3,s11
    8000b130:	00090513          	mv	a0,s2
    8000b134:	00040593          	mv	a1,s0
    8000b138:	551060ef          	jal	80011e88 <__letf2>
    8000b13c:	08a05463          	blez	a0,8000b1c4 <_ldtoa_r+0x1bc>
    8000b140:	05813d83          	ld	s11,88(sp)
    8000b144:	00300793          	li	a5,3
    8000b148:	02f12223          	sw	a5,36(sp)
    8000b14c:	000b0793          	mv	a5,s6
    8000b150:	02410713          	add	a4,sp,36
    8000b154:	01813023          	sd	s8,0(sp)
    8000b158:	000a8893          	mv	a7,s5
    8000b15c:	000b8813          	mv	a6,s7
    8000b160:	02810693          	add	a3,sp,40
    8000b164:	000d0613          	mv	a2,s10
    8000b168:	03810593          	add	a1,sp,56
    8000b16c:	000a0513          	mv	a0,s4
    8000b170:	1ac000ef          	jal	8000b31c <__gdtoa>
    8000b174:	000aa703          	lw	a4,0(s5)
    8000b178:	ffff87b7          	lui	a5,0xffff8
    8000b17c:	00f71863          	bne	a4,a5,8000b18c <_ldtoa_r+0x184>
    8000b180:	800007b7          	lui	a5,0x80000
    8000b184:	fff78793          	add	a5,a5,-1 # ffffffff7fffffff <__heap_end+0xfffffffeff7e0fff>
    8000b188:	00faa023          	sw	a5,0(s5)
    8000b18c:	0b813083          	ld	ra,184(sp)
    8000b190:	0b013403          	ld	s0,176(sp)
    8000b194:	0a813483          	ld	s1,168(sp)
    8000b198:	0a013903          	ld	s2,160(sp)
    8000b19c:	09813983          	ld	s3,152(sp)
    8000b1a0:	09013a03          	ld	s4,144(sp)
    8000b1a4:	08813a83          	ld	s5,136(sp)
    8000b1a8:	08013b03          	ld	s6,128(sp)
    8000b1ac:	07813b83          	ld	s7,120(sp)
    8000b1b0:	07013c03          	ld	s8,112(sp)
    8000b1b4:	06813c83          	ld	s9,104(sp)
    8000b1b8:	06013d03          	ld	s10,96(sp)
    8000b1bc:	0c010113          	add	sp,sp,192
    8000b1c0:	00008067          	ret
    8000b1c4:	00012797          	auipc	a5,0x12
    8000b1c8:	79c78793          	add	a5,a5,1948 # 8001d960 <blanks.1+0x60>
    8000b1cc:	0007b603          	ld	a2,0(a5)
    8000b1d0:	0087b683          	ld	a3,8(a5)
    8000b1d4:	00090513          	mv	a0,s2
    8000b1d8:	00040593          	mv	a1,s0
    8000b1dc:	3d9060ef          	jal	80011db4 <__getf2>
    8000b1e0:	02054063          	bltz	a0,8000b200 <_ldtoa_r+0x1f8>
    8000b1e4:	000107b7          	lui	a5,0x10
    8000b1e8:	00f9e9b3          	or	s3,s3,a5
    8000b1ec:	00100793          	li	a5,1
    8000b1f0:	05813d83          	ld	s11,88(sp)
    8000b1f4:	02f12223          	sw	a5,36(sp)
    8000b1f8:	03312a23          	sw	s3,52(sp)
    8000b1fc:	f51ff06f          	j	8000b14c <_ldtoa_r+0x144>
    8000b200:	00000613          	li	a2,0
    8000b204:	00000693          	li	a3,0
    8000b208:	00090513          	mv	a0,s2
    8000b20c:	00048593          	mv	a1,s1
    8000b210:	319060ef          	jal	80011d28 <__eqtf2>
    8000b214:	00051863          	bnez	a0,8000b224 <_ldtoa_r+0x21c>
    8000b218:	05813d83          	ld	s11,88(sp)
    8000b21c:	02012223          	sw	zero,36(sp)
    8000b220:	f2dff06f          	j	8000b14c <_ldtoa_r+0x144>
    8000b224:	ffffc737          	lui	a4,0xffffc
    8000b228:	f927071b          	addw	a4,a4,-110 # ffffffffffffbf92 <__heap_end+0xffffffff7f7dcf92>
    8000b22c:	00200793          	li	a5,2
    8000b230:	05813d83          	ld	s11,88(sp)
    8000b234:	02f12223          	sw	a5,36(sp)
    8000b238:	00ec8d3b          	addw	s10,s9,a4
    8000b23c:	f11ff06f          	j	8000b14c <_ldtoa_r+0x144>
    8000b240:	00400793          	li	a5,4
    8000b244:	02f12223          	sw	a5,36(sp)
    8000b248:	f05ff06f          	j	8000b14c <_ldtoa_r+0x144>

000000008000b24c <_ldcheck>:
    8000b24c:	fd010113          	add	sp,sp,-48
    8000b250:	00913c23          	sd	s1,24(sp)
    8000b254:	00853483          	ld	s1,8(a0)
    8000b258:	01213823          	sd	s2,16(sp)
    8000b25c:	00053903          	ld	s2,0(a0)
    8000b260:	00149493          	sll	s1,s1,0x1
    8000b264:	0014d493          	srl	s1,s1,0x1
    8000b268:	00090613          	mv	a2,s2
    8000b26c:	00048693          	mv	a3,s1
    8000b270:	00090513          	mv	a0,s2
    8000b274:	00048593          	mv	a1,s1
    8000b278:	02113423          	sd	ra,40(sp)
    8000b27c:	359070ef          	jal	80012dd4 <__unordtf2>
    8000b280:	08051263          	bnez	a0,8000b304 <_ldcheck+0xb8>
    8000b284:	00012797          	auipc	a5,0x12
    8000b288:	6cc78793          	add	a5,a5,1740 # 8001d950 <blanks.1+0x50>
    8000b28c:	01313423          	sd	s3,8(sp)
    8000b290:	01413023          	sd	s4,0(sp)
    8000b294:	0087b983          	ld	s3,8(a5)
    8000b298:	0007ba03          	ld	s4,0(a5)
    8000b29c:	00090513          	mv	a0,s2
    8000b2a0:	00098693          	mv	a3,s3
    8000b2a4:	000a0613          	mv	a2,s4
    8000b2a8:	00048593          	mv	a1,s1
    8000b2ac:	02813023          	sd	s0,32(sp)
    8000b2b0:	00100413          	li	s0,1
    8000b2b4:	321070ef          	jal	80012dd4 <__unordtf2>
    8000b2b8:	02050863          	beqz	a0,8000b2e8 <_ldcheck+0x9c>
    8000b2bc:	02813083          	ld	ra,40(sp)
    8000b2c0:	00144513          	xor	a0,s0,1
    8000b2c4:	02013403          	ld	s0,32(sp)
    8000b2c8:	00151513          	sll	a0,a0,0x1
    8000b2cc:	00813983          	ld	s3,8(sp)
    8000b2d0:	00013a03          	ld	s4,0(sp)
    8000b2d4:	01813483          	ld	s1,24(sp)
    8000b2d8:	01013903          	ld	s2,16(sp)
    8000b2dc:	00257513          	and	a0,a0,2
    8000b2e0:	03010113          	add	sp,sp,48
    8000b2e4:	00008067          	ret
    8000b2e8:	000a0613          	mv	a2,s4
    8000b2ec:	00098693          	mv	a3,s3
    8000b2f0:	00090513          	mv	a0,s2
    8000b2f4:	00048593          	mv	a1,s1
    8000b2f8:	391060ef          	jal	80011e88 <__letf2>
    8000b2fc:	00152413          	slti	s0,a0,1
    8000b300:	fbdff06f          	j	8000b2bc <_ldcheck+0x70>
    8000b304:	02813083          	ld	ra,40(sp)
    8000b308:	01813483          	ld	s1,24(sp)
    8000b30c:	01013903          	ld	s2,16(sp)
    8000b310:	00100513          	li	a0,1
    8000b314:	03010113          	add	sp,sp,48
    8000b318:	00008067          	ret

000000008000b31c <__gdtoa>:
    8000b31c:	ed010113          	add	sp,sp,-304
    8000b320:	0f813023          	sd	s8,224(sp)
    8000b324:	00072c03          	lw	s8,0(a4)
    8000b328:	11213823          	sd	s2,272(sp)
    8000b32c:	11413023          	sd	s4,256(sp)
    8000b330:	fcfc7e13          	and	t3,s8,-49
    8000b334:	12113423          	sd	ra,296(sp)
    8000b338:	01c72023          	sw	t3,0(a4)
    8000b33c:	00070a13          	mv	s4,a4
    8000b340:	13013703          	ld	a4,304(sp)
    8000b344:	00fc7e13          	and	t3,s8,15
    8000b348:	00300e93          	li	t4,3
    8000b34c:	00e13023          	sd	a4,0(sp)
    8000b350:	02b13023          	sd	a1,32(sp)
    8000b354:	00c13823          	sd	a2,16(sp)
    8000b358:	00d13423          	sd	a3,8(sp)
    8000b35c:	01013c23          	sd	a6,24(sp)
    8000b360:	00088913          	mv	s2,a7
    8000b364:	7bde0663          	beq	t3,t4,8000bb10 <__gdtoa+0x7f4>
    8000b368:	11313423          	sd	s3,264(sp)
    8000b36c:	0d913c23          	sd	s9,216(sp)
    8000b370:	00cc7993          	and	s3,s8,12
    8000b374:	6e099863          	bnez	s3,8000ba64 <__gdtoa+0x748>
    8000b378:	12813023          	sd	s0,288(sp)
    8000b37c:	00050413          	mv	s0,a0
    8000b380:	740e0263          	beqz	t3,8000bac4 <__gdtoa+0x7a8>
    8000b384:	0f613823          	sd	s6,240(sp)
    8000b388:	0005ab03          	lw	s6,0(a1)
    8000b38c:	0db13423          	sd	s11,200(sp)
    8000b390:	10913c23          	sd	s1,280(sp)
    8000b394:	02000693          	li	a3,32
    8000b398:	00078d93          	mv	s11,a5
    8000b39c:	00000593          	li	a1,0
    8000b3a0:	02000793          	li	a5,32
    8000b3a4:	0166d863          	bge	a3,s6,8000b3b4 <__gdtoa+0x98>
    8000b3a8:	0017979b          	sllw	a5,a5,0x1
    8000b3ac:	0015859b          	addw	a1,a1,1
    8000b3b0:	ff67cce3          	blt	a5,s6,8000b3a8 <__gdtoa+0x8c>
    8000b3b4:	00040513          	mv	a0,s0
    8000b3b8:	595010ef          	jal	8000d14c <_Balloc>
    8000b3bc:	00050493          	mv	s1,a0
    8000b3c0:	2a0508e3          	beqz	a0,8000be70 <__gdtoa+0xb54>
    8000b3c4:	00813783          	ld	a5,8(sp)
    8000b3c8:	fffb051b          	addw	a0,s6,-1 # 7fffffff <__heap_size+0x7f7fffff>
    8000b3cc:	4055551b          	sraw	a0,a0,0x5
    8000b3d0:	00251593          	sll	a1,a0,0x2
    8000b3d4:	0f513c23          	sd	s5,248(sp)
    8000b3d8:	0da13823          	sd	s10,208(sp)
    8000b3dc:	00b785b3          	add	a1,a5,a1
    8000b3e0:	01848693          	add	a3,s1,24
    8000b3e4:	0007a703          	lw	a4,0(a5)
    8000b3e8:	00478793          	add	a5,a5,4
    8000b3ec:	00468693          	add	a3,a3,4
    8000b3f0:	fee6ae23          	sw	a4,-4(a3)
    8000b3f4:	fef5f8e3          	bgeu	a1,a5,8000b3e4 <__gdtoa+0xc8>
    8000b3f8:	00813783          	ld	a5,8(sp)
    8000b3fc:	00158593          	add	a1,a1,1
    8000b400:	00400693          	li	a3,4
    8000b404:	00178793          	add	a5,a5,1
    8000b408:	00f5e663          	bltu	a1,a5,8000b414 <__gdtoa+0xf8>
    8000b40c:	00251513          	sll	a0,a0,0x2
    8000b410:	00450693          	add	a3,a0,4
    8000b414:	4026d793          	sra	a5,a3,0x2
    8000b418:	00078d1b          	sext.w	s10,a5
    8000b41c:	00d486b3          	add	a3,s1,a3
    8000b420:	00c0006f          	j	8000b42c <__gdtoa+0x110>
    8000b424:	ffc68693          	add	a3,a3,-4
    8000b428:	740d0863          	beqz	s10,8000bb78 <__gdtoa+0x85c>
    8000b42c:	0146a783          	lw	a5,20(a3)
    8000b430:	000d0a93          	mv	s5,s10
    8000b434:	fffd0d1b          	addw	s10,s10,-1
    8000b438:	fe0786e3          	beqz	a5,8000b424 <__gdtoa+0x108>
    8000b43c:	004d0793          	add	a5,s10,4
    8000b440:	00279793          	sll	a5,a5,0x2
    8000b444:	00f487b3          	add	a5,s1,a5
    8000b448:	0087a503          	lw	a0,8(a5)
    8000b44c:	0154aa23          	sw	s5,20(s1)
    8000b450:	005a9a9b          	sllw	s5,s5,0x5
    8000b454:	078020ef          	jal	8000d4cc <__hi0bits>
    8000b458:	40aa8d3b          	subw	s10,s5,a0
    8000b45c:	00048513          	mv	a0,s1
    8000b460:	489010ef          	jal	8000d0e8 <__trailz_D2A>
    8000b464:	01013783          	ld	a5,16(sp)
    8000b468:	0aa12e23          	sw	a0,188(sp)
    8000b46c:	02f13c23          	sd	a5,56(sp)
    8000b470:	74051463          	bnez	a0,8000bbb8 <__gdtoa+0x89c>
    8000b474:	0144a683          	lw	a3,20(s1)
    8000b478:	62068663          	beqz	a3,8000baa4 <__gdtoa+0x788>
    8000b47c:	0bc10593          	add	a1,sp,188
    8000b480:	00048513          	mv	a0,s1
    8000b484:	0f713423          	sd	s7,232(sp)
    8000b488:	2d5020ef          	jal	8000df5c <__b2d>
    8000b48c:	00c51793          	sll	a5,a0,0xc
    8000b490:	3ff00637          	lui	a2,0x3ff00
    8000b494:	02c7d793          	srl	a5,a5,0x2c
    8000b498:	03813703          	ld	a4,56(sp)
    8000b49c:	fff00a93          	li	s5,-1
    8000b4a0:	00c7e6b3          	or	a3,a5,a2
    8000b4a4:	020ada93          	srl	s5,s5,0x20
    8000b4a8:	02069693          	sll	a3,a3,0x20
    8000b4ac:	00aafab3          	and	s5,s5,a0
    8000b4b0:	00daeab3          	or	s5,s5,a3
    8000b4b4:	01a7073b          	addw	a4,a4,s10
    8000b4b8:	00c7e7b3          	or	a5,a5,a2
    8000b4bc:	04e12023          	sw	a4,64(sp)
    8000b4c0:	00013597          	auipc	a1,0x13
    8000b4c4:	4705b583          	ld	a1,1136(a1) # 8001e930 <environ+0x8>
    8000b4c8:	fff7071b          	addw	a4,a4,-1
    8000b4cc:	000a8513          	mv	a0,s5
    8000b4d0:	00070c93          	mv	s9,a4
    8000b4d4:	02e13423          	sd	a4,40(sp)
    8000b4d8:	04f13423          	sd	a5,72(sp)
    8000b4dc:	304060ef          	jal	800117e0 <__subdf3>
    8000b4e0:	00013597          	auipc	a1,0x13
    8000b4e4:	4585b583          	ld	a1,1112(a1) # 8001e938 <environ+0x10>
    8000b4e8:	7b9050ef          	jal	800114a0 <__muldf3>
    8000b4ec:	00013597          	auipc	a1,0x13
    8000b4f0:	4545b583          	ld	a1,1108(a1) # 8001e940 <environ+0x18>
    8000b4f4:	614050ef          	jal	80010b08 <__adddf3>
    8000b4f8:	00050b93          	mv	s7,a0
    8000b4fc:	000c8513          	mv	a0,s9
    8000b500:	7a8060ef          	jal	80011ca8 <__floatsidf>
    8000b504:	00013597          	auipc	a1,0x13
    8000b508:	4445b583          	ld	a1,1092(a1) # 8001e948 <environ+0x20>
    8000b50c:	795050ef          	jal	800114a0 <__muldf3>
    8000b510:	00050593          	mv	a1,a0
    8000b514:	000b8513          	mv	a0,s7
    8000b518:	5f0050ef          	jal	80010b08 <__adddf3>
    8000b51c:	02813703          	ld	a4,40(sp)
    8000b520:	00050b93          	mv	s7,a0
    8000b524:	00070693          	mv	a3,a4
    8000b528:	00075863          	bgez	a4,8000b538 <__gdtoa+0x21c>
    8000b52c:	04012703          	lw	a4,64(sp)
    8000b530:	00100693          	li	a3,1
    8000b534:	40e686bb          	subw	a3,a3,a4
    8000b538:	bcb6869b          	addw	a3,a3,-1077
    8000b53c:	00068513          	mv	a0,a3
    8000b540:	02d05263          	blez	a3,8000b564 <__gdtoa+0x248>
    8000b544:	764060ef          	jal	80011ca8 <__floatsidf>
    8000b548:	00013597          	auipc	a1,0x13
    8000b54c:	4085b583          	ld	a1,1032(a1) # 8001e950 <environ+0x28>
    8000b550:	751050ef          	jal	800114a0 <__muldf3>
    8000b554:	00050593          	mv	a1,a0
    8000b558:	000b8513          	mv	a0,s7
    8000b55c:	5ac050ef          	jal	80010b08 <__adddf3>
    8000b560:	00050b93          	mv	s7,a0
    8000b564:	000b8513          	mv	a0,s7
    8000b568:	6dc060ef          	jal	80011c44 <__fixdfsi>
    8000b56c:	0005071b          	sext.w	a4,a0
    8000b570:	00000593          	li	a1,0
    8000b574:	000b8513          	mv	a0,s7
    8000b578:	02e12823          	sw	a4,48(sp)
    8000b57c:	02e13423          	sd	a4,40(sp)
    8000b580:	675050ef          	jal	800113f4 <__ledf2>
    8000b584:	2e054ce3          	bltz	a0,8000c07c <__gdtoa+0xd60>
    8000b588:	04813783          	ld	a5,72(sp)
    8000b58c:	02813503          	ld	a0,40(sp)
    8000b590:	014c969b          	sllw	a3,s9,0x14
    8000b594:	419d0cbb          	subw	s9,s10,s9
    8000b598:	00f686bb          	addw	a3,a3,a5
    8000b59c:	020a9a93          	sll	s5,s5,0x20
    8000b5a0:	fffc871b          	addw	a4,s9,-1
    8000b5a4:	02069693          	sll	a3,a3,0x20
    8000b5a8:	020ada93          	srl	s5,s5,0x20
    8000b5ac:	0005061b          	sext.w	a2,a0
    8000b5b0:	01600593          	li	a1,22
    8000b5b4:	02e13823          	sd	a4,48(sp)
    8000b5b8:	000c8793          	mv	a5,s9
    8000b5bc:	00daeab3          	or	s5,s5,a3
    8000b5c0:	5cc5e063          	bltu	a1,a2,8000bb80 <__gdtoa+0x864>
    8000b5c4:	00012617          	auipc	a2,0x12
    8000b5c8:	42460613          	add	a2,a2,1060 # 8001d9e8 <__mprec_tens>
    8000b5cc:	00351693          	sll	a3,a0,0x3
    8000b5d0:	00d606b3          	add	a3,a2,a3
    8000b5d4:	0006b503          	ld	a0,0(a3)
    8000b5d8:	000a8593          	mv	a1,s5
    8000b5dc:	05912423          	sw	s9,72(sp)
    8000b5e0:	569050ef          	jal	80011348 <__gedf2>
    8000b5e4:	000c8793          	mv	a5,s9
    8000b5e8:	0ea04ae3          	bgtz	a0,8000bedc <__gdtoa+0xbc0>
    8000b5ec:	06013423          	sd	zero,104(sp)
    8000b5f0:	00000b93          	li	s7,0
    8000b5f4:	01904863          	bgtz	s9,8000b604 <__gdtoa+0x2e8>
    8000b5f8:	00100693          	li	a3,1
    8000b5fc:	41968bbb          	subw	s7,a3,s9
    8000b600:	02013823          	sd	zero,48(sp)
    8000b604:	02813783          	ld	a5,40(sp)
    8000b608:	03013703          	ld	a4,48(sp)
    8000b60c:	04013823          	sd	zero,80(sp)
    8000b610:	04f13c23          	sd	a5,88(sp)
    8000b614:	00e7873b          	addw	a4,a5,a4
    8000b618:	02e13823          	sd	a4,48(sp)
    8000b61c:	00900693          	li	a3,9
    8000b620:	5bb6ee63          	bltu	a3,s11,8000bbdc <__gdtoa+0x8c0>
    8000b624:	00500693          	li	a3,5
    8000b628:	09b6c6e3          	blt	a3,s11,8000beb4 <__gdtoa+0xb98>
    8000b62c:	04012783          	lw	a5,64(sp)
    8000b630:	00400613          	li	a2,4
    8000b634:	3fd78c9b          	addw	s9,a5,1021
    8000b638:	7f8cb793          	sltiu	a5,s9,2040
    8000b63c:	06f13823          	sd	a5,112(sp)
    8000b640:	00cd9463          	bne	s11,a2,8000b648 <__gdtoa+0x32c>
    8000b644:	7590006f          	j	8000c59c <__gdtoa+0x1280>
    8000b648:	00dd9463          	bne	s11,a3,8000b650 <__gdtoa+0x334>
    8000b64c:	7450006f          	j	8000c590 <__gdtoa+0x1274>
    8000b650:	00200693          	li	a3,2
    8000b654:	00dd9463          	bne	s11,a3,8000b65c <__gdtoa+0x340>
    8000b658:	7510006f          	j	8000c5a8 <__gdtoa+0x128c>
    8000b65c:	00300693          	li	a3,3
    8000b660:	06013023          	sd	zero,96(sp)
    8000b664:	58dd9663          	bne	s11,a3,8000bbf0 <__gdtoa+0x8d4>
    8000b668:	05813783          	ld	a5,88(sp)
    8000b66c:	01813703          	ld	a4,24(sp)
    8000b670:	00e7873b          	addw	a4,a5,a4
    8000b674:	0017079b          	addw	a5,a4,1
    8000b678:	04f13423          	sd	a5,72(sp)
    8000b67c:	06e13c23          	sd	a4,120(sp)
    8000b680:	48f05ce3          	blez	a5,8000c318 <__gdtoa+0xffc>
    8000b684:	00078693          	mv	a3,a5
    8000b688:	00078593          	mv	a1,a5
    8000b68c:	00040513          	mv	a0,s0
    8000b690:	0ad12e23          	sw	a3,188(sp)
    8000b694:	61c010ef          	jal	8000ccb0 <__rv_alloc_D2A>
    8000b698:	00050c93          	mv	s9,a0
    8000b69c:	4a050c63          	beqz	a0,8000bb54 <__gdtoa+0x838>
    8000b6a0:	02013783          	ld	a5,32(sp)
    8000b6a4:	00c7a783          	lw	a5,12(a5)
    8000b6a8:	fff7879b          	addw	a5,a5,-1
    8000b6ac:	04f13023          	sd	a5,64(sp)
    8000b6b0:	58078663          	beqz	a5,8000bc3c <__gdtoa+0x920>
    8000b6b4:	7e07ca63          	bltz	a5,8000bea8 <__gdtoa+0xb8c>
    8000b6b8:	100c7313          	and	t1,s8,256
    8000b6bc:	56031863          	bnez	t1,8000bc2c <__gdtoa+0x910>
    8000b6c0:	03813783          	ld	a5,56(sp)
    8000b6c4:	0007c863          	bltz	a5,8000b6d4 <__gdtoa+0x3b8>
    8000b6c8:	05813783          	ld	a5,88(sp)
    8000b6cc:	00e00693          	li	a3,14
    8000b6d0:	02f6d0e3          	bge	a3,a5,8000bef0 <__gdtoa+0xbd4>
    8000b6d4:	06013783          	ld	a5,96(sp)
    8000b6d8:	7c078063          	beqz	a5,8000be98 <__gdtoa+0xb7c>
    8000b6dc:	02013783          	ld	a5,32(sp)
    8000b6e0:	41ab083b          	subw	a6,s6,s10
    8000b6e4:	0018061b          	addw	a2,a6,1
    8000b6e8:	0047a683          	lw	a3,4(a5)
    8000b6ec:	03813783          	ld	a5,56(sp)
    8000b6f0:	0ac12e23          	sw	a2,188(sp)
    8000b6f4:	4107883b          	subw	a6,a5,a6
    8000b6f8:	46d85ce3          	bge	a6,a3,8000c370 <__gdtoa+0x1054>
    8000b6fc:	ffdd861b          	addw	a2,s11,-3
    8000b700:	ffd67613          	and	a2,a2,-3
    8000b704:	0006061b          	sext.w	a2,a2
    8000b708:	380600e3          	beqz	a2,8000c288 <__gdtoa+0xf6c>
    8000b70c:	40d786bb          	subw	a3,a5,a3
    8000b710:	0016859b          	addw	a1,a3,1
    8000b714:	0ab12e23          	sw	a1,188(sp)
    8000b718:	00100613          	li	a2,1
    8000b71c:	00058693          	mv	a3,a1
    8000b720:	01b65c63          	bge	a2,s11,8000b738 <__gdtoa+0x41c>
    8000b724:	04813783          	ld	a5,72(sp)
    8000b728:	00f05863          	blez	a5,8000b738 <__gdtoa+0x41c>
    8000b72c:	04813783          	ld	a5,72(sp)
    8000b730:	00b7d463          	bge	a5,a1,8000b738 <__gdtoa+0x41c>
    8000b734:	37c0106f          	j	8000cab0 <__gdtoa+0x1794>
    8000b738:	03013783          	ld	a5,48(sp)
    8000b73c:	05013c03          	ld	s8,80(sp)
    8000b740:	000b8b13          	mv	s6,s7
    8000b744:	00f687bb          	addw	a5,a3,a5
    8000b748:	02f13823          	sd	a5,48(sp)
    8000b74c:	01768bbb          	addw	s7,a3,s7
    8000b750:	00100593          	li	a1,1
    8000b754:	00040513          	mv	a0,s0
    8000b758:	6d1010ef          	jal	8000d628 <__i2b>
    8000b75c:	00050a93          	mv	s5,a0
    8000b760:	3e050a63          	beqz	a0,8000bb54 <__gdtoa+0x838>
    8000b764:	020b0863          	beqz	s6,8000b794 <__gdtoa+0x478>
    8000b768:	03013783          	ld	a5,48(sp)
    8000b76c:	02f05463          	blez	a5,8000b794 <__gdtoa+0x478>
    8000b770:	000b0693          	mv	a3,s6
    8000b774:	0167d463          	bge	a5,s6,8000b77c <__gdtoa+0x460>
    8000b778:	00078693          	mv	a3,a5
    8000b77c:	03013783          	ld	a5,48(sp)
    8000b780:	0ad12e23          	sw	a3,188(sp)
    8000b784:	40db8bbb          	subw	s7,s7,a3
    8000b788:	40d787bb          	subw	a5,a5,a3
    8000b78c:	40db0b3b          	subw	s6,s6,a3
    8000b790:	02f13823          	sd	a5,48(sp)
    8000b794:	05013783          	ld	a5,80(sp)
    8000b798:	02078463          	beqz	a5,8000b7c0 <__gdtoa+0x4a4>
    8000b79c:	06013783          	ld	a5,96(sp)
    8000b7a0:	00078463          	beqz	a5,8000b7a8 <__gdtoa+0x48c>
    8000b7a4:	480c14e3          	bnez	s8,8000c42c <__gdtoa+0x1110>
    8000b7a8:	05013603          	ld	a2,80(sp)
    8000b7ac:	00048593          	mv	a1,s1
    8000b7b0:	00040513          	mv	a0,s0
    8000b7b4:	160020ef          	jal	8000d914 <__pow5mult>
    8000b7b8:	00050493          	mv	s1,a0
    8000b7bc:	38050c63          	beqz	a0,8000bb54 <__gdtoa+0x838>
    8000b7c0:	00100593          	li	a1,1
    8000b7c4:	00040513          	mv	a0,s0
    8000b7c8:	661010ef          	jal	8000d628 <__i2b>
    8000b7cc:	00050313          	mv	t1,a0
    8000b7d0:	38050263          	beqz	a0,8000bb54 <__gdtoa+0x838>
    8000b7d4:	02813783          	ld	a5,40(sp)
    8000b7d8:	340796e3          	bnez	a5,8000c324 <__gdtoa+0x1008>
    8000b7dc:	00100693          	li	a3,1
    8000b7e0:	07b6d4e3          	bge	a3,s11,8000c048 <__gdtoa+0xd2c>
    8000b7e4:	01f00513          	li	a0,31
    8000b7e8:	03013783          	ld	a5,48(sp)
    8000b7ec:	40f509bb          	subw	s3,a0,a5
    8000b7f0:	ffc9899b          	addw	s3,s3,-4
    8000b7f4:	01f9f993          	and	s3,s3,31
    8000b7f8:	0b312e23          	sw	s3,188(sp)
    8000b7fc:	0179863b          	addw	a2,s3,s7
    8000b800:	00098793          	mv	a5,s3
    8000b804:	16c040e3          	bgtz	a2,8000c164 <__gdtoa+0xe48>
    8000b808:	03013703          	ld	a4,48(sp)
    8000b80c:	00f7063b          	addw	a2,a4,a5
    8000b810:	32c04863          	bgtz	a2,8000bb40 <__gdtoa+0x824>
    8000b814:	06813783          	ld	a5,104(sp)
    8000b818:	160798e3          	bnez	a5,8000c188 <__gdtoa+0xe6c>
    8000b81c:	04813783          	ld	a5,72(sp)
    8000b820:	28f058e3          	blez	a5,8000c2b0 <__gdtoa+0xf94>
    8000b824:	06013783          	ld	a5,96(sp)
    8000b828:	1a078ce3          	beqz	a5,8000c1e0 <__gdtoa+0xec4>
    8000b82c:	0169863b          	addw	a2,s3,s6
    8000b830:	52c048e3          	bgtz	a2,8000c560 <__gdtoa+0x1244>
    8000b834:	02813783          	ld	a5,40(sp)
    8000b838:	000a8b93          	mv	s7,s5
    8000b83c:	5a0792e3          	bnez	a5,8000c5e0 <__gdtoa+0x12c4>
    8000b840:	000c8d13          	mv	s10,s9
    8000b844:	01913c23          	sd	s9,24(sp)
    8000b848:	04813983          	ld	s3,72(sp)
    8000b84c:	00100693          	li	a3,1
    8000b850:	00030c93          	mv	s9,t1
    8000b854:	03413023          	sd	s4,32(sp)
    8000b858:	03213423          	sd	s2,40(sp)
    8000b85c:	0b00006f          	j	8000b90c <__gdtoa+0x5f0>
    8000b860:	00040513          	mv	a0,s0
    8000b864:	195010ef          	jal	8000d1f8 <_Bfree>
    8000b868:	640b40e3          	bltz	s6,8000c6a8 <__gdtoa+0x138c>
    8000b86c:	016deb33          	or	s6,s11,s6
    8000b870:	000b0b1b          	sext.w	s6,s6
    8000b874:	000b1a63          	bnez	s6,8000b888 <__gdtoa+0x56c>
    8000b878:	00813783          	ld	a5,8(sp)
    8000b87c:	0007a783          	lw	a5,0(a5)
    8000b880:	0017f793          	and	a5,a5,1
    8000b884:	620782e3          	beqz	a5,8000c6a8 <__gdtoa+0x138c>
    8000b888:	04013783          	ld	a5,64(sp)
    8000b88c:	00200713          	li	a4,2
    8000b890:	00e78463          	beq	a5,a4,8000b898 <__gdtoa+0x57c>
    8000b894:	1440106f          	j	8000c9d8 <__gdtoa+0x16bc>
    8000b898:	014d0023          	sb	s4,0(s10)
    8000b89c:	0bc12783          	lw	a5,188(sp)
    8000b8a0:	001d0d13          	add	s10,s10,1
    8000b8a4:	01379463          	bne	a5,s3,8000b8ac <__gdtoa+0x590>
    8000b8a8:	04c0106f          	j	8000c8f4 <__gdtoa+0x15d8>
    8000b8ac:	00048593          	mv	a1,s1
    8000b8b0:	00000693          	li	a3,0
    8000b8b4:	00a00613          	li	a2,10
    8000b8b8:	00040513          	mv	a0,s0
    8000b8bc:	161010ef          	jal	8000d21c <__multadd>
    8000b8c0:	00050493          	mv	s1,a0
    8000b8c4:	28050863          	beqz	a0,8000bb54 <__gdtoa+0x838>
    8000b8c8:	00000693          	li	a3,0
    8000b8cc:	00a00613          	li	a2,10
    8000b8d0:	000a8593          	mv	a1,s5
    8000b8d4:	00040513          	mv	a0,s0
    8000b8d8:	7f7a8c63          	beq	s5,s7,8000c0d0 <__gdtoa+0xdb4>
    8000b8dc:	141010ef          	jal	8000d21c <__multadd>
    8000b8e0:	00050a93          	mv	s5,a0
    8000b8e4:	26050863          	beqz	a0,8000bb54 <__gdtoa+0x838>
    8000b8e8:	000b8593          	mv	a1,s7
    8000b8ec:	00000693          	li	a3,0
    8000b8f0:	00a00613          	li	a2,10
    8000b8f4:	00040513          	mv	a0,s0
    8000b8f8:	125010ef          	jal	8000d21c <__multadd>
    8000b8fc:	00050b93          	mv	s7,a0
    8000b900:	24050a63          	beqz	a0,8000bb54 <__gdtoa+0x838>
    8000b904:	0bc12683          	lw	a3,188(sp)
    8000b908:	0016869b          	addw	a3,a3,1
    8000b90c:	000c8593          	mv	a1,s9
    8000b910:	00048513          	mv	a0,s1
    8000b914:	0ad12e23          	sw	a3,188(sp)
    8000b918:	4e4010ef          	jal	8000cdfc <__quorem_D2A>
    8000b91c:	03050a1b          	addw	s4,a0,48
    8000b920:	000a8593          	mv	a1,s5
    8000b924:	00050913          	mv	s2,a0
    8000b928:	00048513          	mv	a0,s1
    8000b92c:	2dc020ef          	jal	8000dc08 <__mcmp>
    8000b930:	000c8593          	mv	a1,s9
    8000b934:	00050b13          	mv	s6,a0
    8000b938:	000b8613          	mv	a2,s7
    8000b93c:	00040513          	mv	a0,s0
    8000b940:	320020ef          	jal	8000dc60 <__mdiff>
    8000b944:	000a0c13          	mv	s8,s4
    8000b948:	00050593          	mv	a1,a0
    8000b94c:	20050463          	beqz	a0,8000bb54 <__gdtoa+0x838>
    8000b950:	01052783          	lw	a5,16(a0)
    8000b954:	f00796e3          	bnez	a5,8000b860 <__gdtoa+0x544>
    8000b958:	00a13823          	sd	a0,16(sp)
    8000b95c:	00048513          	mv	a0,s1
    8000b960:	2a8020ef          	jal	8000dc08 <__mcmp>
    8000b964:	01013583          	ld	a1,16(sp)
    8000b968:	00050693          	mv	a3,a0
    8000b96c:	00040513          	mv	a0,s0
    8000b970:	00d13823          	sd	a3,16(sp)
    8000b974:	085010ef          	jal	8000d1f8 <_Bfree>
    8000b978:	01013683          	ld	a3,16(sp)
    8000b97c:	00dde733          	or	a4,s11,a3
    8000b980:	0007071b          	sext.w	a4,a4
    8000b984:	00070463          	beqz	a4,8000b98c <__gdtoa+0x670>
    8000b988:	2840106f          	j	8000cc0c <__gdtoa+0x18f0>
    8000b98c:	00813783          	ld	a5,8(sp)
    8000b990:	0007a783          	lw	a5,0(a5)
    8000b994:	0017f793          	and	a5,a5,1
    8000b998:	74079663          	bnez	a5,8000c0e4 <__gdtoa+0xdc8>
    8000b99c:	04013783          	ld	a5,64(sp)
    8000b9a0:	00079463          	bnez	a5,8000b9a8 <__gdtoa+0x68c>
    8000b9a4:	1400106f          	j	8000cae4 <__gdtoa+0x17c8>
    8000b9a8:	ef6048e3          	bgtz	s6,8000b898 <__gdtoa+0x57c>
    8000b9ac:	0144a603          	lw	a2,20(s1)
    8000b9b0:	00100693          	li	a3,1
    8000b9b4:	000a0813          	mv	a6,s4
    8000b9b8:	000c8313          	mv	t1,s9
    8000b9bc:	02013a03          	ld	s4,32(sp)
    8000b9c0:	01813c83          	ld	s9,24(sp)
    8000b9c4:	02813903          	ld	s2,40(sp)
    8000b9c8:	00070993          	mv	s3,a4
    8000b9cc:	00c6c463          	blt	a3,a2,8000b9d4 <__gdtoa+0x6b8>
    8000b9d0:	2080106f          	j	8000cbd8 <__gdtoa+0x18bc>
    8000b9d4:	04013783          	ld	a5,64(sp)
    8000b9d8:	00200693          	li	a3,2
    8000b9dc:	00080b13          	mv	s6,a6
    8000b9e0:	00030d93          	mv	s11,t1
    8000b9e4:	02d79463          	bne	a5,a3,8000ba0c <__gdtoa+0x6f0>
    8000b9e8:	1c40106f          	j	8000cbac <__gdtoa+0x1890>
    8000b9ec:	031010ef          	jal	8000d21c <__multadd>
    8000b9f0:	000d8593          	mv	a1,s11
    8000b9f4:	00050493          	mv	s1,a0
    8000b9f8:	14050e63          	beqz	a0,8000bb54 <__gdtoa+0x838>
    8000b9fc:	400010ef          	jal	8000cdfc <__quorem_D2A>
    8000ba00:	03050b1b          	addw	s6,a0,48
    8000ba04:	000c0d13          	mv	s10,s8
    8000ba08:	00098b93          	mv	s7,s3
    8000ba0c:	000b8593          	mv	a1,s7
    8000ba10:	000d8513          	mv	a0,s11
    8000ba14:	1f4020ef          	jal	8000dc08 <__mcmp>
    8000ba18:	00050793          	mv	a5,a0
    8000ba1c:	00000693          	li	a3,0
    8000ba20:	00a00613          	li	a2,10
    8000ba24:	000b8593          	mv	a1,s7
    8000ba28:	00040513          	mv	a0,s0
    8000ba2c:	001d0c13          	add	s8,s10,1
    8000ba30:	00f04463          	bgtz	a5,8000ba38 <__gdtoa+0x71c>
    8000ba34:	1600106f          	j	8000cb94 <__gdtoa+0x1878>
    8000ba38:	ff6c0fa3          	sb	s6,-1(s8)
    8000ba3c:	7e0010ef          	jal	8000d21c <__multadd>
    8000ba40:	00050993          	mv	s3,a0
    8000ba44:	00000693          	li	a3,0
    8000ba48:	00a00613          	li	a2,10
    8000ba4c:	00048593          	mv	a1,s1
    8000ba50:	00040513          	mv	a0,s0
    8000ba54:	10098063          	beqz	s3,8000bb54 <__gdtoa+0x838>
    8000ba58:	f97a9ae3          	bne	s5,s7,8000b9ec <__gdtoa+0x6d0>
    8000ba5c:	00098a93          	mv	s5,s3
    8000ba60:	f8dff06f          	j	8000b9ec <__gdtoa+0x6d0>
    8000ba64:	00400793          	li	a5,4
    8000ba68:	10fe1463          	bne	t3,a5,8000bb70 <__gdtoa+0x854>
    8000ba6c:	00013603          	ld	a2,0(sp)
    8000ba70:	10813983          	ld	s3,264(sp)
    8000ba74:	0d813c83          	ld	s9,216(sp)
    8000ba78:	12813083          	ld	ra,296(sp)
    8000ba7c:	11013903          	ld	s2,272(sp)
    8000ba80:	10013a03          	ld	s4,256(sp)
    8000ba84:	0e013c03          	ld	s8,224(sp)
    8000ba88:	ffff87b7          	lui	a5,0xffff8
    8000ba8c:	00f8a023          	sw	a5,0(a7)
    8000ba90:	00300693          	li	a3,3
    8000ba94:	00012597          	auipc	a1,0x12
    8000ba98:	abc58593          	add	a1,a1,-1348 # 8001d550 <s_box+0x308>
    8000ba9c:	13010113          	add	sp,sp,304
    8000baa0:	27c0106f          	j	8000cd1c <__nrv_alloc_D2A>
    8000baa4:	00048593          	mv	a1,s1
    8000baa8:	00040513          	mv	a0,s0
    8000baac:	74c010ef          	jal	8000d1f8 <_Bfree>
    8000bab0:	11813483          	ld	s1,280(sp)
    8000bab4:	0f813a83          	ld	s5,248(sp)
    8000bab8:	0f013b03          	ld	s6,240(sp)
    8000babc:	0d013d03          	ld	s10,208(sp)
    8000bac0:	0c813d83          	ld	s11,200(sp)
    8000bac4:	00013603          	ld	a2,0(sp)
    8000bac8:	00100793          	li	a5,1
    8000bacc:	00040513          	mv	a0,s0
    8000bad0:	00f92023          	sw	a5,0(s2)
    8000bad4:	00100693          	li	a3,1
    8000bad8:	00012597          	auipc	a1,0x12
    8000badc:	a6058593          	add	a1,a1,-1440 # 8001d538 <s_box+0x2f0>
    8000bae0:	23c010ef          	jal	8000cd1c <__nrv_alloc_D2A>
    8000bae4:	12013403          	ld	s0,288(sp)
    8000bae8:	00050c93          	mv	s9,a0
    8000baec:	12813083          	ld	ra,296(sp)
    8000baf0:	10813983          	ld	s3,264(sp)
    8000baf4:	11013903          	ld	s2,272(sp)
    8000baf8:	10013a03          	ld	s4,256(sp)
    8000bafc:	0e013c03          	ld	s8,224(sp)
    8000bb00:	000c8513          	mv	a0,s9
    8000bb04:	0d813c83          	ld	s9,216(sp)
    8000bb08:	13010113          	add	sp,sp,304
    8000bb0c:	00008067          	ret
    8000bb10:	00013603          	ld	a2,0(sp)
    8000bb14:	12813083          	ld	ra,296(sp)
    8000bb18:	11013903          	ld	s2,272(sp)
    8000bb1c:	10013a03          	ld	s4,256(sp)
    8000bb20:	0e013c03          	ld	s8,224(sp)
    8000bb24:	ffff87b7          	lui	a5,0xffff8
    8000bb28:	00f8a023          	sw	a5,0(a7)
    8000bb2c:	00800693          	li	a3,8
    8000bb30:	00012597          	auipc	a1,0x12
    8000bb34:	a1058593          	add	a1,a1,-1520 # 8001d540 <s_box+0x2f8>
    8000bb38:	13010113          	add	sp,sp,304
    8000bb3c:	1e00106f          	j	8000cd1c <__nrv_alloc_D2A>
    8000bb40:	00030593          	mv	a1,t1
    8000bb44:	00040513          	mv	a0,s0
    8000bb48:	71d010ef          	jal	8000da64 <__lshift>
    8000bb4c:	00050313          	mv	t1,a0
    8000bb50:	cc0512e3          	bnez	a0,8000b814 <__gdtoa+0x4f8>
    8000bb54:	12013403          	ld	s0,288(sp)
    8000bb58:	11813483          	ld	s1,280(sp)
    8000bb5c:	0f813a83          	ld	s5,248(sp)
    8000bb60:	0f013b03          	ld	s6,240(sp)
    8000bb64:	0e813b83          	ld	s7,232(sp)
    8000bb68:	0d013d03          	ld	s10,208(sp)
    8000bb6c:	0c813d83          	ld	s11,200(sp)
    8000bb70:	00000c93          	li	s9,0
    8000bb74:	f79ff06f          	j	8000baec <__gdtoa+0x7d0>
    8000bb78:	0004aa23          	sw	zero,20(s1)
    8000bb7c:	8e1ff06f          	j	8000b45c <__gdtoa+0x140>
    8000bb80:	00100713          	li	a4,1
    8000bb84:	06e13423          	sd	a4,104(sp)
    8000bb88:	03013703          	ld	a4,48(sp)
    8000bb8c:	00000b93          	li	s7,0
    8000bb90:	2e074c63          	bltz	a4,8000be88 <__gdtoa+0xb6c>
    8000bb94:	02813783          	ld	a5,40(sp)
    8000bb98:	a607d6e3          	bgez	a5,8000b604 <__gdtoa+0x2e8>
    8000bb9c:	02813783          	ld	a5,40(sp)
    8000bba0:	02013423          	sd	zero,40(sp)
    8000bba4:	40f0073b          	negw	a4,a5
    8000bba8:	40fb8bbb          	subw	s7,s7,a5
    8000bbac:	04e13823          	sd	a4,80(sp)
    8000bbb0:	04f13c23          	sd	a5,88(sp)
    8000bbb4:	a69ff06f          	j	8000b61c <__gdtoa+0x300>
    8000bbb8:	00050593          	mv	a1,a0
    8000bbbc:	00048513          	mv	a0,s1
    8000bbc0:	440010ef          	jal	8000d000 <__rshift_D2A>
    8000bbc4:	0bc12683          	lw	a3,188(sp)
    8000bbc8:	01013783          	ld	a5,16(sp)
    8000bbcc:	40dd0d3b          	subw	s10,s10,a3
    8000bbd0:	00f687bb          	addw	a5,a3,a5
    8000bbd4:	02f13c23          	sd	a5,56(sp)
    8000bbd8:	89dff06f          	j	8000b474 <__gdtoa+0x158>
    8000bbdc:	04012783          	lw	a5,64(sp)
    8000bbe0:	00000d93          	li	s11,0
    8000bbe4:	3fd78c9b          	addw	s9,a5,1021 # ffffffffffff83fd <__heap_end+0xffffffff7f7d93fd>
    8000bbe8:	7f8cb793          	sltiu	a5,s9,2040
    8000bbec:	06f13823          	sd	a5,112(sp)
    8000bbf0:	000b0513          	mv	a0,s6
    8000bbf4:	0b4060ef          	jal	80011ca8 <__floatsidf>
    8000bbf8:	00013597          	auipc	a1,0x13
    8000bbfc:	d605b583          	ld	a1,-672(a1) # 8001e958 <environ+0x30>
    8000bc00:	0a1050ef          	jal	800114a0 <__muldf3>
    8000bc04:	040060ef          	jal	80011c44 <__fixdfsi>
    8000bc08:	00100793          	li	a5,1
    8000bc0c:	0035059b          	addw	a1,a0,3
    8000bc10:	06f13023          	sd	a5,96(sp)
    8000bc14:	fff00793          	li	a5,-1
    8000bc18:	00058693          	mv	a3,a1
    8000bc1c:	00013c23          	sd	zero,24(sp)
    8000bc20:	06f13c23          	sd	a5,120(sp)
    8000bc24:	04f13423          	sd	a5,72(sp)
    8000bc28:	a65ff06f          	j	8000b68c <__gdtoa+0x370>
    8000bc2c:	04013783          	ld	a5,64(sp)
    8000bc30:	00300693          	li	a3,3
    8000bc34:	40f687bb          	subw	a5,a3,a5
    8000bc38:	04f13023          	sd	a5,64(sp)
    8000bc3c:	04813c03          	ld	s8,72(sp)
    8000bc40:	00e00613          	li	a2,14
    8000bc44:	000c069b          	sext.w	a3,s8
    8000bc48:	a6d66ce3          	bltu	a2,a3,8000b6c0 <__gdtoa+0x3a4>
    8000bc4c:	07013703          	ld	a4,112(sp)
    8000bc50:	a60708e3          	beqz	a4,8000b6c0 <__gdtoa+0x3a4>
    8000bc54:	05813703          	ld	a4,88(sp)
    8000bc58:	04013683          	ld	a3,64(sp)
    8000bc5c:	00d766b3          	or	a3,a4,a3
    8000bc60:	0006869b          	sext.w	a3,a3
    8000bc64:	a4069ee3          	bnez	a3,8000b6c0 <__gdtoa+0x3a4>
    8000bc68:	06813703          	ld	a4,104(sp)
    8000bc6c:	0a012e23          	sw	zero,188(sp)
    8000bc70:	05513023          	sd	s5,64(sp)
    8000bc74:	00070c63          	beqz	a4,8000bc8c <__gdtoa+0x970>
    8000bc78:	00013597          	auipc	a1,0x13
    8000bc7c:	ce85b583          	ld	a1,-792(a1) # 8001e960 <environ+0x38>
    8000bc80:	000a8513          	mv	a0,s5
    8000bc84:	770050ef          	jal	800113f4 <__ledf2>
    8000bc88:	480546e3          	bltz	a0,8000c914 <__gdtoa+0x15f8>
    8000bc8c:	000a8593          	mv	a1,s5
    8000bc90:	000a8513          	mv	a0,s5
    8000bc94:	675040ef          	jal	80010b08 <__adddf3>
    8000bc98:	00013597          	auipc	a1,0x13
    8000bc9c:	ce05b583          	ld	a1,-800(a1) # 8001e978 <environ+0x50>
    8000bca0:	669040ef          	jal	80010b08 <__adddf3>
    8000bca4:	02055613          	srl	a2,a0,0x20
    8000bca8:	fcc006b7          	lui	a3,0xfcc00
    8000bcac:	00c686bb          	addw	a3,a3,a2
    8000bcb0:	fff00613          	li	a2,-1
    8000bcb4:	02065613          	srl	a2,a2,0x20
    8000bcb8:	02069693          	sll	a3,a3,0x20
    8000bcbc:	00a67633          	and	a2,a2,a0
    8000bcc0:	00d667b3          	or	a5,a2,a3
    8000bcc4:	06f13823          	sd	a5,112(sp)
    8000bcc8:	04813783          	ld	a5,72(sp)
    8000bccc:	7e078a63          	beqz	a5,8000c4c0 <__gdtoa+0x11a4>
    8000bcd0:	04813783          	ld	a5,72(sp)
    8000bcd4:	08013423          	sd	zero,136(sp)
    8000bcd8:	09513823          	sd	s5,144(sp)
    8000bcdc:	08f13023          	sd	a5,128(sp)
    8000bce0:	08013783          	ld	a5,128(sp)
    8000bce4:	06013703          	ld	a4,96(sp)
    8000bce8:	00012617          	auipc	a2,0x12
    8000bcec:	d0060613          	add	a2,a2,-768 # 8001d9e8 <__mprec_tens>
    8000bcf0:	fff7869b          	addw	a3,a5,-1
    8000bcf4:	00369693          	sll	a3,a3,0x3
    8000bcf8:	00d606b3          	add	a3,a2,a3
    8000bcfc:	0006b583          	ld	a1,0(a3) # fffffffffcc00000 <__heap_end+0xffffffff7c3e1000>
    8000bd00:	28070ce3          	beqz	a4,8000c798 <__gdtoa+0x147c>
    8000bd04:	00013517          	auipc	a0,0x13
    8000bd08:	c8453503          	ld	a0,-892(a0) # 8001e988 <environ+0x60>
    8000bd0c:	0ac13023          	sd	a2,160(sp)
    8000bd10:	260050ef          	jal	80010f70 <__divdf3>
    8000bd14:	07013583          	ld	a1,112(sp)
    8000bd18:	001c8c13          	add	s8,s9,1
    8000bd1c:	2c5050ef          	jal	800117e0 <__subdf3>
    8000bd20:	09013a83          	ld	s5,144(sp)
    8000bd24:	00050593          	mv	a1,a0
    8000bd28:	06b13823          	sd	a1,112(sp)
    8000bd2c:	000a8513          	mv	a0,s5
    8000bd30:	715050ef          	jal	80011c44 <__fixdfsi>
    8000bd34:	08a12823          	sw	a0,144(sp)
    8000bd38:	771050ef          	jal	80011ca8 <__floatsidf>
    8000bd3c:	00050593          	mv	a1,a0
    8000bd40:	000a8513          	mv	a0,s5
    8000bd44:	29d050ef          	jal	800117e0 <__subdf3>
    8000bd48:	09012303          	lw	t1,144(sp)
    8000bd4c:	00050a93          	mv	s5,a0
    8000bd50:	00050593          	mv	a1,a0
    8000bd54:	07013503          	ld	a0,112(sp)
    8000bd58:	0303031b          	addw	t1,t1,48
    8000bd5c:	006c8023          	sb	t1,0(s9)
    8000bd60:	5e8050ef          	jal	80011348 <__gedf2>
    8000bd64:	4ea04ce3          	bgtz	a0,8000ca5c <__gdtoa+0x1740>
    8000bd68:	00012617          	auipc	a2,0x12
    8000bd6c:	c8060613          	add	a2,a2,-896 # 8001d9e8 <__mprec_tens>
    8000bd70:	09713823          	sd	s7,144(sp)
    8000bd74:	09313c23          	sd	s3,152(sp)
    8000bd78:	08013b83          	ld	s7,128(sp)
    8000bd7c:	07013983          	ld	s3,112(sp)
    8000bd80:	08c13023          	sd	a2,128(sp)
    8000bd84:	06813823          	sd	s0,112(sp)
    8000bd88:	0680006f          	j	8000bdf0 <__gdtoa+0xad4>
    8000bd8c:	0bc12783          	lw	a5,188(sp)
    8000bd90:	0017871b          	addw	a4,a5,1
    8000bd94:	0ae12e23          	sw	a4,188(sp)
    8000bd98:	4f775ae3          	bge	a4,s7,8000ca8c <__gdtoa+0x1770>
    8000bd9c:	704050ef          	jal	800114a0 <__muldf3>
    8000bda0:	00013797          	auipc	a5,0x13
    8000bda4:	bc878793          	add	a5,a5,-1080 # 8001e968 <environ+0x40>
    8000bda8:	0007b583          	ld	a1,0(a5)
    8000bdac:	00050993          	mv	s3,a0
    8000bdb0:	000a8513          	mv	a0,s5
    8000bdb4:	6ec050ef          	jal	800114a0 <__muldf3>
    8000bdb8:	00050a93          	mv	s5,a0
    8000bdbc:	689050ef          	jal	80011c44 <__fixdfsi>
    8000bdc0:	00050413          	mv	s0,a0
    8000bdc4:	6e5050ef          	jal	80011ca8 <__floatsidf>
    8000bdc8:	00050593          	mv	a1,a0
    8000bdcc:	000a8513          	mv	a0,s5
    8000bdd0:	211050ef          	jal	800117e0 <__subdf3>
    8000bdd4:	001c0c13          	add	s8,s8,1
    8000bdd8:	0304079b          	addw	a5,s0,48 # 1fff030 <__heap_size+0x17ff030>
    8000bddc:	fefc0fa3          	sb	a5,-1(s8)
    8000bde0:	00098593          	mv	a1,s3
    8000bde4:	00050a93          	mv	s5,a0
    8000bde8:	60c050ef          	jal	800113f4 <__ledf2>
    8000bdec:	460546e3          	bltz	a0,8000ca58 <__gdtoa+0x173c>
    8000bdf0:	00013797          	auipc	a5,0x13
    8000bdf4:	b7078793          	add	a5,a5,-1168 # 8001e960 <environ+0x38>
    8000bdf8:	0007b503          	ld	a0,0(a5)
    8000bdfc:	000a8593          	mv	a1,s5
    8000be00:	1e1050ef          	jal	800117e0 <__subdf3>
    8000be04:	00050593          	mv	a1,a0
    8000be08:	00098513          	mv	a0,s3
    8000be0c:	53c050ef          	jal	80011348 <__gedf2>
    8000be10:	00050793          	mv	a5,a0
    8000be14:	00013717          	auipc	a4,0x13
    8000be18:	b5470713          	add	a4,a4,-1196 # 8001e968 <environ+0x40>
    8000be1c:	00073583          	ld	a1,0(a4)
    8000be20:	00098513          	mv	a0,s3
    8000be24:	f6f054e3          	blez	a5,8000bd8c <__gdtoa+0xa70>
    8000be28:	08813783          	ld	a5,136(sp)
    8000be2c:	07013403          	ld	s0,112(sp)
    8000be30:	fffc4a83          	lbu	s5,-1(s8)
    8000be34:	0017879b          	addw	a5,a5,1
    8000be38:	00f12823          	sw	a5,16(sp)
    8000be3c:	03900613          	li	a2,57
    8000be40:	0100006f          	j	8000be50 <__gdtoa+0xb34>
    8000be44:	14fc80e3          	beq	s9,a5,8000c784 <__gdtoa+0x1468>
    8000be48:	fff7ca83          	lbu	s5,-1(a5)
    8000be4c:	00078c13          	mv	s8,a5
    8000be50:	fffc0793          	add	a5,s8,-1
    8000be54:	feca88e3          	beq	s5,a2,8000be44 <__gdtoa+0xb28>
    8000be58:	001a861b          	addw	a2,s5,1
    8000be5c:	0ff67613          	zext.b	a2,a2
    8000be60:	01012d83          	lw	s11,16(sp)
    8000be64:	00c78023          	sb	a2,0(a5)
    8000be68:	02000993          	li	s3,32
    8000be6c:	1900006f          	j	8000bffc <__gdtoa+0xce0>
    8000be70:	12013403          	ld	s0,288(sp)
    8000be74:	11813483          	ld	s1,280(sp)
    8000be78:	0f013b03          	ld	s6,240(sp)
    8000be7c:	0c813d83          	ld	s11,200(sp)
    8000be80:	00000c93          	li	s9,0
    8000be84:	c69ff06f          	j	8000baec <__gdtoa+0x7d0>
    8000be88:	00100693          	li	a3,1
    8000be8c:	40f68bbb          	subw	s7,a3,a5
    8000be90:	02013823          	sd	zero,48(sp)
    8000be94:	d01ff06f          	j	8000bb94 <__gdtoa+0x878>
    8000be98:	05013c03          	ld	s8,80(sp)
    8000be9c:	000b8b13          	mv	s6,s7
    8000bea0:	00000a93          	li	s5,0
    8000bea4:	8c1ff06f          	j	8000b764 <__gdtoa+0x448>
    8000bea8:	00200793          	li	a5,2
    8000beac:	04f13023          	sd	a5,64(sp)
    8000beb0:	809ff06f          	j	8000b6b8 <__gdtoa+0x39c>
    8000beb4:	ffcd8d9b          	addw	s11,s11,-4
    8000beb8:	00400613          	li	a2,4
    8000bebc:	1ecd8263          	beq	s11,a2,8000c0a0 <__gdtoa+0xd84>
    8000bec0:	6cdd8063          	beq	s11,a3,8000c580 <__gdtoa+0x1264>
    8000bec4:	00200693          	li	a3,2
    8000bec8:	06013823          	sd	zero,112(sp)
    8000becc:	06013023          	sd	zero,96(sp)
    8000bed0:	1cdd8e63          	beq	s11,a3,8000c0ac <__gdtoa+0xd90>
    8000bed4:	00300d93          	li	s11,3
    8000bed8:	f90ff06f          	j	8000b668 <__gdtoa+0x34c>
    8000bedc:	02813703          	ld	a4,40(sp)
    8000bee0:	06013423          	sd	zero,104(sp)
    8000bee4:	fff7071b          	addw	a4,a4,-1
    8000bee8:	02e13423          	sd	a4,40(sp)
    8000beec:	c9dff06f          	j	8000bb88 <__gdtoa+0x86c>
    8000bef0:	00379693          	sll	a3,a5,0x3
    8000bef4:	00012797          	auipc	a5,0x12
    8000bef8:	af478793          	add	a5,a5,-1292 # 8001d9e8 <__mprec_tens>
    8000befc:	00d787b3          	add	a5,a5,a3
    8000bf00:	0007bb03          	ld	s6,0(a5)
    8000bf04:	01813783          	ld	a5,24(sp)
    8000bf08:	4a07c663          	bltz	a5,8000c3b4 <__gdtoa+0x1098>
    8000bf0c:	00100793          	li	a5,1
    8000bf10:	000b0593          	mv	a1,s6
    8000bf14:	000a8513          	mv	a0,s5
    8000bf18:	0af12e23          	sw	a5,188(sp)
    8000bf1c:	054050ef          	jal	80010f70 <__divdf3>
    8000bf20:	525050ef          	jal	80011c44 <__fixdfsi>
    8000bf24:	00050d1b          	sext.w	s10,a0
    8000bf28:	581050ef          	jal	80011ca8 <__floatsidf>
    8000bf2c:	000b0593          	mv	a1,s6
    8000bf30:	570050ef          	jal	800114a0 <__muldf3>
    8000bf34:	00050593          	mv	a1,a0
    8000bf38:	000a8513          	mv	a0,s5
    8000bf3c:	0a5050ef          	jal	800117e0 <__subdf3>
    8000bf40:	05813783          	ld	a5,88(sp)
    8000bf44:	030d0b9b          	addw	s7,s10,48
    8000bf48:	017c8023          	sb	s7,0(s9)
    8000bf4c:	00178d9b          	addw	s11,a5,1
    8000bf50:	00000593          	li	a1,0
    8000bf54:	01b12823          	sw	s11,16(sp)
    8000bf58:	00050a93          	mv	s5,a0
    8000bf5c:	001c8c13          	add	s8,s9,1
    8000bf60:	364050ef          	jal	800112c4 <__eqdf2>
    8000bf64:	08050c63          	beqz	a0,8000bffc <__gdtoa+0xce0>
    8000bf68:	01313c23          	sd	s3,24(sp)
    8000bf6c:	00013b97          	auipc	s7,0x13
    8000bf70:	9fcbbb83          	ld	s7,-1540(s7) # 8001e968 <environ+0x40>
    8000bf74:	04813983          	ld	s3,72(sp)
    8000bf78:	00813423          	sd	s0,8(sp)
    8000bf7c:	0540006f          	j	8000bfd0 <__gdtoa+0xcb4>
    8000bf80:	0ae12e23          	sw	a4,188(sp)
    8000bf84:	51c050ef          	jal	800114a0 <__muldf3>
    8000bf88:	000b0593          	mv	a1,s6
    8000bf8c:	00050a93          	mv	s5,a0
    8000bf90:	7e1040ef          	jal	80010f70 <__divdf3>
    8000bf94:	4b1050ef          	jal	80011c44 <__fixdfsi>
    8000bf98:	00050d1b          	sext.w	s10,a0
    8000bf9c:	50d050ef          	jal	80011ca8 <__floatsidf>
    8000bfa0:	000b0593          	mv	a1,s6
    8000bfa4:	4fc050ef          	jal	800114a0 <__muldf3>
    8000bfa8:	00050593          	mv	a1,a0
    8000bfac:	000a8513          	mv	a0,s5
    8000bfb0:	031050ef          	jal	800117e0 <__subdf3>
    8000bfb4:	001c0c13          	add	s8,s8,1
    8000bfb8:	030d079b          	addw	a5,s10,48
    8000bfbc:	fefc0fa3          	sb	a5,-1(s8)
    8000bfc0:	00000593          	li	a1,0
    8000bfc4:	00050a93          	mv	s5,a0
    8000bfc8:	2fc050ef          	jal	800112c4 <__eqdf2>
    8000bfcc:	3c050e63          	beqz	a0,8000c3a8 <__gdtoa+0x108c>
    8000bfd0:	0bc12783          	lw	a5,188(sp)
    8000bfd4:	000b8593          	mv	a1,s7
    8000bfd8:	000a8513          	mv	a0,s5
    8000bfdc:	0017871b          	addw	a4,a5,1
    8000bfe0:	fb3790e3          	bne	a5,s3,8000bf80 <__gdtoa+0xc64>
    8000bfe4:	04013703          	ld	a4,64(sp)
    8000bfe8:	00813403          	ld	s0,8(sp)
    8000bfec:	74070063          	beqz	a4,8000c72c <__gdtoa+0x1410>
    8000bff0:	00100793          	li	a5,1
    8000bff4:	01000993          	li	s3,16
    8000bff8:	18f706e3          	beq	a4,a5,8000c984 <__gdtoa+0x1668>
    8000bffc:	00048593          	mv	a1,s1
    8000c000:	00040513          	mv	a0,s0
    8000c004:	1f4010ef          	jal	8000d1f8 <_Bfree>
    8000c008:	00013783          	ld	a5,0(sp)
    8000c00c:	000c0023          	sb	zero,0(s8)
    8000c010:	01b92023          	sw	s11,0(s2)
    8000c014:	00078463          	beqz	a5,8000c01c <__gdtoa+0xd00>
    8000c018:	0187b023          	sd	s8,0(a5)
    8000c01c:	000a2783          	lw	a5,0(s4)
    8000c020:	12013403          	ld	s0,288(sp)
    8000c024:	11813483          	ld	s1,280(sp)
    8000c028:	00f9e7b3          	or	a5,s3,a5
    8000c02c:	0f813a83          	ld	s5,248(sp)
    8000c030:	0f013b03          	ld	s6,240(sp)
    8000c034:	0e813b83          	ld	s7,232(sp)
    8000c038:	0d013d03          	ld	s10,208(sp)
    8000c03c:	0c813d83          	ld	s11,200(sp)
    8000c040:	00fa2023          	sw	a5,0(s4)
    8000c044:	aa9ff06f          	j	8000baec <__gdtoa+0x7d0>
    8000c048:	f8dd1e63          	bne	s10,a3,8000b7e4 <__gdtoa+0x4c8>
    8000c04c:	02013783          	ld	a5,32(sp)
    8000c050:	01013703          	ld	a4,16(sp)
    8000c054:	0047a783          	lw	a5,4(a5)
    8000c058:	0017879b          	addw	a5,a5,1
    8000c05c:	f8e7d463          	bge	a5,a4,8000b7e4 <__gdtoa+0x4c8>
    8000c060:	03013783          	ld	a5,48(sp)
    8000c064:	001b8b9b          	addw	s7,s7,1
    8000c068:	0017879b          	addw	a5,a5,1
    8000c06c:	02f13823          	sd	a5,48(sp)
    8000c070:	00100793          	li	a5,1
    8000c074:	02f13423          	sd	a5,40(sp)
    8000c078:	f6cff06f          	j	8000b7e4 <__gdtoa+0x4c8>
    8000c07c:	03012503          	lw	a0,48(sp)
    8000c080:	429050ef          	jal	80011ca8 <__floatsidf>
    8000c084:	000b8593          	mv	a1,s7
    8000c088:	23c050ef          	jal	800112c4 <__eqdf2>
    8000c08c:	ce050e63          	beqz	a0,8000b588 <__gdtoa+0x26c>
    8000c090:	03012783          	lw	a5,48(sp)
    8000c094:	fff7879b          	addw	a5,a5,-1
    8000c098:	02f13423          	sd	a5,40(sp)
    8000c09c:	cecff06f          	j	8000b588 <__gdtoa+0x26c>
    8000c0a0:	00100793          	li	a5,1
    8000c0a4:	06013823          	sd	zero,112(sp)
    8000c0a8:	06f13023          	sd	a5,96(sp)
    8000c0ac:	01813783          	ld	a5,24(sp)
    8000c0b0:	0007859b          	sext.w	a1,a5
    8000c0b4:	00f04463          	bgtz	a5,8000c0bc <__gdtoa+0xda0>
    8000c0b8:	00100593          	li	a1,1
    8000c0bc:	00058693          	mv	a3,a1
    8000c0c0:	06b13c23          	sd	a1,120(sp)
    8000c0c4:	04b13423          	sd	a1,72(sp)
    8000c0c8:	00b13c23          	sd	a1,24(sp)
    8000c0cc:	dc0ff06f          	j	8000b68c <__gdtoa+0x370>
    8000c0d0:	14c010ef          	jal	8000d21c <__multadd>
    8000c0d4:	00050a93          	mv	s5,a0
    8000c0d8:	a6050ee3          	beqz	a0,8000bb54 <__gdtoa+0x838>
    8000c0dc:	00050b93          	mv	s7,a0
    8000c0e0:	825ff06f          	j	8000b904 <__gdtoa+0x5e8>
    8000c0e4:	fa0b5a63          	bgez	s6,8000b898 <__gdtoa+0x57c>
    8000c0e8:	04013783          	ld	a5,64(sp)
    8000c0ec:	000a0813          	mv	a6,s4
    8000c0f0:	000c8313          	mv	t1,s9
    8000c0f4:	02013a03          	ld	s4,32(sp)
    8000c0f8:	01813c83          	ld	s9,24(sp)
    8000c0fc:	02813903          	ld	s2,40(sp)
    8000c100:	00070993          	mv	s3,a4
    8000c104:	2c0792e3          	bnez	a5,8000cbc8 <__gdtoa+0x18ac>
    8000c108:	0144a603          	lw	a2,20(s1)
    8000c10c:	00100693          	li	a3,1
    8000c110:	01000993          	li	s3,16
    8000c114:	001d0c13          	add	s8,s10,1
    8000c118:	26c6d6e3          	bge	a3,a2,8000cb84 <__gdtoa+0x1868>
    8000c11c:	000a8b13          	mv	s6,s5
    8000c120:	010d0023          	sb	a6,0(s10)
    8000c124:	000b8a93          	mv	s5,s7
    8000c128:	00030593          	mv	a1,t1
    8000c12c:	00040513          	mv	a0,s0
    8000c130:	0c8010ef          	jal	8000d1f8 <_Bfree>
    8000c134:	05813783          	ld	a5,88(sp)
    8000c138:	00178d9b          	addw	s11,a5,1
    8000c13c:	ec0a80e3          	beqz	s5,8000bffc <__gdtoa+0xce0>
    8000c140:	000b0a63          	beqz	s6,8000c154 <__gdtoa+0xe38>
    8000c144:	015b0863          	beq	s6,s5,8000c154 <__gdtoa+0xe38>
    8000c148:	000b0593          	mv	a1,s6
    8000c14c:	00040513          	mv	a0,s0
    8000c150:	0a8010ef          	jal	8000d1f8 <_Bfree>
    8000c154:	000a8593          	mv	a1,s5
    8000c158:	00040513          	mv	a0,s0
    8000c15c:	09c010ef          	jal	8000d1f8 <_Bfree>
    8000c160:	e9dff06f          	j	8000bffc <__gdtoa+0xce0>
    8000c164:	00048593          	mv	a1,s1
    8000c168:	00040513          	mv	a0,s0
    8000c16c:	00613823          	sd	t1,16(sp)
    8000c170:	0f5010ef          	jal	8000da64 <__lshift>
    8000c174:	00050493          	mv	s1,a0
    8000c178:	9c050ee3          	beqz	a0,8000bb54 <__gdtoa+0x838>
    8000c17c:	0bc12783          	lw	a5,188(sp)
    8000c180:	01013303          	ld	t1,16(sp)
    8000c184:	e84ff06f          	j	8000b808 <__gdtoa+0x4ec>
    8000c188:	00030593          	mv	a1,t1
    8000c18c:	00048513          	mv	a0,s1
    8000c190:	00613823          	sd	t1,16(sp)
    8000c194:	275010ef          	jal	8000dc08 <__mcmp>
    8000c198:	01013303          	ld	t1,16(sp)
    8000c19c:	e8055063          	bgez	a0,8000b81c <__gdtoa+0x500>
    8000c1a0:	05813783          	ld	a5,88(sp)
    8000c1a4:	00048593          	mv	a1,s1
    8000c1a8:	00000693          	li	a3,0
    8000c1ac:	fff7879b          	addw	a5,a5,-1
    8000c1b0:	00a00613          	li	a2,10
    8000c1b4:	00040513          	mv	a0,s0
    8000c1b8:	04f13c23          	sd	a5,88(sp)
    8000c1bc:	060010ef          	jal	8000d21c <__multadd>
    8000c1c0:	00050493          	mv	s1,a0
    8000c1c4:	980508e3          	beqz	a0,8000bb54 <__gdtoa+0x838>
    8000c1c8:	06013783          	ld	a5,96(sp)
    8000c1cc:	01013303          	ld	t1,16(sp)
    8000c1d0:	040790e3          	bnez	a5,8000ca10 <__gdtoa+0x16f4>
    8000c1d4:	07813783          	ld	a5,120(sp)
    8000c1d8:	1af05e63          	blez	a5,8000c394 <__gdtoa+0x1078>
    8000c1dc:	04f13423          	sd	a5,72(sp)
    8000c1e0:	04813983          	ld	s3,72(sp)
    8000c1e4:	000c8d13          	mv	s10,s9
    8000c1e8:	00100693          	li	a3,1
    8000c1ec:	00030b13          	mv	s6,t1
    8000c1f0:	0180006f          	j	8000c208 <__gdtoa+0xeec>
    8000c1f4:	028010ef          	jal	8000d21c <__multadd>
    8000c1f8:	00050493          	mv	s1,a0
    8000c1fc:	94050ce3          	beqz	a0,8000bb54 <__gdtoa+0x838>
    8000c200:	0bc12683          	lw	a3,188(sp)
    8000c204:	0016869b          	addw	a3,a3,1
    8000c208:	000b0593          	mv	a1,s6
    8000c20c:	00048513          	mv	a0,s1
    8000c210:	0ad12e23          	sw	a3,188(sp)
    8000c214:	3e9000ef          	jal	8000cdfc <__quorem_D2A>
    8000c218:	0305081b          	addw	a6,a0,48
    8000c21c:	010d0023          	sb	a6,0(s10)
    8000c220:	0bc12783          	lw	a5,188(sp)
    8000c224:	00000693          	li	a3,0
    8000c228:	00a00613          	li	a2,10
    8000c22c:	00048593          	mv	a1,s1
    8000c230:	00040513          	mv	a0,s0
    8000c234:	001d0d13          	add	s10,s10,1
    8000c238:	fb37cee3          	blt	a5,s3,8000c1f4 <__gdtoa+0xed8>
    8000c23c:	000b0313          	mv	t1,s6
    8000c240:	00000b13          	li	s6,0
    8000c244:	04013783          	ld	a5,64(sp)
    8000c248:	3e078463          	beqz	a5,8000c630 <__gdtoa+0x1314>
    8000c24c:	00200693          	li	a3,2
    8000c250:	0144a603          	lw	a2,20(s1)
    8000c254:	42d78063          	beq	a5,a3,8000c674 <__gdtoa+0x1358>
    8000c258:	00100693          	li	a3,1
    8000c25c:	2cc6cc63          	blt	a3,a2,8000c534 <__gdtoa+0x1218>
    8000c260:	0184a683          	lw	a3,24(s1)
    8000c264:	2c069863          	bnez	a3,8000c534 <__gdtoa+0x1218>
    8000c268:	00d036b3          	snez	a3,a3
    8000c26c:	00469993          	sll	s3,a3,0x4
    8000c270:	03000593          	li	a1,48
    8000c274:	fffd4783          	lbu	a5,-1(s10)
    8000c278:	000d0c13          	mv	s8,s10
    8000c27c:	fffd0d13          	add	s10,s10,-1
    8000c280:	feb78ae3          	beq	a5,a1,8000c274 <__gdtoa+0xf58>
    8000c284:	ea5ff06f          	j	8000c128 <__gdtoa+0xe0c>
    8000c288:	04813703          	ld	a4,72(sp)
    8000c28c:	05013603          	ld	a2,80(sp)
    8000c290:	fff7069b          	addw	a3,a4,-1
    8000c294:	14d64e63          	blt	a2,a3,8000c3f0 <__gdtoa+0x10d4>
    8000c298:	40d60c3b          	subw	s8,a2,a3
    8000c29c:	70075e63          	bgez	a4,8000c9b8 <__gdtoa+0x169c>
    8000c2a0:	04813783          	ld	a5,72(sp)
    8000c2a4:	0a012e23          	sw	zero,188(sp)
    8000c2a8:	40fb8b3b          	subw	s6,s7,a5
    8000c2ac:	ca4ff06f          	j	8000b750 <__gdtoa+0x434>
    8000c2b0:	00200793          	li	a5,2
    8000c2b4:	d7b7d863          	bge	a5,s11,8000b824 <__gdtoa+0x508>
    8000c2b8:	00030593          	mv	a1,t1
    8000c2bc:	00000693          	li	a3,0
    8000c2c0:	00500613          	li	a2,5
    8000c2c4:	00040513          	mv	a0,s0
    8000c2c8:	755000ef          	jal	8000d21c <__multadd>
    8000c2cc:	00050593          	mv	a1,a0
    8000c2d0:	880502e3          	beqz	a0,8000bb54 <__gdtoa+0x838>
    8000c2d4:	04813783          	ld	a5,72(sp)
    8000c2d8:	22079663          	bnez	a5,8000c504 <__gdtoa+0x11e8>
    8000c2dc:	00a13423          	sd	a0,8(sp)
    8000c2e0:	00048513          	mv	a0,s1
    8000c2e4:	125010ef          	jal	8000dc08 <__mcmp>
    8000c2e8:	05813783          	ld	a5,88(sp)
    8000c2ec:	00813583          	ld	a1,8(sp)
    8000c2f0:	00278d9b          	addw	s11,a5,2
    8000c2f4:	20a05863          	blez	a0,8000c504 <__gdtoa+0x11e8>
    8000c2f8:	03100793          	li	a5,49
    8000c2fc:	001c8c13          	add	s8,s9,1
    8000c300:	00fc8023          	sb	a5,0(s9)
    8000c304:	02000993          	li	s3,32
    8000c308:	00040513          	mv	a0,s0
    8000c30c:	6ed000ef          	jal	8000d1f8 <_Bfree>
    8000c310:	ce0a86e3          	beqz	s5,8000bffc <__gdtoa+0xce0>
    8000c314:	e41ff06f          	j	8000c154 <__gdtoa+0xe38>
    8000c318:	00100693          	li	a3,1
    8000c31c:	00100593          	li	a1,1
    8000c320:	b6cff06f          	j	8000b68c <__gdtoa+0x370>
    8000c324:	00050593          	mv	a1,a0
    8000c328:	00078613          	mv	a2,a5
    8000c32c:	00040513          	mv	a0,s0
    8000c330:	5e4010ef          	jal	8000d914 <__pow5mult>
    8000c334:	00050313          	mv	t1,a0
    8000c338:	80050ee3          	beqz	a0,8000bb54 <__gdtoa+0x838>
    8000c33c:	00100693          	li	a3,1
    8000c340:	27b6d863          	bge	a3,s11,8000c5b0 <__gdtoa+0x1294>
    8000c344:	01432783          	lw	a5,20(t1)
    8000c348:	00613823          	sd	t1,16(sp)
    8000c34c:	fff7879b          	addw	a5,a5,-1
    8000c350:	00478793          	add	a5,a5,4
    8000c354:	00279793          	sll	a5,a5,0x2
    8000c358:	00f307b3          	add	a5,t1,a5
    8000c35c:	0087a503          	lw	a0,8(a5)
    8000c360:	16c010ef          	jal	8000d4cc <__hi0bits>
    8000c364:	01013303          	ld	t1,16(sp)
    8000c368:	03313423          	sd	s3,40(sp)
    8000c36c:	c7cff06f          	j	8000b7e8 <__gdtoa+0x4cc>
    8000c370:	00100693          	li	a3,1
    8000c374:	f1b6cae3          	blt	a3,s11,8000c288 <__gdtoa+0xf6c>
    8000c378:	03013783          	ld	a5,48(sp)
    8000c37c:	000b8b13          	mv	s6,s7
    8000c380:	05013c03          	ld	s8,80(sp)
    8000c384:	00f607bb          	addw	a5,a2,a5
    8000c388:	02f13823          	sd	a5,48(sp)
    8000c38c:	01760bbb          	addw	s7,a2,s7
    8000c390:	bc0ff06f          	j	8000b750 <__gdtoa+0x434>
    8000c394:	00200793          	li	a5,2
    8000c398:	7db7c463          	blt	a5,s11,8000cb60 <__gdtoa+0x1844>
    8000c39c:	07813783          	ld	a5,120(sp)
    8000c3a0:	04f13423          	sd	a5,72(sp)
    8000c3a4:	e3dff06f          	j	8000c1e0 <__gdtoa+0xec4>
    8000c3a8:	01813983          	ld	s3,24(sp)
    8000c3ac:	00813403          	ld	s0,8(sp)
    8000c3b0:	c4dff06f          	j	8000bffc <__gdtoa+0xce0>
    8000c3b4:	04813783          	ld	a5,72(sp)
    8000c3b8:	b4f04ae3          	bgtz	a5,8000bf0c <__gdtoa+0xbf0>
    8000c3bc:	14079063          	bnez	a5,8000c4fc <__gdtoa+0x11e0>
    8000c3c0:	00012597          	auipc	a1,0x12
    8000c3c4:	5c05b583          	ld	a1,1472(a1) # 8001e980 <environ+0x58>
    8000c3c8:	000b0513          	mv	a0,s6
    8000c3cc:	0d4050ef          	jal	800114a0 <__muldf3>
    8000c3d0:	000a8593          	mv	a1,s5
    8000c3d4:	775040ef          	jal	80011348 <__gedf2>
    8000c3d8:	12055263          	bgez	a0,8000c4fc <__gdtoa+0x11e0>
    8000c3dc:	05813783          	ld	a5,88(sp)
    8000c3e0:	00000593          	li	a1,0
    8000c3e4:	00000a93          	li	s5,0
    8000c3e8:	00278d9b          	addw	s11,a5,2
    8000c3ec:	f0dff06f          	j	8000c2f8 <__gdtoa+0xfdc>
    8000c3f0:	05013783          	ld	a5,80(sp)
    8000c3f4:	03013703          	ld	a4,48(sp)
    8000c3f8:	000b8b13          	mv	s6,s7
    8000c3fc:	40f6863b          	subw	a2,a3,a5
    8000c400:	02813783          	ld	a5,40(sp)
    8000c404:	00000c13          	li	s8,0
    8000c408:	04d13823          	sd	a3,80(sp)
    8000c40c:	00f607bb          	addw	a5,a2,a5
    8000c410:	02f13423          	sd	a5,40(sp)
    8000c414:	04813783          	ld	a5,72(sp)
    8000c418:	00e7873b          	addw	a4,a5,a4
    8000c41c:	0af12e23          	sw	a5,188(sp)
    8000c420:	02e13823          	sd	a4,48(sp)
    8000c424:	00fb8bbb          	addw	s7,s7,a5
    8000c428:	b28ff06f          	j	8000b750 <__gdtoa+0x434>
    8000c42c:	000a8593          	mv	a1,s5
    8000c430:	000c0613          	mv	a2,s8
    8000c434:	00040513          	mv	a0,s0
    8000c438:	4dc010ef          	jal	8000d914 <__pow5mult>
    8000c43c:	00050a93          	mv	s5,a0
    8000c440:	f0050a63          	beqz	a0,8000bb54 <__gdtoa+0x838>
    8000c444:	00050593          	mv	a1,a0
    8000c448:	00048613          	mv	a2,s1
    8000c44c:	00040513          	mv	a0,s0
    8000c450:	288010ef          	jal	8000d6d8 <__multiply>
    8000c454:	02a13c23          	sd	a0,56(sp)
    8000c458:	ee050e63          	beqz	a0,8000bb54 <__gdtoa+0x838>
    8000c45c:	00048593          	mv	a1,s1
    8000c460:	00040513          	mv	a0,s0
    8000c464:	595000ef          	jal	8000d1f8 <_Bfree>
    8000c468:	05013783          	ld	a5,80(sp)
    8000c46c:	4187873b          	subw	a4,a5,s8
    8000c470:	03813783          	ld	a5,56(sp)
    8000c474:	04e13823          	sd	a4,80(sp)
    8000c478:	00078493          	mv	s1,a5
    8000c47c:	b4070263          	beqz	a4,8000b7c0 <__gdtoa+0x4a4>
    8000c480:	b28ff06f          	j	8000b7a8 <__gdtoa+0x48c>
    8000c484:	000a8593          	mv	a1,s5
    8000c488:	000a8513          	mv	a0,s5
    8000c48c:	67c040ef          	jal	80010b08 <__adddf3>
    8000c490:	00012597          	auipc	a1,0x12
    8000c494:	4e85b583          	ld	a1,1256(a1) # 8001e978 <environ+0x50>
    8000c498:	670040ef          	jal	80010b08 <__adddf3>
    8000c49c:	02055613          	srl	a2,a0,0x20
    8000c4a0:	fcc006b7          	lui	a3,0xfcc00
    8000c4a4:	00c686bb          	addw	a3,a3,a2
    8000c4a8:	fff00613          	li	a2,-1
    8000c4ac:	02065613          	srl	a2,a2,0x20
    8000c4b0:	02069693          	sll	a3,a3,0x20
    8000c4b4:	00a67633          	and	a2,a2,a0
    8000c4b8:	00d667b3          	or	a5,a2,a3
    8000c4bc:	06f13823          	sd	a5,112(sp)
    8000c4c0:	04013503          	ld	a0,64(sp)
    8000c4c4:	00012597          	auipc	a1,0x12
    8000c4c8:	4bc5b583          	ld	a1,1212(a1) # 8001e980 <environ+0x58>
    8000c4cc:	314050ef          	jal	800117e0 <__subdf3>
    8000c4d0:	07013c03          	ld	s8,112(sp)
    8000c4d4:	00050a93          	mv	s5,a0
    8000c4d8:	000c0593          	mv	a1,s8
    8000c4dc:	66d040ef          	jal	80011348 <__gedf2>
    8000c4e0:	4ca04463          	bgtz	a0,8000c9a8 <__gdtoa+0x168c>
    8000c4e4:	fff00593          	li	a1,-1
    8000c4e8:	03f59593          	sll	a1,a1,0x3f
    8000c4ec:	00bc45b3          	xor	a1,s8,a1
    8000c4f0:	000a8513          	mv	a0,s5
    8000c4f4:	701040ef          	jal	800113f4 <__ledf2>
    8000c4f8:	48055a63          	bgez	a0,8000c98c <__gdtoa+0x1670>
    8000c4fc:	00000593          	li	a1,0
    8000c500:	00000a93          	li	s5,0
    8000c504:	01813783          	ld	a5,24(sp)
    8000c508:	000c8c13          	mv	s8,s9
    8000c50c:	01000993          	li	s3,16
    8000c510:	40f00dbb          	negw	s11,a5
    8000c514:	df5ff06f          	j	8000c308 <__gdtoa+0xfec>
    8000c518:	000a8b13          	mv	s6,s5
    8000c51c:	000d0693          	mv	a3,s10
    8000c520:	001d0c13          	add	s8,s10,1
    8000c524:	000b8a93          	mv	s5,s7
    8000c528:	03900613          	li	a2,57
    8000c52c:	000c0d13          	mv	s10,s8
    8000c530:	00c68023          	sb	a2,0(a3) # fffffffffcc00000 <__heap_end+0xffffffff7c3e1000>
    8000c534:	03900593          	li	a1,57
    8000c538:	0080006f          	j	8000c540 <__gdtoa+0x1224>
    8000c53c:	15ac8863          	beq	s9,s10,8000c68c <__gdtoa+0x1370>
    8000c540:	fffd4603          	lbu	a2,-1(s10)
    8000c544:	000d0c13          	mv	s8,s10
    8000c548:	fffd0d13          	add	s10,s10,-1
    8000c54c:	feb608e3          	beq	a2,a1,8000c53c <__gdtoa+0x1220>
    8000c550:	0016061b          	addw	a2,a2,1
    8000c554:	00cd0023          	sb	a2,0(s10)
    8000c558:	02000993          	li	s3,32
    8000c55c:	bcdff06f          	j	8000c128 <__gdtoa+0xe0c>
    8000c560:	000a8593          	mv	a1,s5
    8000c564:	00040513          	mv	a0,s0
    8000c568:	00613823          	sd	t1,16(sp)
    8000c56c:	4f8010ef          	jal	8000da64 <__lshift>
    8000c570:	01013303          	ld	t1,16(sp)
    8000c574:	00050a93          	mv	s5,a0
    8000c578:	aa051e63          	bnez	a0,8000b834 <__gdtoa+0x518>
    8000c57c:	dd8ff06f          	j	8000bb54 <__gdtoa+0x838>
    8000c580:	00100793          	li	a5,1
    8000c584:	06013823          	sd	zero,112(sp)
    8000c588:	06f13023          	sd	a5,96(sp)
    8000c58c:	8dcff06f          	j	8000b668 <__gdtoa+0x34c>
    8000c590:	00100793          	li	a5,1
    8000c594:	06f13023          	sd	a5,96(sp)
    8000c598:	8d0ff06f          	j	8000b668 <__gdtoa+0x34c>
    8000c59c:	00100793          	li	a5,1
    8000c5a0:	06f13023          	sd	a5,96(sp)
    8000c5a4:	b09ff06f          	j	8000c0ac <__gdtoa+0xd90>
    8000c5a8:	06013023          	sd	zero,96(sp)
    8000c5ac:	b01ff06f          	j	8000c0ac <__gdtoa+0xd90>
    8000c5b0:	d8dd1ae3          	bne	s10,a3,8000c344 <__gdtoa+0x1028>
    8000c5b4:	02013783          	ld	a5,32(sp)
    8000c5b8:	01013703          	ld	a4,16(sp)
    8000c5bc:	0047a783          	lw	a5,4(a5)
    8000c5c0:	0017879b          	addw	a5,a5,1
    8000c5c4:	d8e7d0e3          	bge	a5,a4,8000c344 <__gdtoa+0x1028>
    8000c5c8:	03013783          	ld	a5,48(sp)
    8000c5cc:	001b8b9b          	addw	s7,s7,1
    8000c5d0:	00100993          	li	s3,1
    8000c5d4:	0017879b          	addw	a5,a5,1
    8000c5d8:	02f13823          	sd	a5,48(sp)
    8000c5dc:	d69ff06f          	j	8000c344 <__gdtoa+0x1028>
    8000c5e0:	008aa583          	lw	a1,8(s5)
    8000c5e4:	00040513          	mv	a0,s0
    8000c5e8:	00613823          	sd	t1,16(sp)
    8000c5ec:	361000ef          	jal	8000d14c <_Balloc>
    8000c5f0:	00050993          	mv	s3,a0
    8000c5f4:	d6050063          	beqz	a0,8000bb54 <__gdtoa+0x838>
    8000c5f8:	014aa603          	lw	a2,20(s5)
    8000c5fc:	010a8593          	add	a1,s5,16
    8000c600:	01050513          	add	a0,a0,16
    8000c604:	00260613          	add	a2,a2,2
    8000c608:	00261613          	sll	a2,a2,0x2
    8000c60c:	c18fa0ef          	jal	80006a24 <memcpy>
    8000c610:	00100613          	li	a2,1
    8000c614:	00098593          	mv	a1,s3
    8000c618:	00040513          	mv	a0,s0
    8000c61c:	448010ef          	jal	8000da64 <__lshift>
    8000c620:	01013303          	ld	t1,16(sp)
    8000c624:	00050b93          	mv	s7,a0
    8000c628:	a0051c63          	bnez	a0,8000b840 <__gdtoa+0x524>
    8000c62c:	d28ff06f          	j	8000bb54 <__gdtoa+0x838>
    8000c630:	00048593          	mv	a1,s1
    8000c634:	00100613          	li	a2,1
    8000c638:	00040513          	mv	a0,s0
    8000c63c:	00613423          	sd	t1,8(sp)
    8000c640:	01013823          	sd	a6,16(sp)
    8000c644:	420010ef          	jal	8000da64 <__lshift>
    8000c648:	00050493          	mv	s1,a0
    8000c64c:	d0050463          	beqz	a0,8000bb54 <__gdtoa+0x838>
    8000c650:	00813303          	ld	t1,8(sp)
    8000c654:	00030593          	mv	a1,t1
    8000c658:	5b0010ef          	jal	8000dc08 <__mcmp>
    8000c65c:	00813303          	ld	t1,8(sp)
    8000c660:	eca04ae3          	bgtz	a0,8000c534 <__gdtoa+0x1218>
    8000c664:	00051863          	bnez	a0,8000c674 <__gdtoa+0x1358>
    8000c668:	01013803          	ld	a6,16(sp)
    8000c66c:	00187813          	and	a6,a6,1
    8000c670:	ec0812e3          	bnez	a6,8000c534 <__gdtoa+0x1218>
    8000c674:	0144a603          	lw	a2,20(s1)
    8000c678:	00100693          	li	a3,1
    8000c67c:	01000993          	li	s3,16
    8000c680:	bec6c8e3          	blt	a3,a2,8000c270 <__gdtoa+0xf54>
    8000c684:	0184a683          	lw	a3,24(s1)
    8000c688:	be1ff06f          	j	8000c268 <__gdtoa+0xf4c>
    8000c68c:	05813783          	ld	a5,88(sp)
    8000c690:	02000993          	li	s3,32
    8000c694:	0017879b          	addw	a5,a5,1
    8000c698:	04f13c23          	sd	a5,88(sp)
    8000c69c:	03100793          	li	a5,49
    8000c6a0:	00fc8023          	sb	a5,0(s9)
    8000c6a4:	a85ff06f          	j	8000c128 <__gdtoa+0xe0c>
    8000c6a8:	04013783          	ld	a5,64(sp)
    8000c6ac:	00090993          	mv	s3,s2
    8000c6b0:	000a0813          	mv	a6,s4
    8000c6b4:	000c8313          	mv	t1,s9
    8000c6b8:	02013a03          	ld	s4,32(sp)
    8000c6bc:	01813c83          	ld	s9,24(sp)
    8000c6c0:	02813903          	ld	s2,40(sp)
    8000c6c4:	00078c63          	beqz	a5,8000c6dc <__gdtoa+0x13c0>
    8000c6c8:	0144a603          	lw	a2,20(s1)
    8000c6cc:	00100693          	li	a3,1
    8000c6d0:	b0c6c263          	blt	a3,a2,8000b9d4 <__gdtoa+0x6b8>
    8000c6d4:	0184a683          	lw	a3,24(s1)
    8000c6d8:	ae069e63          	bnez	a3,8000b9d4 <__gdtoa+0x6b8>
    8000c6dc:	00048593          	mv	a1,s1
    8000c6e0:	00100613          	li	a2,1
    8000c6e4:	00040513          	mv	a0,s0
    8000c6e8:	00613423          	sd	t1,8(sp)
    8000c6ec:	01013823          	sd	a6,16(sp)
    8000c6f0:	374010ef          	jal	8000da64 <__lshift>
    8000c6f4:	00050493          	mv	s1,a0
    8000c6f8:	c4050e63          	beqz	a0,8000bb54 <__gdtoa+0x838>
    8000c6fc:	00813303          	ld	t1,8(sp)
    8000c700:	00030593          	mv	a1,t1
    8000c704:	504010ef          	jal	8000dc08 <__mcmp>
    8000c708:	00813303          	ld	t1,8(sp)
    8000c70c:	01013803          	ld	a6,16(sp)
    8000c710:	44a05e63          	blez	a0,8000cb6c <__gdtoa+0x1850>
    8000c714:	03900693          	li	a3,57
    8000c718:	e0d800e3          	beq	a6,a3,8000c518 <__gdtoa+0x11fc>
    8000c71c:	02000793          	li	a5,32
    8000c720:	0319881b          	addw	a6,s3,49
    8000c724:	04f13023          	sd	a5,64(sp)
    8000c728:	9e1ff06f          	j	8000c108 <__gdtoa+0xdec>
    8000c72c:	000a8593          	mv	a1,s5
    8000c730:	3d8040ef          	jal	80010b08 <__adddf3>
    8000c734:	000b0593          	mv	a1,s6
    8000c738:	fffc4a83          	lbu	s5,-1(s8)
    8000c73c:	00050993          	mv	s3,a0
    8000c740:	409040ef          	jal	80011348 <__gedf2>
    8000c744:	eea04c63          	bgtz	a0,8000be3c <__gdtoa+0xb20>
    8000c748:	000b0593          	mv	a1,s6
    8000c74c:	00098513          	mv	a0,s3
    8000c750:	375040ef          	jal	800112c4 <__eqdf2>
    8000c754:	00051663          	bnez	a0,8000c760 <__gdtoa+0x1444>
    8000c758:	001d7d13          	and	s10,s10,1
    8000c75c:	ee0d1063          	bnez	s10,8000be3c <__gdtoa+0xb20>
    8000c760:	000c0793          	mv	a5,s8
    8000c764:	01000993          	li	s3,16
    8000c768:	03000593          	li	a1,48
    8000c76c:	fff7c703          	lbu	a4,-1(a5)
    8000c770:	00078c13          	mv	s8,a5
    8000c774:	fff78793          	add	a5,a5,-1
    8000c778:	feb70ae3          	beq	a4,a1,8000c76c <__gdtoa+0x1450>
    8000c77c:	01012d83          	lw	s11,16(sp)
    8000c780:	87dff06f          	j	8000bffc <__gdtoa+0xce0>
    8000c784:	01012703          	lw	a4,16(sp)
    8000c788:	03100613          	li	a2,49
    8000c78c:	0017071b          	addw	a4,a4,1
    8000c790:	00e12823          	sw	a4,16(sp)
    8000c794:	eccff06f          	j	8000be60 <__gdtoa+0xb44>
    8000c798:	07013503          	ld	a0,112(sp)
    8000c79c:	0ac13423          	sd	a2,168(sp)
    8000c7a0:	000a8b13          	mv	s6,s5
    8000c7a4:	4fd040ef          	jal	800114a0 <__muldf3>
    8000c7a8:	0a813603          	ld	a2,168(sp)
    8000c7ac:	00090793          	mv	a5,s2
    8000c7b0:	08a13823          	sd	a0,144(sp)
    8000c7b4:	00100693          	li	a3,1
    8000c7b8:	00000513          	li	a0,0
    8000c7bc:	07513823          	sd	s5,112(sp)
    8000c7c0:	0a913023          	sd	s1,160(sp)
    8000c7c4:	000a0a93          	mv	s5,s4
    8000c7c8:	08013483          	ld	s1,128(sp)
    8000c7cc:	00040a13          	mv	s4,s0
    8000c7d0:	000b0913          	mv	s2,s6
    8000c7d4:	0ad12e23          	sw	a3,188(sp)
    8000c7d8:	000c8c13          	mv	s8,s9
    8000c7dc:	09313c23          	sd	s3,152(sp)
    8000c7e0:	00050413          	mv	s0,a0
    8000c7e4:	08c13023          	sd	a2,128(sp)
    8000c7e8:	00078b13          	mv	s6,a5
    8000c7ec:	0140006f          	j	8000c800 <__gdtoa+0x14e4>
    8000c7f0:	0ac12e23          	sw	a2,188(sp)
    8000c7f4:	4ad040ef          	jal	800114a0 <__muldf3>
    8000c7f8:	00050913          	mv	s2,a0
    8000c7fc:	00100413          	li	s0,1
    8000c800:	00090513          	mv	a0,s2
    8000c804:	440050ef          	jal	80011c44 <__fixdfsi>
    8000c808:	0005069b          	sext.w	a3,a0
    8000c80c:	00068993          	mv	s3,a3
    8000c810:	00068e63          	beqz	a3,8000c82c <__gdtoa+0x1510>
    8000c814:	494050ef          	jal	80011ca8 <__floatsidf>
    8000c818:	00050593          	mv	a1,a0
    8000c81c:	00090513          	mv	a0,s2
    8000c820:	7c1040ef          	jal	800117e0 <__subdf3>
    8000c824:	00050913          	mv	s2,a0
    8000c828:	00100413          	li	s0,1
    8000c82c:	0309879b          	addw	a5,s3,48
    8000c830:	001c0c13          	add	s8,s8,1
    8000c834:	0ff7f793          	zext.b	a5,a5
    8000c838:	fefc0fa3          	sb	a5,-1(s8)
    8000c83c:	0bc12683          	lw	a3,188(sp)
    8000c840:	00012717          	auipc	a4,0x12
    8000c844:	12870713          	add	a4,a4,296 # 8001e968 <environ+0x40>
    8000c848:	00073583          	ld	a1,0(a4)
    8000c84c:	00090513          	mv	a0,s2
    8000c850:	0016861b          	addw	a2,a3,1
    8000c854:	f8969ee3          	bne	a3,s1,8000c7f0 <__gdtoa+0x14d4>
    8000c858:	00040513          	mv	a0,s0
    8000c85c:	000a0413          	mv	s0,s4
    8000c860:	000a8a13          	mv	s4,s5
    8000c864:	00078a93          	mv	s5,a5
    8000c868:	000b0793          	mv	a5,s6
    8000c86c:	09813983          	ld	s3,152(sp)
    8000c870:	00090b13          	mv	s6,s2
    8000c874:	0a013483          	ld	s1,160(sp)
    8000c878:	08013603          	ld	a2,128(sp)
    8000c87c:	00078913          	mv	s2,a5
    8000c880:	00050463          	beqz	a0,8000c888 <__gdtoa+0x156c>
    8000c884:	07613823          	sd	s6,112(sp)
    8000c888:	09013503          	ld	a0,144(sp)
    8000c88c:	00012597          	auipc	a1,0x12
    8000c890:	0fc5b583          	ld	a1,252(a1) # 8001e988 <environ+0x60>
    8000c894:	08c13023          	sd	a2,128(sp)
    8000c898:	270040ef          	jal	80010b08 <__adddf3>
    8000c89c:	07013b03          	ld	s6,112(sp)
    8000c8a0:	000b0593          	mv	a1,s6
    8000c8a4:	351040ef          	jal	800113f4 <__ledf2>
    8000c8a8:	1c054a63          	bltz	a0,8000ca7c <__gdtoa+0x1760>
    8000c8ac:	09013583          	ld	a1,144(sp)
    8000c8b0:	00012517          	auipc	a0,0x12
    8000c8b4:	0d853503          	ld	a0,216(a0) # 8001e988 <environ+0x60>
    8000c8b8:	729040ef          	jal	800117e0 <__subdf3>
    8000c8bc:	000b0593          	mv	a1,s6
    8000c8c0:	289040ef          	jal	80011348 <__gedf2>
    8000c8c4:	08013603          	ld	a2,128(sp)
    8000c8c8:	24a04e63          	bgtz	a0,8000cb24 <__gdtoa+0x1808>
    8000c8cc:	03813783          	ld	a5,56(sp)
    8000c8d0:	04013a83          	ld	s5,64(sp)
    8000c8d4:	2607cc63          	bltz	a5,8000cb4c <__gdtoa+0x1830>
    8000c8d8:	01813783          	ld	a5,24(sp)
    8000c8dc:	04013023          	sd	zero,64(sp)
    8000c8e0:	00063b03          	ld	s6,0(a2)
    8000c8e4:	e207d463          	bgez	a5,8000bf0c <__gdtoa+0xbf0>
    8000c8e8:	04813783          	ld	a5,72(sp)
    8000c8ec:	e2079063          	bnez	a5,8000bf0c <__gdtoa+0xbf0>
    8000c8f0:	ad1ff06f          	j	8000c3c0 <__gdtoa+0x10a4>
    8000c8f4:	000a0813          	mv	a6,s4
    8000c8f8:	000c8313          	mv	t1,s9
    8000c8fc:	000a8b13          	mv	s6,s5
    8000c900:	01813c83          	ld	s9,24(sp)
    8000c904:	02013a03          	ld	s4,32(sp)
    8000c908:	02813903          	ld	s2,40(sp)
    8000c90c:	000b8a93          	mv	s5,s7
    8000c910:	935ff06f          	j	8000c244 <__gdtoa+0xf28>
    8000c914:	b60c08e3          	beqz	s8,8000c484 <__gdtoa+0x1168>
    8000c918:	07813c03          	ld	s8,120(sp)
    8000c91c:	07805863          	blez	s8,8000c98c <__gdtoa+0x1670>
    8000c920:	00012597          	auipc	a1,0x12
    8000c924:	0485b583          	ld	a1,72(a1) # 8001e968 <environ+0x40>
    8000c928:	000a8513          	mv	a0,s5
    8000c92c:	375040ef          	jal	800114a0 <__muldf3>
    8000c930:	00012597          	auipc	a1,0x12
    8000c934:	0405b583          	ld	a1,64(a1) # 8001e970 <environ+0x48>
    8000c938:	08a13823          	sd	a0,144(sp)
    8000c93c:	00050a93          	mv	s5,a0
    8000c940:	361040ef          	jal	800114a0 <__muldf3>
    8000c944:	00012597          	auipc	a1,0x12
    8000c948:	0345b583          	ld	a1,52(a1) # 8001e978 <environ+0x50>
    8000c94c:	1bc040ef          	jal	80010b08 <__adddf3>
    8000c950:	02055613          	srl	a2,a0,0x20
    8000c954:	fcc006b7          	lui	a3,0xfcc00
    8000c958:	00c686bb          	addw	a3,a3,a2
    8000c95c:	fff00613          	li	a2,-1
    8000c960:	02065613          	srl	a2,a2,0x20
    8000c964:	02069693          	sll	a3,a3,0x20
    8000c968:	00a67633          	and	a2,a2,a0
    8000c96c:	00d667b3          	or	a5,a2,a3
    8000c970:	06f13823          	sd	a5,112(sp)
    8000c974:	fff00793          	li	a5,-1
    8000c978:	09813023          	sd	s8,128(sp)
    8000c97c:	08f13423          	sd	a5,136(sp)
    8000c980:	b60ff06f          	j	8000bce0 <__gdtoa+0x9c4>
    8000c984:	fffc4a83          	lbu	s5,-1(s8)
    8000c988:	cb4ff06f          	j	8000be3c <__gdtoa+0xb20>
    8000c98c:	03813783          	ld	a5,56(sp)
    8000c990:	04013a83          	ld	s5,64(sp)
    8000c994:	00011617          	auipc	a2,0x11
    8000c998:	05460613          	add	a2,a2,84 # 8001d9e8 <__mprec_tens>
    8000c99c:	f207dee3          	bgez	a5,8000c8d8 <__gdtoa+0x15bc>
    8000c9a0:	04013023          	sd	zero,64(sp)
    8000c9a4:	d31fe06f          	j	8000b6d4 <__gdtoa+0x3b8>
    8000c9a8:	00200d93          	li	s11,2
    8000c9ac:	00000593          	li	a1,0
    8000c9b0:	00000a93          	li	s5,0
    8000c9b4:	945ff06f          	j	8000c2f8 <__gdtoa+0xfdc>
    8000c9b8:	00070793          	mv	a5,a4
    8000c9bc:	0ae12e23          	sw	a4,188(sp)
    8000c9c0:	03013703          	ld	a4,48(sp)
    8000c9c4:	000b8b13          	mv	s6,s7
    8000c9c8:	00fb8bbb          	addw	s7,s7,a5
    8000c9cc:	00e7873b          	addw	a4,a5,a4
    8000c9d0:	02e13823          	sd	a4,48(sp)
    8000c9d4:	d7dfe06f          	j	8000b750 <__gdtoa+0x434>
    8000c9d8:	000a0813          	mv	a6,s4
    8000c9dc:	03900693          	li	a3,57
    8000c9e0:	000c8313          	mv	t1,s9
    8000c9e4:	02013a03          	ld	s4,32(sp)
    8000c9e8:	01813c83          	ld	s9,24(sp)
    8000c9ec:	02813903          	ld	s2,40(sp)
    8000c9f0:	b2d804e3          	beq	a6,a3,8000c518 <__gdtoa+0x11fc>
    8000c9f4:	001c079b          	addw	a5,s8,1
    8000c9f8:	000a8b13          	mv	s6,s5
    8000c9fc:	001d0c13          	add	s8,s10,1
    8000ca00:	00fd0023          	sb	a5,0(s10)
    8000ca04:	000b8a93          	mv	s5,s7
    8000ca08:	02000993          	li	s3,32
    8000ca0c:	f1cff06f          	j	8000c128 <__gdtoa+0xe0c>
    8000ca10:	000a8593          	mv	a1,s5
    8000ca14:	00000693          	li	a3,0
    8000ca18:	00a00613          	li	a2,10
    8000ca1c:	00040513          	mv	a0,s0
    8000ca20:	7fc000ef          	jal	8000d21c <__multadd>
    8000ca24:	00050a93          	mv	s5,a0
    8000ca28:	00051463          	bnez	a0,8000ca30 <__gdtoa+0x1714>
    8000ca2c:	928ff06f          	j	8000bb54 <__gdtoa+0x838>
    8000ca30:	07813783          	ld	a5,120(sp)
    8000ca34:	01013303          	ld	t1,16(sp)
    8000ca38:	00f05663          	blez	a5,8000ca44 <__gdtoa+0x1728>
    8000ca3c:	04f13423          	sd	a5,72(sp)
    8000ca40:	dedfe06f          	j	8000b82c <__gdtoa+0x510>
    8000ca44:	00200793          	li	a5,2
    8000ca48:	11b7cc63          	blt	a5,s11,8000cb60 <__gdtoa+0x1844>
    8000ca4c:	07813783          	ld	a5,120(sp)
    8000ca50:	04f13423          	sd	a5,72(sp)
    8000ca54:	dd9fe06f          	j	8000b82c <__gdtoa+0x510>
    8000ca58:	07013403          	ld	s0,112(sp)
    8000ca5c:	00000593          	li	a1,0
    8000ca60:	000a8513          	mv	a0,s5
    8000ca64:	061040ef          	jal	800112c4 <__eqdf2>
    8000ca68:	08813783          	ld	a5,136(sp)
    8000ca6c:	00a039b3          	snez	s3,a0
    8000ca70:	00499993          	sll	s3,s3,0x4
    8000ca74:	00178d93          	add	s11,a5,1
    8000ca78:	d84ff06f          	j	8000bffc <__gdtoa+0xce0>
    8000ca7c:	08813783          	ld	a5,136(sp)
    8000ca80:	0017879b          	addw	a5,a5,1
    8000ca84:	00f12823          	sw	a5,16(sp)
    8000ca88:	bb4ff06f          	j	8000be3c <__gdtoa+0xb20>
    8000ca8c:	03813783          	ld	a5,56(sp)
    8000ca90:	09013b83          	ld	s7,144(sp)
    8000ca94:	09813983          	ld	s3,152(sp)
    8000ca98:	07013403          	ld	s0,112(sp)
    8000ca9c:	08013603          	ld	a2,128(sp)
    8000caa0:	04013a83          	ld	s5,64(sp)
    8000caa4:	e207dae3          	bgez	a5,8000c8d8 <__gdtoa+0x15bc>
    8000caa8:	04013023          	sd	zero,64(sp)
    8000caac:	c31fe06f          	j	8000b6dc <__gdtoa+0x3c0>
    8000cab0:	04813703          	ld	a4,72(sp)
    8000cab4:	05013603          	ld	a2,80(sp)
    8000cab8:	fff7069b          	addw	a3,a4,-1
    8000cabc:	00068793          	mv	a5,a3
    8000cac0:	92d648e3          	blt	a2,a3,8000c3f0 <__gdtoa+0x10d4>
    8000cac4:	03013683          	ld	a3,48(sp)
    8000cac8:	000b8b13          	mv	s6,s7
    8000cacc:	40f60c3b          	subw	s8,a2,a5
    8000cad0:	00d706bb          	addw	a3,a4,a3
    8000cad4:	02d13823          	sd	a3,48(sp)
    8000cad8:	0ae12e23          	sw	a4,188(sp)
    8000cadc:	00eb8bbb          	addw	s7,s7,a4
    8000cae0:	c71fe06f          	j	8000b750 <__gdtoa+0x434>
    8000cae4:	03900693          	li	a3,57
    8000cae8:	00090993          	mv	s3,s2
    8000caec:	000a0813          	mv	a6,s4
    8000caf0:	000c8313          	mv	t1,s9
    8000caf4:	02013a03          	ld	s4,32(sp)
    8000caf8:	01813c83          	ld	s9,24(sp)
    8000cafc:	02813903          	ld	s2,40(sp)
    8000cb00:	a0dc0ce3          	beq	s8,a3,8000c518 <__gdtoa+0x11fc>
    8000cb04:	0f605463          	blez	s6,8000cbec <__gdtoa+0x18d0>
    8000cb08:	0319881b          	addw	a6,s3,49
    8000cb0c:	02000993          	li	s3,32
    8000cb10:	000a8b13          	mv	s6,s5
    8000cb14:	001d0c13          	add	s8,s10,1
    8000cb18:	010d0023          	sb	a6,0(s10)
    8000cb1c:	000b8a93          	mv	s5,s7
    8000cb20:	e08ff06f          	j	8000c128 <__gdtoa+0xe0c>
    8000cb24:	00000593          	li	a1,0
    8000cb28:	000b0513          	mv	a0,s6
    8000cb2c:	798040ef          	jal	800112c4 <__eqdf2>
    8000cb30:	08813703          	ld	a4,136(sp)
    8000cb34:	00a039b3          	snez	s3,a0
    8000cb38:	00499993          	sll	s3,s3,0x4
    8000cb3c:	0017071b          	addw	a4,a4,1
    8000cb40:	000c0793          	mv	a5,s8
    8000cb44:	00e12823          	sw	a4,16(sp)
    8000cb48:	c21ff06f          	j	8000c768 <__gdtoa+0x144c>
    8000cb4c:	05013c03          	ld	s8,80(sp)
    8000cb50:	04013023          	sd	zero,64(sp)
    8000cb54:	000b8b13          	mv	s6,s7
    8000cb58:	00000a93          	li	s5,0
    8000cb5c:	c09fe06f          	j	8000b764 <__gdtoa+0x448>
    8000cb60:	07813783          	ld	a5,120(sp)
    8000cb64:	04f13423          	sd	a5,72(sp)
    8000cb68:	f50ff06f          	j	8000c2b8 <__gdtoa+0xf9c>
    8000cb6c:	00051663          	bnez	a0,8000cb78 <__gdtoa+0x185c>
    8000cb70:	00187693          	and	a3,a6,1
    8000cb74:	ba0690e3          	bnez	a3,8000c714 <__gdtoa+0x13f8>
    8000cb78:	02000793          	li	a5,32
    8000cb7c:	04f13023          	sd	a5,64(sp)
    8000cb80:	d88ff06f          	j	8000c108 <__gdtoa+0xdec>
    8000cb84:	0184a683          	lw	a3,24(s1)
    8000cb88:	d8069a63          	bnez	a3,8000c11c <__gdtoa+0xe00>
    8000cb8c:	04013983          	ld	s3,64(sp)
    8000cb90:	d8cff06f          	j	8000c11c <__gdtoa+0xe00>
    8000cb94:	03900693          	li	a3,57
    8000cb98:	000d8313          	mv	t1,s11
    8000cb9c:	00db0e63          	beq	s6,a3,8000cbb8 <__gdtoa+0x189c>
    8000cba0:	001b081b          	addw	a6,s6,1
    8000cba4:	02000993          	li	s3,32
    8000cba8:	d74ff06f          	j	8000c11c <__gdtoa+0xe00>
    8000cbac:	01000993          	li	s3,16
    8000cbb0:	001d0c13          	add	s8,s10,1
    8000cbb4:	d68ff06f          	j	8000c11c <__gdtoa+0xe00>
    8000cbb8:	000a8b13          	mv	s6,s5
    8000cbbc:	000d0693          	mv	a3,s10
    8000cbc0:	000b8a93          	mv	s5,s7
    8000cbc4:	965ff06f          	j	8000c528 <__gdtoa+0x120c>
    8000cbc8:	0144a603          	lw	a2,20(s1)
    8000cbcc:	00100693          	li	a3,1
    8000cbd0:	00c6d463          	bge	a3,a2,8000cbd8 <__gdtoa+0x18bc>
    8000cbd4:	e01fe06f          	j	8000b9d4 <__gdtoa+0x6b8>
    8000cbd8:	0184a683          	lw	a3,24(s1)
    8000cbdc:	00068463          	beqz	a3,8000cbe4 <__gdtoa+0x18c8>
    8000cbe0:	df5fe06f          	j	8000b9d4 <__gdtoa+0x6b8>
    8000cbe4:	001d0c13          	add	s8,s10,1
    8000cbe8:	d34ff06f          	j	8000c11c <__gdtoa+0xe00>
    8000cbec:	0144a603          	lw	a2,20(s1)
    8000cbf0:	00100693          	li	a3,1
    8000cbf4:	01000993          	li	s3,16
    8000cbf8:	f0c6cce3          	blt	a3,a2,8000cb10 <__gdtoa+0x17f4>
    8000cbfc:	0184a983          	lw	s3,24(s1)
    8000cc00:	013039b3          	snez	s3,s3
    8000cc04:	00499993          	sll	s3,s3,0x4
    8000cc08:	f09ff06f          	j	8000cb10 <__gdtoa+0x17f4>
    8000cc0c:	020b4663          	bltz	s6,8000cc38 <__gdtoa+0x191c>
    8000cc10:	016de7b3          	or	a5,s11,s6
    8000cc14:	0007879b          	sext.w	a5,a5
    8000cc18:	00079a63          	bnez	a5,8000cc2c <__gdtoa+0x1910>
    8000cc1c:	00813783          	ld	a5,8(sp)
    8000cc20:	0007a783          	lw	a5,0(a5)
    8000cc24:	0017f793          	and	a5,a5,1
    8000cc28:	00078863          	beqz	a5,8000cc38 <__gdtoa+0x191c>
    8000cc2c:	00d04463          	bgtz	a3,8000cc34 <__gdtoa+0x1918>
    8000cc30:	c69fe06f          	j	8000b898 <__gdtoa+0x57c>
    8000cc34:	c55fe06f          	j	8000b888 <__gdtoa+0x56c>
    8000cc38:	04013783          	ld	a5,64(sp)
    8000cc3c:	00090993          	mv	s3,s2
    8000cc40:	000a0813          	mv	a6,s4
    8000cc44:	000c8313          	mv	t1,s9
    8000cc48:	02013a03          	ld	s4,32(sp)
    8000cc4c:	01813c83          	ld	s9,24(sp)
    8000cc50:	02813903          	ld	s2,40(sp)
    8000cc54:	02078863          	beqz	a5,8000cc84 <__gdtoa+0x1968>
    8000cc58:	0144a583          	lw	a1,20(s1)
    8000cc5c:	00100613          	li	a2,1
    8000cc60:	00b65463          	bge	a2,a1,8000cc68 <__gdtoa+0x194c>
    8000cc64:	d71fe06f          	j	8000b9d4 <__gdtoa+0x6b8>
    8000cc68:	0184a603          	lw	a2,24(s1)
    8000cc6c:	00060463          	beqz	a2,8000cc74 <__gdtoa+0x1958>
    8000cc70:	d65fe06f          	j	8000b9d4 <__gdtoa+0x6b8>
    8000cc74:	a6d044e3          	bgtz	a3,8000c6dc <__gdtoa+0x13c0>
    8000cc78:	00000993          	li	s3,0
    8000cc7c:	001d0c13          	add	s8,s10,1
    8000cc80:	c9cff06f          	j	8000c11c <__gdtoa+0xe00>
    8000cc84:	c8d05263          	blez	a3,8000c108 <__gdtoa+0xdec>
    8000cc88:	a55ff06f          	j	8000c6dc <__gdtoa+0x13c0>

000000008000cc8c <__rv_alloc_D2A.part.0>:
    8000cc8c:	ff010113          	add	sp,sp,-16
    8000cc90:	00011697          	auipc	a3,0x11
    8000cc94:	8c868693          	add	a3,a3,-1848 # 8001d558 <s_box+0x310>
    8000cc98:	00000613          	li	a2,0
    8000cc9c:	03900593          	li	a1,57
    8000cca0:	00011517          	auipc	a0,0x11
    8000cca4:	8d050513          	add	a0,a0,-1840 # 8001d570 <s_box+0x328>
    8000cca8:	00113423          	sd	ra,8(sp)
    8000ccac:	6f1010ef          	jal	8000eb9c <__assert_func>

000000008000ccb0 <__rv_alloc_D2A>:
    8000ccb0:	ff010113          	add	sp,sp,-16
    8000ccb4:	00813023          	sd	s0,0(sp)
    8000ccb8:	00113423          	sd	ra,8(sp)
    8000ccbc:	01f00693          	li	a3,31
    8000ccc0:	00050413          	mv	s0,a0
    8000ccc4:	00100713          	li	a4,1
    8000ccc8:	00400793          	li	a5,4
    8000cccc:	04b6f063          	bgeu	a3,a1,8000cd0c <__rv_alloc_D2A+0x5c>
    8000ccd0:	0017979b          	sllw	a5,a5,0x1
    8000ccd4:	01c78693          	add	a3,a5,28
    8000ccd8:	0007061b          	sext.w	a2,a4
    8000ccdc:	0017071b          	addw	a4,a4,1
    8000cce0:	fed5f8e3          	bgeu	a1,a3,8000ccd0 <__rv_alloc_D2A+0x20>
    8000cce4:	0006059b          	sext.w	a1,a2
    8000cce8:	04b42c23          	sw	a1,88(s0)
    8000ccec:	00040513          	mv	a0,s0
    8000ccf0:	45c000ef          	jal	8000d14c <_Balloc>
    8000ccf4:	02050263          	beqz	a0,8000cd18 <__rv_alloc_D2A+0x68>
    8000ccf8:	00813083          	ld	ra,8(sp)
    8000ccfc:	04a43823          	sd	a0,80(s0)
    8000cd00:	00013403          	ld	s0,0(sp)
    8000cd04:	01010113          	add	sp,sp,16
    8000cd08:	00008067          	ret
    8000cd0c:	04052c23          	sw	zero,88(a0)
    8000cd10:	00000593          	li	a1,0
    8000cd14:	fd9ff06f          	j	8000ccec <__rv_alloc_D2A+0x3c>
    8000cd18:	f75ff0ef          	jal	8000cc8c <__rv_alloc_D2A.part.0>

000000008000cd1c <__nrv_alloc_D2A>:
    8000cd1c:	fe010113          	add	sp,sp,-32
    8000cd20:	00813823          	sd	s0,16(sp)
    8000cd24:	00913423          	sd	s1,8(sp)
    8000cd28:	01213023          	sd	s2,0(sp)
    8000cd2c:	00113c23          	sd	ra,24(sp)
    8000cd30:	01f00813          	li	a6,31
    8000cd34:	00050493          	mv	s1,a0
    8000cd38:	00058413          	mv	s0,a1
    8000cd3c:	00060913          	mv	s2,a2
    8000cd40:	00100713          	li	a4,1
    8000cd44:	00400793          	li	a5,4
    8000cd48:	06d87c63          	bgeu	a6,a3,8000cdc0 <__nrv_alloc_D2A+0xa4>
    8000cd4c:	0017979b          	sllw	a5,a5,0x1
    8000cd50:	01c78813          	add	a6,a5,28
    8000cd54:	0007059b          	sext.w	a1,a4
    8000cd58:	0017071b          	addw	a4,a4,1
    8000cd5c:	ff06f8e3          	bgeu	a3,a6,8000cd4c <__nrv_alloc_D2A+0x30>
    8000cd60:	0005859b          	sext.w	a1,a1
    8000cd64:	04b4ac23          	sw	a1,88(s1)
    8000cd68:	00048513          	mv	a0,s1
    8000cd6c:	3e0000ef          	jal	8000d14c <_Balloc>
    8000cd70:	06050263          	beqz	a0,8000cdd4 <__nrv_alloc_D2A+0xb8>
    8000cd74:	04a4b823          	sd	a0,80(s1)
    8000cd78:	00044783          	lbu	a5,0(s0)
    8000cd7c:	00140593          	add	a1,s0,1
    8000cd80:	00f50023          	sb	a5,0(a0)
    8000cd84:	04078463          	beqz	a5,8000cdcc <__nrv_alloc_D2A+0xb0>
    8000cd88:	00050793          	mv	a5,a0
    8000cd8c:	0005c703          	lbu	a4,0(a1)
    8000cd90:	00178793          	add	a5,a5,1
    8000cd94:	00158593          	add	a1,a1,1
    8000cd98:	00e78023          	sb	a4,0(a5)
    8000cd9c:	fe0718e3          	bnez	a4,8000cd8c <__nrv_alloc_D2A+0x70>
    8000cda0:	00090463          	beqz	s2,8000cda8 <__nrv_alloc_D2A+0x8c>
    8000cda4:	00f93023          	sd	a5,0(s2)
    8000cda8:	01813083          	ld	ra,24(sp)
    8000cdac:	01013403          	ld	s0,16(sp)
    8000cdb0:	00813483          	ld	s1,8(sp)
    8000cdb4:	00013903          	ld	s2,0(sp)
    8000cdb8:	02010113          	add	sp,sp,32
    8000cdbc:	00008067          	ret
    8000cdc0:	04052c23          	sw	zero,88(a0)
    8000cdc4:	00000593          	li	a1,0
    8000cdc8:	fa1ff06f          	j	8000cd68 <__nrv_alloc_D2A+0x4c>
    8000cdcc:	00050793          	mv	a5,a0
    8000cdd0:	fd1ff06f          	j	8000cda0 <__nrv_alloc_D2A+0x84>
    8000cdd4:	eb9ff0ef          	jal	8000cc8c <__rv_alloc_D2A.part.0>

000000008000cdd8 <__freedtoa>:
    8000cdd8:	05852783          	lw	a5,88(a0)
    8000cddc:	00100713          	li	a4,1
    8000cde0:	00f7173b          	sllw	a4,a4,a5
    8000cde4:	02079793          	sll	a5,a5,0x20
    8000cde8:	02071713          	sll	a4,a4,0x20
    8000cdec:	0207d793          	srl	a5,a5,0x20
    8000cdf0:	00e7e7b3          	or	a5,a5,a4
    8000cdf4:	00f5b423          	sd	a5,8(a1)
    8000cdf8:	4000006f          	j	8000d1f8 <_Bfree>

000000008000cdfc <__quorem_D2A>:
    8000cdfc:	fc010113          	add	sp,sp,-64
    8000ce00:	02913423          	sd	s1,40(sp)
    8000ce04:	01452783          	lw	a5,20(a0)
    8000ce08:	0145a483          	lw	s1,20(a1)
    8000ce0c:	02113c23          	sd	ra,56(sp)
    8000ce10:	1c97ce63          	blt	a5,s1,8000cfec <__quorem_D2A+0x1f0>
    8000ce14:	fff4849b          	addw	s1,s1,-1
    8000ce18:	00249313          	sll	t1,s1,0x2
    8000ce1c:	02813823          	sd	s0,48(sp)
    8000ce20:	01858413          	add	s0,a1,24
    8000ce24:	03213023          	sd	s2,32(sp)
    8000ce28:	01313c23          	sd	s3,24(sp)
    8000ce2c:	00640933          	add	s2,s0,t1
    8000ce30:	01850993          	add	s3,a0,24
    8000ce34:	01513423          	sd	s5,8(sp)
    8000ce38:	00698333          	add	t1,s3,t1
    8000ce3c:	00092a83          	lw	s5,0(s2)
    8000ce40:	00032783          	lw	a5,0(t1)
    8000ce44:	01613023          	sd	s6,0(sp)
    8000ce48:	001a871b          	addw	a4,s5,1
    8000ce4c:	02e7db3b          	divuw	s6,a5,a4
    8000ce50:	01413823          	sd	s4,16(sp)
    8000ce54:	00050a13          	mv	s4,a0
    8000ce58:	000b0a93          	mv	s5,s6
    8000ce5c:	0ae7ee63          	bltu	a5,a4,8000cf18 <__quorem_D2A+0x11c>
    8000ce60:	00010837          	lui	a6,0x10
    8000ce64:	00040513          	mv	a0,s0
    8000ce68:	00098893          	mv	a7,s3
    8000ce6c:	00000f13          	li	t5,0
    8000ce70:	00000e93          	li	t4,0
    8000ce74:	fff80813          	add	a6,a6,-1 # ffff <__stack_shift+0xffe8>
    8000ce78:	00052703          	lw	a4,0(a0)
    8000ce7c:	0008a603          	lw	a2,0(a7)
    8000ce80:	00488893          	add	a7,a7,4
    8000ce84:	010776b3          	and	a3,a4,a6
    8000ce88:	036686bb          	mulw	a3,a3,s6
    8000ce8c:	0107571b          	srlw	a4,a4,0x10
    8000ce90:	010677b3          	and	a5,a2,a6
    8000ce94:	01065e1b          	srlw	t3,a2,0x10
    8000ce98:	00450513          	add	a0,a0,4
    8000ce9c:	0367073b          	mulw	a4,a4,s6
    8000cea0:	01e686bb          	addw	a3,a3,t5
    8000cea4:	00d87633          	and	a2,a6,a3
    8000cea8:	40c787bb          	subw	a5,a5,a2
    8000ceac:	41d787bb          	subw	a5,a5,t4
    8000ceb0:	0106d69b          	srlw	a3,a3,0x10
    8000ceb4:	0107d61b          	srlw	a2,a5,0x10
    8000ceb8:	00167613          	and	a2,a2,1
    8000cebc:	00f877b3          	and	a5,a6,a5
    8000cec0:	00d7073b          	addw	a4,a4,a3
    8000cec4:	00e876b3          	and	a3,a6,a4
    8000cec8:	00d6063b          	addw	a2,a2,a3
    8000cecc:	40ce06bb          	subw	a3,t3,a2
    8000ced0:	0106961b          	sllw	a2,a3,0x10
    8000ced4:	00c7e7b3          	or	a5,a5,a2
    8000ced8:	0106d69b          	srlw	a3,a3,0x10
    8000cedc:	fef8ae23          	sw	a5,-4(a7)
    8000cee0:	01075f1b          	srlw	t5,a4,0x10
    8000cee4:	0016fe93          	and	t4,a3,1
    8000cee8:	f8a978e3          	bgeu	s2,a0,8000ce78 <__quorem_D2A+0x7c>
    8000ceec:	00032783          	lw	a5,0(t1)
    8000cef0:	02079463          	bnez	a5,8000cf18 <__quorem_D2A+0x11c>
    8000cef4:	ffc30313          	add	t1,t1,-4
    8000cef8:	0069e863          	bltu	s3,t1,8000cf08 <__quorem_D2A+0x10c>
    8000cefc:	0180006f          	j	8000cf14 <__quorem_D2A+0x118>
    8000cf00:	fff4849b          	addw	s1,s1,-1
    8000cf04:	0069f863          	bgeu	s3,t1,8000cf14 <__quorem_D2A+0x118>
    8000cf08:	00032783          	lw	a5,0(t1)
    8000cf0c:	ffc30313          	add	t1,t1,-4
    8000cf10:	fe0788e3          	beqz	a5,8000cf00 <__quorem_D2A+0x104>
    8000cf14:	009a2a23          	sw	s1,20(s4)
    8000cf18:	000a0513          	mv	a0,s4
    8000cf1c:	4ed000ef          	jal	8000dc08 <__mcmp>
    8000cf20:	0a054063          	bltz	a0,8000cfc0 <__quorem_D2A+0x1c4>
    8000cf24:	00010537          	lui	a0,0x10
    8000cf28:	00098613          	mv	a2,s3
    8000cf2c:	00000593          	li	a1,0
    8000cf30:	fff50513          	add	a0,a0,-1 # ffff <__stack_shift+0xffe8>
    8000cf34:	00062703          	lw	a4,0(a2)
    8000cf38:	00042683          	lw	a3,0(s0)
    8000cf3c:	00460613          	add	a2,a2,4
    8000cf40:	00a777b3          	and	a5,a4,a0
    8000cf44:	00a6f833          	and	a6,a3,a0
    8000cf48:	410787bb          	subw	a5,a5,a6
    8000cf4c:	40b787bb          	subw	a5,a5,a1
    8000cf50:	0107d59b          	srlw	a1,a5,0x10
    8000cf54:	0015f593          	and	a1,a1,1
    8000cf58:	0106d69b          	srlw	a3,a3,0x10
    8000cf5c:	00b686bb          	addw	a3,a3,a1
    8000cf60:	0107571b          	srlw	a4,a4,0x10
    8000cf64:	40d7073b          	subw	a4,a4,a3
    8000cf68:	0107169b          	sllw	a3,a4,0x10
    8000cf6c:	00f577b3          	and	a5,a0,a5
    8000cf70:	00d7e7b3          	or	a5,a5,a3
    8000cf74:	0107571b          	srlw	a4,a4,0x10
    8000cf78:	00440413          	add	s0,s0,4
    8000cf7c:	fef62e23          	sw	a5,-4(a2)
    8000cf80:	00177593          	and	a1,a4,1
    8000cf84:	fa8978e3          	bgeu	s2,s0,8000cf34 <__quorem_D2A+0x138>
    8000cf88:	00249793          	sll	a5,s1,0x2
    8000cf8c:	00f987b3          	add	a5,s3,a5
    8000cf90:	0007a703          	lw	a4,0(a5)
    8000cf94:	02071463          	bnez	a4,8000cfbc <__quorem_D2A+0x1c0>
    8000cf98:	ffc78793          	add	a5,a5,-4
    8000cf9c:	00f9e863          	bltu	s3,a5,8000cfac <__quorem_D2A+0x1b0>
    8000cfa0:	0180006f          	j	8000cfb8 <__quorem_D2A+0x1bc>
    8000cfa4:	fff4849b          	addw	s1,s1,-1
    8000cfa8:	00f9f863          	bgeu	s3,a5,8000cfb8 <__quorem_D2A+0x1bc>
    8000cfac:	0007a703          	lw	a4,0(a5)
    8000cfb0:	ffc78793          	add	a5,a5,-4
    8000cfb4:	fe0708e3          	beqz	a4,8000cfa4 <__quorem_D2A+0x1a8>
    8000cfb8:	009a2a23          	sw	s1,20(s4)
    8000cfbc:	001a8b1b          	addw	s6,s5,1
    8000cfc0:	03013403          	ld	s0,48(sp)
    8000cfc4:	03813083          	ld	ra,56(sp)
    8000cfc8:	02013903          	ld	s2,32(sp)
    8000cfcc:	01813983          	ld	s3,24(sp)
    8000cfd0:	01013a03          	ld	s4,16(sp)
    8000cfd4:	00813a83          	ld	s5,8(sp)
    8000cfd8:	02813483          	ld	s1,40(sp)
    8000cfdc:	000b051b          	sext.w	a0,s6
    8000cfe0:	00013b03          	ld	s6,0(sp)
    8000cfe4:	04010113          	add	sp,sp,64
    8000cfe8:	00008067          	ret
    8000cfec:	03813083          	ld	ra,56(sp)
    8000cff0:	02813483          	ld	s1,40(sp)
    8000cff4:	00000513          	li	a0,0
    8000cff8:	04010113          	add	sp,sp,64
    8000cffc:	00008067          	ret

000000008000d000 <__rshift_D2A>:
    8000d000:	01452703          	lw	a4,20(a0)
    8000d004:	4055de13          	sra	t3,a1,0x5
    8000d008:	00ee4863          	blt	t3,a4,8000d018 <__rshift_D2A+0x18>
    8000d00c:	00052a23          	sw	zero,20(a0)
    8000d010:	00052c23          	sw	zero,24(a0)
    8000d014:	00008067          	ret
    8000d018:	01850313          	add	t1,a0,24
    8000d01c:	00271813          	sll	a6,a4,0x2
    8000d020:	002e1793          	sll	a5,t3,0x2
    8000d024:	01f5f593          	and	a1,a1,31
    8000d028:	01030833          	add	a6,t1,a6
    8000d02c:	00f307b3          	add	a5,t1,a5
    8000d030:	06058263          	beqz	a1,8000d094 <__rshift_D2A+0x94>
    8000d034:	0007a603          	lw	a2,0(a5)
    8000d038:	02000e93          	li	t4,32
    8000d03c:	00478793          	add	a5,a5,4
    8000d040:	00b656bb          	srlw	a3,a2,a1
    8000d044:	40be8ebb          	subw	t4,t4,a1
    8000d048:	0907f663          	bgeu	a5,a6,8000d0d4 <__rshift_D2A+0xd4>
    8000d04c:	00030893          	mv	a7,t1
    8000d050:	0007a603          	lw	a2,0(a5)
    8000d054:	00488893          	add	a7,a7,4
    8000d058:	00478793          	add	a5,a5,4
    8000d05c:	01d6163b          	sllw	a2,a2,t4
    8000d060:	00c6e6b3          	or	a3,a3,a2
    8000d064:	fed8ae23          	sw	a3,-4(a7)
    8000d068:	ffc7a603          	lw	a2,-4(a5)
    8000d06c:	00b656bb          	srlw	a3,a2,a1
    8000d070:	ff07e0e3          	bltu	a5,a6,8000d050 <__rshift_D2A+0x50>
    8000d074:	41c70733          	sub	a4,a4,t3
    8000d078:	00271713          	sll	a4,a4,0x2
    8000d07c:	ffc70713          	add	a4,a4,-4
    8000d080:	00e30733          	add	a4,t1,a4
    8000d084:	00d72023          	sw	a3,0(a4)
    8000d088:	02068a63          	beqz	a3,8000d0bc <__rshift_D2A+0xbc>
    8000d08c:	00470713          	add	a4,a4,4
    8000d090:	02c0006f          	j	8000d0bc <__rshift_D2A+0xbc>
    8000d094:	00030693          	mv	a3,t1
    8000d098:	f707fae3          	bgeu	a5,a6,8000d00c <__rshift_D2A+0xc>
    8000d09c:	0007a603          	lw	a2,0(a5)
    8000d0a0:	00478793          	add	a5,a5,4
    8000d0a4:	00468693          	add	a3,a3,4
    8000d0a8:	fec6ae23          	sw	a2,-4(a3)
    8000d0ac:	ff07e8e3          	bltu	a5,a6,8000d09c <__rshift_D2A+0x9c>
    8000d0b0:	41c70733          	sub	a4,a4,t3
    8000d0b4:	00271713          	sll	a4,a4,0x2
    8000d0b8:	00e30733          	add	a4,t1,a4
    8000d0bc:	40670733          	sub	a4,a4,t1
    8000d0c0:	40275713          	sra	a4,a4,0x2
    8000d0c4:	0007071b          	sext.w	a4,a4
    8000d0c8:	00e52a23          	sw	a4,20(a0)
    8000d0cc:	f40702e3          	beqz	a4,8000d010 <__rshift_D2A+0x10>
    8000d0d0:	00008067          	ret
    8000d0d4:	00d52c23          	sw	a3,24(a0)
    8000d0d8:	f2068ae3          	beqz	a3,8000d00c <__rshift_D2A+0xc>
    8000d0dc:	00030713          	mv	a4,t1
    8000d0e0:	00470713          	add	a4,a4,4
    8000d0e4:	fd9ff06f          	j	8000d0bc <__rshift_D2A+0xbc>

000000008000d0e8 <__trailz_D2A>:
    8000d0e8:	01452703          	lw	a4,20(a0)
    8000d0ec:	fe010113          	add	sp,sp,-32
    8000d0f0:	01850513          	add	a0,a0,24
    8000d0f4:	00271713          	sll	a4,a4,0x2
    8000d0f8:	00813823          	sd	s0,16(sp)
    8000d0fc:	00113c23          	sd	ra,24(sp)
    8000d100:	00e50733          	add	a4,a0,a4
    8000d104:	00000413          	li	s0,0
    8000d108:	00e56a63          	bltu	a0,a4,8000d11c <__trailz_D2A+0x34>
    8000d10c:	02c0006f          	j	8000d138 <__trailz_D2A+0x50>
    8000d110:	00450513          	add	a0,a0,4
    8000d114:	0204041b          	addw	s0,s0,32
    8000d118:	02e57063          	bgeu	a0,a4,8000d138 <__trailz_D2A+0x50>
    8000d11c:	00052783          	lw	a5,0(a0)
    8000d120:	fe0788e3          	beqz	a5,8000d110 <__trailz_D2A+0x28>
    8000d124:	00e57a63          	bgeu	a0,a4,8000d138 <__trailz_D2A+0x50>
    8000d128:	00c10513          	add	a0,sp,12
    8000d12c:	00f12623          	sw	a5,12(sp)
    8000d130:	414000ef          	jal	8000d544 <__lo0bits>
    8000d134:	0085043b          	addw	s0,a0,s0
    8000d138:	01813083          	ld	ra,24(sp)
    8000d13c:	00040513          	mv	a0,s0
    8000d140:	01013403          	ld	s0,16(sp)
    8000d144:	02010113          	add	sp,sp,32
    8000d148:	00008067          	ret

000000008000d14c <_Balloc>:
    8000d14c:	06853783          	ld	a5,104(a0)
    8000d150:	fe010113          	add	sp,sp,-32
    8000d154:	00813823          	sd	s0,16(sp)
    8000d158:	00913423          	sd	s1,8(sp)
    8000d15c:	00113c23          	sd	ra,24(sp)
    8000d160:	00050493          	mv	s1,a0
    8000d164:	00058413          	mv	s0,a1
    8000d168:	02078a63          	beqz	a5,8000d19c <_Balloc+0x50>
    8000d16c:	00341713          	sll	a4,s0,0x3
    8000d170:	00e787b3          	add	a5,a5,a4
    8000d174:	0007b503          	ld	a0,0(a5)
    8000d178:	04050263          	beqz	a0,8000d1bc <_Balloc+0x70>
    8000d17c:	00053703          	ld	a4,0(a0)
    8000d180:	00e7b023          	sd	a4,0(a5)
    8000d184:	00053823          	sd	zero,16(a0)
    8000d188:	01813083          	ld	ra,24(sp)
    8000d18c:	01013403          	ld	s0,16(sp)
    8000d190:	00813483          	ld	s1,8(sp)
    8000d194:	02010113          	add	sp,sp,32
    8000d198:	00008067          	ret
    8000d19c:	04100613          	li	a2,65
    8000d1a0:	00800593          	li	a1,8
    8000d1a4:	261010ef          	jal	8000ec04 <_calloc_r>
    8000d1a8:	06a4b423          	sd	a0,104(s1)
    8000d1ac:	00050793          	mv	a5,a0
    8000d1b0:	fa051ee3          	bnez	a0,8000d16c <_Balloc+0x20>
    8000d1b4:	00000513          	li	a0,0
    8000d1b8:	fd1ff06f          	j	8000d188 <_Balloc+0x3c>
    8000d1bc:	00100793          	li	a5,1
    8000d1c0:	008797bb          	sllw	a5,a5,s0
    8000d1c4:	0007861b          	sext.w	a2,a5
    8000d1c8:	00760613          	add	a2,a2,7
    8000d1cc:	02041413          	sll	s0,s0,0x20
    8000d1d0:	02079793          	sll	a5,a5,0x20
    8000d1d4:	02045413          	srl	s0,s0,0x20
    8000d1d8:	00261613          	sll	a2,a2,0x2
    8000d1dc:	00100593          	li	a1,1
    8000d1e0:	00048513          	mv	a0,s1
    8000d1e4:	00f46433          	or	s0,s0,a5
    8000d1e8:	21d010ef          	jal	8000ec04 <_calloc_r>
    8000d1ec:	fc0504e3          	beqz	a0,8000d1b4 <_Balloc+0x68>
    8000d1f0:	00853423          	sd	s0,8(a0)
    8000d1f4:	f91ff06f          	j	8000d184 <_Balloc+0x38>

000000008000d1f8 <_Bfree>:
    8000d1f8:	02058063          	beqz	a1,8000d218 <_Bfree+0x20>
    8000d1fc:	0085a703          	lw	a4,8(a1)
    8000d200:	06853783          	ld	a5,104(a0)
    8000d204:	00371713          	sll	a4,a4,0x3
    8000d208:	00e787b3          	add	a5,a5,a4
    8000d20c:	0007b703          	ld	a4,0(a5)
    8000d210:	00e5b023          	sd	a4,0(a1)
    8000d214:	00b7b023          	sd	a1,0(a5)
    8000d218:	00008067          	ret

000000008000d21c <__multadd>:
    8000d21c:	fd010113          	add	sp,sp,-48
    8000d220:	02813023          	sd	s0,32(sp)
    8000d224:	0145a403          	lw	s0,20(a1)
    8000d228:	00010337          	lui	t1,0x10
    8000d22c:	01213823          	sd	s2,16(sp)
    8000d230:	01313423          	sd	s3,8(sp)
    8000d234:	02113423          	sd	ra,40(sp)
    8000d238:	00913c23          	sd	s1,24(sp)
    8000d23c:	00058913          	mv	s2,a1
    8000d240:	00050993          	mv	s3,a0
    8000d244:	01858813          	add	a6,a1,24
    8000d248:	00000893          	li	a7,0
    8000d24c:	fff30313          	add	t1,t1,-1 # ffff <__stack_shift+0xffe8>
    8000d250:	00082783          	lw	a5,0(a6)
    8000d254:	00480813          	add	a6,a6,4
    8000d258:	0018889b          	addw	a7,a7,1
    8000d25c:	0067f733          	and	a4,a5,t1
    8000d260:	02c7073b          	mulw	a4,a4,a2
    8000d264:	0107d79b          	srlw	a5,a5,0x10
    8000d268:	02c787bb          	mulw	a5,a5,a2
    8000d26c:	00d7073b          	addw	a4,a4,a3
    8000d270:	0107569b          	srlw	a3,a4,0x10
    8000d274:	00e37733          	and	a4,t1,a4
    8000d278:	00d787bb          	addw	a5,a5,a3
    8000d27c:	0107969b          	sllw	a3,a5,0x10
    8000d280:	00e6873b          	addw	a4,a3,a4
    8000d284:	fee82e23          	sw	a4,-4(a6)
    8000d288:	0107d49b          	srlw	s1,a5,0x10
    8000d28c:	0107d69b          	srlw	a3,a5,0x10
    8000d290:	fc88c0e3          	blt	a7,s0,8000d250 <__multadd+0x34>
    8000d294:	02068263          	beqz	a3,8000d2b8 <__multadd+0x9c>
    8000d298:	00c92783          	lw	a5,12(s2)
    8000d29c:	02f45e63          	bge	s0,a5,8000d2d8 <__multadd+0xbc>
    8000d2a0:	00440793          	add	a5,s0,4
    8000d2a4:	00279793          	sll	a5,a5,0x2
    8000d2a8:	00f907b3          	add	a5,s2,a5
    8000d2ac:	0097a423          	sw	s1,8(a5)
    8000d2b0:	0014041b          	addw	s0,s0,1
    8000d2b4:	00892a23          	sw	s0,20(s2)
    8000d2b8:	02813083          	ld	ra,40(sp)
    8000d2bc:	02013403          	ld	s0,32(sp)
    8000d2c0:	01813483          	ld	s1,24(sp)
    8000d2c4:	00813983          	ld	s3,8(sp)
    8000d2c8:	00090513          	mv	a0,s2
    8000d2cc:	01013903          	ld	s2,16(sp)
    8000d2d0:	03010113          	add	sp,sp,48
    8000d2d4:	00008067          	ret
    8000d2d8:	00892583          	lw	a1,8(s2)
    8000d2dc:	00098513          	mv	a0,s3
    8000d2e0:	01413023          	sd	s4,0(sp)
    8000d2e4:	0015859b          	addw	a1,a1,1
    8000d2e8:	e65ff0ef          	jal	8000d14c <_Balloc>
    8000d2ec:	00050a13          	mv	s4,a0
    8000d2f0:	04050e63          	beqz	a0,8000d34c <__multadd+0x130>
    8000d2f4:	01492603          	lw	a2,20(s2)
    8000d2f8:	01090593          	add	a1,s2,16
    8000d2fc:	01050513          	add	a0,a0,16
    8000d300:	00260613          	add	a2,a2,2
    8000d304:	00261613          	sll	a2,a2,0x2
    8000d308:	f1cf90ef          	jal	80006a24 <memcpy>
    8000d30c:	00892703          	lw	a4,8(s2)
    8000d310:	0689b783          	ld	a5,104(s3)
    8000d314:	00371713          	sll	a4,a4,0x3
    8000d318:	00e787b3          	add	a5,a5,a4
    8000d31c:	0007b703          	ld	a4,0(a5)
    8000d320:	00e93023          	sd	a4,0(s2)
    8000d324:	0127b023          	sd	s2,0(a5)
    8000d328:	00440793          	add	a5,s0,4
    8000d32c:	000a0913          	mv	s2,s4
    8000d330:	00279793          	sll	a5,a5,0x2
    8000d334:	00f907b3          	add	a5,s2,a5
    8000d338:	00013a03          	ld	s4,0(sp)
    8000d33c:	0014041b          	addw	s0,s0,1
    8000d340:	0097a423          	sw	s1,8(a5)
    8000d344:	00892a23          	sw	s0,20(s2)
    8000d348:	f71ff06f          	j	8000d2b8 <__multadd+0x9c>
    8000d34c:	00010697          	auipc	a3,0x10
    8000d350:	20c68693          	add	a3,a3,524 # 8001d558 <s_box+0x310>
    8000d354:	00000613          	li	a2,0
    8000d358:	0ba00593          	li	a1,186
    8000d35c:	00010517          	auipc	a0,0x10
    8000d360:	27450513          	add	a0,a0,628 # 8001d5d0 <s_box+0x388>
    8000d364:	039010ef          	jal	8000eb9c <__assert_func>

000000008000d368 <__s2b>:
    8000d368:	fc010113          	add	sp,sp,-64
    8000d36c:	02813823          	sd	s0,48(sp)
    8000d370:	02913423          	sd	s1,40(sp)
    8000d374:	03213023          	sd	s2,32(sp)
    8000d378:	01313c23          	sd	s3,24(sp)
    8000d37c:	01413823          	sd	s4,16(sp)
    8000d380:	00068493          	mv	s1,a3
    8000d384:	00058413          	mv	s0,a1
    8000d388:	0086869b          	addw	a3,a3,8
    8000d38c:	00900593          	li	a1,9
    8000d390:	02113c23          	sd	ra,56(sp)
    8000d394:	00900793          	li	a5,9
    8000d398:	02b6c6bb          	divw	a3,a3,a1
    8000d39c:	00050913          	mv	s2,a0
    8000d3a0:	00060a13          	mv	s4,a2
    8000d3a4:	00070993          	mv	s3,a4
    8000d3a8:	0e97dc63          	bge	a5,s1,8000d4a0 <__s2b+0x138>
    8000d3ac:	00100793          	li	a5,1
    8000d3b0:	00000593          	li	a1,0
    8000d3b4:	0017979b          	sllw	a5,a5,0x1
    8000d3b8:	0015859b          	addw	a1,a1,1
    8000d3bc:	fed7cce3          	blt	a5,a3,8000d3b4 <__s2b+0x4c>
    8000d3c0:	00090513          	mv	a0,s2
    8000d3c4:	d89ff0ef          	jal	8000d14c <_Balloc>
    8000d3c8:	00050593          	mv	a1,a0
    8000d3cc:	0c050e63          	beqz	a0,8000d4a8 <__s2b+0x140>
    8000d3d0:	00100793          	li	a5,1
    8000d3d4:	00f52a23          	sw	a5,20(a0)
    8000d3d8:	01352c23          	sw	s3,24(a0)
    8000d3dc:	00900793          	li	a5,9
    8000d3e0:	0b47da63          	bge	a5,s4,8000d494 <__s2b+0x12c>
    8000d3e4:	020a1793          	sll	a5,s4,0x20
    8000d3e8:	01613023          	sd	s6,0(sp)
    8000d3ec:	0207d793          	srl	a5,a5,0x20
    8000d3f0:	00940b13          	add	s6,s0,9
    8000d3f4:	01513423          	sd	s5,8(sp)
    8000d3f8:	00f40433          	add	s0,s0,a5
    8000d3fc:	000a0a9b          	sext.w	s5,s4
    8000d400:	000b0993          	mv	s3,s6
    8000d404:	0009c683          	lbu	a3,0(s3)
    8000d408:	00a00613          	li	a2,10
    8000d40c:	00090513          	mv	a0,s2
    8000d410:	fd06869b          	addw	a3,a3,-48
    8000d414:	e09ff0ef          	jal	8000d21c <__multadd>
    8000d418:	00198993          	add	s3,s3,1
    8000d41c:	00050593          	mv	a1,a0
    8000d420:	fe8992e3          	bne	s3,s0,8000d404 <__s2b+0x9c>
    8000d424:	ff8a8a9b          	addw	s5,s5,-8
    8000d428:	020a9a93          	sll	s5,s5,0x20
    8000d42c:	020ada93          	srl	s5,s5,0x20
    8000d430:	015b0433          	add	s0,s6,s5
    8000d434:	00813a83          	ld	s5,8(sp)
    8000d438:	00013b03          	ld	s6,0(sp)
    8000d43c:	029a5a63          	bge	s4,s1,8000d470 <__s2b+0x108>
    8000d440:	414484bb          	subw	s1,s1,s4
    8000d444:	02049493          	sll	s1,s1,0x20
    8000d448:	0204d493          	srl	s1,s1,0x20
    8000d44c:	009404b3          	add	s1,s0,s1
    8000d450:	00044683          	lbu	a3,0(s0)
    8000d454:	00a00613          	li	a2,10
    8000d458:	00090513          	mv	a0,s2
    8000d45c:	fd06869b          	addw	a3,a3,-48
    8000d460:	dbdff0ef          	jal	8000d21c <__multadd>
    8000d464:	00140413          	add	s0,s0,1
    8000d468:	00050593          	mv	a1,a0
    8000d46c:	fe9412e3          	bne	s0,s1,8000d450 <__s2b+0xe8>
    8000d470:	03813083          	ld	ra,56(sp)
    8000d474:	03013403          	ld	s0,48(sp)
    8000d478:	02813483          	ld	s1,40(sp)
    8000d47c:	02013903          	ld	s2,32(sp)
    8000d480:	01813983          	ld	s3,24(sp)
    8000d484:	01013a03          	ld	s4,16(sp)
    8000d488:	00058513          	mv	a0,a1
    8000d48c:	04010113          	add	sp,sp,64
    8000d490:	00008067          	ret
    8000d494:	00a40413          	add	s0,s0,10
    8000d498:	00900a13          	li	s4,9
    8000d49c:	fa1ff06f          	j	8000d43c <__s2b+0xd4>
    8000d4a0:	00000593          	li	a1,0
    8000d4a4:	f1dff06f          	j	8000d3c0 <__s2b+0x58>
    8000d4a8:	00010697          	auipc	a3,0x10
    8000d4ac:	0b068693          	add	a3,a3,176 # 8001d558 <s_box+0x310>
    8000d4b0:	00000613          	li	a2,0
    8000d4b4:	0d300593          	li	a1,211
    8000d4b8:	00010517          	auipc	a0,0x10
    8000d4bc:	11850513          	add	a0,a0,280 # 8001d5d0 <s_box+0x388>
    8000d4c0:	01513423          	sd	s5,8(sp)
    8000d4c4:	01613023          	sd	s6,0(sp)
    8000d4c8:	6d4010ef          	jal	8000eb9c <__assert_func>

000000008000d4cc <__hi0bits>:
    8000d4cc:	00050793          	mv	a5,a0
    8000d4d0:	00010737          	lui	a4,0x10
    8000d4d4:	00000513          	li	a0,0
    8000d4d8:	00e7f663          	bgeu	a5,a4,8000d4e4 <__hi0bits+0x18>
    8000d4dc:	0107979b          	sllw	a5,a5,0x10
    8000d4e0:	01000513          	li	a0,16
    8000d4e4:	01000737          	lui	a4,0x1000
    8000d4e8:	00e7f663          	bgeu	a5,a4,8000d4f4 <__hi0bits+0x28>
    8000d4ec:	0087979b          	sllw	a5,a5,0x8
    8000d4f0:	0085051b          	addw	a0,a0,8
    8000d4f4:	10000737          	lui	a4,0x10000
    8000d4f8:	00e7f663          	bgeu	a5,a4,8000d504 <__hi0bits+0x38>
    8000d4fc:	0047979b          	sllw	a5,a5,0x4
    8000d500:	0045051b          	addw	a0,a0,4
    8000d504:	40000737          	lui	a4,0x40000
    8000d508:	00e7e863          	bltu	a5,a4,8000d518 <__hi0bits+0x4c>
    8000d50c:	0207c263          	bltz	a5,8000d530 <__hi0bits+0x64>
    8000d510:	0015051b          	addw	a0,a0,1
    8000d514:	00008067          	ret
    8000d518:	02279693          	sll	a3,a5,0x22
    8000d51c:	0027971b          	sllw	a4,a5,0x2
    8000d520:	0006ca63          	bltz	a3,8000d534 <__hi0bits+0x68>
    8000d524:	02171793          	sll	a5,a4,0x21
    8000d528:	0007ca63          	bltz	a5,8000d53c <__hi0bits+0x70>
    8000d52c:	02000513          	li	a0,32
    8000d530:	00008067          	ret
    8000d534:	0025051b          	addw	a0,a0,2
    8000d538:	00008067          	ret
    8000d53c:	0035051b          	addw	a0,a0,3
    8000d540:	00008067          	ret

000000008000d544 <__lo0bits>:
    8000d544:	00052783          	lw	a5,0(a0)
    8000d548:	00050713          	mv	a4,a0
    8000d54c:	0077f693          	and	a3,a5,7
    8000d550:	00078613          	mv	a2,a5
    8000d554:	02068463          	beqz	a3,8000d57c <__lo0bits+0x38>
    8000d558:	0017f693          	and	a3,a5,1
    8000d55c:	00000513          	li	a0,0
    8000d560:	04069e63          	bnez	a3,8000d5bc <__lo0bits+0x78>
    8000d564:	00267613          	and	a2,a2,2
    8000d568:	0a060863          	beqz	a2,8000d618 <__lo0bits+0xd4>
    8000d56c:	0017d79b          	srlw	a5,a5,0x1
    8000d570:	00f72023          	sw	a5,0(a4) # 40000000 <__heap_size+0x3f800000>
    8000d574:	00100513          	li	a0,1
    8000d578:	00008067          	ret
    8000d57c:	03079693          	sll	a3,a5,0x30
    8000d580:	0306d693          	srl	a3,a3,0x30
    8000d584:	00000513          	li	a0,0
    8000d588:	06068e63          	beqz	a3,8000d604 <__lo0bits+0xc0>
    8000d58c:	0ff7f693          	zext.b	a3,a5
    8000d590:	06068063          	beqz	a3,8000d5f0 <__lo0bits+0xac>
    8000d594:	00f7f693          	and	a3,a5,15
    8000d598:	04068263          	beqz	a3,8000d5dc <__lo0bits+0x98>
    8000d59c:	0037f693          	and	a3,a5,3
    8000d5a0:	02068463          	beqz	a3,8000d5c8 <__lo0bits+0x84>
    8000d5a4:	0017f693          	and	a3,a5,1
    8000d5a8:	00069c63          	bnez	a3,8000d5c0 <__lo0bits+0x7c>
    8000d5ac:	0017d79b          	srlw	a5,a5,0x1
    8000d5b0:	0015051b          	addw	a0,a0,1
    8000d5b4:	00079663          	bnez	a5,8000d5c0 <__lo0bits+0x7c>
    8000d5b8:	02000513          	li	a0,32
    8000d5bc:	00008067          	ret
    8000d5c0:	00f72023          	sw	a5,0(a4)
    8000d5c4:	00008067          	ret
    8000d5c8:	0027d79b          	srlw	a5,a5,0x2
    8000d5cc:	0017f693          	and	a3,a5,1
    8000d5d0:	0025051b          	addw	a0,a0,2
    8000d5d4:	fe0696e3          	bnez	a3,8000d5c0 <__lo0bits+0x7c>
    8000d5d8:	fd5ff06f          	j	8000d5ac <__lo0bits+0x68>
    8000d5dc:	0047d79b          	srlw	a5,a5,0x4
    8000d5e0:	0037f693          	and	a3,a5,3
    8000d5e4:	0045051b          	addw	a0,a0,4
    8000d5e8:	fa069ee3          	bnez	a3,8000d5a4 <__lo0bits+0x60>
    8000d5ec:	fddff06f          	j	8000d5c8 <__lo0bits+0x84>
    8000d5f0:	0087d79b          	srlw	a5,a5,0x8
    8000d5f4:	00f7f693          	and	a3,a5,15
    8000d5f8:	0085051b          	addw	a0,a0,8
    8000d5fc:	fa0690e3          	bnez	a3,8000d59c <__lo0bits+0x58>
    8000d600:	fddff06f          	j	8000d5dc <__lo0bits+0x98>
    8000d604:	0107d79b          	srlw	a5,a5,0x10
    8000d608:	0ff7f693          	zext.b	a3,a5
    8000d60c:	01000513          	li	a0,16
    8000d610:	f80692e3          	bnez	a3,8000d594 <__lo0bits+0x50>
    8000d614:	fddff06f          	j	8000d5f0 <__lo0bits+0xac>
    8000d618:	0027d79b          	srlw	a5,a5,0x2
    8000d61c:	00f72023          	sw	a5,0(a4)
    8000d620:	00200513          	li	a0,2
    8000d624:	00008067          	ret

000000008000d628 <__i2b>:
    8000d628:	06853783          	ld	a5,104(a0)
    8000d62c:	fe010113          	add	sp,sp,-32
    8000d630:	00813823          	sd	s0,16(sp)
    8000d634:	00913423          	sd	s1,8(sp)
    8000d638:	00113c23          	sd	ra,24(sp)
    8000d63c:	00050413          	mv	s0,a0
    8000d640:	00058493          	mv	s1,a1
    8000d644:	02078c63          	beqz	a5,8000d67c <__i2b+0x54>
    8000d648:	0087b503          	ld	a0,8(a5)
    8000d64c:	06050263          	beqz	a0,8000d6b0 <__i2b+0x88>
    8000d650:	00053703          	ld	a4,0(a0)
    8000d654:	00e7b423          	sd	a4,8(a5)
    8000d658:	01813083          	ld	ra,24(sp)
    8000d65c:	01013403          	ld	s0,16(sp)
    8000d660:	00100793          	li	a5,1
    8000d664:	02079793          	sll	a5,a5,0x20
    8000d668:	00952c23          	sw	s1,24(a0)
    8000d66c:	00f53823          	sd	a5,16(a0)
    8000d670:	00813483          	ld	s1,8(sp)
    8000d674:	02010113          	add	sp,sp,32
    8000d678:	00008067          	ret
    8000d67c:	04100613          	li	a2,65
    8000d680:	00800593          	li	a1,8
    8000d684:	580010ef          	jal	8000ec04 <_calloc_r>
    8000d688:	06a43423          	sd	a0,104(s0)
    8000d68c:	00050793          	mv	a5,a0
    8000d690:	fa051ce3          	bnez	a0,8000d648 <__i2b+0x20>
    8000d694:	00010697          	auipc	a3,0x10
    8000d698:	ec468693          	add	a3,a3,-316 # 8001d558 <s_box+0x310>
    8000d69c:	00000613          	li	a2,0
    8000d6a0:	14500593          	li	a1,325
    8000d6a4:	00010517          	auipc	a0,0x10
    8000d6a8:	f2c50513          	add	a0,a0,-212 # 8001d5d0 <s_box+0x388>
    8000d6ac:	4f0010ef          	jal	8000eb9c <__assert_func>
    8000d6b0:	02400613          	li	a2,36
    8000d6b4:	00100593          	li	a1,1
    8000d6b8:	00040513          	mv	a0,s0
    8000d6bc:	548010ef          	jal	8000ec04 <_calloc_r>
    8000d6c0:	fc050ae3          	beqz	a0,8000d694 <__i2b+0x6c>
    8000d6c4:	00100793          	li	a5,1
    8000d6c8:	02179793          	sll	a5,a5,0x21
    8000d6cc:	00178793          	add	a5,a5,1
    8000d6d0:	00f53423          	sd	a5,8(a0)
    8000d6d4:	f85ff06f          	j	8000d658 <__i2b+0x30>

000000008000d6d8 <__multiply>:
    8000d6d8:	fd010113          	add	sp,sp,-48
    8000d6dc:	01213823          	sd	s2,16(sp)
    8000d6e0:	01313423          	sd	s3,8(sp)
    8000d6e4:	01462903          	lw	s2,20(a2)
    8000d6e8:	0145a983          	lw	s3,20(a1)
    8000d6ec:	00913c23          	sd	s1,24(sp)
    8000d6f0:	01413023          	sd	s4,0(sp)
    8000d6f4:	02113423          	sd	ra,40(sp)
    8000d6f8:	02813023          	sd	s0,32(sp)
    8000d6fc:	00058a13          	mv	s4,a1
    8000d700:	00060493          	mv	s1,a2
    8000d704:	0129cc63          	blt	s3,s2,8000d71c <__multiply+0x44>
    8000d708:	00090793          	mv	a5,s2
    8000d70c:	00058493          	mv	s1,a1
    8000d710:	00098913          	mv	s2,s3
    8000d714:	00060a13          	mv	s4,a2
    8000d718:	00078993          	mv	s3,a5
    8000d71c:	00c4a783          	lw	a5,12(s1)
    8000d720:	0139043b          	addw	s0,s2,s3
    8000d724:	0084a583          	lw	a1,8(s1)
    8000d728:	0087d463          	bge	a5,s0,8000d730 <__multiply+0x58>
    8000d72c:	0015859b          	addw	a1,a1,1
    8000d730:	a1dff0ef          	jal	8000d14c <_Balloc>
    8000d734:	1c050263          	beqz	a0,8000d8f8 <__multiply+0x220>
    8000d738:	01850313          	add	t1,a0,24
    8000d73c:	00241893          	sll	a7,s0,0x2
    8000d740:	011308b3          	add	a7,t1,a7
    8000d744:	00030793          	mv	a5,t1
    8000d748:	01137863          	bgeu	t1,a7,8000d758 <__multiply+0x80>
    8000d74c:	0007a023          	sw	zero,0(a5)
    8000d750:	00478793          	add	a5,a5,4
    8000d754:	ff17ece3          	bltu	a5,a7,8000d74c <__multiply+0x74>
    8000d758:	018a0813          	add	a6,s4,24
    8000d75c:	00299e13          	sll	t3,s3,0x2
    8000d760:	01848e93          	add	t4,s1,24
    8000d764:	00291593          	sll	a1,s2,0x2
    8000d768:	01c80e33          	add	t3,a6,t3
    8000d76c:	00be85b3          	add	a1,t4,a1
    8000d770:	13c87a63          	bgeu	a6,t3,8000d8a4 <__multiply+0x1cc>
    8000d774:	01948793          	add	a5,s1,25
    8000d778:	00400f13          	li	t5,4
    8000d77c:	16f5f463          	bgeu	a1,a5,8000d8e4 <__multiply+0x20c>
    8000d780:	000106b7          	lui	a3,0x10
    8000d784:	fff68693          	add	a3,a3,-1 # ffff <__stack_shift+0xffe8>
    8000d788:	0180006f          	j	8000d7a0 <__multiply+0xc8>
    8000d78c:	010fdf9b          	srlw	t6,t6,0x10
    8000d790:	080f9a63          	bnez	t6,8000d824 <__multiply+0x14c>
    8000d794:	00480813          	add	a6,a6,4
    8000d798:	00430313          	add	t1,t1,4
    8000d79c:	11c87463          	bgeu	a6,t3,8000d8a4 <__multiply+0x1cc>
    8000d7a0:	00082f83          	lw	t6,0(a6)
    8000d7a4:	00dff3b3          	and	t2,t6,a3
    8000d7a8:	fe0382e3          	beqz	t2,8000d78c <__multiply+0xb4>
    8000d7ac:	00030293          	mv	t0,t1
    8000d7b0:	000e8f93          	mv	t6,t4
    8000d7b4:	00000493          	li	s1,0
    8000d7b8:	000fa783          	lw	a5,0(t6)
    8000d7bc:	0002a603          	lw	a2,0(t0) # 800069fc <memset+0xb4>
    8000d7c0:	00428293          	add	t0,t0,4
    8000d7c4:	00d7f733          	and	a4,a5,a3
    8000d7c8:	0277073b          	mulw	a4,a4,t2
    8000d7cc:	0107d79b          	srlw	a5,a5,0x10
    8000d7d0:	00d67933          	and	s2,a2,a3
    8000d7d4:	0106561b          	srlw	a2,a2,0x10
    8000d7d8:	004f8f93          	add	t6,t6,4
    8000d7dc:	027787bb          	mulw	a5,a5,t2
    8000d7e0:	0127073b          	addw	a4,a4,s2
    8000d7e4:	0097073b          	addw	a4,a4,s1
    8000d7e8:	0107549b          	srlw	s1,a4,0x10
    8000d7ec:	00e6f733          	and	a4,a3,a4
    8000d7f0:	00c787bb          	addw	a5,a5,a2
    8000d7f4:	009787bb          	addw	a5,a5,s1
    8000d7f8:	0107961b          	sllw	a2,a5,0x10
    8000d7fc:	00c76733          	or	a4,a4,a2
    8000d800:	fee2ae23          	sw	a4,-4(t0)
    8000d804:	0107d49b          	srlw	s1,a5,0x10
    8000d808:	0107d71b          	srlw	a4,a5,0x10
    8000d80c:	fabfe6e3          	bltu	t6,a1,8000d7b8 <__multiply+0xe0>
    8000d810:	01e307b3          	add	a5,t1,t5
    8000d814:	00e7a023          	sw	a4,0(a5)
    8000d818:	00082f83          	lw	t6,0(a6)
    8000d81c:	010fdf9b          	srlw	t6,t6,0x10
    8000d820:	f60f8ae3          	beqz	t6,8000d794 <__multiply+0xbc>
    8000d824:	00032703          	lw	a4,0(t1)
    8000d828:	00030293          	mv	t0,t1
    8000d82c:	000e8613          	mv	a2,t4
    8000d830:	00070393          	mv	t2,a4
    8000d834:	00000493          	li	s1,0
    8000d838:	00062783          	lw	a5,0(a2)
    8000d83c:	0103d99b          	srlw	s3,t2,0x10
    8000d840:	00d77733          	and	a4,a4,a3
    8000d844:	00d7f7b3          	and	a5,a5,a3
    8000d848:	03f787bb          	mulw	a5,a5,t6
    8000d84c:	0042a383          	lw	t2,4(t0)
    8000d850:	00428293          	add	t0,t0,4
    8000d854:	00460613          	add	a2,a2,4
    8000d858:	00d3f933          	and	s2,t2,a3
    8000d85c:	009787bb          	addw	a5,a5,s1
    8000d860:	013787bb          	addw	a5,a5,s3
    8000d864:	0107949b          	sllw	s1,a5,0x10
    8000d868:	00976733          	or	a4,a4,s1
    8000d86c:	fee2ae23          	sw	a4,-4(t0)
    8000d870:	ffe65703          	lhu	a4,-2(a2)
    8000d874:	0107d79b          	srlw	a5,a5,0x10
    8000d878:	03f7073b          	mulw	a4,a4,t6
    8000d87c:	0127073b          	addw	a4,a4,s2
    8000d880:	00f707bb          	addw	a5,a4,a5
    8000d884:	0007871b          	sext.w	a4,a5
    8000d888:	0107d49b          	srlw	s1,a5,0x10
    8000d88c:	fab666e3          	bltu	a2,a1,8000d838 <__multiply+0x160>
    8000d890:	01e30733          	add	a4,t1,t5
    8000d894:	00f72023          	sw	a5,0(a4)
    8000d898:	00480813          	add	a6,a6,4
    8000d89c:	00430313          	add	t1,t1,4
    8000d8a0:	f1c860e3          	bltu	a6,t3,8000d7a0 <__multiply+0xc8>
    8000d8a4:	00804863          	bgtz	s0,8000d8b4 <__multiply+0x1dc>
    8000d8a8:	0180006f          	j	8000d8c0 <__multiply+0x1e8>
    8000d8ac:	fff4041b          	addw	s0,s0,-1
    8000d8b0:	00040863          	beqz	s0,8000d8c0 <__multiply+0x1e8>
    8000d8b4:	ffc8a783          	lw	a5,-4(a7)
    8000d8b8:	ffc88893          	add	a7,a7,-4
    8000d8bc:	fe0788e3          	beqz	a5,8000d8ac <__multiply+0x1d4>
    8000d8c0:	02813083          	ld	ra,40(sp)
    8000d8c4:	00852a23          	sw	s0,20(a0)
    8000d8c8:	02013403          	ld	s0,32(sp)
    8000d8cc:	01813483          	ld	s1,24(sp)
    8000d8d0:	01013903          	ld	s2,16(sp)
    8000d8d4:	00813983          	ld	s3,8(sp)
    8000d8d8:	00013a03          	ld	s4,0(sp)
    8000d8dc:	03010113          	add	sp,sp,48
    8000d8e0:	00008067          	ret
    8000d8e4:	409587b3          	sub	a5,a1,s1
    8000d8e8:	fe778793          	add	a5,a5,-25
    8000d8ec:	ffc7f793          	and	a5,a5,-4
    8000d8f0:	00478f13          	add	t5,a5,4
    8000d8f4:	e8dff06f          	j	8000d780 <__multiply+0xa8>
    8000d8f8:	00010697          	auipc	a3,0x10
    8000d8fc:	c6068693          	add	a3,a3,-928 # 8001d558 <s_box+0x310>
    8000d900:	00000613          	li	a2,0
    8000d904:	16200593          	li	a1,354
    8000d908:	00010517          	auipc	a0,0x10
    8000d90c:	cc850513          	add	a0,a0,-824 # 8001d5d0 <s_box+0x388>
    8000d910:	28c010ef          	jal	8000eb9c <__assert_func>

000000008000d914 <__pow5mult>:
    8000d914:	fd010113          	add	sp,sp,-48
    8000d918:	02813023          	sd	s0,32(sp)
    8000d91c:	01213823          	sd	s2,16(sp)
    8000d920:	01313423          	sd	s3,8(sp)
    8000d924:	02113423          	sd	ra,40(sp)
    8000d928:	00367793          	and	a5,a2,3
    8000d92c:	00060413          	mv	s0,a2
    8000d930:	00050993          	mv	s3,a0
    8000d934:	00058913          	mv	s2,a1
    8000d938:	0a079c63          	bnez	a5,8000d9f0 <__pow5mult+0xdc>
    8000d93c:	40245413          	sra	s0,s0,0x2
    8000d940:	06040a63          	beqz	s0,8000d9b4 <__pow5mult+0xa0>
    8000d944:	00913c23          	sd	s1,24(sp)
    8000d948:	0609b483          	ld	s1,96(s3)
    8000d94c:	0c048663          	beqz	s1,8000da18 <__pow5mult+0x104>
    8000d950:	00147793          	and	a5,s0,1
    8000d954:	02079063          	bnez	a5,8000d974 <__pow5mult+0x60>
    8000d958:	40145413          	sra	s0,s0,0x1
    8000d95c:	04040a63          	beqz	s0,8000d9b0 <__pow5mult+0x9c>
    8000d960:	0004b503          	ld	a0,0(s1)
    8000d964:	06050663          	beqz	a0,8000d9d0 <__pow5mult+0xbc>
    8000d968:	00050493          	mv	s1,a0
    8000d96c:	00147793          	and	a5,s0,1
    8000d970:	fe0784e3          	beqz	a5,8000d958 <__pow5mult+0x44>
    8000d974:	00048613          	mv	a2,s1
    8000d978:	00090593          	mv	a1,s2
    8000d97c:	00098513          	mv	a0,s3
    8000d980:	d59ff0ef          	jal	8000d6d8 <__multiply>
    8000d984:	02090063          	beqz	s2,8000d9a4 <__pow5mult+0x90>
    8000d988:	00892703          	lw	a4,8(s2)
    8000d98c:	0689b783          	ld	a5,104(s3)
    8000d990:	00371713          	sll	a4,a4,0x3
    8000d994:	00e787b3          	add	a5,a5,a4
    8000d998:	0007b703          	ld	a4,0(a5)
    8000d99c:	00e93023          	sd	a4,0(s2)
    8000d9a0:	0127b023          	sd	s2,0(a5)
    8000d9a4:	40145413          	sra	s0,s0,0x1
    8000d9a8:	00050913          	mv	s2,a0
    8000d9ac:	fa041ae3          	bnez	s0,8000d960 <__pow5mult+0x4c>
    8000d9b0:	01813483          	ld	s1,24(sp)
    8000d9b4:	02813083          	ld	ra,40(sp)
    8000d9b8:	02013403          	ld	s0,32(sp)
    8000d9bc:	00813983          	ld	s3,8(sp)
    8000d9c0:	00090513          	mv	a0,s2
    8000d9c4:	01013903          	ld	s2,16(sp)
    8000d9c8:	03010113          	add	sp,sp,48
    8000d9cc:	00008067          	ret
    8000d9d0:	00048613          	mv	a2,s1
    8000d9d4:	00048593          	mv	a1,s1
    8000d9d8:	00098513          	mv	a0,s3
    8000d9dc:	cfdff0ef          	jal	8000d6d8 <__multiply>
    8000d9e0:	00a4b023          	sd	a0,0(s1)
    8000d9e4:	00053023          	sd	zero,0(a0)
    8000d9e8:	00050493          	mv	s1,a0
    8000d9ec:	f81ff06f          	j	8000d96c <__pow5mult+0x58>
    8000d9f0:	fff7879b          	addw	a5,a5,-1
    8000d9f4:	00010717          	auipc	a4,0x10
    8000d9f8:	f9470713          	add	a4,a4,-108 # 8001d988 <p05.0>
    8000d9fc:	00279793          	sll	a5,a5,0x2
    8000da00:	00f707b3          	add	a5,a4,a5
    8000da04:	0007a603          	lw	a2,0(a5)
    8000da08:	00000693          	li	a3,0
    8000da0c:	811ff0ef          	jal	8000d21c <__multadd>
    8000da10:	00050913          	mv	s2,a0
    8000da14:	f29ff06f          	j	8000d93c <__pow5mult+0x28>
    8000da18:	00100593          	li	a1,1
    8000da1c:	00098513          	mv	a0,s3
    8000da20:	f2cff0ef          	jal	8000d14c <_Balloc>
    8000da24:	00050493          	mv	s1,a0
    8000da28:	02050063          	beqz	a0,8000da48 <__pow5mult+0x134>
    8000da2c:	27100793          	li	a5,625
    8000da30:	00f52c23          	sw	a5,24(a0)
    8000da34:	00100793          	li	a5,1
    8000da38:	00f52a23          	sw	a5,20(a0)
    8000da3c:	06a9b023          	sd	a0,96(s3)
    8000da40:	00053023          	sd	zero,0(a0)
    8000da44:	f0dff06f          	j	8000d950 <__pow5mult+0x3c>
    8000da48:	00010697          	auipc	a3,0x10
    8000da4c:	b1068693          	add	a3,a3,-1264 # 8001d558 <s_box+0x310>
    8000da50:	00000613          	li	a2,0
    8000da54:	14500593          	li	a1,325
    8000da58:	00010517          	auipc	a0,0x10
    8000da5c:	b7850513          	add	a0,a0,-1160 # 8001d5d0 <s_box+0x388>
    8000da60:	13c010ef          	jal	8000eb9c <__assert_func>

000000008000da64 <__lshift>:
    8000da64:	fc010113          	add	sp,sp,-64
    8000da68:	02813823          	sd	s0,48(sp)
    8000da6c:	0145a403          	lw	s0,20(a1)
    8000da70:	00c5a783          	lw	a5,12(a1)
    8000da74:	01513423          	sd	s5,8(sp)
    8000da78:	40565a9b          	sraw	s5,a2,0x5
    8000da7c:	008a843b          	addw	s0,s5,s0
    8000da80:	02913423          	sd	s1,40(sp)
    8000da84:	03213023          	sd	s2,32(sp)
    8000da88:	01313c23          	sd	s3,24(sp)
    8000da8c:	01413823          	sd	s4,16(sp)
    8000da90:	01613023          	sd	s6,0(sp)
    8000da94:	02113c23          	sd	ra,56(sp)
    8000da98:	0014091b          	addw	s2,s0,1
    8000da9c:	00058493          	mv	s1,a1
    8000daa0:	00060a13          	mv	s4,a2
    8000daa4:	0085a583          	lw	a1,8(a1)
    8000daa8:	00050993          	mv	s3,a0
    8000daac:	40565b13          	sra	s6,a2,0x5
    8000dab0:	0127d863          	bge	a5,s2,8000dac0 <__lshift+0x5c>
    8000dab4:	0017979b          	sllw	a5,a5,0x1
    8000dab8:	0015859b          	addw	a1,a1,1
    8000dabc:	ff27cce3          	blt	a5,s2,8000dab4 <__lshift+0x50>
    8000dac0:	00098513          	mv	a0,s3
    8000dac4:	e88ff0ef          	jal	8000d14c <_Balloc>
    8000dac8:	12050263          	beqz	a0,8000dbec <__lshift+0x188>
    8000dacc:	01850713          	add	a4,a0,24
    8000dad0:	03605663          	blez	s6,8000dafc <__lshift+0x98>
    8000dad4:	006a869b          	addw	a3,s5,6
    8000dad8:	00269693          	sll	a3,a3,0x2
    8000dadc:	00d506b3          	add	a3,a0,a3
    8000dae0:	00070793          	mv	a5,a4
    8000dae4:	00478793          	add	a5,a5,4
    8000dae8:	fe07ae23          	sw	zero,-4(a5)
    8000daec:	fed79ce3          	bne	a5,a3,8000dae4 <__lshift+0x80>
    8000daf0:	020a9793          	sll	a5,s5,0x20
    8000daf4:	01e7da93          	srl	s5,a5,0x1e
    8000daf8:	01570733          	add	a4,a4,s5
    8000dafc:	0144a883          	lw	a7,20(s1)
    8000db00:	01848793          	add	a5,s1,24
    8000db04:	01fa7613          	and	a2,s4,31
    8000db08:	00289893          	sll	a7,a7,0x2
    8000db0c:	011788b3          	add	a7,a5,a7
    8000db10:	0a060863          	beqz	a2,8000dbc0 <__lshift+0x15c>
    8000db14:	02000593          	li	a1,32
    8000db18:	40c585bb          	subw	a1,a1,a2
    8000db1c:	00070313          	mv	t1,a4
    8000db20:	00000693          	li	a3,0
    8000db24:	0007a803          	lw	a6,0(a5)
    8000db28:	00430313          	add	t1,t1,4
    8000db2c:	00478793          	add	a5,a5,4
    8000db30:	00c8183b          	sllw	a6,a6,a2
    8000db34:	0106e6b3          	or	a3,a3,a6
    8000db38:	fed32e23          	sw	a3,-4(t1)
    8000db3c:	ffc7a803          	lw	a6,-4(a5)
    8000db40:	00b856bb          	srlw	a3,a6,a1
    8000db44:	00068813          	mv	a6,a3
    8000db48:	fd17eee3          	bltu	a5,a7,8000db24 <__lshift+0xc0>
    8000db4c:	01948793          	add	a5,s1,25
    8000db50:	00400613          	li	a2,4
    8000db54:	00f8ea63          	bltu	a7,a5,8000db68 <__lshift+0x104>
    8000db58:	409887b3          	sub	a5,a7,s1
    8000db5c:	fe778793          	add	a5,a5,-25
    8000db60:	ffc7f793          	and	a5,a5,-4
    8000db64:	00478613          	add	a2,a5,4
    8000db68:	00c70733          	add	a4,a4,a2
    8000db6c:	01072023          	sw	a6,0(a4)
    8000db70:	00069463          	bnez	a3,8000db78 <__lshift+0x114>
    8000db74:	00040913          	mv	s2,s0
    8000db78:	0084a703          	lw	a4,8(s1)
    8000db7c:	0689b783          	ld	a5,104(s3)
    8000db80:	03813083          	ld	ra,56(sp)
    8000db84:	00371713          	sll	a4,a4,0x3
    8000db88:	00e787b3          	add	a5,a5,a4
    8000db8c:	0007b703          	ld	a4,0(a5)
    8000db90:	01252a23          	sw	s2,20(a0)
    8000db94:	03013403          	ld	s0,48(sp)
    8000db98:	00e4b023          	sd	a4,0(s1)
    8000db9c:	0097b023          	sd	s1,0(a5)
    8000dba0:	02013903          	ld	s2,32(sp)
    8000dba4:	02813483          	ld	s1,40(sp)
    8000dba8:	01813983          	ld	s3,24(sp)
    8000dbac:	01013a03          	ld	s4,16(sp)
    8000dbb0:	00813a83          	ld	s5,8(sp)
    8000dbb4:	00013b03          	ld	s6,0(sp)
    8000dbb8:	04010113          	add	sp,sp,64
    8000dbbc:	00008067          	ret
    8000dbc0:	0007a683          	lw	a3,0(a5)
    8000dbc4:	00478793          	add	a5,a5,4
    8000dbc8:	00470713          	add	a4,a4,4
    8000dbcc:	fed72e23          	sw	a3,-4(a4)
    8000dbd0:	fb17f2e3          	bgeu	a5,a7,8000db74 <__lshift+0x110>
    8000dbd4:	0007a683          	lw	a3,0(a5)
    8000dbd8:	00478793          	add	a5,a5,4
    8000dbdc:	00470713          	add	a4,a4,4
    8000dbe0:	fed72e23          	sw	a3,-4(a4)
    8000dbe4:	fd17eee3          	bltu	a5,a7,8000dbc0 <__lshift+0x15c>
    8000dbe8:	f8dff06f          	j	8000db74 <__lshift+0x110>
    8000dbec:	00010697          	auipc	a3,0x10
    8000dbf0:	96c68693          	add	a3,a3,-1684 # 8001d558 <s_box+0x310>
    8000dbf4:	00000613          	li	a2,0
    8000dbf8:	1de00593          	li	a1,478
    8000dbfc:	00010517          	auipc	a0,0x10
    8000dc00:	9d450513          	add	a0,a0,-1580 # 8001d5d0 <s_box+0x388>
    8000dc04:	799000ef          	jal	8000eb9c <__assert_func>

000000008000dc08 <__mcmp>:
    8000dc08:	0145a783          	lw	a5,20(a1)
    8000dc0c:	00050813          	mv	a6,a0
    8000dc10:	01452503          	lw	a0,20(a0)
    8000dc14:	40f5053b          	subw	a0,a0,a5
    8000dc18:	04051263          	bnez	a0,8000dc5c <__mcmp+0x54>
    8000dc1c:	00279793          	sll	a5,a5,0x2
    8000dc20:	01880813          	add	a6,a6,24
    8000dc24:	01858593          	add	a1,a1,24
    8000dc28:	00f80733          	add	a4,a6,a5
    8000dc2c:	00f587b3          	add	a5,a1,a5
    8000dc30:	0080006f          	j	8000dc38 <__mcmp+0x30>
    8000dc34:	02e87463          	bgeu	a6,a4,8000dc5c <__mcmp+0x54>
    8000dc38:	ffc72603          	lw	a2,-4(a4)
    8000dc3c:	ffc7a683          	lw	a3,-4(a5)
    8000dc40:	ffc70713          	add	a4,a4,-4
    8000dc44:	ffc78793          	add	a5,a5,-4
    8000dc48:	fed606e3          	beq	a2,a3,8000dc34 <__mcmp+0x2c>
    8000dc4c:	00100513          	li	a0,1
    8000dc50:	00d67663          	bgeu	a2,a3,8000dc5c <__mcmp+0x54>
    8000dc54:	fff00513          	li	a0,-1
    8000dc58:	00008067          	ret
    8000dc5c:	00008067          	ret

000000008000dc60 <__mdiff>:
    8000dc60:	0145a703          	lw	a4,20(a1)
    8000dc64:	01462783          	lw	a5,20(a2)
    8000dc68:	fe010113          	add	sp,sp,-32
    8000dc6c:	00813823          	sd	s0,16(sp)
    8000dc70:	00913423          	sd	s1,8(sp)
    8000dc74:	00113c23          	sd	ra,24(sp)
    8000dc78:	01213023          	sd	s2,0(sp)
    8000dc7c:	40f7073b          	subw	a4,a4,a5
    8000dc80:	00058413          	mv	s0,a1
    8000dc84:	00060493          	mv	s1,a2
    8000dc88:	1a071463          	bnez	a4,8000de30 <__mdiff+0x1d0>
    8000dc8c:	00279693          	sll	a3,a5,0x2
    8000dc90:	01858613          	add	a2,a1,24
    8000dc94:	01848713          	add	a4,s1,24
    8000dc98:	00d607b3          	add	a5,a2,a3
    8000dc9c:	00d70733          	add	a4,a4,a3
    8000dca0:	0080006f          	j	8000dca8 <__mdiff+0x48>
    8000dca4:	1af67263          	bgeu	a2,a5,8000de48 <__mdiff+0x1e8>
    8000dca8:	ffc7a583          	lw	a1,-4(a5)
    8000dcac:	ffc72683          	lw	a3,-4(a4)
    8000dcb0:	ffc78793          	add	a5,a5,-4
    8000dcb4:	ffc70713          	add	a4,a4,-4
    8000dcb8:	fed586e3          	beq	a1,a3,8000dca4 <__mdiff+0x44>
    8000dcbc:	00100913          	li	s2,1
    8000dcc0:	00d5ea63          	bltu	a1,a3,8000dcd4 <__mdiff+0x74>
    8000dcc4:	00048793          	mv	a5,s1
    8000dcc8:	00000913          	li	s2,0
    8000dccc:	00040493          	mv	s1,s0
    8000dcd0:	00078413          	mv	s0,a5
    8000dcd4:	0084a583          	lw	a1,8(s1)
    8000dcd8:	c74ff0ef          	jal	8000d14c <_Balloc>
    8000dcdc:	1a050c63          	beqz	a0,8000de94 <__mdiff+0x234>
    8000dce0:	0144a303          	lw	t1,20(s1)
    8000dce4:	01442283          	lw	t0,20(s0)
    8000dce8:	01848f13          	add	t5,s1,24
    8000dcec:	00231e13          	sll	t3,t1,0x2
    8000dcf0:	01840813          	add	a6,s0,24
    8000dcf4:	00229293          	sll	t0,t0,0x2
    8000dcf8:	01850f93          	add	t6,a0,24
    8000dcfc:	000108b7          	lui	a7,0x10
    8000dd00:	01252823          	sw	s2,16(a0)
    8000dd04:	01cf0e33          	add	t3,t5,t3
    8000dd08:	005802b3          	add	t0,a6,t0
    8000dd0c:	000f8593          	mv	a1,t6
    8000dd10:	000f0e93          	mv	t4,t5
    8000dd14:	00000613          	li	a2,0
    8000dd18:	fff88893          	add	a7,a7,-1 # ffff <__stack_shift+0xffe8>
    8000dd1c:	000ea703          	lw	a4,0(t4)
    8000dd20:	00082683          	lw	a3,0(a6)
    8000dd24:	00458593          	add	a1,a1,4
    8000dd28:	011777b3          	and	a5,a4,a7
    8000dd2c:	0116f3b3          	and	t2,a3,a7
    8000dd30:	407787bb          	subw	a5,a5,t2
    8000dd34:	00c787bb          	addw	a5,a5,a2
    8000dd38:	0106d69b          	srlw	a3,a3,0x10
    8000dd3c:	0107571b          	srlw	a4,a4,0x10
    8000dd40:	40d7073b          	subw	a4,a4,a3
    8000dd44:	4107d69b          	sraw	a3,a5,0x10
    8000dd48:	00d7073b          	addw	a4,a4,a3
    8000dd4c:	00f8f7b3          	and	a5,a7,a5
    8000dd50:	0107169b          	sllw	a3,a4,0x10
    8000dd54:	00d7e7b3          	or	a5,a5,a3
    8000dd58:	0007879b          	sext.w	a5,a5
    8000dd5c:	00480813          	add	a6,a6,4
    8000dd60:	fef5ae23          	sw	a5,-4(a1)
    8000dd64:	004e8e93          	add	t4,t4,4
    8000dd68:	4107561b          	sraw	a2,a4,0x10
    8000dd6c:	fa5868e3          	bltu	a6,t0,8000dd1c <__mdiff+0xbc>
    8000dd70:	01940713          	add	a4,s0,25
    8000dd74:	40828433          	sub	s0,t0,s0
    8000dd78:	fe740413          	add	s0,s0,-25
    8000dd7c:	00e2b2b3          	sltu	t0,t0,a4
    8000dd80:	0012c893          	xor	a7,t0,1
    8000dd84:	00245413          	srl	s0,s0,0x2
    8000dd88:	00400713          	li	a4,4
    8000dd8c:	0a028863          	beqz	t0,8000de3c <__mdiff+0x1dc>
    8000dd90:	00ef0f33          	add	t5,t5,a4
    8000dd94:	00ef8eb3          	add	t4,t6,a4
    8000dd98:	00010837          	lui	a6,0x10
    8000dd9c:	000e8593          	mv	a1,t4
    8000dda0:	000f0693          	mv	a3,t5
    8000dda4:	fff80813          	add	a6,a6,-1 # ffff <__stack_shift+0xffe8>
    8000dda8:	0dcf7863          	bgeu	t5,t3,8000de78 <__mdiff+0x218>
    8000ddac:	0006a783          	lw	a5,0(a3)
    8000ddb0:	0006089b          	sext.w	a7,a2
    8000ddb4:	00458593          	add	a1,a1,4
    8000ddb8:	0107f733          	and	a4,a5,a6
    8000ddbc:	00c7073b          	addw	a4,a4,a2
    8000ddc0:	4107571b          	sraw	a4,a4,0x10
    8000ddc4:	0107d61b          	srlw	a2,a5,0x10
    8000ddc8:	00c7073b          	addw	a4,a4,a2
    8000ddcc:	011787bb          	addw	a5,a5,a7
    8000ddd0:	0107161b          	sllw	a2,a4,0x10
    8000ddd4:	0107f7b3          	and	a5,a5,a6
    8000ddd8:	00c7e7b3          	or	a5,a5,a2
    8000dddc:	0007879b          	sext.w	a5,a5
    8000dde0:	00468693          	add	a3,a3,4
    8000dde4:	fef5ae23          	sw	a5,-4(a1)
    8000dde8:	4107561b          	sraw	a2,a4,0x10
    8000ddec:	fdc6e0e3          	bltu	a3,t3,8000ddac <__mdiff+0x14c>
    8000ddf0:	fffe0e13          	add	t3,t3,-1
    8000ddf4:	41ee0e33          	sub	t3,t3,t5
    8000ddf8:	ffce7e13          	and	t3,t3,-4
    8000ddfc:	01ce8733          	add	a4,t4,t3
    8000de00:	00079a63          	bnez	a5,8000de14 <__mdiff+0x1b4>
    8000de04:	ffc72783          	lw	a5,-4(a4)
    8000de08:	fff3031b          	addw	t1,t1,-1
    8000de0c:	ffc70713          	add	a4,a4,-4
    8000de10:	fe078ae3          	beqz	a5,8000de04 <__mdiff+0x1a4>
    8000de14:	01813083          	ld	ra,24(sp)
    8000de18:	01013403          	ld	s0,16(sp)
    8000de1c:	00652a23          	sw	t1,20(a0)
    8000de20:	00813483          	ld	s1,8(sp)
    8000de24:	00013903          	ld	s2,0(sp)
    8000de28:	02010113          	add	sp,sp,32
    8000de2c:	00008067          	ret
    8000de30:	00100913          	li	s2,1
    8000de34:	e80758e3          	bgez	a4,8000dcc4 <__mdiff+0x64>
    8000de38:	e9dff06f          	j	8000dcd4 <__mdiff+0x74>
    8000de3c:	00140713          	add	a4,s0,1
    8000de40:	00271713          	sll	a4,a4,0x2
    8000de44:	f4dff06f          	j	8000dd90 <__mdiff+0x130>
    8000de48:	00000593          	li	a1,0
    8000de4c:	b00ff0ef          	jal	8000d14c <_Balloc>
    8000de50:	06050063          	beqz	a0,8000deb0 <__mdiff+0x250>
    8000de54:	01813083          	ld	ra,24(sp)
    8000de58:	01013403          	ld	s0,16(sp)
    8000de5c:	00100793          	li	a5,1
    8000de60:	00f52a23          	sw	a5,20(a0)
    8000de64:	00052c23          	sw	zero,24(a0)
    8000de68:	00813483          	ld	s1,8(sp)
    8000de6c:	00013903          	ld	s2,0(sp)
    8000de70:	02010113          	add	sp,sp,32
    8000de74:	00008067          	ret
    8000de78:	00000713          	li	a4,0
    8000de7c:	00089663          	bnez	a7,8000de88 <__mdiff+0x228>
    8000de80:	00ef8733          	add	a4,t6,a4
    8000de84:	f7dff06f          	j	8000de00 <__mdiff+0x1a0>
    8000de88:	00241713          	sll	a4,s0,0x2
    8000de8c:	00ef8733          	add	a4,t6,a4
    8000de90:	f71ff06f          	j	8000de00 <__mdiff+0x1a0>
    8000de94:	0000f697          	auipc	a3,0xf
    8000de98:	6c468693          	add	a3,a3,1732 # 8001d558 <s_box+0x310>
    8000de9c:	00000613          	li	a2,0
    8000dea0:	24500593          	li	a1,581
    8000dea4:	0000f517          	auipc	a0,0xf
    8000dea8:	72c50513          	add	a0,a0,1836 # 8001d5d0 <s_box+0x388>
    8000deac:	4f1000ef          	jal	8000eb9c <__assert_func>
    8000deb0:	0000f697          	auipc	a3,0xf
    8000deb4:	6a868693          	add	a3,a3,1704 # 8001d558 <s_box+0x310>
    8000deb8:	00000613          	li	a2,0
    8000debc:	23700593          	li	a1,567
    8000dec0:	0000f517          	auipc	a0,0xf
    8000dec4:	71050513          	add	a0,a0,1808 # 8001d5d0 <s_box+0x388>
    8000dec8:	4d5000ef          	jal	8000eb9c <__assert_func>

000000008000decc <__ulp>:
    8000decc:	7ff007b7          	lui	a5,0x7ff00
    8000ded0:	02055513          	srl	a0,a0,0x20
    8000ded4:	00f57533          	and	a0,a0,a5
    8000ded8:	fcc007b7          	lui	a5,0xfcc00
    8000dedc:	00a7873b          	addw	a4,a5,a0
    8000dee0:	00000513          	li	a0,0
    8000dee4:	00e05c63          	blez	a4,8000defc <__ulp+0x30>
    8000dee8:	02051513          	sll	a0,a0,0x20
    8000deec:	02071713          	sll	a4,a4,0x20
    8000def0:	02055513          	srl	a0,a0,0x20
    8000def4:	00e56533          	or	a0,a0,a4
    8000def8:	00008067          	ret
    8000defc:	40e007bb          	negw	a5,a4
    8000df00:	4147d69b          	sraw	a3,a5,0x14
    8000df04:	01300713          	li	a4,19
    8000df08:	02d74263          	blt	a4,a3,8000df2c <__ulp+0x60>
    8000df0c:	00080737          	lui	a4,0x80
    8000df10:	00000513          	li	a0,0
    8000df14:	40d7573b          	sraw	a4,a4,a3
    8000df18:	02051513          	sll	a0,a0,0x20
    8000df1c:	02071713          	sll	a4,a4,0x20
    8000df20:	02055513          	srl	a0,a0,0x20
    8000df24:	00e56533          	or	a0,a0,a4
    8000df28:	00008067          	ret
    8000df2c:	fec6879b          	addw	a5,a3,-20
    8000df30:	01e00713          	li	a4,30
    8000df34:	00100513          	li	a0,1
    8000df38:	00f74663          	blt	a4,a5,8000df44 <__ulp+0x78>
    8000df3c:	80000537          	lui	a0,0x80000
    8000df40:	00f5553b          	srlw	a0,a0,a5
    8000df44:	00000713          	li	a4,0
    8000df48:	02051513          	sll	a0,a0,0x20
    8000df4c:	02071713          	sll	a4,a4,0x20
    8000df50:	02055513          	srl	a0,a0,0x20
    8000df54:	00e56533          	or	a0,a0,a4
    8000df58:	00008067          	ret

000000008000df5c <__b2d>:
    8000df5c:	fd010113          	add	sp,sp,-48
    8000df60:	00913c23          	sd	s1,24(sp)
    8000df64:	01452483          	lw	s1,20(a0) # ffffffff80000014 <__heap_end+0xfffffffeff7e1014>
    8000df68:	02813023          	sd	s0,32(sp)
    8000df6c:	01850413          	add	s0,a0,24
    8000df70:	00249493          	sll	s1,s1,0x2
    8000df74:	009404b3          	add	s1,s0,s1
    8000df78:	01213823          	sd	s2,16(sp)
    8000df7c:	ffc4a903          	lw	s2,-4(s1)
    8000df80:	01313423          	sd	s3,8(sp)
    8000df84:	01413023          	sd	s4,0(sp)
    8000df88:	00090513          	mv	a0,s2
    8000df8c:	00058993          	mv	s3,a1
    8000df90:	02113423          	sd	ra,40(sp)
    8000df94:	d38ff0ef          	jal	8000d4cc <__hi0bits>
    8000df98:	02000693          	li	a3,32
    8000df9c:	40a687bb          	subw	a5,a3,a0
    8000dfa0:	00f9a023          	sw	a5,0(s3)
    8000dfa4:	00a00793          	li	a5,10
    8000dfa8:	ffc48a13          	add	s4,s1,-4
    8000dfac:	00050713          	mv	a4,a0
    8000dfb0:	0aa7dc63          	bge	a5,a0,8000e068 <__b2d+0x10c>
    8000dfb4:	ff55079b          	addw	a5,a0,-11
    8000dfb8:	05447663          	bgeu	s0,s4,8000e004 <__b2d+0xa8>
    8000dfbc:	ff84a703          	lw	a4,-8(s1)
    8000dfc0:	06078463          	beqz	a5,8000e028 <__b2d+0xcc>
    8000dfc4:	40f686bb          	subw	a3,a3,a5
    8000dfc8:	00d7563b          	srlw	a2,a4,a3
    8000dfcc:	00f9193b          	sllw	s2,s2,a5
    8000dfd0:	00c96933          	or	s2,s2,a2
    8000dfd4:	3ff00637          	lui	a2,0x3ff00
    8000dfd8:	00c96933          	or	s2,s2,a2
    8000dfdc:	00f7163b          	sllw	a2,a4,a5
    8000dfe0:	ff848793          	add	a5,s1,-8
    8000dfe4:	02091513          	sll	a0,s2,0x20
    8000dfe8:	0006071b          	sext.w	a4,a2
    8000dfec:	04f47463          	bgeu	s0,a5,8000e034 <__b2d+0xd8>
    8000dff0:	ff44a703          	lw	a4,-12(s1)
    8000dff4:	00d7573b          	srlw	a4,a4,a3
    8000dff8:	00c76733          	or	a4,a4,a2
    8000dffc:	0007071b          	sext.w	a4,a4
    8000e000:	0340006f          	j	8000e034 <__b2d+0xd8>
    8000e004:	00b00693          	li	a3,11
    8000e008:	00d50e63          	beq	a0,a3,8000e024 <__b2d+0xc8>
    8000e00c:	00f9153b          	sllw	a0,s2,a5
    8000e010:	3ff007b7          	lui	a5,0x3ff00
    8000e014:	00f56533          	or	a0,a0,a5
    8000e018:	02051513          	sll	a0,a0,0x20
    8000e01c:	00000713          	li	a4,0
    8000e020:	0140006f          	j	8000e034 <__b2d+0xd8>
    8000e024:	00000713          	li	a4,0
    8000e028:	3ff00537          	lui	a0,0x3ff00
    8000e02c:	00a96533          	or	a0,s2,a0
    8000e030:	02051513          	sll	a0,a0,0x20
    8000e034:	02813083          	ld	ra,40(sp)
    8000e038:	02013403          	ld	s0,32(sp)
    8000e03c:	02055513          	srl	a0,a0,0x20
    8000e040:	02071713          	sll	a4,a4,0x20
    8000e044:	02075713          	srl	a4,a4,0x20
    8000e048:	02051513          	sll	a0,a0,0x20
    8000e04c:	01813483          	ld	s1,24(sp)
    8000e050:	01013903          	ld	s2,16(sp)
    8000e054:	00813983          	ld	s3,8(sp)
    8000e058:	00013a03          	ld	s4,0(sp)
    8000e05c:	00e56533          	or	a0,a0,a4
    8000e060:	03010113          	add	sp,sp,48
    8000e064:	00008067          	ret
    8000e068:	00b00693          	li	a3,11
    8000e06c:	40a686bb          	subw	a3,a3,a0
    8000e070:	00d957bb          	srlw	a5,s2,a3
    8000e074:	3ff00637          	lui	a2,0x3ff00
    8000e078:	00c7e7b3          	or	a5,a5,a2
    8000e07c:	02079513          	sll	a0,a5,0x20
    8000e080:	00000793          	li	a5,0
    8000e084:	01447663          	bgeu	s0,s4,8000e090 <__b2d+0x134>
    8000e088:	ff84a783          	lw	a5,-8(s1)
    8000e08c:	00d7d7bb          	srlw	a5,a5,a3
    8000e090:	0157071b          	addw	a4,a4,21 # 80015 <__stack_shift+0x7fffe>
    8000e094:	00e9173b          	sllw	a4,s2,a4
    8000e098:	00e7e733          	or	a4,a5,a4
    8000e09c:	0007071b          	sext.w	a4,a4
    8000e0a0:	f95ff06f          	j	8000e034 <__b2d+0xd8>

000000008000e0a4 <__d2b>:
    8000e0a4:	fc010113          	add	sp,sp,-64
    8000e0a8:	02813823          	sd	s0,48(sp)
    8000e0ac:	00058413          	mv	s0,a1
    8000e0b0:	00100593          	li	a1,1
    8000e0b4:	03213023          	sd	s2,32(sp)
    8000e0b8:	01413823          	sd	s4,16(sp)
    8000e0bc:	02113c23          	sd	ra,56(sp)
    8000e0c0:	02913423          	sd	s1,40(sp)
    8000e0c4:	01313c23          	sd	s3,24(sp)
    8000e0c8:	00060a13          	mv	s4,a2
    8000e0cc:	00068913          	mv	s2,a3
    8000e0d0:	87cff0ef          	jal	8000d14c <_Balloc>
    8000e0d4:	10050063          	beqz	a0,8000e1d4 <__d2b+0x130>
    8000e0d8:	42045793          	sra	a5,s0,0x20
    8000e0dc:	0147d99b          	srlw	s3,a5,0x14
    8000e0e0:	7ff9f993          	and	s3,s3,2047
    8000e0e4:	02c79793          	sll	a5,a5,0x2c
    8000e0e8:	00050493          	mv	s1,a0
    8000e0ec:	02c7d793          	srl	a5,a5,0x2c
    8000e0f0:	00098663          	beqz	s3,8000e0fc <__d2b+0x58>
    8000e0f4:	00100737          	lui	a4,0x100
    8000e0f8:	00e7e7b3          	or	a5,a5,a4
    8000e0fc:	00f12623          	sw	a5,12(sp)
    8000e100:	0004041b          	sext.w	s0,s0
    8000e104:	06041063          	bnez	s0,8000e164 <__d2b+0xc0>
    8000e108:	00c10513          	add	a0,sp,12
    8000e10c:	c38ff0ef          	jal	8000d544 <__lo0bits>
    8000e110:	00c12783          	lw	a5,12(sp)
    8000e114:	00100413          	li	s0,1
    8000e118:	0084aa23          	sw	s0,20(s1)
    8000e11c:	00f4ac23          	sw	a5,24(s1)
    8000e120:	0205051b          	addw	a0,a0,32 # 3ff00020 <__heap_size+0x3f700020>
    8000e124:	08098663          	beqz	s3,8000e1b0 <__d2b+0x10c>
    8000e128:	bcd9899b          	addw	s3,s3,-1075
    8000e12c:	00a989bb          	addw	s3,s3,a0
    8000e130:	03500413          	li	s0,53
    8000e134:	013a2023          	sw	s3,0(s4)
    8000e138:	40a4053b          	subw	a0,s0,a0
    8000e13c:	03813083          	ld	ra,56(sp)
    8000e140:	03013403          	ld	s0,48(sp)
    8000e144:	00a92023          	sw	a0,0(s2)
    8000e148:	01813983          	ld	s3,24(sp)
    8000e14c:	02013903          	ld	s2,32(sp)
    8000e150:	01013a03          	ld	s4,16(sp)
    8000e154:	00048513          	mv	a0,s1
    8000e158:	02813483          	ld	s1,40(sp)
    8000e15c:	04010113          	add	sp,sp,64
    8000e160:	00008067          	ret
    8000e164:	00810513          	add	a0,sp,8
    8000e168:	00812423          	sw	s0,8(sp)
    8000e16c:	bd8ff0ef          	jal	8000d544 <__lo0bits>
    8000e170:	00c12783          	lw	a5,12(sp)
    8000e174:	00812703          	lw	a4,8(sp)
    8000e178:	02050063          	beqz	a0,8000e198 <__d2b+0xf4>
    8000e17c:	02000693          	li	a3,32
    8000e180:	40a686bb          	subw	a3,a3,a0
    8000e184:	00d796bb          	sllw	a3,a5,a3
    8000e188:	00d76733          	or	a4,a4,a3
    8000e18c:	00a7d7bb          	srlw	a5,a5,a0
    8000e190:	0007071b          	sext.w	a4,a4
    8000e194:	00f12623          	sw	a5,12(sp)
    8000e198:	00f03433          	snez	s0,a5
    8000e19c:	00140413          	add	s0,s0,1
    8000e1a0:	00e4ac23          	sw	a4,24(s1)
    8000e1a4:	00f4ae23          	sw	a5,28(s1)
    8000e1a8:	0084aa23          	sw	s0,20(s1)
    8000e1ac:	f6099ee3          	bnez	s3,8000e128 <__d2b+0x84>
    8000e1b0:	bce5051b          	addw	a0,a0,-1074
    8000e1b4:	00241793          	sll	a5,s0,0x2
    8000e1b8:	00aa2023          	sw	a0,0(s4)
    8000e1bc:	00f487b3          	add	a5,s1,a5
    8000e1c0:	0147a503          	lw	a0,20(a5) # 3ff00014 <__heap_size+0x3f700014>
    8000e1c4:	0054141b          	sllw	s0,s0,0x5
    8000e1c8:	b04ff0ef          	jal	8000d4cc <__hi0bits>
    8000e1cc:	40a4053b          	subw	a0,s0,a0
    8000e1d0:	f6dff06f          	j	8000e13c <__d2b+0x98>
    8000e1d4:	0000f697          	auipc	a3,0xf
    8000e1d8:	38468693          	add	a3,a3,900 # 8001d558 <s_box+0x310>
    8000e1dc:	00000613          	li	a2,0
    8000e1e0:	30f00593          	li	a1,783
    8000e1e4:	0000f517          	auipc	a0,0xf
    8000e1e8:	3ec50513          	add	a0,a0,1004 # 8001d5d0 <s_box+0x388>
    8000e1ec:	1b1000ef          	jal	8000eb9c <__assert_func>

000000008000e1f0 <__ratio>:
    8000e1f0:	fd010113          	add	sp,sp,-48
    8000e1f4:	00913c23          	sd	s1,24(sp)
    8000e1f8:	00058493          	mv	s1,a1
    8000e1fc:	00810593          	add	a1,sp,8
    8000e200:	02113423          	sd	ra,40(sp)
    8000e204:	02813023          	sd	s0,32(sp)
    8000e208:	01213823          	sd	s2,16(sp)
    8000e20c:	00050913          	mv	s2,a0
    8000e210:	d4dff0ef          	jal	8000df5c <__b2d>
    8000e214:	00c10593          	add	a1,sp,12
    8000e218:	00050413          	mv	s0,a0
    8000e21c:	00048513          	mv	a0,s1
    8000e220:	d3dff0ef          	jal	8000df5c <__b2d>
    8000e224:	01492783          	lw	a5,20(s2)
    8000e228:	0144a603          	lw	a2,20(s1)
    8000e22c:	00812703          	lw	a4,8(sp)
    8000e230:	00c12683          	lw	a3,12(sp)
    8000e234:	40c787bb          	subw	a5,a5,a2
    8000e238:	0057979b          	sllw	a5,a5,0x5
    8000e23c:	40d7073b          	subw	a4,a4,a3
    8000e240:	00e7873b          	addw	a4,a5,a4
    8000e244:	00070793          	mv	a5,a4
    8000e248:	00050593          	mv	a1,a0
    8000e24c:	04e05263          	blez	a4,8000e290 <__ratio+0xa0>
    8000e250:	02045713          	srl	a4,s0,0x20
    8000e254:	0147979b          	sllw	a5,a5,0x14
    8000e258:	00e787bb          	addw	a5,a5,a4
    8000e25c:	fff00713          	li	a4,-1
    8000e260:	02075713          	srl	a4,a4,0x20
    8000e264:	02079793          	sll	a5,a5,0x20
    8000e268:	00877733          	and	a4,a4,s0
    8000e26c:	00f76433          	or	s0,a4,a5
    8000e270:	00040513          	mv	a0,s0
    8000e274:	4fd020ef          	jal	80010f70 <__divdf3>
    8000e278:	02813083          	ld	ra,40(sp)
    8000e27c:	02013403          	ld	s0,32(sp)
    8000e280:	01813483          	ld	s1,24(sp)
    8000e284:	01013903          	ld	s2,16(sp)
    8000e288:	03010113          	add	sp,sp,48
    8000e28c:	00008067          	ret
    8000e290:	02055713          	srl	a4,a0,0x20
    8000e294:	0147979b          	sllw	a5,a5,0x14
    8000e298:	40f707bb          	subw	a5,a4,a5
    8000e29c:	fff00713          	li	a4,-1
    8000e2a0:	02075713          	srl	a4,a4,0x20
    8000e2a4:	02079793          	sll	a5,a5,0x20
    8000e2a8:	00a775b3          	and	a1,a4,a0
    8000e2ac:	00f5e5b3          	or	a1,a1,a5
    8000e2b0:	fc1ff06f          	j	8000e270 <__ratio+0x80>

000000008000e2b4 <_mprec_log10>:
    8000e2b4:	fe010113          	add	sp,sp,-32
    8000e2b8:	00813823          	sd	s0,16(sp)
    8000e2bc:	00113c23          	sd	ra,24(sp)
    8000e2c0:	01700793          	li	a5,23
    8000e2c4:	00050413          	mv	s0,a0
    8000e2c8:	02a7de63          	bge	a5,a0,8000e304 <_mprec_log10+0x50>
    8000e2cc:	00913423          	sd	s1,8(sp)
    8000e2d0:	00010517          	auipc	a0,0x10
    8000e2d4:	69053503          	ld	a0,1680(a0) # 8001e960 <environ+0x38>
    8000e2d8:	00010497          	auipc	s1,0x10
    8000e2dc:	6904b483          	ld	s1,1680(s1) # 8001e968 <environ+0x40>
    8000e2e0:	00048593          	mv	a1,s1
    8000e2e4:	fff4041b          	addw	s0,s0,-1
    8000e2e8:	1b8030ef          	jal	800114a0 <__muldf3>
    8000e2ec:	fe041ae3          	bnez	s0,8000e2e0 <_mprec_log10+0x2c>
    8000e2f0:	01813083          	ld	ra,24(sp)
    8000e2f4:	01013403          	ld	s0,16(sp)
    8000e2f8:	00813483          	ld	s1,8(sp)
    8000e2fc:	02010113          	add	sp,sp,32
    8000e300:	00008067          	ret
    8000e304:	00351413          	sll	s0,a0,0x3
    8000e308:	0000f797          	auipc	a5,0xf
    8000e30c:	6e078793          	add	a5,a5,1760 # 8001d9e8 <__mprec_tens>
    8000e310:	01813083          	ld	ra,24(sp)
    8000e314:	008787b3          	add	a5,a5,s0
    8000e318:	01013403          	ld	s0,16(sp)
    8000e31c:	0007b503          	ld	a0,0(a5)
    8000e320:	02010113          	add	sp,sp,32
    8000e324:	00008067          	ret

000000008000e328 <__copybits>:
    8000e328:	01462683          	lw	a3,20(a2) # 3ff00014 <__heap_size+0x3f700014>
    8000e32c:	fff5859b          	addw	a1,a1,-1
    8000e330:	4055d59b          	sraw	a1,a1,0x5
    8000e334:	0015859b          	addw	a1,a1,1
    8000e338:	01860793          	add	a5,a2,24
    8000e33c:	00269693          	sll	a3,a3,0x2
    8000e340:	00259593          	sll	a1,a1,0x2
    8000e344:	00d786b3          	add	a3,a5,a3
    8000e348:	00b505b3          	add	a1,a0,a1
    8000e34c:	02d7f863          	bgeu	a5,a3,8000e37c <__copybits+0x54>
    8000e350:	00050713          	mv	a4,a0
    8000e354:	0007a803          	lw	a6,0(a5)
    8000e358:	00478793          	add	a5,a5,4
    8000e35c:	00470713          	add	a4,a4,4 # 100004 <__stack_shift+0xfffed>
    8000e360:	ff072e23          	sw	a6,-4(a4)
    8000e364:	fed7e8e3          	bltu	a5,a3,8000e354 <__copybits+0x2c>
    8000e368:	40c687b3          	sub	a5,a3,a2
    8000e36c:	fe778793          	add	a5,a5,-25
    8000e370:	ffc7f793          	and	a5,a5,-4
    8000e374:	00478793          	add	a5,a5,4
    8000e378:	00f50533          	add	a0,a0,a5
    8000e37c:	00b57863          	bgeu	a0,a1,8000e38c <__copybits+0x64>
    8000e380:	00450513          	add	a0,a0,4
    8000e384:	fe052e23          	sw	zero,-4(a0)
    8000e388:	feb56ce3          	bltu	a0,a1,8000e380 <__copybits+0x58>
    8000e38c:	00008067          	ret

000000008000e390 <__any_on>:
    8000e390:	01452703          	lw	a4,20(a0)
    8000e394:	4055d613          	sra	a2,a1,0x5
    8000e398:	01850693          	add	a3,a0,24
    8000e39c:	02c75263          	bge	a4,a2,8000e3c0 <__any_on+0x30>
    8000e3a0:	00271713          	sll	a4,a4,0x2
    8000e3a4:	00e687b3          	add	a5,a3,a4
    8000e3a8:	04f6f263          	bgeu	a3,a5,8000e3ec <__any_on+0x5c>
    8000e3ac:	ffc7a703          	lw	a4,-4(a5)
    8000e3b0:	ffc78793          	add	a5,a5,-4
    8000e3b4:	fe070ae3          	beqz	a4,8000e3a8 <__any_on+0x18>
    8000e3b8:	00100513          	li	a0,1
    8000e3bc:	00008067          	ret
    8000e3c0:	00261793          	sll	a5,a2,0x2
    8000e3c4:	00f687b3          	add	a5,a3,a5
    8000e3c8:	fee650e3          	bge	a2,a4,8000e3a8 <__any_on+0x18>
    8000e3cc:	01f5f593          	and	a1,a1,31
    8000e3d0:	fc058ce3          	beqz	a1,8000e3a8 <__any_on+0x18>
    8000e3d4:	0007a603          	lw	a2,0(a5)
    8000e3d8:	00100513          	li	a0,1
    8000e3dc:	00b6573b          	srlw	a4,a2,a1
    8000e3e0:	00b7173b          	sllw	a4,a4,a1
    8000e3e4:	fcc702e3          	beq	a4,a2,8000e3a8 <__any_on+0x18>
    8000e3e8:	00008067          	ret
    8000e3ec:	00000513          	li	a0,0
    8000e3f0:	00008067          	ret

000000008000e3f4 <_realloc_r>:
    8000e3f4:	fb010113          	add	sp,sp,-80
    8000e3f8:	03213823          	sd	s2,48(sp)
    8000e3fc:	04113423          	sd	ra,72(sp)
    8000e400:	00060913          	mv	s2,a2
    8000e404:	1e058c63          	beqz	a1,8000e5fc <_realloc_r+0x208>
    8000e408:	04813023          	sd	s0,64(sp)
    8000e40c:	02913c23          	sd	s1,56(sp)
    8000e410:	00058413          	mv	s0,a1
    8000e414:	03313423          	sd	s3,40(sp)
    8000e418:	03413023          	sd	s4,32(sp)
    8000e41c:	01513c23          	sd	s5,24(sp)
    8000e420:	00050993          	mv	s3,a0
    8000e424:	cf8f90ef          	jal	8000791c <__malloc_lock>
    8000e428:	ff843783          	ld	a5,-8(s0)
    8000e42c:	01790493          	add	s1,s2,23
    8000e430:	02e00713          	li	a4,46
    8000e434:	ff040a93          	add	s5,s0,-16
    8000e438:	ffc7fa13          	and	s4,a5,-4
    8000e43c:	10977663          	bgeu	a4,s1,8000e548 <_realloc_r+0x154>
    8000e440:	80000737          	lui	a4,0x80000
    8000e444:	ff04f493          	and	s1,s1,-16
    8000e448:	fff74713          	not	a4,a4
    8000e44c:	10976263          	bltu	a4,s1,8000e550 <_realloc_r+0x15c>
    8000e450:	1124e063          	bltu	s1,s2,8000e550 <_realloc_r+0x15c>
    8000e454:	129a5263          	bge	s4,s1,8000e578 <_realloc_r+0x184>
    8000e458:	01813023          	sd	s8,0(sp)
    8000e45c:	00010c17          	auipc	s8,0x10
    8000e460:	ae4c0c13          	add	s8,s8,-1308 # 8001df40 <__malloc_av_>
    8000e464:	010c3603          	ld	a2,16(s8)
    8000e468:	014a86b3          	add	a3,s5,s4
    8000e46c:	0086b703          	ld	a4,8(a3)
    8000e470:	1cd60863          	beq	a2,a3,8000e640 <_realloc_r+0x24c>
    8000e474:	ffe77613          	and	a2,a4,-2
    8000e478:	00c68633          	add	a2,a3,a2
    8000e47c:	00863603          	ld	a2,8(a2)
    8000e480:	00167613          	and	a2,a2,1
    8000e484:	14061a63          	bnez	a2,8000e5d8 <_realloc_r+0x1e4>
    8000e488:	ffc77713          	and	a4,a4,-4
    8000e48c:	00ea0633          	add	a2,s4,a4
    8000e490:	0c965863          	bge	a2,s1,8000e560 <_realloc_r+0x16c>
    8000e494:	0017f793          	and	a5,a5,1
    8000e498:	02079c63          	bnez	a5,8000e4d0 <_realloc_r+0xdc>
    8000e49c:	01713423          	sd	s7,8(sp)
    8000e4a0:	ff043b83          	ld	s7,-16(s0)
    8000e4a4:	01613823          	sd	s6,16(sp)
    8000e4a8:	417a8bb3          	sub	s7,s5,s7
    8000e4ac:	008bb783          	ld	a5,8(s7)
    8000e4b0:	ffc7f793          	and	a5,a5,-4
    8000e4b4:	00f70733          	add	a4,a4,a5
    8000e4b8:	01470b33          	add	s6,a4,s4
    8000e4bc:	329b5c63          	bge	s6,s1,8000e7f4 <_realloc_r+0x400>
    8000e4c0:	00fa0b33          	add	s6,s4,a5
    8000e4c4:	289b5863          	bge	s6,s1,8000e754 <_realloc_r+0x360>
    8000e4c8:	01013b03          	ld	s6,16(sp)
    8000e4cc:	00813b83          	ld	s7,8(sp)
    8000e4d0:	00090593          	mv	a1,s2
    8000e4d4:	00098513          	mv	a0,s3
    8000e4d8:	c29f80ef          	jal	80007100 <_malloc_r>
    8000e4dc:	00050913          	mv	s2,a0
    8000e4e0:	40050863          	beqz	a0,8000e8f0 <_realloc_r+0x4fc>
    8000e4e4:	ff843783          	ld	a5,-8(s0)
    8000e4e8:	ff050713          	add	a4,a0,-16
    8000e4ec:	ffe7f793          	and	a5,a5,-2
    8000e4f0:	00fa87b3          	add	a5,s5,a5
    8000e4f4:	24e78663          	beq	a5,a4,8000e740 <_realloc_r+0x34c>
    8000e4f8:	ff8a0613          	add	a2,s4,-8
    8000e4fc:	04800793          	li	a5,72
    8000e500:	2ec7e463          	bltu	a5,a2,8000e7e8 <_realloc_r+0x3f4>
    8000e504:	02700713          	li	a4,39
    8000e508:	20c76a63          	bltu	a4,a2,8000e71c <_realloc_r+0x328>
    8000e50c:	00050793          	mv	a5,a0
    8000e510:	00040713          	mv	a4,s0
    8000e514:	00073683          	ld	a3,0(a4) # ffffffff80000000 <__heap_end+0xfffffffeff7e1000>
    8000e518:	00d7b023          	sd	a3,0(a5)
    8000e51c:	00873683          	ld	a3,8(a4)
    8000e520:	00d7b423          	sd	a3,8(a5)
    8000e524:	01073703          	ld	a4,16(a4)
    8000e528:	00e7b823          	sd	a4,16(a5)
    8000e52c:	00040593          	mv	a1,s0
    8000e530:	00098513          	mv	a0,s3
    8000e534:	8adf80ef          	jal	80006de0 <_free_r>
    8000e538:	00098513          	mv	a0,s3
    8000e53c:	be4f90ef          	jal	80007920 <__malloc_unlock>
    8000e540:	00013c03          	ld	s8,0(sp)
    8000e544:	06c0006f          	j	8000e5b0 <_realloc_r+0x1bc>
    8000e548:	02000493          	li	s1,32
    8000e54c:	f124f4e3          	bgeu	s1,s2,8000e454 <_realloc_r+0x60>
    8000e550:	00c00793          	li	a5,12
    8000e554:	00f9a023          	sw	a5,0(s3)
    8000e558:	00000913          	li	s2,0
    8000e55c:	0540006f          	j	8000e5b0 <_realloc_r+0x1bc>
    8000e560:	0186b783          	ld	a5,24(a3)
    8000e564:	0106b703          	ld	a4,16(a3)
    8000e568:	00013c03          	ld	s8,0(sp)
    8000e56c:	00060a13          	mv	s4,a2
    8000e570:	00f73c23          	sd	a5,24(a4)
    8000e574:	00e7b823          	sd	a4,16(a5)
    8000e578:	008ab783          	ld	a5,8(s5)
    8000e57c:	409a06b3          	sub	a3,s4,s1
    8000e580:	01f00613          	li	a2,31
    8000e584:	0017f793          	and	a5,a5,1
    8000e588:	014a8733          	add	a4,s5,s4
    8000e58c:	08d66263          	bltu	a2,a3,8000e610 <_realloc_r+0x21c>
    8000e590:	0147e7b3          	or	a5,a5,s4
    8000e594:	00fab423          	sd	a5,8(s5)
    8000e598:	00873783          	ld	a5,8(a4)
    8000e59c:	0017e793          	or	a5,a5,1
    8000e5a0:	00f73423          	sd	a5,8(a4)
    8000e5a4:	00098513          	mv	a0,s3
    8000e5a8:	b78f90ef          	jal	80007920 <__malloc_unlock>
    8000e5ac:	00040913          	mv	s2,s0
    8000e5b0:	04013403          	ld	s0,64(sp)
    8000e5b4:	04813083          	ld	ra,72(sp)
    8000e5b8:	03813483          	ld	s1,56(sp)
    8000e5bc:	02813983          	ld	s3,40(sp)
    8000e5c0:	02013a03          	ld	s4,32(sp)
    8000e5c4:	01813a83          	ld	s5,24(sp)
    8000e5c8:	00090513          	mv	a0,s2
    8000e5cc:	03013903          	ld	s2,48(sp)
    8000e5d0:	05010113          	add	sp,sp,80
    8000e5d4:	00008067          	ret
    8000e5d8:	0017f793          	and	a5,a5,1
    8000e5dc:	ee079ae3          	bnez	a5,8000e4d0 <_realloc_r+0xdc>
    8000e5e0:	01713423          	sd	s7,8(sp)
    8000e5e4:	ff043b83          	ld	s7,-16(s0)
    8000e5e8:	01613823          	sd	s6,16(sp)
    8000e5ec:	417a8bb3          	sub	s7,s5,s7
    8000e5f0:	008bb783          	ld	a5,8(s7)
    8000e5f4:	ffc7f793          	and	a5,a5,-4
    8000e5f8:	ec9ff06f          	j	8000e4c0 <_realloc_r+0xcc>
    8000e5fc:	04813083          	ld	ra,72(sp)
    8000e600:	03013903          	ld	s2,48(sp)
    8000e604:	00060593          	mv	a1,a2
    8000e608:	05010113          	add	sp,sp,80
    8000e60c:	af5f806f          	j	80007100 <_malloc_r>
    8000e610:	0097e7b3          	or	a5,a5,s1
    8000e614:	00fab423          	sd	a5,8(s5)
    8000e618:	009a85b3          	add	a1,s5,s1
    8000e61c:	0016e693          	or	a3,a3,1
    8000e620:	00d5b423          	sd	a3,8(a1)
    8000e624:	00873783          	ld	a5,8(a4)
    8000e628:	01058593          	add	a1,a1,16
    8000e62c:	00098513          	mv	a0,s3
    8000e630:	0017e793          	or	a5,a5,1
    8000e634:	00f73423          	sd	a5,8(a4)
    8000e638:	fa8f80ef          	jal	80006de0 <_free_r>
    8000e63c:	f69ff06f          	j	8000e5a4 <_realloc_r+0x1b0>
    8000e640:	ffc77713          	and	a4,a4,-4
    8000e644:	014706b3          	add	a3,a4,s4
    8000e648:	02048613          	add	a2,s1,32
    8000e64c:	26c6d063          	bge	a3,a2,8000e8ac <_realloc_r+0x4b8>
    8000e650:	0017f793          	and	a5,a5,1
    8000e654:	e6079ee3          	bnez	a5,8000e4d0 <_realloc_r+0xdc>
    8000e658:	01713423          	sd	s7,8(sp)
    8000e65c:	ff043b83          	ld	s7,-16(s0)
    8000e660:	01613823          	sd	s6,16(sp)
    8000e664:	417a8bb3          	sub	s7,s5,s7
    8000e668:	008bb783          	ld	a5,8(s7)
    8000e66c:	ffc7f793          	and	a5,a5,-4
    8000e670:	00f70733          	add	a4,a4,a5
    8000e674:	01470b33          	add	s6,a4,s4
    8000e678:	e4cb44e3          	blt	s6,a2,8000e4c0 <_realloc_r+0xcc>
    8000e67c:	018bb783          	ld	a5,24(s7)
    8000e680:	010bb703          	ld	a4,16(s7)
    8000e684:	ff8a0613          	add	a2,s4,-8
    8000e688:	04800693          	li	a3,72
    8000e68c:	00f73c23          	sd	a5,24(a4)
    8000e690:	00e7b823          	sd	a4,16(a5)
    8000e694:	010b8913          	add	s2,s7,16
    8000e698:	28c6e463          	bltu	a3,a2,8000e920 <_realloc_r+0x52c>
    8000e69c:	02700713          	li	a4,39
    8000e6a0:	00090793          	mv	a5,s2
    8000e6a4:	02c77263          	bgeu	a4,a2,8000e6c8 <_realloc_r+0x2d4>
    8000e6a8:	00043703          	ld	a4,0(s0)
    8000e6ac:	03700793          	li	a5,55
    8000e6b0:	00ebb823          	sd	a4,16(s7)
    8000e6b4:	00843703          	ld	a4,8(s0)
    8000e6b8:	00ebbc23          	sd	a4,24(s7)
    8000e6bc:	26c7ea63          	bltu	a5,a2,8000e930 <_realloc_r+0x53c>
    8000e6c0:	01040413          	add	s0,s0,16
    8000e6c4:	020b8793          	add	a5,s7,32
    8000e6c8:	00043703          	ld	a4,0(s0)
    8000e6cc:	00e7b023          	sd	a4,0(a5)
    8000e6d0:	00843703          	ld	a4,8(s0)
    8000e6d4:	00e7b423          	sd	a4,8(a5)
    8000e6d8:	01043703          	ld	a4,16(s0)
    8000e6dc:	00e7b823          	sd	a4,16(a5)
    8000e6e0:	009b8733          	add	a4,s7,s1
    8000e6e4:	409b07b3          	sub	a5,s6,s1
    8000e6e8:	00ec3823          	sd	a4,16(s8)
    8000e6ec:	0017e793          	or	a5,a5,1
    8000e6f0:	00f73423          	sd	a5,8(a4)
    8000e6f4:	008bb783          	ld	a5,8(s7)
    8000e6f8:	00098513          	mv	a0,s3
    8000e6fc:	0017f793          	and	a5,a5,1
    8000e700:	0097e7b3          	or	a5,a5,s1
    8000e704:	00fbb423          	sd	a5,8(s7)
    8000e708:	a18f90ef          	jal	80007920 <__malloc_unlock>
    8000e70c:	01013b03          	ld	s6,16(sp)
    8000e710:	00813b83          	ld	s7,8(sp)
    8000e714:	00013c03          	ld	s8,0(sp)
    8000e718:	e99ff06f          	j	8000e5b0 <_realloc_r+0x1bc>
    8000e71c:	00043683          	ld	a3,0(s0)
    8000e720:	03700713          	li	a4,55
    8000e724:	00d53023          	sd	a3,0(a0)
    8000e728:	00843683          	ld	a3,8(s0)
    8000e72c:	00d53423          	sd	a3,8(a0)
    8000e730:	14c76e63          	bltu	a4,a2,8000e88c <_realloc_r+0x498>
    8000e734:	01040713          	add	a4,s0,16
    8000e738:	01050793          	add	a5,a0,16
    8000e73c:	dd9ff06f          	j	8000e514 <_realloc_r+0x120>
    8000e740:	ff853783          	ld	a5,-8(a0)
    8000e744:	00013c03          	ld	s8,0(sp)
    8000e748:	ffc7f793          	and	a5,a5,-4
    8000e74c:	00fa0a33          	add	s4,s4,a5
    8000e750:	e29ff06f          	j	8000e578 <_realloc_r+0x184>
    8000e754:	018bb783          	ld	a5,24(s7)
    8000e758:	010bb703          	ld	a4,16(s7)
    8000e75c:	ff8a0613          	add	a2,s4,-8
    8000e760:	04800693          	li	a3,72
    8000e764:	00f73c23          	sd	a5,24(a4)
    8000e768:	00e7b823          	sd	a4,16(a5)
    8000e76c:	010b8913          	add	s2,s7,16
    8000e770:	10c6e663          	bltu	a3,a2,8000e87c <_realloc_r+0x488>
    8000e774:	02700713          	li	a4,39
    8000e778:	00090793          	mv	a5,s2
    8000e77c:	02c77c63          	bgeu	a4,a2,8000e7b4 <_realloc_r+0x3c0>
    8000e780:	00043703          	ld	a4,0(s0)
    8000e784:	03700793          	li	a5,55
    8000e788:	00ebb823          	sd	a4,16(s7)
    8000e78c:	00843703          	ld	a4,8(s0)
    8000e790:	00ebbc23          	sd	a4,24(s7)
    8000e794:	14c7f863          	bgeu	a5,a2,8000e8e4 <_realloc_r+0x4f0>
    8000e798:	01043783          	ld	a5,16(s0)
    8000e79c:	02fbb023          	sd	a5,32(s7)
    8000e7a0:	01843783          	ld	a5,24(s0)
    8000e7a4:	02fbb423          	sd	a5,40(s7)
    8000e7a8:	0ad60c63          	beq	a2,a3,8000e860 <_realloc_r+0x46c>
    8000e7ac:	02040413          	add	s0,s0,32
    8000e7b0:	030b8793          	add	a5,s7,48
    8000e7b4:	00043703          	ld	a4,0(s0)
    8000e7b8:	00e7b023          	sd	a4,0(a5)
    8000e7bc:	00843703          	ld	a4,8(s0)
    8000e7c0:	00e7b423          	sd	a4,8(a5)
    8000e7c4:	01043703          	ld	a4,16(s0)
    8000e7c8:	00e7b823          	sd	a4,16(a5)
    8000e7cc:	000b0a13          	mv	s4,s6
    8000e7d0:	000b8a93          	mv	s5,s7
    8000e7d4:	01013b03          	ld	s6,16(sp)
    8000e7d8:	00813b83          	ld	s7,8(sp)
    8000e7dc:	00013c03          	ld	s8,0(sp)
    8000e7e0:	00090413          	mv	s0,s2
    8000e7e4:	d95ff06f          	j	8000e578 <_realloc_r+0x184>
    8000e7e8:	00040593          	mv	a1,s0
    8000e7ec:	de8fc0ef          	jal	8000add4 <memmove>
    8000e7f0:	d3dff06f          	j	8000e52c <_realloc_r+0x138>
    8000e7f4:	0186b783          	ld	a5,24(a3)
    8000e7f8:	0106b703          	ld	a4,16(a3)
    8000e7fc:	ff8a0613          	add	a2,s4,-8
    8000e800:	04800693          	li	a3,72
    8000e804:	00f73c23          	sd	a5,24(a4)
    8000e808:	00e7b823          	sd	a4,16(a5)
    8000e80c:	010bb703          	ld	a4,16(s7)
    8000e810:	018bb783          	ld	a5,24(s7)
    8000e814:	010b8913          	add	s2,s7,16
    8000e818:	00f73c23          	sd	a5,24(a4)
    8000e81c:	00e7b823          	sd	a4,16(a5)
    8000e820:	04c6ee63          	bltu	a3,a2,8000e87c <_realloc_r+0x488>
    8000e824:	02700713          	li	a4,39
    8000e828:	00090793          	mv	a5,s2
    8000e82c:	f8c774e3          	bgeu	a4,a2,8000e7b4 <_realloc_r+0x3c0>
    8000e830:	00043703          	ld	a4,0(s0)
    8000e834:	03700793          	li	a5,55
    8000e838:	00ebb823          	sd	a4,16(s7)
    8000e83c:	00843703          	ld	a4,8(s0)
    8000e840:	00ebbc23          	sd	a4,24(s7)
    8000e844:	0ac7f063          	bgeu	a5,a2,8000e8e4 <_realloc_r+0x4f0>
    8000e848:	01043703          	ld	a4,16(s0)
    8000e84c:	04800793          	li	a5,72
    8000e850:	02ebb023          	sd	a4,32(s7)
    8000e854:	01843703          	ld	a4,24(s0)
    8000e858:	02ebb423          	sd	a4,40(s7)
    8000e85c:	f4f618e3          	bne	a2,a5,8000e7ac <_realloc_r+0x3b8>
    8000e860:	02043703          	ld	a4,32(s0)
    8000e864:	040b8793          	add	a5,s7,64
    8000e868:	03040413          	add	s0,s0,48
    8000e86c:	02ebb823          	sd	a4,48(s7)
    8000e870:	ff843703          	ld	a4,-8(s0)
    8000e874:	02ebbc23          	sd	a4,56(s7)
    8000e878:	f3dff06f          	j	8000e7b4 <_realloc_r+0x3c0>
    8000e87c:	00040593          	mv	a1,s0
    8000e880:	00090513          	mv	a0,s2
    8000e884:	d50fc0ef          	jal	8000add4 <memmove>
    8000e888:	f45ff06f          	j	8000e7cc <_realloc_r+0x3d8>
    8000e88c:	01043703          	ld	a4,16(s0)
    8000e890:	00e53823          	sd	a4,16(a0)
    8000e894:	01843703          	ld	a4,24(s0)
    8000e898:	00e53c23          	sd	a4,24(a0)
    8000e89c:	06f60463          	beq	a2,a5,8000e904 <_realloc_r+0x510>
    8000e8a0:	02040713          	add	a4,s0,32
    8000e8a4:	02050793          	add	a5,a0,32
    8000e8a8:	c6dff06f          	j	8000e514 <_realloc_r+0x120>
    8000e8ac:	009a8ab3          	add	s5,s5,s1
    8000e8b0:	409687b3          	sub	a5,a3,s1
    8000e8b4:	015c3823          	sd	s5,16(s8)
    8000e8b8:	0017e793          	or	a5,a5,1
    8000e8bc:	00fab423          	sd	a5,8(s5)
    8000e8c0:	ff843783          	ld	a5,-8(s0)
    8000e8c4:	00098513          	mv	a0,s3
    8000e8c8:	00040913          	mv	s2,s0
    8000e8cc:	0017f793          	and	a5,a5,1
    8000e8d0:	0097e7b3          	or	a5,a5,s1
    8000e8d4:	fef43c23          	sd	a5,-8(s0)
    8000e8d8:	848f90ef          	jal	80007920 <__malloc_unlock>
    8000e8dc:	00013c03          	ld	s8,0(sp)
    8000e8e0:	cd1ff06f          	j	8000e5b0 <_realloc_r+0x1bc>
    8000e8e4:	01040413          	add	s0,s0,16
    8000e8e8:	020b8793          	add	a5,s7,32
    8000e8ec:	ec9ff06f          	j	8000e7b4 <_realloc_r+0x3c0>
    8000e8f0:	00098513          	mv	a0,s3
    8000e8f4:	82cf90ef          	jal	80007920 <__malloc_unlock>
    8000e8f8:	00000913          	li	s2,0
    8000e8fc:	00013c03          	ld	s8,0(sp)
    8000e900:	cb1ff06f          	j	8000e5b0 <_realloc_r+0x1bc>
    8000e904:	02043683          	ld	a3,32(s0)
    8000e908:	03040713          	add	a4,s0,48
    8000e90c:	03050793          	add	a5,a0,48
    8000e910:	02d53023          	sd	a3,32(a0)
    8000e914:	02843683          	ld	a3,40(s0)
    8000e918:	02d53423          	sd	a3,40(a0)
    8000e91c:	bf9ff06f          	j	8000e514 <_realloc_r+0x120>
    8000e920:	00040593          	mv	a1,s0
    8000e924:	00090513          	mv	a0,s2
    8000e928:	cacfc0ef          	jal	8000add4 <memmove>
    8000e92c:	db5ff06f          	j	8000e6e0 <_realloc_r+0x2ec>
    8000e930:	01043783          	ld	a5,16(s0)
    8000e934:	02fbb023          	sd	a5,32(s7)
    8000e938:	01843783          	ld	a5,24(s0)
    8000e93c:	02fbb423          	sd	a5,40(s7)
    8000e940:	00d60863          	beq	a2,a3,8000e950 <_realloc_r+0x55c>
    8000e944:	02040413          	add	s0,s0,32
    8000e948:	030b8793          	add	a5,s7,48
    8000e94c:	d7dff06f          	j	8000e6c8 <_realloc_r+0x2d4>
    8000e950:	02043703          	ld	a4,32(s0)
    8000e954:	040b8793          	add	a5,s7,64
    8000e958:	03040413          	add	s0,s0,48
    8000e95c:	02ebb823          	sd	a4,48(s7)
    8000e960:	ff843703          	ld	a4,-8(s0)
    8000e964:	02ebbc23          	sd	a4,56(s7)
    8000e968:	d61ff06f          	j	8000e6c8 <_realloc_r+0x2d4>

000000008000e96c <_setlocale_r>:
    8000e96c:	04060063          	beqz	a2,8000e9ac <_setlocale_r+0x40>
    8000e970:	ff010113          	add	sp,sp,-16
    8000e974:	0000f597          	auipc	a1,0xf
    8000e978:	cbc58593          	add	a1,a1,-836 # 8001d630 <s_box+0x3e8>
    8000e97c:	00060513          	mv	a0,a2
    8000e980:	00813023          	sd	s0,0(sp)
    8000e984:	00113423          	sd	ra,8(sp)
    8000e988:	00060413          	mv	s0,a2
    8000e98c:	0e4000ef          	jal	8000ea70 <strcmp>
    8000e990:	02051463          	bnez	a0,8000e9b8 <_setlocale_r+0x4c>
    8000e994:	0000f517          	auipc	a0,0xf
    8000e998:	c9450513          	add	a0,a0,-876 # 8001d628 <s_box+0x3e0>
    8000e99c:	00813083          	ld	ra,8(sp)
    8000e9a0:	00013403          	ld	s0,0(sp)
    8000e9a4:	01010113          	add	sp,sp,16
    8000e9a8:	00008067          	ret
    8000e9ac:	0000f517          	auipc	a0,0xf
    8000e9b0:	c7c50513          	add	a0,a0,-900 # 8001d628 <s_box+0x3e0>
    8000e9b4:	00008067          	ret
    8000e9b8:	0000f597          	auipc	a1,0xf
    8000e9bc:	c7058593          	add	a1,a1,-912 # 8001d628 <s_box+0x3e0>
    8000e9c0:	00040513          	mv	a0,s0
    8000e9c4:	0ac000ef          	jal	8000ea70 <strcmp>
    8000e9c8:	fc0506e3          	beqz	a0,8000e994 <_setlocale_r+0x28>
    8000e9cc:	0000f597          	auipc	a1,0xf
    8000e9d0:	b0c58593          	add	a1,a1,-1268 # 8001d4d8 <s_box+0x290>
    8000e9d4:	00040513          	mv	a0,s0
    8000e9d8:	098000ef          	jal	8000ea70 <strcmp>
    8000e9dc:	fa050ce3          	beqz	a0,8000e994 <_setlocale_r+0x28>
    8000e9e0:	00000513          	li	a0,0
    8000e9e4:	fb9ff06f          	j	8000e99c <_setlocale_r+0x30>

000000008000e9e8 <__locale_mb_cur_max>:
    8000e9e8:	00010517          	auipc	a0,0x10
    8000e9ec:	ec854503          	lbu	a0,-312(a0) # 8001e8b0 <__global_locale+0x160>
    8000e9f0:	00008067          	ret

000000008000e9f4 <setlocale>:
    8000e9f4:	04058063          	beqz	a1,8000ea34 <setlocale+0x40>
    8000e9f8:	ff010113          	add	sp,sp,-16
    8000e9fc:	00813023          	sd	s0,0(sp)
    8000ea00:	00058413          	mv	s0,a1
    8000ea04:	00040513          	mv	a0,s0
    8000ea08:	0000f597          	auipc	a1,0xf
    8000ea0c:	c2858593          	add	a1,a1,-984 # 8001d630 <s_box+0x3e8>
    8000ea10:	00113423          	sd	ra,8(sp)
    8000ea14:	05c000ef          	jal	8000ea70 <strcmp>
    8000ea18:	02051463          	bnez	a0,8000ea40 <setlocale+0x4c>
    8000ea1c:	0000f517          	auipc	a0,0xf
    8000ea20:	c0c50513          	add	a0,a0,-1012 # 8001d628 <s_box+0x3e0>
    8000ea24:	00813083          	ld	ra,8(sp)
    8000ea28:	00013403          	ld	s0,0(sp)
    8000ea2c:	01010113          	add	sp,sp,16
    8000ea30:	00008067          	ret
    8000ea34:	0000f517          	auipc	a0,0xf
    8000ea38:	bf450513          	add	a0,a0,-1036 # 8001d628 <s_box+0x3e0>
    8000ea3c:	00008067          	ret
    8000ea40:	0000f597          	auipc	a1,0xf
    8000ea44:	be858593          	add	a1,a1,-1048 # 8001d628 <s_box+0x3e0>
    8000ea48:	00040513          	mv	a0,s0
    8000ea4c:	024000ef          	jal	8000ea70 <strcmp>
    8000ea50:	fc0506e3          	beqz	a0,8000ea1c <setlocale+0x28>
    8000ea54:	0000f597          	auipc	a1,0xf
    8000ea58:	a8458593          	add	a1,a1,-1404 # 8001d4d8 <s_box+0x290>
    8000ea5c:	00040513          	mv	a0,s0
    8000ea60:	010000ef          	jal	8000ea70 <strcmp>
    8000ea64:	fa050ce3          	beqz	a0,8000ea1c <setlocale+0x28>
    8000ea68:	00000513          	li	a0,0
    8000ea6c:	fb9ff06f          	j	8000ea24 <setlocale+0x30>

000000008000ea70 <strcmp>:
    8000ea70:	00b56733          	or	a4,a0,a1
    8000ea74:	fff00393          	li	t2,-1
    8000ea78:	00777713          	and	a4,a4,7
    8000ea7c:	0c071c63          	bnez	a4,8000eb54 <strcmp+0xe4>
    8000ea80:	00010797          	auipc	a5,0x10
    8000ea84:	f107b783          	ld	a5,-240(a5) # 8001e990 <mask>
    8000ea88:	00053603          	ld	a2,0(a0)
    8000ea8c:	0005b683          	ld	a3,0(a1)
    8000ea90:	00f672b3          	and	t0,a2,a5
    8000ea94:	00f66333          	or	t1,a2,a5
    8000ea98:	00f282b3          	add	t0,t0,a5
    8000ea9c:	0062e2b3          	or	t0,t0,t1
    8000eaa0:	0c729e63          	bne	t0,t2,8000eb7c <strcmp+0x10c>
    8000eaa4:	04d61663          	bne	a2,a3,8000eaf0 <strcmp+0x80>
    8000eaa8:	00853603          	ld	a2,8(a0)
    8000eaac:	0085b683          	ld	a3,8(a1)
    8000eab0:	00f672b3          	and	t0,a2,a5
    8000eab4:	00f66333          	or	t1,a2,a5
    8000eab8:	00f282b3          	add	t0,t0,a5
    8000eabc:	0062e2b3          	or	t0,t0,t1
    8000eac0:	0a729a63          	bne	t0,t2,8000eb74 <strcmp+0x104>
    8000eac4:	02d61663          	bne	a2,a3,8000eaf0 <strcmp+0x80>
    8000eac8:	01053603          	ld	a2,16(a0)
    8000eacc:	0105b683          	ld	a3,16(a1)
    8000ead0:	00f672b3          	and	t0,a2,a5
    8000ead4:	00f66333          	or	t1,a2,a5
    8000ead8:	00f282b3          	add	t0,t0,a5
    8000eadc:	0062e2b3          	or	t0,t0,t1
    8000eae0:	0a729463          	bne	t0,t2,8000eb88 <strcmp+0x118>
    8000eae4:	01850513          	add	a0,a0,24
    8000eae8:	01858593          	add	a1,a1,24
    8000eaec:	f8d60ee3          	beq	a2,a3,8000ea88 <strcmp+0x18>
    8000eaf0:	03061713          	sll	a4,a2,0x30
    8000eaf4:	03069793          	sll	a5,a3,0x30
    8000eaf8:	02f71a63          	bne	a4,a5,8000eb2c <strcmp+0xbc>
    8000eafc:	02061713          	sll	a4,a2,0x20
    8000eb00:	02069793          	sll	a5,a3,0x20
    8000eb04:	02f71463          	bne	a4,a5,8000eb2c <strcmp+0xbc>
    8000eb08:	01061713          	sll	a4,a2,0x10
    8000eb0c:	01069793          	sll	a5,a3,0x10
    8000eb10:	00f71e63          	bne	a4,a5,8000eb2c <strcmp+0xbc>
    8000eb14:	03065713          	srl	a4,a2,0x30
    8000eb18:	0306d793          	srl	a5,a3,0x30
    8000eb1c:	40f70533          	sub	a0,a4,a5
    8000eb20:	0ff57593          	zext.b	a1,a0
    8000eb24:	02059063          	bnez	a1,8000eb44 <strcmp+0xd4>
    8000eb28:	00008067          	ret
    8000eb2c:	03075713          	srl	a4,a4,0x30
    8000eb30:	0307d793          	srl	a5,a5,0x30
    8000eb34:	40f70533          	sub	a0,a4,a5
    8000eb38:	0ff57593          	zext.b	a1,a0
    8000eb3c:	00059463          	bnez	a1,8000eb44 <strcmp+0xd4>
    8000eb40:	00008067          	ret
    8000eb44:	0ff77713          	zext.b	a4,a4
    8000eb48:	0ff7f793          	zext.b	a5,a5
    8000eb4c:	40f70533          	sub	a0,a4,a5
    8000eb50:	00008067          	ret
    8000eb54:	00054603          	lbu	a2,0(a0)
    8000eb58:	0005c683          	lbu	a3,0(a1)
    8000eb5c:	00150513          	add	a0,a0,1
    8000eb60:	00158593          	add	a1,a1,1
    8000eb64:	00d61463          	bne	a2,a3,8000eb6c <strcmp+0xfc>
    8000eb68:	fe0616e3          	bnez	a2,8000eb54 <strcmp+0xe4>
    8000eb6c:	40d60533          	sub	a0,a2,a3
    8000eb70:	00008067          	ret
    8000eb74:	00850513          	add	a0,a0,8
    8000eb78:	00858593          	add	a1,a1,8
    8000eb7c:	fcd61ce3          	bne	a2,a3,8000eb54 <strcmp+0xe4>
    8000eb80:	00000513          	li	a0,0
    8000eb84:	00008067          	ret
    8000eb88:	01050513          	add	a0,a0,16
    8000eb8c:	01058593          	add	a1,a1,16
    8000eb90:	fcd612e3          	bne	a2,a3,8000eb54 <strcmp+0xe4>
    8000eb94:	00000513          	li	a0,0
    8000eb98:	00008067          	ret

000000008000eb9c <__assert_func>:
    8000eb9c:	ff010113          	add	sp,sp,-16
    8000eba0:	00068793          	mv	a5,a3
    8000eba4:	8101b703          	ld	a4,-2032(gp) # 8001e908 <_impure_ptr>
    8000eba8:	00060813          	mv	a6,a2
    8000ebac:	00113423          	sd	ra,8(sp)
    8000ebb0:	01873883          	ld	a7,24(a4)
    8000ebb4:	00078613          	mv	a2,a5
    8000ebb8:	00050693          	mv	a3,a0
    8000ebbc:	00058713          	mv	a4,a1
    8000ebc0:	0000f797          	auipc	a5,0xf
    8000ebc4:	a8078793          	add	a5,a5,-1408 # 8001d640 <s_box+0x3f8>
    8000ebc8:	00080c63          	beqz	a6,8000ebe0 <__assert_func+0x44>
    8000ebcc:	0000f597          	auipc	a1,0xf
    8000ebd0:	a8458593          	add	a1,a1,-1404 # 8001d650 <s_box+0x408>
    8000ebd4:	00088513          	mv	a0,a7
    8000ebd8:	200000ef          	jal	8000edd8 <fiprintf>
    8000ebdc:	444010ef          	jal	80010020 <abort>
    8000ebe0:	0000f797          	auipc	a5,0xf
    8000ebe4:	8f878793          	add	a5,a5,-1800 # 8001d4d8 <s_box+0x290>
    8000ebe8:	00078813          	mv	a6,a5
    8000ebec:	fe1ff06f          	j	8000ebcc <__assert_func+0x30>

000000008000ebf0 <__assert>:
    8000ebf0:	ff010113          	add	sp,sp,-16
    8000ebf4:	00060693          	mv	a3,a2
    8000ebf8:	00000613          	li	a2,0
    8000ebfc:	00113423          	sd	ra,8(sp)
    8000ec00:	f9dff0ef          	jal	8000eb9c <__assert_func>

000000008000ec04 <_calloc_r>:
    8000ec04:	02c5b7b3          	mulhu	a5,a1,a2
    8000ec08:	ff010113          	add	sp,sp,-16
    8000ec0c:	00113423          	sd	ra,8(sp)
    8000ec10:	00813023          	sd	s0,0(sp)
    8000ec14:	02c585b3          	mul	a1,a1,a2
    8000ec18:	0a079063          	bnez	a5,8000ecb8 <_calloc_r+0xb4>
    8000ec1c:	ce4f80ef          	jal	80007100 <_malloc_r>
    8000ec20:	00050413          	mv	s0,a0
    8000ec24:	0a050063          	beqz	a0,8000ecc4 <_calloc_r+0xc0>
    8000ec28:	ff853603          	ld	a2,-8(a0)
    8000ec2c:	04800713          	li	a4,72
    8000ec30:	ffc67613          	and	a2,a2,-4
    8000ec34:	ff860613          	add	a2,a2,-8
    8000ec38:	04c76863          	bltu	a4,a2,8000ec88 <_calloc_r+0x84>
    8000ec3c:	02700693          	li	a3,39
    8000ec40:	00050793          	mv	a5,a0
    8000ec44:	02c6f263          	bgeu	a3,a2,8000ec68 <_calloc_r+0x64>
    8000ec48:	00053023          	sd	zero,0(a0)
    8000ec4c:	00053423          	sd	zero,8(a0)
    8000ec50:	03700793          	li	a5,55
    8000ec54:	04c7f863          	bgeu	a5,a2,8000eca4 <_calloc_r+0xa0>
    8000ec58:	00053823          	sd	zero,16(a0)
    8000ec5c:	00053c23          	sd	zero,24(a0)
    8000ec60:	02050793          	add	a5,a0,32
    8000ec64:	06e60c63          	beq	a2,a4,8000ecdc <_calloc_r+0xd8>
    8000ec68:	0007b023          	sd	zero,0(a5)
    8000ec6c:	0007b423          	sd	zero,8(a5)
    8000ec70:	0007b823          	sd	zero,16(a5)
    8000ec74:	00813083          	ld	ra,8(sp)
    8000ec78:	00040513          	mv	a0,s0
    8000ec7c:	00013403          	ld	s0,0(sp)
    8000ec80:	01010113          	add	sp,sp,16
    8000ec84:	00008067          	ret
    8000ec88:	00000593          	li	a1,0
    8000ec8c:	cbdf70ef          	jal	80006948 <memset>
    8000ec90:	00813083          	ld	ra,8(sp)
    8000ec94:	00040513          	mv	a0,s0
    8000ec98:	00013403          	ld	s0,0(sp)
    8000ec9c:	01010113          	add	sp,sp,16
    8000eca0:	00008067          	ret
    8000eca4:	01050793          	add	a5,a0,16
    8000eca8:	0007b023          	sd	zero,0(a5)
    8000ecac:	0007b423          	sd	zero,8(a5)
    8000ecb0:	0007b823          	sd	zero,16(a5)
    8000ecb4:	fc1ff06f          	j	8000ec74 <_calloc_r+0x70>
    8000ecb8:	360010ef          	jal	80010018 <__errno>
    8000ecbc:	00c00793          	li	a5,12
    8000ecc0:	00f52023          	sw	a5,0(a0)
    8000ecc4:	00000413          	li	s0,0
    8000ecc8:	00813083          	ld	ra,8(sp)
    8000eccc:	00040513          	mv	a0,s0
    8000ecd0:	00013403          	ld	s0,0(sp)
    8000ecd4:	01010113          	add	sp,sp,16
    8000ecd8:	00008067          	ret
    8000ecdc:	02053023          	sd	zero,32(a0)
    8000ece0:	03050793          	add	a5,a0,48
    8000ece4:	02053423          	sd	zero,40(a0)
    8000ece8:	f81ff06f          	j	8000ec68 <_calloc_r+0x64>

000000008000ecec <_mbtowc_r>:
    8000ecec:	00010797          	auipc	a5,0x10
    8000ecf0:	b4c7b783          	ld	a5,-1204(a5) # 8001e838 <__global_locale+0xe8>
    8000ecf4:	00078067          	jr	a5

000000008000ecf8 <__ascii_mbtowc>:
    8000ecf8:	02058063          	beqz	a1,8000ed18 <__ascii_mbtowc+0x20>
    8000ecfc:	04060263          	beqz	a2,8000ed40 <__ascii_mbtowc+0x48>
    8000ed00:	04068863          	beqz	a3,8000ed50 <__ascii_mbtowc+0x58>
    8000ed04:	00064783          	lbu	a5,0(a2)
    8000ed08:	00f5a023          	sw	a5,0(a1)
    8000ed0c:	00064503          	lbu	a0,0(a2)
    8000ed10:	00a03533          	snez	a0,a0
    8000ed14:	00008067          	ret
    8000ed18:	ff010113          	add	sp,sp,-16
    8000ed1c:	00c10593          	add	a1,sp,12
    8000ed20:	02060463          	beqz	a2,8000ed48 <__ascii_mbtowc+0x50>
    8000ed24:	02068a63          	beqz	a3,8000ed58 <__ascii_mbtowc+0x60>
    8000ed28:	00064783          	lbu	a5,0(a2)
    8000ed2c:	00f5a023          	sw	a5,0(a1)
    8000ed30:	00064503          	lbu	a0,0(a2)
    8000ed34:	00a03533          	snez	a0,a0
    8000ed38:	01010113          	add	sp,sp,16
    8000ed3c:	00008067          	ret
    8000ed40:	00000513          	li	a0,0
    8000ed44:	00008067          	ret
    8000ed48:	00000513          	li	a0,0
    8000ed4c:	fedff06f          	j	8000ed38 <__ascii_mbtowc+0x40>
    8000ed50:	ffe00513          	li	a0,-2
    8000ed54:	00008067          	ret
    8000ed58:	ffe00513          	li	a0,-2
    8000ed5c:	fddff06f          	j	8000ed38 <__ascii_mbtowc+0x40>

000000008000ed60 <_wctomb_r>:
    8000ed60:	00010797          	auipc	a5,0x10
    8000ed64:	ad07b783          	ld	a5,-1328(a5) # 8001e830 <__global_locale+0xe0>
    8000ed68:	00078067          	jr	a5

000000008000ed6c <__ascii_wctomb>:
    8000ed6c:	0006079b          	sext.w	a5,a2
    8000ed70:	02058463          	beqz	a1,8000ed98 <__ascii_wctomb+0x2c>
    8000ed74:	0ff00713          	li	a4,255
    8000ed78:	00f76863          	bltu	a4,a5,8000ed88 <__ascii_wctomb+0x1c>
    8000ed7c:	00c58023          	sb	a2,0(a1)
    8000ed80:	00100513          	li	a0,1
    8000ed84:	00008067          	ret
    8000ed88:	08a00793          	li	a5,138
    8000ed8c:	00f52023          	sw	a5,0(a0)
    8000ed90:	fff00513          	li	a0,-1
    8000ed94:	00008067          	ret
    8000ed98:	00000513          	li	a0,0
    8000ed9c:	00008067          	ret

000000008000eda0 <_fiprintf_r>:
    8000eda0:	fb010113          	add	sp,sp,-80
    8000eda4:	02810313          	add	t1,sp,40
    8000eda8:	02d13423          	sd	a3,40(sp)
    8000edac:	00030693          	mv	a3,t1
    8000edb0:	00113c23          	sd	ra,24(sp)
    8000edb4:	02e13823          	sd	a4,48(sp)
    8000edb8:	02f13c23          	sd	a5,56(sp)
    8000edbc:	05013023          	sd	a6,64(sp)
    8000edc0:	05113423          	sd	a7,72(sp)
    8000edc4:	00613423          	sd	t1,8(sp)
    8000edc8:	058000ef          	jal	8000ee20 <_vfiprintf_r>
    8000edcc:	01813083          	ld	ra,24(sp)
    8000edd0:	05010113          	add	sp,sp,80
    8000edd4:	00008067          	ret

000000008000edd8 <fiprintf>:
    8000edd8:	fb010113          	add	sp,sp,-80
    8000eddc:	02010313          	add	t1,sp,32
    8000ede0:	02c13023          	sd	a2,32(sp)
    8000ede4:	02d13423          	sd	a3,40(sp)
    8000ede8:	00058613          	mv	a2,a1
    8000edec:	00030693          	mv	a3,t1
    8000edf0:	00050593          	mv	a1,a0
    8000edf4:	8101b503          	ld	a0,-2032(gp) # 8001e908 <_impure_ptr>
    8000edf8:	00113c23          	sd	ra,24(sp)
    8000edfc:	02e13823          	sd	a4,48(sp)
    8000ee00:	02f13c23          	sd	a5,56(sp)
    8000ee04:	05013023          	sd	a6,64(sp)
    8000ee08:	05113423          	sd	a7,72(sp)
    8000ee0c:	00613423          	sd	t1,8(sp)
    8000ee10:	010000ef          	jal	8000ee20 <_vfiprintf_r>
    8000ee14:	01813083          	ld	ra,24(sp)
    8000ee18:	05010113          	add	sp,sp,80
    8000ee1c:	00008067          	ret

000000008000ee20 <_vfiprintf_r>:
    8000ee20:	e2010113          	add	sp,sp,-480
    8000ee24:	1b313c23          	sd	s3,440(sp)
    8000ee28:	1b413823          	sd	s4,432(sp)
    8000ee2c:	19713c23          	sd	s7,408(sp)
    8000ee30:	17b13c23          	sd	s11,376(sp)
    8000ee34:	1c113c23          	sd	ra,472(sp)
    8000ee38:	19913423          	sd	s9,392(sp)
    8000ee3c:	00050a13          	mv	s4,a0
    8000ee40:	00058993          	mv	s3,a1
    8000ee44:	00060d93          	mv	s11,a2
    8000ee48:	00068b93          	mv	s7,a3
    8000ee4c:	00050663          	beqz	a0,8000ee58 <_vfiprintf_r+0x38>
    8000ee50:	04853783          	ld	a5,72(a0)
    8000ee54:	74078ce3          	beqz	a5,8000fdac <_vfiprintf_r+0xf8c>
    8000ee58:	01099683          	lh	a3,16(s3)
    8000ee5c:	0ac9a783          	lw	a5,172(s3)
    8000ee60:	03269613          	sll	a2,a3,0x32
    8000ee64:	02064063          	bltz	a2,8000ee84 <_vfiprintf_r+0x64>
    8000ee68:	ffffe637          	lui	a2,0xffffe
    8000ee6c:	fff60613          	add	a2,a2,-1 # ffffffffffffdfff <__heap_end+0xffffffff7f7defff>
    8000ee70:	000025b7          	lui	a1,0x2
    8000ee74:	00b6e6b3          	or	a3,a3,a1
    8000ee78:	00c7f7b3          	and	a5,a5,a2
    8000ee7c:	00d99823          	sh	a3,16(s3)
    8000ee80:	0af9a623          	sw	a5,172(s3)
    8000ee84:	03279693          	sll	a3,a5,0x32
    8000ee88:	0006d463          	bgez	a3,8000ee90 <_vfiprintf_r+0x70>
    8000ee8c:	0780106f          	j	8000ff04 <_vfiprintf_r+0x10e4>
    8000ee90:	01099783          	lh	a5,16(s3)
    8000ee94:	0087f693          	and	a3,a5,8
    8000ee98:	30068063          	beqz	a3,8000f198 <_vfiprintf_r+0x378>
    8000ee9c:	0189b683          	ld	a3,24(s3)
    8000eea0:	2e068c63          	beqz	a3,8000f198 <_vfiprintf_r+0x378>
    8000eea4:	01a7f793          	and	a5,a5,26
    8000eea8:	00a00693          	li	a3,10
    8000eeac:	30d78663          	beq	a5,a3,8000f1b8 <_vfiprintf_r+0x398>
    8000eeb0:	00000c93          	li	s9,0
    8000eeb4:	000d8793          	mv	a5,s11
    8000eeb8:	1b513423          	sd	s5,424(sp)
    8000eebc:	0f010a93          	add	s5,sp,240
    8000eec0:	1c813823          	sd	s0,464(sp)
    8000eec4:	1d213023          	sd	s2,448(sp)
    8000eec8:	1b613023          	sd	s6,416(sp)
    8000eecc:	19813823          	sd	s8,400(sp)
    8000eed0:	000c8d93          	mv	s11,s9
    8000eed4:	1c913423          	sd	s1,456(sp)
    8000eed8:	19a13023          	sd	s10,384(sp)
    8000eedc:	07513823          	sd	s5,112(sp)
    8000eee0:	08013023          	sd	zero,128(sp)
    8000eee4:	06012c23          	sw	zero,120(sp)
    8000eee8:	000a8413          	mv	s0,s5
    8000eeec:	00013423          	sd	zero,8(sp)
    8000eef0:	02013c23          	sd	zero,56(sp)
    8000eef4:	02013823          	sd	zero,48(sp)
    8000eef8:	04013023          	sd	zero,64(sp)
    8000eefc:	0000fc17          	auipc	s8,0xf
    8000ef00:	bb4c0c13          	add	s8,s8,-1100 # 8001dab0 <__mprec_tens+0xc8>
    8000ef04:	01000913          	li	s2,16
    8000ef08:	0000fb17          	auipc	s6,0xf
    8000ef0c:	d18b0b13          	add	s6,s6,-744 # 8001dc20 <zeroes.0>
    8000ef10:	000b8e93          	mv	t4,s7
    8000ef14:	00078c93          	mv	s9,a5
    8000ef18:	000cc783          	lbu	a5,0(s9)
    8000ef1c:	1e078463          	beqz	a5,8000f104 <_vfiprintf_r+0x2e4>
    8000ef20:	000c8493          	mv	s1,s9
    8000ef24:	02500713          	li	a4,37
    8000ef28:	2ce78463          	beq	a5,a4,8000f1f0 <_vfiprintf_r+0x3d0>
    8000ef2c:	0014c783          	lbu	a5,1(s1)
    8000ef30:	00148493          	add	s1,s1,1
    8000ef34:	fe079ae3          	bnez	a5,8000ef28 <_vfiprintf_r+0x108>
    8000ef38:	41948bbb          	subw	s7,s1,s9
    8000ef3c:	1c0b8463          	beqz	s7,8000f104 <_vfiprintf_r+0x2e4>
    8000ef40:	07812783          	lw	a5,120(sp)
    8000ef44:	08013703          	ld	a4,128(sp)
    8000ef48:	01943023          	sd	s9,0(s0)
    8000ef4c:	0017879b          	addw	a5,a5,1
    8000ef50:	01770733          	add	a4,a4,s7
    8000ef54:	01743423          	sd	s7,8(s0)
    8000ef58:	08e13023          	sd	a4,128(sp)
    8000ef5c:	06f12c23          	sw	a5,120(sp)
    8000ef60:	0007871b          	sext.w	a4,a5
    8000ef64:	00700793          	li	a5,7
    8000ef68:	01040413          	add	s0,s0,16
    8000ef6c:	28e7ca63          	blt	a5,a4,8000f200 <_vfiprintf_r+0x3e0>
    8000ef70:	0004c783          	lbu	a5,0(s1)
    8000ef74:	01bb8dbb          	addw	s11,s7,s11
    8000ef78:	18078663          	beqz	a5,8000f104 <_vfiprintf_r+0x2e4>
    8000ef7c:	0014c783          	lbu	a5,1(s1)
    8000ef80:	00148c93          	add	s9,s1,1
    8000ef84:	060103a3          	sb	zero,103(sp)
    8000ef88:	fff00493          	li	s1,-1
    8000ef8c:	00000713          	li	a4,0
    8000ef90:	00000b93          	li	s7,0
    8000ef94:	05a00d13          	li	s10,90
    8000ef98:	001c8c93          	add	s9,s9,1
    8000ef9c:	0007879b          	sext.w	a5,a5
    8000efa0:	fe07869b          	addw	a3,a5,-32
    8000efa4:	0006861b          	sext.w	a2,a3
    8000efa8:	04cd6c63          	bltu	s10,a2,8000f000 <_vfiprintf_r+0x1e0>
    8000efac:	02069613          	sll	a2,a3,0x20
    8000efb0:	01e65693          	srl	a3,a2,0x1e
    8000efb4:	018686b3          	add	a3,a3,s8
    8000efb8:	0006a683          	lw	a3,0(a3)
    8000efbc:	018686b3          	add	a3,a3,s8
    8000efc0:	00068067          	jr	a3
    8000efc4:	00000713          	li	a4,0
    8000efc8:	00900593          	li	a1,9
    8000efcc:	000cc603          	lbu	a2,0(s9)
    8000efd0:	0027169b          	sllw	a3,a4,0x2
    8000efd4:	00e6873b          	addw	a4,a3,a4
    8000efd8:	fd07879b          	addw	a5,a5,-48
    8000efdc:	0017171b          	sllw	a4,a4,0x1
    8000efe0:	fd06069b          	addw	a3,a2,-48
    8000efe4:	00e7873b          	addw	a4,a5,a4
    8000efe8:	001c8c93          	add	s9,s9,1
    8000efec:	0006079b          	sext.w	a5,a2
    8000eff0:	fcd5fee3          	bgeu	a1,a3,8000efcc <_vfiprintf_r+0x1ac>
    8000eff4:	fe07869b          	addw	a3,a5,-32
    8000eff8:	0006861b          	sext.w	a2,a3
    8000effc:	facd78e3          	bgeu	s10,a2,8000efac <_vfiprintf_r+0x18c>
    8000f000:	10078263          	beqz	a5,8000f104 <_vfiprintf_r+0x2e4>
    8000f004:	08f10423          	sb	a5,136(sp)
    8000f008:	060103a3          	sb	zero,103(sp)
    8000f00c:	00100813          	li	a6,1
    8000f010:	00100893          	li	a7,1
    8000f014:	08810d13          	add	s10,sp,136
    8000f018:	00000493          	li	s1,0
    8000f01c:	00000f13          	li	t5,0
    8000f020:	084bff93          	and	t6,s7,132
    8000f024:	08013783          	ld	a5,128(sp)
    8000f028:	07812603          	lw	a2,120(sp)
    8000f02c:	000f9663          	bnez	t6,8000f038 <_vfiprintf_r+0x218>
    8000f030:	410706bb          	subw	a3,a4,a6
    8000f034:	14d044e3          	bgtz	a3,8000f97c <_vfiprintf_r+0xb5c>
    8000f038:	06714683          	lbu	a3,103(sp)
    8000f03c:	02068863          	beqz	a3,8000f06c <_vfiprintf_r+0x24c>
    8000f040:	06710593          	add	a1,sp,103
    8000f044:	00b43023          	sd	a1,0(s0)
    8000f048:	0016061b          	addw	a2,a2,1
    8000f04c:	00178793          	add	a5,a5,1
    8000f050:	00100593          	li	a1,1
    8000f054:	00b43423          	sd	a1,8(s0)
    8000f058:	08f13023          	sd	a5,128(sp)
    8000f05c:	06c12c23          	sw	a2,120(sp)
    8000f060:	00700693          	li	a3,7
    8000f064:	01040413          	add	s0,s0,16
    8000f068:	22c6c463          	blt	a3,a2,8000f290 <_vfiprintf_r+0x470>
    8000f06c:	020f0863          	beqz	t5,8000f09c <_vfiprintf_r+0x27c>
    8000f070:	06810593          	add	a1,sp,104
    8000f074:	00b43023          	sd	a1,0(s0)
    8000f078:	0016061b          	addw	a2,a2,1
    8000f07c:	00278793          	add	a5,a5,2
    8000f080:	00200593          	li	a1,2
    8000f084:	00b43423          	sd	a1,8(s0)
    8000f088:	08f13023          	sd	a5,128(sp)
    8000f08c:	06c12c23          	sw	a2,120(sp)
    8000f090:	00700693          	li	a3,7
    8000f094:	01040413          	add	s0,s0,16
    8000f098:	22c6c0e3          	blt	a3,a2,8000fab8 <_vfiprintf_r+0xc98>
    8000f09c:	08000693          	li	a3,128
    8000f0a0:	62df8663          	beq	t6,a3,8000f6cc <_vfiprintf_r+0x8ac>
    8000f0a4:	411484bb          	subw	s1,s1,a7
    8000f0a8:	74904663          	bgtz	s1,8000f7f4 <_vfiprintf_r+0x9d4>
    8000f0ac:	0016059b          	addw	a1,a2,1
    8000f0b0:	00f887b3          	add	a5,a7,a5
    8000f0b4:	01a43023          	sd	s10,0(s0)
    8000f0b8:	01143423          	sd	a7,8(s0)
    8000f0bc:	08f13023          	sd	a5,128(sp)
    8000f0c0:	06b12c23          	sw	a1,120(sp)
    8000f0c4:	00700693          	li	a3,7
    8000f0c8:	01040413          	add	s0,s0,16
    8000f0cc:	02b6c8e3          	blt	a3,a1,8000f8fc <_vfiprintf_r+0xadc>
    8000f0d0:	004bfb93          	and	s7,s7,4
    8000f0d4:	000b8663          	beqz	s7,8000f0e0 <_vfiprintf_r+0x2c0>
    8000f0d8:	410704bb          	subw	s1,a4,a6
    8000f0dc:	229044e3          	bgtz	s1,8000fb04 <_vfiprintf_r+0xce4>
    8000f0e0:	00070693          	mv	a3,a4
    8000f0e4:	01075463          	bge	a4,a6,8000f0ec <_vfiprintf_r+0x2cc>
    8000f0e8:	00080693          	mv	a3,a6
    8000f0ec:	01b68dbb          	addw	s11,a3,s11
    8000f0f0:	12079a63          	bnez	a5,8000f224 <_vfiprintf_r+0x404>
    8000f0f4:	000cc783          	lbu	a5,0(s9)
    8000f0f8:	06012c23          	sw	zero,120(sp)
    8000f0fc:	000a8413          	mv	s0,s5
    8000f100:	e20790e3          	bnez	a5,8000ef20 <_vfiprintf_r+0x100>
    8000f104:	08013783          	ld	a5,128(sp)
    8000f108:	000d8c93          	mv	s9,s11
    8000f10c:	12078c63          	beqz	a5,8000f244 <_vfiprintf_r+0x424>
    8000f110:	07010613          	add	a2,sp,112
    8000f114:	00098593          	mv	a1,s3
    8000f118:	000a0513          	mv	a0,s4
    8000f11c:	888fb0ef          	jal	8000a1a4 <__sprint_r>
    8000f120:	1240006f          	j	8000f244 <_vfiprintf_r+0x424>
    8000f124:	010beb93          	or	s7,s7,16
    8000f128:	000cc783          	lbu	a5,0(s9)
    8000f12c:	000b8b9b          	sext.w	s7,s7
    8000f130:	e69ff06f          	j	8000ef98 <_vfiprintf_r+0x178>
    8000f134:	010beb93          	or	s7,s7,16
    8000f138:	000b8b9b          	sext.w	s7,s7
    8000f13c:	020bf793          	and	a5,s7,32
    8000f140:	008e8313          	add	t1,t4,8
    8000f144:	1a078063          	beqz	a5,8000f2e4 <_vfiprintf_r+0x4c4>
    8000f148:	000eb683          	ld	a3,0(t4)
    8000f14c:	00068793          	mv	a5,a3
    8000f150:	1a06cc63          	bltz	a3,8000f308 <_vfiprintf_r+0x4e8>
    8000f154:	1c04c663          	bltz	s1,8000f320 <_vfiprintf_r+0x500>
    8000f158:	f7fbfb93          	and	s7,s7,-129
    8000f15c:	000b8b9b          	sext.w	s7,s7
    8000f160:	1c079063          	bnez	a5,8000f320 <_vfiprintf_r+0x500>
    8000f164:	58049ae3          	bnez	s1,8000fef8 <_vfiprintf_r+0x10d8>
    8000f168:	06714783          	lbu	a5,103(sp)
    8000f16c:	00000813          	li	a6,0
    8000f170:	00000893          	li	a7,0
    8000f174:	00030e93          	mv	t4,t1
    8000f178:	0ec10d13          	add	s10,sp,236
    8000f17c:	00078463          	beqz	a5,8000f184 <_vfiprintf_r+0x364>
    8000f180:	0018081b          	addw	a6,a6,1
    8000f184:	002bff13          	and	t5,s7,2
    8000f188:	e80f0ce3          	beqz	t5,8000f020 <_vfiprintf_r+0x200>
    8000f18c:	0028081b          	addw	a6,a6,2
    8000f190:	00200f13          	li	t5,2
    8000f194:	e8dff06f          	j	8000f020 <_vfiprintf_r+0x200>
    8000f198:	00098593          	mv	a1,s3
    8000f19c:	000a0513          	mv	a0,s4
    8000f1a0:	875fb0ef          	jal	8000aa14 <__swsetup_r>
    8000f1a4:	560510e3          	bnez	a0,8000ff04 <_vfiprintf_r+0x10e4>
    8000f1a8:	01099783          	lh	a5,16(s3)
    8000f1ac:	00a00693          	li	a3,10
    8000f1b0:	01a7f793          	and	a5,a5,26
    8000f1b4:	ced79ee3          	bne	a5,a3,8000eeb0 <_vfiprintf_r+0x90>
    8000f1b8:	01299783          	lh	a5,18(s3)
    8000f1bc:	ce07cae3          	bltz	a5,8000eeb0 <_vfiprintf_r+0x90>
    8000f1c0:	1d813083          	ld	ra,472(sp)
    8000f1c4:	18813c83          	ld	s9,392(sp)
    8000f1c8:	000b8693          	mv	a3,s7
    8000f1cc:	000d8613          	mv	a2,s11
    8000f1d0:	19813b83          	ld	s7,408(sp)
    8000f1d4:	17813d83          	ld	s11,376(sp)
    8000f1d8:	00098593          	mv	a1,s3
    8000f1dc:	000a0513          	mv	a0,s4
    8000f1e0:	1b813983          	ld	s3,440(sp)
    8000f1e4:	1b013a03          	ld	s4,432(sp)
    8000f1e8:	1e010113          	add	sp,sp,480
    8000f1ec:	5610006f          	j	8000ff4c <__sbprintf>
    8000f1f0:	41948bbb          	subw	s7,s1,s9
    8000f1f4:	d40b96e3          	bnez	s7,8000ef40 <_vfiprintf_r+0x120>
    8000f1f8:	0004c783          	lbu	a5,0(s1)
    8000f1fc:	d7dff06f          	j	8000ef78 <_vfiprintf_r+0x158>
    8000f200:	07010613          	add	a2,sp,112
    8000f204:	00098593          	mv	a1,s3
    8000f208:	000a0513          	mv	a0,s4
    8000f20c:	01d13823          	sd	t4,16(sp)
    8000f210:	f95fa0ef          	jal	8000a1a4 <__sprint_r>
    8000f214:	02051663          	bnez	a0,8000f240 <_vfiprintf_r+0x420>
    8000f218:	01013e83          	ld	t4,16(sp)
    8000f21c:	000a8413          	mv	s0,s5
    8000f220:	d51ff06f          	j	8000ef70 <_vfiprintf_r+0x150>
    8000f224:	07010613          	add	a2,sp,112
    8000f228:	00098593          	mv	a1,s3
    8000f22c:	000a0513          	mv	a0,s4
    8000f230:	01d13823          	sd	t4,16(sp)
    8000f234:	f71fa0ef          	jal	8000a1a4 <__sprint_r>
    8000f238:	01013e83          	ld	t4,16(sp)
    8000f23c:	ea050ce3          	beqz	a0,8000f0f4 <_vfiprintf_r+0x2d4>
    8000f240:	000d8c93          	mv	s9,s11
    8000f244:	0109d783          	lhu	a5,16(s3)
    8000f248:	1d013403          	ld	s0,464(sp)
    8000f24c:	1c813483          	ld	s1,456(sp)
    8000f250:	0407f793          	and	a5,a5,64
    8000f254:	1c013903          	ld	s2,448(sp)
    8000f258:	1a813a83          	ld	s5,424(sp)
    8000f25c:	1a013b03          	ld	s6,416(sp)
    8000f260:	19013c03          	ld	s8,400(sp)
    8000f264:	18013d03          	ld	s10,384(sp)
    8000f268:	48079ee3          	bnez	a5,8000ff04 <_vfiprintf_r+0x10e4>
    8000f26c:	1d813083          	ld	ra,472(sp)
    8000f270:	1b813983          	ld	s3,440(sp)
    8000f274:	1b013a03          	ld	s4,432(sp)
    8000f278:	19813b83          	ld	s7,408(sp)
    8000f27c:	17813d83          	ld	s11,376(sp)
    8000f280:	000c8513          	mv	a0,s9
    8000f284:	18813c83          	ld	s9,392(sp)
    8000f288:	1e010113          	add	sp,sp,480
    8000f28c:	00008067          	ret
    8000f290:	07010613          	add	a2,sp,112
    8000f294:	00098593          	mv	a1,s3
    8000f298:	000a0513          	mv	a0,s4
    8000f29c:	05d13823          	sd	t4,80(sp)
    8000f2a0:	05113423          	sd	a7,72(sp)
    8000f2a4:	03013423          	sd	a6,40(sp)
    8000f2a8:	02e13023          	sd	a4,32(sp)
    8000f2ac:	01f13c23          	sd	t6,24(sp)
    8000f2b0:	01e13823          	sd	t5,16(sp)
    8000f2b4:	ef1fa0ef          	jal	8000a1a4 <__sprint_r>
    8000f2b8:	f80514e3          	bnez	a0,8000f240 <_vfiprintf_r+0x420>
    8000f2bc:	08013783          	ld	a5,128(sp)
    8000f2c0:	07812603          	lw	a2,120(sp)
    8000f2c4:	05013e83          	ld	t4,80(sp)
    8000f2c8:	04813883          	ld	a7,72(sp)
    8000f2cc:	02813803          	ld	a6,40(sp)
    8000f2d0:	02013703          	ld	a4,32(sp)
    8000f2d4:	01813f83          	ld	t6,24(sp)
    8000f2d8:	01013f03          	ld	t5,16(sp)
    8000f2dc:	000a8413          	mv	s0,s5
    8000f2e0:	d8dff06f          	j	8000f06c <_vfiprintf_r+0x24c>
    8000f2e4:	010bf793          	and	a5,s7,16
    8000f2e8:	e60790e3          	bnez	a5,8000f148 <_vfiprintf_r+0x328>
    8000f2ec:	040bf693          	and	a3,s7,64
    8000f2f0:	000ea783          	lw	a5,0(t4)
    8000f2f4:	30068ae3          	beqz	a3,8000fe08 <_vfiprintf_r+0xfe8>
    8000f2f8:	0107979b          	sllw	a5,a5,0x10
    8000f2fc:	4107d79b          	sraw	a5,a5,0x10
    8000f300:	00078693          	mv	a3,a5
    8000f304:	e406d8e3          	bgez	a3,8000f154 <_vfiprintf_r+0x334>
    8000f308:	02d00693          	li	a3,45
    8000f30c:	06d103a3          	sb	a3,103(sp)
    8000f310:	40f007b3          	neg	a5,a5
    8000f314:	0004c663          	bltz	s1,8000f320 <_vfiprintf_r+0x500>
    8000f318:	f7fbfb93          	and	s7,s7,-129
    8000f31c:	000b8b9b          	sext.w	s7,s7
    8000f320:	00900693          	li	a3,9
    8000f324:	20f6e0e3          	bltu	a3,a5,8000fd24 <_vfiprintf_r+0xf04>
    8000f328:	0307879b          	addw	a5,a5,48
    8000f32c:	0ff7f793          	zext.b	a5,a5
    8000f330:	00030e93          	mv	t4,t1
    8000f334:	0ef105a3          	sb	a5,235(sp)
    8000f338:	0004881b          	sext.w	a6,s1
    8000f33c:	00904463          	bgtz	s1,8000f344 <_vfiprintf_r+0x524>
    8000f340:	00100813          	li	a6,1
    8000f344:	00100893          	li	a7,1
    8000f348:	0eb10d13          	add	s10,sp,235
    8000f34c:	06714783          	lbu	a5,103(sp)
    8000f350:	e20798e3          	bnez	a5,8000f180 <_vfiprintf_r+0x360>
    8000f354:	e31ff06f          	j	8000f184 <_vfiprintf_r+0x364>
    8000f358:	000ebd03          	ld	s10,0(t4)
    8000f35c:	060103a3          	sb	zero,103(sp)
    8000f360:	008e8e93          	add	t4,t4,8
    8000f364:	260d0ce3          	beqz	s10,8000fddc <_vfiprintf_r+0xfbc>
    8000f368:	01d13c23          	sd	t4,24(sp)
    8000f36c:	00e13823          	sd	a4,16(sp)
    8000f370:	1804cee3          	bltz	s1,8000fd0c <_vfiprintf_r+0xeec>
    8000f374:	00048613          	mv	a2,s1
    8000f378:	00000593          	li	a1,0
    8000f37c:	000d0513          	mv	a0,s10
    8000f380:	fd4fb0ef          	jal	8000ab54 <memchr>
    8000f384:	01013703          	ld	a4,16(sp)
    8000f388:	01813e83          	ld	t4,24(sp)
    8000f38c:	00048893          	mv	a7,s1
    8000f390:	00050463          	beqz	a0,8000f398 <_vfiprintf_r+0x578>
    8000f394:	41a508bb          	subw	a7,a0,s10
    8000f398:	fff8c813          	not	a6,a7
    8000f39c:	06714783          	lbu	a5,103(sp)
    8000f3a0:	43f85813          	sra	a6,a6,0x3f
    8000f3a4:	0108f833          	and	a6,a7,a6
    8000f3a8:	0008081b          	sext.w	a6,a6
    8000f3ac:	00000493          	li	s1,0
    8000f3b0:	00000f13          	li	t5,0
    8000f3b4:	dc0796e3          	bnez	a5,8000f180 <_vfiprintf_r+0x360>
    8000f3b8:	c69ff06f          	j	8000f020 <_vfiprintf_r+0x200>
    8000f3bc:	000ea783          	lw	a5,0(t4)
    8000f3c0:	060103a3          	sb	zero,103(sp)
    8000f3c4:	008e8e93          	add	t4,t4,8
    8000f3c8:	08f10423          	sb	a5,136(sp)
    8000f3cc:	00100813          	li	a6,1
    8000f3d0:	00100893          	li	a7,1
    8000f3d4:	08810d13          	add	s10,sp,136
    8000f3d8:	c41ff06f          	j	8000f018 <_vfiprintf_r+0x1f8>
    8000f3dc:	000ea703          	lw	a4,0(t4)
    8000f3e0:	008e8e93          	add	t4,t4,8
    8000f3e4:	0c075e63          	bgez	a4,8000f4c0 <_vfiprintf_r+0x6a0>
    8000f3e8:	40e0073b          	negw	a4,a4
    8000f3ec:	004beb93          	or	s7,s7,4
    8000f3f0:	000cc783          	lbu	a5,0(s9)
    8000f3f4:	000b8b9b          	sext.w	s7,s7
    8000f3f8:	ba1ff06f          	j	8000ef98 <_vfiprintf_r+0x178>
    8000f3fc:	02b00693          	li	a3,43
    8000f400:	000cc783          	lbu	a5,0(s9)
    8000f404:	06d103a3          	sb	a3,103(sp)
    8000f408:	b91ff06f          	j	8000ef98 <_vfiprintf_r+0x178>
    8000f40c:	080beb93          	or	s7,s7,128
    8000f410:	000cc783          	lbu	a5,0(s9)
    8000f414:	000b8b9b          	sext.w	s7,s7
    8000f418:	b81ff06f          	j	8000ef98 <_vfiprintf_r+0x178>
    8000f41c:	000cc783          	lbu	a5,0(s9)
    8000f420:	02a00593          	li	a1,42
    8000f424:	001c8613          	add	a2,s9,1
    8000f428:	2eb788e3          	beq	a5,a1,8000ff18 <_vfiprintf_r+0x10f8>
    8000f42c:	fd07869b          	addw	a3,a5,-48
    8000f430:	00900813          	li	a6,9
    8000f434:	00000593          	li	a1,0
    8000f438:	00900513          	li	a0,9
    8000f43c:	00060c93          	mv	s9,a2
    8000f440:	00000493          	li	s1,0
    8000f444:	b4d86ee3          	bltu	a6,a3,8000efa0 <_vfiprintf_r+0x180>
    8000f448:	00064783          	lbu	a5,0(a2)
    8000f44c:	0025949b          	sllw	s1,a1,0x2
    8000f450:	00b484bb          	addw	s1,s1,a1
    8000f454:	0014949b          	sllw	s1,s1,0x1
    8000f458:	00d485bb          	addw	a1,s1,a3
    8000f45c:	fd07869b          	addw	a3,a5,-48
    8000f460:	00058493          	mv	s1,a1
    8000f464:	00160613          	add	a2,a2,1
    8000f468:	fed570e3          	bgeu	a0,a3,8000f448 <_vfiprintf_r+0x628>
    8000f46c:	0005c0e3          	bltz	a1,8000fc6c <_vfiprintf_r+0xe4c>
    8000f470:	00060c93          	mv	s9,a2
    8000f474:	b2dff06f          	j	8000efa0 <_vfiprintf_r+0x180>
    8000f478:	000a0513          	mv	a0,s4
    8000f47c:	01d13c23          	sd	t4,24(sp)
    8000f480:	00e13823          	sd	a4,16(sp)
    8000f484:	899fb0ef          	jal	8000ad1c <_localeconv_r>
    8000f488:	00853783          	ld	a5,8(a0)
    8000f48c:	00078513          	mv	a0,a5
    8000f490:	04f13023          	sd	a5,64(sp)
    8000f494:	f34f70ef          	jal	80006bc8 <strlen>
    8000f498:	00050793          	mv	a5,a0
    8000f49c:	000a0513          	mv	a0,s4
    8000f4a0:	02f13823          	sd	a5,48(sp)
    8000f4a4:	879fb0ef          	jal	8000ad1c <_localeconv_r>
    8000f4a8:	01053683          	ld	a3,16(a0)
    8000f4ac:	03013783          	ld	a5,48(sp)
    8000f4b0:	01013703          	ld	a4,16(sp)
    8000f4b4:	02d13c23          	sd	a3,56(sp)
    8000f4b8:	01813e83          	ld	t4,24(sp)
    8000f4bc:	78079463          	bnez	a5,8000fc44 <_vfiprintf_r+0xe24>
    8000f4c0:	000cc783          	lbu	a5,0(s9)
    8000f4c4:	ad5ff06f          	j	8000ef98 <_vfiprintf_r+0x178>
    8000f4c8:	001beb93          	or	s7,s7,1
    8000f4cc:	000cc783          	lbu	a5,0(s9)
    8000f4d0:	000b8b9b          	sext.w	s7,s7
    8000f4d4:	ac5ff06f          	j	8000ef98 <_vfiprintf_r+0x178>
    8000f4d8:	06714683          	lbu	a3,103(sp)
    8000f4dc:	000cc783          	lbu	a5,0(s9)
    8000f4e0:	aa069ce3          	bnez	a3,8000ef98 <_vfiprintf_r+0x178>
    8000f4e4:	02000693          	li	a3,32
    8000f4e8:	06d103a3          	sb	a3,103(sp)
    8000f4ec:	aadff06f          	j	8000ef98 <_vfiprintf_r+0x178>
    8000f4f0:	010be793          	or	a5,s7,16
    8000f4f4:	0007879b          	sext.w	a5,a5
    8000f4f8:	0207f693          	and	a3,a5,32
    8000f4fc:	008e8613          	add	a2,t4,8
    8000f500:	00069663          	bnez	a3,8000f50c <_vfiprintf_r+0x6ec>
    8000f504:	0107f693          	and	a3,a5,16
    8000f508:	70068663          	beqz	a3,8000fc14 <_vfiprintf_r+0xdf4>
    8000f50c:	000eb683          	ld	a3,0(t4)
    8000f510:	bff7fb93          	and	s7,a5,-1025
    8000f514:	060103a3          	sb	zero,103(sp)
    8000f518:	000b8b9b          	sext.w	s7,s7
    8000f51c:	00060e93          	mv	t4,a2
    8000f520:	0a04c663          	bltz	s1,8000f5cc <_vfiprintf_r+0x7ac>
    8000f524:	b7f7f793          	and	a5,a5,-1153
    8000f528:	0007879b          	sext.w	a5,a5
    8000f52c:	060698e3          	bnez	a3,8000fd9c <_vfiprintf_r+0xf7c>
    8000f530:	000b8893          	mv	a7,s7
    8000f534:	00078b93          	mv	s7,a5
    8000f538:	08049063          	bnez	s1,8000f5b8 <_vfiprintf_r+0x798>
    8000f53c:	6a069e63          	bnez	a3,8000fbf8 <_vfiprintf_r+0xdd8>
    8000f540:	0018f893          	and	a7,a7,1
    8000f544:	6c088263          	beqz	a7,8000fc08 <_vfiprintf_r+0xde8>
    8000f548:	03000793          	li	a5,48
    8000f54c:	0ef105a3          	sb	a5,235(sp)
    8000f550:	00088813          	mv	a6,a7
    8000f554:	0eb10d13          	add	s10,sp,235
    8000f558:	df5ff06f          	j	8000f34c <_vfiprintf_r+0x52c>
    8000f55c:	000cc783          	lbu	a5,0(s9)
    8000f560:	06c00693          	li	a3,108
    8000f564:	06d782e3          	beq	a5,a3,8000fdc8 <_vfiprintf_r+0xfa8>
    8000f568:	010beb93          	or	s7,s7,16
    8000f56c:	000b8b9b          	sext.w	s7,s7
    8000f570:	a29ff06f          	j	8000ef98 <_vfiprintf_r+0x178>
    8000f574:	010be893          	or	a7,s7,16
    8000f578:	0008889b          	sext.w	a7,a7
    8000f57c:	0208f793          	and	a5,a7,32
    8000f580:	008e8313          	add	t1,t4,8
    8000f584:	00079663          	bnez	a5,8000f590 <_vfiprintf_r+0x770>
    8000f588:	0108f793          	and	a5,a7,16
    8000f58c:	6a078063          	beqz	a5,8000fc2c <_vfiprintf_r+0xe0c>
    8000f590:	000eb783          	ld	a5,0(t4)
    8000f594:	060103a3          	sb	zero,103(sp)
    8000f598:	00088b93          	mv	s7,a7
    8000f59c:	d804c2e3          	bltz	s1,8000f320 <_vfiprintf_r+0x500>
    8000f5a0:	f7f8fb93          	and	s7,a7,-129
    8000f5a4:	000b8b9b          	sext.w	s7,s7
    8000f5a8:	d6079ce3          	bnez	a5,8000f320 <_vfiprintf_r+0x500>
    8000f5ac:	00030e93          	mv	t4,t1
    8000f5b0:	00100693          	li	a3,1
    8000f5b4:	f80484e3          	beqz	s1,8000f53c <_vfiprintf_r+0x71c>
    8000f5b8:	00100793          	li	a5,1
    8000f5bc:	14f680e3          	beq	a3,a5,8000fefc <_vfiprintf_r+0x10dc>
    8000f5c0:	00200793          	li	a5,2
    8000f5c4:	06f68ee3          	beq	a3,a5,8000fe40 <_vfiprintf_r+0x1020>
    8000f5c8:	00000693          	li	a3,0
    8000f5cc:	0ec10893          	add	a7,sp,236
    8000f5d0:	00088d13          	mv	s10,a7
    8000f5d4:	0076f793          	and	a5,a3,7
    8000f5d8:	03078793          	add	a5,a5,48
    8000f5dc:	fefd0fa3          	sb	a5,-1(s10)
    8000f5e0:	0036d693          	srl	a3,a3,0x3
    8000f5e4:	000d0613          	mv	a2,s10
    8000f5e8:	fffd0d13          	add	s10,s10,-1
    8000f5ec:	fe0694e3          	bnez	a3,8000f5d4 <_vfiprintf_r+0x7b4>
    8000f5f0:	001bf693          	and	a3,s7,1
    8000f5f4:	36068a63          	beqz	a3,8000f968 <_vfiprintf_r+0xb48>
    8000f5f8:	03000693          	li	a3,48
    8000f5fc:	36d78663          	beq	a5,a3,8000f968 <_vfiprintf_r+0xb48>
    8000f600:	ffe60613          	add	a2,a2,-2
    8000f604:	fedd0fa3          	sb	a3,-1(s10)
    8000f608:	40c888bb          	subw	a7,a7,a2
    8000f60c:	0004881b          	sext.w	a6,s1
    8000f610:	6514c863          	blt	s1,a7,8000fc60 <_vfiprintf_r+0xe40>
    8000f614:	00060d13          	mv	s10,a2
    8000f618:	d35ff06f          	j	8000f34c <_vfiprintf_r+0x52c>
    8000f61c:	000cc783          	lbu	a5,0(s9)
    8000f620:	06800693          	li	a3,104
    8000f624:	78d78863          	beq	a5,a3,8000fdb4 <_vfiprintf_r+0xf94>
    8000f628:	040beb93          	or	s7,s7,64
    8000f62c:	000b8b9b          	sext.w	s7,s7
    8000f630:	969ff06f          	j	8000ef98 <_vfiprintf_r+0x178>
    8000f634:	020beb93          	or	s7,s7,32
    8000f638:	000cc783          	lbu	a5,0(s9)
    8000f63c:	000b8b9b          	sext.w	s7,s7
    8000f640:	959ff06f          	j	8000ef98 <_vfiprintf_r+0x178>
    8000f644:	000087b7          	lui	a5,0x8
    8000f648:	83078793          	add	a5,a5,-2000 # 7830 <__stack_shift+0x7819>
    8000f64c:	002beb93          	or	s7,s7,2
    8000f650:	06f11423          	sh	a5,104(sp)
    8000f654:	0000e797          	auipc	a5,0xe
    8000f658:	eac78793          	add	a5,a5,-340 # 8001d500 <s_box+0x2b8>
    8000f65c:	000eb683          	ld	a3,0(t4)
    8000f660:	000b8b9b          	sext.w	s7,s7
    8000f664:	008e8e93          	add	t4,t4,8
    8000f668:	00f13423          	sd	a5,8(sp)
    8000f66c:	060103a3          	sb	zero,103(sp)
    8000f670:	2c04c863          	bltz	s1,8000f940 <_vfiprintf_r+0xb20>
    8000f674:	f7fbf793          	and	a5,s7,-129
    8000f678:	0007879b          	sext.w	a5,a5
    8000f67c:	2a069c63          	bnez	a3,8000f934 <_vfiprintf_r+0xb14>
    8000f680:	000b8893          	mv	a7,s7
    8000f684:	00200693          	li	a3,2
    8000f688:	00078b93          	mv	s7,a5
    8000f68c:	eadff06f          	j	8000f538 <_vfiprintf_r+0x718>
    8000f690:	020bf793          	and	a5,s7,32
    8000f694:	000eb703          	ld	a4,0(t4)
    8000f698:	02079463          	bnez	a5,8000f6c0 <_vfiprintf_r+0x8a0>
    8000f69c:	010bf793          	and	a5,s7,16
    8000f6a0:	02079063          	bnez	a5,8000f6c0 <_vfiprintf_r+0x8a0>
    8000f6a4:	040bf793          	and	a5,s7,64
    8000f6a8:	00079ce3          	bnez	a5,8000fec0 <_vfiprintf_r+0x10a0>
    8000f6ac:	200bfb93          	and	s7,s7,512
    8000f6b0:	040b8ee3          	beqz	s7,8000ff0c <_vfiprintf_r+0x10ec>
    8000f6b4:	01b70023          	sb	s11,0(a4)
    8000f6b8:	008e8e93          	add	t4,t4,8
    8000f6bc:	85dff06f          	j	8000ef18 <_vfiprintf_r+0xf8>
    8000f6c0:	01b73023          	sd	s11,0(a4)
    8000f6c4:	008e8e93          	add	t4,t4,8
    8000f6c8:	851ff06f          	j	8000ef18 <_vfiprintf_r+0xf8>
    8000f6cc:	410706bb          	subw	a3,a4,a6
    8000f6d0:	9cd05ae3          	blez	a3,8000f0a4 <_vfiprintf_r+0x284>
    8000f6d4:	01000593          	li	a1,16
    8000f6d8:	0000ee17          	auipc	t3,0xe
    8000f6dc:	548e0e13          	add	t3,t3,1352 # 8001dc20 <zeroes.0>
    8000f6e0:	0ad5d463          	bge	a1,a3,8000f788 <_vfiprintf_r+0x968>
    8000f6e4:	00e13823          	sd	a4,16(sp)
    8000f6e8:	00913c23          	sd	s1,24(sp)
    8000f6ec:	00040713          	mv	a4,s0
    8000f6f0:	01000313          	li	t1,16
    8000f6f4:	00700f13          	li	t5,7
    8000f6f8:	03013023          	sd	a6,32(sp)
    8000f6fc:	03113423          	sd	a7,40(sp)
    8000f700:	00068413          	mv	s0,a3
    8000f704:	05d13423          	sd	t4,72(sp)
    8000f708:	000e0493          	mv	s1,t3
    8000f70c:	00c0006f          	j	8000f718 <_vfiprintf_r+0x8f8>
    8000f710:	ff04041b          	addw	s0,s0,-16
    8000f714:	04835a63          	bge	t1,s0,8000f768 <_vfiprintf_r+0x948>
    8000f718:	0016061b          	addw	a2,a2,1
    8000f71c:	01078793          	add	a5,a5,16
    8000f720:	00973023          	sd	s1,0(a4)
    8000f724:	00673423          	sd	t1,8(a4)
    8000f728:	08f13023          	sd	a5,128(sp)
    8000f72c:	06c12c23          	sw	a2,120(sp)
    8000f730:	01070713          	add	a4,a4,16
    8000f734:	fccf5ee3          	bge	t5,a2,8000f710 <_vfiprintf_r+0x8f0>
    8000f738:	07010613          	add	a2,sp,112
    8000f73c:	00098593          	mv	a1,s3
    8000f740:	000a0513          	mv	a0,s4
    8000f744:	a61fa0ef          	jal	8000a1a4 <__sprint_r>
    8000f748:	ae051ce3          	bnez	a0,8000f240 <_vfiprintf_r+0x420>
    8000f74c:	01000313          	li	t1,16
    8000f750:	ff04041b          	addw	s0,s0,-16
    8000f754:	08013783          	ld	a5,128(sp)
    8000f758:	07812603          	lw	a2,120(sp)
    8000f75c:	000a8713          	mv	a4,s5
    8000f760:	00700f13          	li	t5,7
    8000f764:	fa834ae3          	blt	t1,s0,8000f718 <_vfiprintf_r+0x8f8>
    8000f768:	00040693          	mv	a3,s0
    8000f76c:	00048e13          	mv	t3,s1
    8000f770:	00070413          	mv	s0,a4
    8000f774:	02013803          	ld	a6,32(sp)
    8000f778:	02813883          	ld	a7,40(sp)
    8000f77c:	01013703          	ld	a4,16(sp)
    8000f780:	04813e83          	ld	t4,72(sp)
    8000f784:	01813483          	ld	s1,24(sp)
    8000f788:	00d787b3          	add	a5,a5,a3
    8000f78c:	0016061b          	addw	a2,a2,1
    8000f790:	00d43423          	sd	a3,8(s0)
    8000f794:	01c43023          	sd	t3,0(s0)
    8000f798:	08f13023          	sd	a5,128(sp)
    8000f79c:	06c12c23          	sw	a2,120(sp)
    8000f7a0:	00700693          	li	a3,7
    8000f7a4:	01040413          	add	s0,s0,16
    8000f7a8:	8ec6dee3          	bge	a3,a2,8000f0a4 <_vfiprintf_r+0x284>
    8000f7ac:	07010613          	add	a2,sp,112
    8000f7b0:	00098593          	mv	a1,s3
    8000f7b4:	000a0513          	mv	a0,s4
    8000f7b8:	03d13423          	sd	t4,40(sp)
    8000f7bc:	03113023          	sd	a7,32(sp)
    8000f7c0:	01013c23          	sd	a6,24(sp)
    8000f7c4:	00e13823          	sd	a4,16(sp)
    8000f7c8:	9ddfa0ef          	jal	8000a1a4 <__sprint_r>
    8000f7cc:	a6051ae3          	bnez	a0,8000f240 <_vfiprintf_r+0x420>
    8000f7d0:	02013883          	ld	a7,32(sp)
    8000f7d4:	08013783          	ld	a5,128(sp)
    8000f7d8:	07812603          	lw	a2,120(sp)
    8000f7dc:	411484bb          	subw	s1,s1,a7
    8000f7e0:	02813e83          	ld	t4,40(sp)
    8000f7e4:	01813803          	ld	a6,24(sp)
    8000f7e8:	01013703          	ld	a4,16(sp)
    8000f7ec:	000a8413          	mv	s0,s5
    8000f7f0:	8a905ee3          	blez	s1,8000f0ac <_vfiprintf_r+0x28c>
    8000f7f4:	0000ee17          	auipc	t3,0xe
    8000f7f8:	42ce0e13          	add	t3,t3,1068 # 8001dc20 <zeroes.0>
    8000f7fc:	08995c63          	bge	s2,s1,8000f894 <_vfiprintf_r+0xa74>
    8000f800:	00e13823          	sd	a4,16(sp)
    8000f804:	00700313          	li	t1,7
    8000f808:	00040713          	mv	a4,s0
    8000f80c:	01013c23          	sd	a6,24(sp)
    8000f810:	00048413          	mv	s0,s1
    8000f814:	03113023          	sd	a7,32(sp)
    8000f818:	03d13423          	sd	t4,40(sp)
    8000f81c:	000b0493          	mv	s1,s6
    8000f820:	00c0006f          	j	8000f82c <_vfiprintf_r+0xa0c>
    8000f824:	ff04041b          	addw	s0,s0,-16
    8000f828:	04895863          	bge	s2,s0,8000f878 <_vfiprintf_r+0xa58>
    8000f82c:	0016061b          	addw	a2,a2,1
    8000f830:	01078793          	add	a5,a5,16
    8000f834:	01673023          	sd	s6,0(a4)
    8000f838:	01273423          	sd	s2,8(a4)
    8000f83c:	08f13023          	sd	a5,128(sp)
    8000f840:	06c12c23          	sw	a2,120(sp)
    8000f844:	01070713          	add	a4,a4,16
    8000f848:	fcc35ee3          	bge	t1,a2,8000f824 <_vfiprintf_r+0xa04>
    8000f84c:	07010613          	add	a2,sp,112
    8000f850:	00098593          	mv	a1,s3
    8000f854:	000a0513          	mv	a0,s4
    8000f858:	94dfa0ef          	jal	8000a1a4 <__sprint_r>
    8000f85c:	9e0512e3          	bnez	a0,8000f240 <_vfiprintf_r+0x420>
    8000f860:	ff04041b          	addw	s0,s0,-16
    8000f864:	08013783          	ld	a5,128(sp)
    8000f868:	07812603          	lw	a2,120(sp)
    8000f86c:	000a8713          	mv	a4,s5
    8000f870:	00700313          	li	t1,7
    8000f874:	fa894ce3          	blt	s2,s0,8000f82c <_vfiprintf_r+0xa0c>
    8000f878:	00048e13          	mv	t3,s1
    8000f87c:	01813803          	ld	a6,24(sp)
    8000f880:	00040493          	mv	s1,s0
    8000f884:	02013883          	ld	a7,32(sp)
    8000f888:	00070413          	mv	s0,a4
    8000f88c:	02813e83          	ld	t4,40(sp)
    8000f890:	01013703          	ld	a4,16(sp)
    8000f894:	0016061b          	addw	a2,a2,1
    8000f898:	009787b3          	add	a5,a5,s1
    8000f89c:	01c43023          	sd	t3,0(s0)
    8000f8a0:	00943423          	sd	s1,8(s0)
    8000f8a4:	08f13023          	sd	a5,128(sp)
    8000f8a8:	06c12c23          	sw	a2,120(sp)
    8000f8ac:	00700693          	li	a3,7
    8000f8b0:	01040413          	add	s0,s0,16
    8000f8b4:	fec6dc63          	bge	a3,a2,8000f0ac <_vfiprintf_r+0x28c>
    8000f8b8:	07010613          	add	a2,sp,112
    8000f8bc:	00098593          	mv	a1,s3
    8000f8c0:	000a0513          	mv	a0,s4
    8000f8c4:	03d13423          	sd	t4,40(sp)
    8000f8c8:	03113023          	sd	a7,32(sp)
    8000f8cc:	01013c23          	sd	a6,24(sp)
    8000f8d0:	00e13823          	sd	a4,16(sp)
    8000f8d4:	8d1fa0ef          	jal	8000a1a4 <__sprint_r>
    8000f8d8:	960514e3          	bnez	a0,8000f240 <_vfiprintf_r+0x420>
    8000f8dc:	08013783          	ld	a5,128(sp)
    8000f8e0:	07812603          	lw	a2,120(sp)
    8000f8e4:	02813e83          	ld	t4,40(sp)
    8000f8e8:	02013883          	ld	a7,32(sp)
    8000f8ec:	01813803          	ld	a6,24(sp)
    8000f8f0:	01013703          	ld	a4,16(sp)
    8000f8f4:	000a8413          	mv	s0,s5
    8000f8f8:	fb4ff06f          	j	8000f0ac <_vfiprintf_r+0x28c>
    8000f8fc:	07010613          	add	a2,sp,112
    8000f900:	00098593          	mv	a1,s3
    8000f904:	000a0513          	mv	a0,s4
    8000f908:	03d13023          	sd	t4,32(sp)
    8000f90c:	01013c23          	sd	a6,24(sp)
    8000f910:	00e13823          	sd	a4,16(sp)
    8000f914:	891fa0ef          	jal	8000a1a4 <__sprint_r>
    8000f918:	920514e3          	bnez	a0,8000f240 <_vfiprintf_r+0x420>
    8000f91c:	08013783          	ld	a5,128(sp)
    8000f920:	02013e83          	ld	t4,32(sp)
    8000f924:	01813803          	ld	a6,24(sp)
    8000f928:	01013703          	ld	a4,16(sp)
    8000f92c:	000a8413          	mv	s0,s5
    8000f930:	fa0ff06f          	j	8000f0d0 <_vfiprintf_r+0x2b0>
    8000f934:	00078b93          	mv	s7,a5
    8000f938:	00200793          	li	a5,2
    8000f93c:	c80788e3          	beqz	a5,8000f5cc <_vfiprintf_r+0x7ac>
    8000f940:	00813603          	ld	a2,8(sp)
    8000f944:	0ec10893          	add	a7,sp,236
    8000f948:	00088d13          	mv	s10,a7
    8000f94c:	00f6f793          	and	a5,a3,15
    8000f950:	00f607b3          	add	a5,a2,a5
    8000f954:	0007c783          	lbu	a5,0(a5)
    8000f958:	0046d693          	srl	a3,a3,0x4
    8000f95c:	fffd0d13          	add	s10,s10,-1
    8000f960:	00fd0023          	sb	a5,0(s10)
    8000f964:	fe0694e3          	bnez	a3,8000f94c <_vfiprintf_r+0xb2c>
    8000f968:	41a888bb          	subw	a7,a7,s10
    8000f96c:	0004881b          	sext.w	a6,s1
    8000f970:	9d14dee3          	bge	s1,a7,8000f34c <_vfiprintf_r+0x52c>
    8000f974:	0008881b          	sext.w	a6,a7
    8000f978:	9d5ff06f          	j	8000f34c <_vfiprintf_r+0x52c>
    8000f97c:	01000593          	li	a1,16
    8000f980:	0000e317          	auipc	t1,0xe
    8000f984:	2b030313          	add	t1,t1,688 # 8001dc30 <blanks.1>
    8000f988:	0ad5dc63          	bge	a1,a3,8000fa40 <_vfiprintf_r+0xc20>
    8000f98c:	02e13023          	sd	a4,32(sp)
    8000f990:	02913423          	sd	s1,40(sp)
    8000f994:	00040713          	mv	a4,s0
    8000f998:	01000e13          	li	t3,16
    8000f99c:	00700393          	li	t2,7
    8000f9a0:	01e13823          	sd	t5,16(sp)
    8000f9a4:	01f13c23          	sd	t6,24(sp)
    8000f9a8:	05013423          	sd	a6,72(sp)
    8000f9ac:	05113823          	sd	a7,80(sp)
    8000f9b0:	00068413          	mv	s0,a3
    8000f9b4:	05d13c23          	sd	t4,88(sp)
    8000f9b8:	00030493          	mv	s1,t1
    8000f9bc:	00c0006f          	j	8000f9c8 <_vfiprintf_r+0xba8>
    8000f9c0:	ff04041b          	addw	s0,s0,-16
    8000f9c4:	048e5a63          	bge	t3,s0,8000fa18 <_vfiprintf_r+0xbf8>
    8000f9c8:	0016061b          	addw	a2,a2,1
    8000f9cc:	01078793          	add	a5,a5,16
    8000f9d0:	00973023          	sd	s1,0(a4)
    8000f9d4:	01c73423          	sd	t3,8(a4)
    8000f9d8:	08f13023          	sd	a5,128(sp)
    8000f9dc:	06c12c23          	sw	a2,120(sp)
    8000f9e0:	01070713          	add	a4,a4,16
    8000f9e4:	fcc3dee3          	bge	t2,a2,8000f9c0 <_vfiprintf_r+0xba0>
    8000f9e8:	07010613          	add	a2,sp,112
    8000f9ec:	00098593          	mv	a1,s3
    8000f9f0:	000a0513          	mv	a0,s4
    8000f9f4:	fb0fa0ef          	jal	8000a1a4 <__sprint_r>
    8000f9f8:	840514e3          	bnez	a0,8000f240 <_vfiprintf_r+0x420>
    8000f9fc:	01000e13          	li	t3,16
    8000fa00:	ff04041b          	addw	s0,s0,-16
    8000fa04:	08013783          	ld	a5,128(sp)
    8000fa08:	07812603          	lw	a2,120(sp)
    8000fa0c:	000a8713          	mv	a4,s5
    8000fa10:	00700393          	li	t2,7
    8000fa14:	fa8e4ae3          	blt	t3,s0,8000f9c8 <_vfiprintf_r+0xba8>
    8000fa18:	00040693          	mv	a3,s0
    8000fa1c:	00048313          	mv	t1,s1
    8000fa20:	00070413          	mv	s0,a4
    8000fa24:	01013f03          	ld	t5,16(sp)
    8000fa28:	01813f83          	ld	t6,24(sp)
    8000fa2c:	04813803          	ld	a6,72(sp)
    8000fa30:	05013883          	ld	a7,80(sp)
    8000fa34:	02013703          	ld	a4,32(sp)
    8000fa38:	05813e83          	ld	t4,88(sp)
    8000fa3c:	02813483          	ld	s1,40(sp)
    8000fa40:	00d787b3          	add	a5,a5,a3
    8000fa44:	0016061b          	addw	a2,a2,1
    8000fa48:	00d43423          	sd	a3,8(s0)
    8000fa4c:	00643023          	sd	t1,0(s0)
    8000fa50:	08f13023          	sd	a5,128(sp)
    8000fa54:	06c12c23          	sw	a2,120(sp)
    8000fa58:	00700693          	li	a3,7
    8000fa5c:	01040413          	add	s0,s0,16
    8000fa60:	dcc6dc63          	bge	a3,a2,8000f038 <_vfiprintf_r+0x218>
    8000fa64:	07010613          	add	a2,sp,112
    8000fa68:	00098593          	mv	a1,s3
    8000fa6c:	000a0513          	mv	a0,s4
    8000fa70:	05d13823          	sd	t4,80(sp)
    8000fa74:	05113423          	sd	a7,72(sp)
    8000fa78:	03013423          	sd	a6,40(sp)
    8000fa7c:	02e13023          	sd	a4,32(sp)
    8000fa80:	01f13c23          	sd	t6,24(sp)
    8000fa84:	01e13823          	sd	t5,16(sp)
    8000fa88:	f1cfa0ef          	jal	8000a1a4 <__sprint_r>
    8000fa8c:	fa051a63          	bnez	a0,8000f240 <_vfiprintf_r+0x420>
    8000fa90:	08013783          	ld	a5,128(sp)
    8000fa94:	07812603          	lw	a2,120(sp)
    8000fa98:	05013e83          	ld	t4,80(sp)
    8000fa9c:	04813883          	ld	a7,72(sp)
    8000faa0:	02813803          	ld	a6,40(sp)
    8000faa4:	02013703          	ld	a4,32(sp)
    8000faa8:	01813f83          	ld	t6,24(sp)
    8000faac:	01013f03          	ld	t5,16(sp)
    8000fab0:	000a8413          	mv	s0,s5
    8000fab4:	d84ff06f          	j	8000f038 <_vfiprintf_r+0x218>
    8000fab8:	07010613          	add	a2,sp,112
    8000fabc:	00098593          	mv	a1,s3
    8000fac0:	000a0513          	mv	a0,s4
    8000fac4:	05d13423          	sd	t4,72(sp)
    8000fac8:	03113423          	sd	a7,40(sp)
    8000facc:	03013023          	sd	a6,32(sp)
    8000fad0:	00e13c23          	sd	a4,24(sp)
    8000fad4:	01f13823          	sd	t6,16(sp)
    8000fad8:	eccfa0ef          	jal	8000a1a4 <__sprint_r>
    8000fadc:	f6051263          	bnez	a0,8000f240 <_vfiprintf_r+0x420>
    8000fae0:	08013783          	ld	a5,128(sp)
    8000fae4:	07812603          	lw	a2,120(sp)
    8000fae8:	04813e83          	ld	t4,72(sp)
    8000faec:	02813883          	ld	a7,40(sp)
    8000faf0:	02013803          	ld	a6,32(sp)
    8000faf4:	01813703          	ld	a4,24(sp)
    8000faf8:	01013f83          	ld	t6,16(sp)
    8000fafc:	000a8413          	mv	s0,s5
    8000fb00:	d9cff06f          	j	8000f09c <_vfiprintf_r+0x27c>
    8000fb04:	01000613          	li	a2,16
    8000fb08:	07812683          	lw	a3,120(sp)
    8000fb0c:	0000e317          	auipc	t1,0xe
    8000fb10:	12430313          	add	t1,t1,292 # 8001dc30 <blanks.1>
    8000fb14:	08965863          	bge	a2,s1,8000fba4 <_vfiprintf_r+0xd84>
    8000fb18:	00e13823          	sd	a4,16(sp)
    8000fb1c:	01000b93          	li	s7,16
    8000fb20:	00040713          	mv	a4,s0
    8000fb24:	00700d13          	li	s10,7
    8000fb28:	00048413          	mv	s0,s1
    8000fb2c:	01013c23          	sd	a6,24(sp)
    8000fb30:	03d13023          	sd	t4,32(sp)
    8000fb34:	00030493          	mv	s1,t1
    8000fb38:	00c0006f          	j	8000fb44 <_vfiprintf_r+0xd24>
    8000fb3c:	ff04041b          	addw	s0,s0,-16
    8000fb40:	048bd663          	bge	s7,s0,8000fb8c <_vfiprintf_r+0xd6c>
    8000fb44:	0016869b          	addw	a3,a3,1
    8000fb48:	01078793          	add	a5,a5,16
    8000fb4c:	00973023          	sd	s1,0(a4)
    8000fb50:	01773423          	sd	s7,8(a4)
    8000fb54:	08f13023          	sd	a5,128(sp)
    8000fb58:	06d12c23          	sw	a3,120(sp)
    8000fb5c:	01070713          	add	a4,a4,16
    8000fb60:	fcdd5ee3          	bge	s10,a3,8000fb3c <_vfiprintf_r+0xd1c>
    8000fb64:	07010613          	add	a2,sp,112
    8000fb68:	00098593          	mv	a1,s3
    8000fb6c:	000a0513          	mv	a0,s4
    8000fb70:	e34fa0ef          	jal	8000a1a4 <__sprint_r>
    8000fb74:	ec051663          	bnez	a0,8000f240 <_vfiprintf_r+0x420>
    8000fb78:	ff04041b          	addw	s0,s0,-16
    8000fb7c:	08013783          	ld	a5,128(sp)
    8000fb80:	07812683          	lw	a3,120(sp)
    8000fb84:	000a8713          	mv	a4,s5
    8000fb88:	fa8bcee3          	blt	s7,s0,8000fb44 <_vfiprintf_r+0xd24>
    8000fb8c:	00048313          	mv	t1,s1
    8000fb90:	01813803          	ld	a6,24(sp)
    8000fb94:	00040493          	mv	s1,s0
    8000fb98:	02013e83          	ld	t4,32(sp)
    8000fb9c:	00070413          	mv	s0,a4
    8000fba0:	01013703          	ld	a4,16(sp)
    8000fba4:	0016861b          	addw	a2,a3,1
    8000fba8:	009787b3          	add	a5,a5,s1
    8000fbac:	00643023          	sd	t1,0(s0)
    8000fbb0:	00943423          	sd	s1,8(s0)
    8000fbb4:	08f13023          	sd	a5,128(sp)
    8000fbb8:	06c12c23          	sw	a2,120(sp)
    8000fbbc:	00700693          	li	a3,7
    8000fbc0:	d2c6d063          	bge	a3,a2,8000f0e0 <_vfiprintf_r+0x2c0>
    8000fbc4:	07010613          	add	a2,sp,112
    8000fbc8:	00098593          	mv	a1,s3
    8000fbcc:	000a0513          	mv	a0,s4
    8000fbd0:	03d13023          	sd	t4,32(sp)
    8000fbd4:	01013c23          	sd	a6,24(sp)
    8000fbd8:	00e13823          	sd	a4,16(sp)
    8000fbdc:	dc8fa0ef          	jal	8000a1a4 <__sprint_r>
    8000fbe0:	e6051063          	bnez	a0,8000f240 <_vfiprintf_r+0x420>
    8000fbe4:	08013783          	ld	a5,128(sp)
    8000fbe8:	02013e83          	ld	t4,32(sp)
    8000fbec:	01813803          	ld	a6,24(sp)
    8000fbf0:	01013703          	ld	a4,16(sp)
    8000fbf4:	cecff06f          	j	8000f0e0 <_vfiprintf_r+0x2c0>
    8000fbf8:	00000813          	li	a6,0
    8000fbfc:	00000893          	li	a7,0
    8000fc00:	0ec10d13          	add	s10,sp,236
    8000fc04:	f48ff06f          	j	8000f34c <_vfiprintf_r+0x52c>
    8000fc08:	00000813          	li	a6,0
    8000fc0c:	0ec10d13          	add	s10,sp,236
    8000fc10:	f3cff06f          	j	8000f34c <_vfiprintf_r+0x52c>
    8000fc14:	0407f593          	and	a1,a5,64
    8000fc18:	000ea683          	lw	a3,0(t4)
    8000fc1c:	1c058e63          	beqz	a1,8000fdf8 <_vfiprintf_r+0xfd8>
    8000fc20:	03069693          	sll	a3,a3,0x30
    8000fc24:	0306d693          	srl	a3,a3,0x30
    8000fc28:	8e9ff06f          	j	8000f510 <_vfiprintf_r+0x6f0>
    8000fc2c:	0408f693          	and	a3,a7,64
    8000fc30:	000ea783          	lw	a5,0(t4)
    8000fc34:	1e068e63          	beqz	a3,8000fe30 <_vfiprintf_r+0x1010>
    8000fc38:	03079793          	sll	a5,a5,0x30
    8000fc3c:	0307d793          	srl	a5,a5,0x30
    8000fc40:	955ff06f          	j	8000f594 <_vfiprintf_r+0x774>
    8000fc44:	000cc783          	lbu	a5,0(s9)
    8000fc48:	b4068863          	beqz	a3,8000ef98 <_vfiprintf_r+0x178>
    8000fc4c:	0006c683          	lbu	a3,0(a3)
    8000fc50:	b4068463          	beqz	a3,8000ef98 <_vfiprintf_r+0x178>
    8000fc54:	400beb93          	or	s7,s7,1024
    8000fc58:	000b8b9b          	sext.w	s7,s7
    8000fc5c:	b3cff06f          	j	8000ef98 <_vfiprintf_r+0x178>
    8000fc60:	0008881b          	sext.w	a6,a7
    8000fc64:	00060d13          	mv	s10,a2
    8000fc68:	ee4ff06f          	j	8000f34c <_vfiprintf_r+0x52c>
    8000fc6c:	fff00493          	li	s1,-1
    8000fc70:	00060c93          	mv	s9,a2
    8000fc74:	b2cff06f          	j	8000efa0 <_vfiprintf_r+0x180>
    8000fc78:	0000e697          	auipc	a3,0xe
    8000fc7c:	8a068693          	add	a3,a3,-1888 # 8001d518 <s_box+0x2d0>
    8000fc80:	00d13423          	sd	a3,8(sp)
    8000fc84:	020bf693          	and	a3,s7,32
    8000fc88:	008e8613          	add	a2,t4,8
    8000fc8c:	06069c63          	bnez	a3,8000fd04 <_vfiprintf_r+0xee4>
    8000fc90:	010bf693          	and	a3,s7,16
    8000fc94:	06069863          	bnez	a3,8000fd04 <_vfiprintf_r+0xee4>
    8000fc98:	040bf593          	and	a1,s7,64
    8000fc9c:	000ea683          	lw	a3,0(t4)
    8000fca0:	18058063          	beqz	a1,8000fe20 <_vfiprintf_r+0x1000>
    8000fca4:	03069693          	sll	a3,a3,0x30
    8000fca8:	0306d693          	srl	a3,a3,0x30
    8000fcac:	001bf593          	and	a1,s7,1
    8000fcb0:	00058e63          	beqz	a1,8000fccc <_vfiprintf_r+0xeac>
    8000fcb4:	00068c63          	beqz	a3,8000fccc <_vfiprintf_r+0xeac>
    8000fcb8:	002beb93          	or	s7,s7,2
    8000fcbc:	03000593          	li	a1,48
    8000fcc0:	06b10423          	sb	a1,104(sp)
    8000fcc4:	06f104a3          	sb	a5,105(sp)
    8000fcc8:	000b8b9b          	sext.w	s7,s7
    8000fccc:	bffbfb93          	and	s7,s7,-1025
    8000fcd0:	000b8b9b          	sext.w	s7,s7
    8000fcd4:	00060e93          	mv	t4,a2
    8000fcd8:	995ff06f          	j	8000f66c <_vfiprintf_r+0x84c>
    8000fcdc:	000b8893          	mv	a7,s7
    8000fce0:	89dff06f          	j	8000f57c <_vfiprintf_r+0x75c>
    8000fce4:	000b8793          	mv	a5,s7
    8000fce8:	811ff06f          	j	8000f4f8 <_vfiprintf_r+0x6d8>
    8000fcec:	0000e697          	auipc	a3,0xe
    8000fcf0:	81468693          	add	a3,a3,-2028 # 8001d500 <s_box+0x2b8>
    8000fcf4:	00d13423          	sd	a3,8(sp)
    8000fcf8:	020bf693          	and	a3,s7,32
    8000fcfc:	008e8613          	add	a2,t4,8
    8000fd00:	f80688e3          	beqz	a3,8000fc90 <_vfiprintf_r+0xe70>
    8000fd04:	000eb683          	ld	a3,0(t4)
    8000fd08:	fa5ff06f          	j	8000fcac <_vfiprintf_r+0xe8c>
    8000fd0c:	000d0513          	mv	a0,s10
    8000fd10:	eb9f60ef          	jal	80006bc8 <strlen>
    8000fd14:	01013703          	ld	a4,16(sp)
    8000fd18:	01813e83          	ld	t4,24(sp)
    8000fd1c:	0005089b          	sext.w	a7,a0
    8000fd20:	e78ff06f          	j	8000f398 <_vfiprintf_r+0x578>
    8000fd24:	0ec10893          	add	a7,sp,236
    8000fd28:	03813f83          	ld	t6,56(sp)
    8000fd2c:	400bfe93          	and	t4,s7,1024
    8000fd30:	00000593          	li	a1,0
    8000fd34:	00088613          	mv	a2,a7
    8000fd38:	00a00813          	li	a6,10
    8000fd3c:	00900e13          	li	t3,9
    8000fd40:	0ff00f13          	li	t5,255
    8000fd44:	0140006f          	j	8000fd58 <_vfiprintf_r+0xf38>
    8000fd48:	0307d6b3          	divu	a3,a5,a6
    8000fd4c:	02fe7a63          	bgeu	t3,a5,8000fd80 <_vfiprintf_r+0xf60>
    8000fd50:	00068793          	mv	a5,a3
    8000fd54:	000d0613          	mv	a2,s10
    8000fd58:	fff60d13          	add	s10,a2,-1
    8000fd5c:	0015859b          	addw	a1,a1,1 # 2001 <__stack_shift+0x1fea>
    8000fd60:	0307f6b3          	remu	a3,a5,a6
    8000fd64:	0306869b          	addw	a3,a3,48
    8000fd68:	fed60fa3          	sb	a3,-1(a2)
    8000fd6c:	fc0e8ee3          	beqz	t4,8000fd48 <_vfiprintf_r+0xf28>
    8000fd70:	000fc683          	lbu	a3,0(t6)
    8000fd74:	fcb69ae3          	bne	a3,a1,8000fd48 <_vfiprintf_r+0xf28>
    8000fd78:	fde688e3          	beq	a3,t5,8000fd48 <_vfiprintf_r+0xf28>
    8000fd7c:	0cfe6663          	bltu	t3,a5,8000fe48 <_vfiprintf_r+0x1028>
    8000fd80:	03f13c23          	sd	t6,56(sp)
    8000fd84:	41a888bb          	subw	a7,a7,s10
    8000fd88:	0004881b          	sext.w	a6,s1
    8000fd8c:	0114d463          	bge	s1,a7,8000fd94 <_vfiprintf_r+0xf74>
    8000fd90:	0008881b          	sext.w	a6,a7
    8000fd94:	00030e93          	mv	t4,t1
    8000fd98:	db4ff06f          	j	8000f34c <_vfiprintf_r+0x52c>
    8000fd9c:	00078b93          	mv	s7,a5
    8000fda0:	00000793          	li	a5,0
    8000fda4:	820784e3          	beqz	a5,8000f5cc <_vfiprintf_r+0x7ac>
    8000fda8:	b99ff06f          	j	8000f940 <_vfiprintf_r+0xb20>
    8000fdac:	ef0f50ef          	jal	8000549c <__sinit>
    8000fdb0:	8a8ff06f          	j	8000ee58 <_vfiprintf_r+0x38>
    8000fdb4:	200beb93          	or	s7,s7,512
    8000fdb8:	001cc783          	lbu	a5,1(s9)
    8000fdbc:	000b8b9b          	sext.w	s7,s7
    8000fdc0:	001c8c93          	add	s9,s9,1
    8000fdc4:	9d4ff06f          	j	8000ef98 <_vfiprintf_r+0x178>
    8000fdc8:	020beb93          	or	s7,s7,32
    8000fdcc:	001cc783          	lbu	a5,1(s9)
    8000fdd0:	000b8b9b          	sext.w	s7,s7
    8000fdd4:	001c8c93          	add	s9,s9,1
    8000fdd8:	9c0ff06f          	j	8000ef98 <_vfiprintf_r+0x178>
    8000fddc:	00600793          	li	a5,6
    8000fde0:	0004889b          	sext.w	a7,s1
    8000fde4:	0c97ea63          	bltu	a5,s1,8000feb8 <_vfiprintf_r+0x1098>
    8000fde8:	00088813          	mv	a6,a7
    8000fdec:	0000dd17          	auipc	s10,0xd
    8000fdf0:	744d0d13          	add	s10,s10,1860 # 8001d530 <s_box+0x2e8>
    8000fdf4:	a24ff06f          	j	8000f018 <_vfiprintf_r+0x1f8>
    8000fdf8:	2007f593          	and	a1,a5,512
    8000fdfc:	0c058e63          	beqz	a1,8000fed8 <_vfiprintf_r+0x10b8>
    8000fe00:	0ff6f693          	zext.b	a3,a3
    8000fe04:	f0cff06f          	j	8000f510 <_vfiprintf_r+0x6f0>
    8000fe08:	200bf693          	and	a3,s7,512
    8000fe0c:	0e068263          	beqz	a3,8000fef0 <_vfiprintf_r+0x10d0>
    8000fe10:	0187979b          	sllw	a5,a5,0x18
    8000fe14:	4187d79b          	sraw	a5,a5,0x18
    8000fe18:	00078693          	mv	a3,a5
    8000fe1c:	b34ff06f          	j	8000f150 <_vfiprintf_r+0x330>
    8000fe20:	200bf593          	and	a1,s7,512
    8000fe24:	0c058063          	beqz	a1,8000fee4 <_vfiprintf_r+0x10c4>
    8000fe28:	0ff6f693          	zext.b	a3,a3
    8000fe2c:	e81ff06f          	j	8000fcac <_vfiprintf_r+0xe8c>
    8000fe30:	2008f693          	and	a3,a7,512
    8000fe34:	08068c63          	beqz	a3,8000fecc <_vfiprintf_r+0x10ac>
    8000fe38:	0ff7f793          	zext.b	a5,a5
    8000fe3c:	f58ff06f          	j	8000f594 <_vfiprintf_r+0x774>
    8000fe40:	00000693          	li	a3,0
    8000fe44:	afdff06f          	j	8000f940 <_vfiprintf_r+0xb20>
    8000fe48:	02f13423          	sd	a5,40(sp)
    8000fe4c:	03013783          	ld	a5,48(sp)
    8000fe50:	04013583          	ld	a1,64(sp)
    8000fe54:	05113423          	sd	a7,72(sp)
    8000fe58:	40fd0d33          	sub	s10,s10,a5
    8000fe5c:	00078613          	mv	a2,a5
    8000fe60:	000d0513          	mv	a0,s10
    8000fe64:	02613c23          	sd	t1,56(sp)
    8000fe68:	03d13023          	sd	t4,32(sp)
    8000fe6c:	00e13c23          	sd	a4,24(sp)
    8000fe70:	01f13823          	sd	t6,16(sp)
    8000fe74:	dd1fa0ef          	jal	8000ac44 <strncpy>
    8000fe78:	01013f83          	ld	t6,16(sp)
    8000fe7c:	02813783          	ld	a5,40(sp)
    8000fe80:	00a00693          	li	a3,10
    8000fe84:	001fc603          	lbu	a2,1(t6)
    8000fe88:	02d7d6b3          	divu	a3,a5,a3
    8000fe8c:	01813703          	ld	a4,24(sp)
    8000fe90:	00c037b3          	snez	a5,a2
    8000fe94:	02013e83          	ld	t4,32(sp)
    8000fe98:	03813303          	ld	t1,56(sp)
    8000fe9c:	04813883          	ld	a7,72(sp)
    8000fea0:	00ff8fb3          	add	t6,t6,a5
    8000fea4:	00000593          	li	a1,0
    8000fea8:	00a00813          	li	a6,10
    8000feac:	00900e13          	li	t3,9
    8000feb0:	0ff00f13          	li	t5,255
    8000feb4:	e9dff06f          	j	8000fd50 <_vfiprintf_r+0xf30>
    8000feb8:	00600893          	li	a7,6
    8000febc:	f2dff06f          	j	8000fde8 <_vfiprintf_r+0xfc8>
    8000fec0:	01b71023          	sh	s11,0(a4)
    8000fec4:	008e8e93          	add	t4,t4,8
    8000fec8:	850ff06f          	j	8000ef18 <_vfiprintf_r+0xf8>
    8000fecc:	02079793          	sll	a5,a5,0x20
    8000fed0:	0207d793          	srl	a5,a5,0x20
    8000fed4:	ec0ff06f          	j	8000f594 <_vfiprintf_r+0x774>
    8000fed8:	02069693          	sll	a3,a3,0x20
    8000fedc:	0206d693          	srl	a3,a3,0x20
    8000fee0:	e30ff06f          	j	8000f510 <_vfiprintf_r+0x6f0>
    8000fee4:	02069693          	sll	a3,a3,0x20
    8000fee8:	0206d693          	srl	a3,a3,0x20
    8000feec:	dc1ff06f          	j	8000fcac <_vfiprintf_r+0xe8c>
    8000fef0:	00078693          	mv	a3,a5
    8000fef4:	a5cff06f          	j	8000f150 <_vfiprintf_r+0x330>
    8000fef8:	00030e93          	mv	t4,t1
    8000fefc:	03000793          	li	a5,48
    8000ff00:	c34ff06f          	j	8000f334 <_vfiprintf_r+0x514>
    8000ff04:	fff00c93          	li	s9,-1
    8000ff08:	b64ff06f          	j	8000f26c <_vfiprintf_r+0x44c>
    8000ff0c:	01b72023          	sw	s11,0(a4)
    8000ff10:	008e8e93          	add	t4,t4,8
    8000ff14:	804ff06f          	j	8000ef18 <_vfiprintf_r+0xf8>
    8000ff18:	000ea783          	lw	a5,0(t4)
    8000ff1c:	008e8e93          	add	t4,t4,8
    8000ff20:	0007849b          	sext.w	s1,a5
    8000ff24:	0007d463          	bgez	a5,8000ff2c <_vfiprintf_r+0x110c>
    8000ff28:	fff00493          	li	s1,-1
    8000ff2c:	001cc783          	lbu	a5,1(s9)
    8000ff30:	00060c93          	mv	s9,a2
    8000ff34:	864ff06f          	j	8000ef98 <_vfiprintf_r+0x178>

000000008000ff38 <vfiprintf>:
    8000ff38:	00060693          	mv	a3,a2
    8000ff3c:	00058613          	mv	a2,a1
    8000ff40:	00050593          	mv	a1,a0
    8000ff44:	8101b503          	ld	a0,-2032(gp) # 8001e908 <_impure_ptr>
    8000ff48:	ed9fe06f          	j	8000ee20 <_vfiprintf_r>

000000008000ff4c <__sbprintf>:
    8000ff4c:	b3010113          	add	sp,sp,-1232
    8000ff50:	0125d703          	lhu	a4,18(a1)
    8000ff54:	0105d783          	lhu	a5,16(a1)
    8000ff58:	4c813023          	sd	s0,1216(sp)
    8000ff5c:	00058413          	mv	s0,a1
    8000ff60:	000105b7          	lui	a1,0x10
    8000ff64:	ffd5859b          	addw	a1,a1,-3 # fffd <__stack_shift+0xffe6>
    8000ff68:	0ac42e03          	lw	t3,172(s0)
    8000ff6c:	03043303          	ld	t1,48(s0)
    8000ff70:	04043883          	ld	a7,64(s0)
    8000ff74:	0107171b          	sllw	a4,a4,0x10
    8000ff78:	00b7f7b3          	and	a5,a5,a1
    8000ff7c:	00e7e7b3          	or	a5,a5,a4
    8000ff80:	40000813          	li	a6,1024
    8000ff84:	00f12823          	sw	a5,16(sp)
    8000ff88:	00010593          	mv	a1,sp
    8000ff8c:	0b010793          	add	a5,sp,176
    8000ff90:	4a913c23          	sd	s1,1208(sp)
    8000ff94:	4b213823          	sd	s2,1200(sp)
    8000ff98:	4c113423          	sd	ra,1224(sp)
    8000ff9c:	00050913          	mv	s2,a0
    8000ffa0:	0bc12623          	sw	t3,172(sp)
    8000ffa4:	02613823          	sd	t1,48(sp)
    8000ffa8:	05113023          	sd	a7,64(sp)
    8000ffac:	00f13023          	sd	a5,0(sp)
    8000ffb0:	00f13c23          	sd	a5,24(sp)
    8000ffb4:	01012623          	sw	a6,12(sp)
    8000ffb8:	03012023          	sw	a6,32(sp)
    8000ffbc:	02012423          	sw	zero,40(sp)
    8000ffc0:	e61fe0ef          	jal	8000ee20 <_vfiprintf_r>
    8000ffc4:	00050493          	mv	s1,a0
    8000ffc8:	02055c63          	bgez	a0,80010000 <__sbprintf+0xb4>
    8000ffcc:	01015783          	lhu	a5,16(sp)
    8000ffd0:	0407f793          	and	a5,a5,64
    8000ffd4:	00078863          	beqz	a5,8000ffe4 <__sbprintf+0x98>
    8000ffd8:	01045783          	lhu	a5,16(s0)
    8000ffdc:	0407e793          	or	a5,a5,64
    8000ffe0:	00f41823          	sh	a5,16(s0)
    8000ffe4:	4c813083          	ld	ra,1224(sp)
    8000ffe8:	4c013403          	ld	s0,1216(sp)
    8000ffec:	4b013903          	ld	s2,1200(sp)
    8000fff0:	00048513          	mv	a0,s1
    8000fff4:	4b813483          	ld	s1,1208(sp)
    8000fff8:	4d010113          	add	sp,sp,1232
    8000fffc:	00008067          	ret
    80010000:	00010593          	mv	a1,sp
    80010004:	00090513          	mv	a0,s2
    80010008:	838f50ef          	jal	80005040 <_fflush_r>
    8001000c:	fc0500e3          	beqz	a0,8000ffcc <__sbprintf+0x80>
    80010010:	fff00493          	li	s1,-1
    80010014:	fb9ff06f          	j	8000ffcc <__sbprintf+0x80>

0000000080010018 <__errno>:
    80010018:	8101b503          	ld	a0,-2032(gp) # 8001e908 <_impure_ptr>
    8001001c:	00008067          	ret

0000000080010020 <abort>:
    80010020:	ff010113          	add	sp,sp,-16
    80010024:	00600513          	li	a0,6
    80010028:	00113423          	sd	ra,8(sp)
    8001002c:	2a8000ef          	jal	800102d4 <raise>
    80010030:	00100513          	li	a0,1
    80010034:	5c8000ef          	jal	800105fc <_exit>

0000000080010038 <_init_signal_r>:
    80010038:	15053783          	ld	a5,336(a0)
    8001003c:	00078663          	beqz	a5,80010048 <_init_signal_r+0x10>
    80010040:	00000513          	li	a0,0
    80010044:	00008067          	ret
    80010048:	ff010113          	add	sp,sp,-16
    8001004c:	10000593          	li	a1,256
    80010050:	00813023          	sd	s0,0(sp)
    80010054:	00113423          	sd	ra,8(sp)
    80010058:	00050413          	mv	s0,a0
    8001005c:	8a4f70ef          	jal	80007100 <_malloc_r>
    80010060:	14a43823          	sd	a0,336(s0)
    80010064:	02050463          	beqz	a0,8001008c <_init_signal_r+0x54>
    80010068:	10050793          	add	a5,a0,256
    8001006c:	00053023          	sd	zero,0(a0)
    80010070:	00850513          	add	a0,a0,8
    80010074:	fef51ce3          	bne	a0,a5,8001006c <_init_signal_r+0x34>
    80010078:	00000513          	li	a0,0
    8001007c:	00813083          	ld	ra,8(sp)
    80010080:	00013403          	ld	s0,0(sp)
    80010084:	01010113          	add	sp,sp,16
    80010088:	00008067          	ret
    8001008c:	fff00513          	li	a0,-1
    80010090:	fedff06f          	j	8001007c <_init_signal_r+0x44>

0000000080010094 <_signal_r>:
    80010094:	fd010113          	add	sp,sp,-48
    80010098:	00913c23          	sd	s1,24(sp)
    8001009c:	02113423          	sd	ra,40(sp)
    800100a0:	01f00793          	li	a5,31
    800100a4:	00050493          	mv	s1,a0
    800100a8:	02b7ec63          	bltu	a5,a1,800100e0 <_signal_r+0x4c>
    800100ac:	15053783          	ld	a5,336(a0)
    800100b0:	02813023          	sd	s0,32(sp)
    800100b4:	00058413          	mv	s0,a1
    800100b8:	02078c63          	beqz	a5,800100f0 <_signal_r+0x5c>
    800100bc:	00341413          	sll	s0,s0,0x3
    800100c0:	008787b3          	add	a5,a5,s0
    800100c4:	02013403          	ld	s0,32(sp)
    800100c8:	0007b503          	ld	a0,0(a5)
    800100cc:	00c7b023          	sd	a2,0(a5)
    800100d0:	02813083          	ld	ra,40(sp)
    800100d4:	01813483          	ld	s1,24(sp)
    800100d8:	03010113          	add	sp,sp,48
    800100dc:	00008067          	ret
    800100e0:	01600793          	li	a5,22
    800100e4:	00f52023          	sw	a5,0(a0)
    800100e8:	fff00513          	li	a0,-1
    800100ec:	fe5ff06f          	j	800100d0 <_signal_r+0x3c>
    800100f0:	10000593          	li	a1,256
    800100f4:	00c13423          	sd	a2,8(sp)
    800100f8:	808f70ef          	jal	80007100 <_malloc_r>
    800100fc:	14a4b823          	sd	a0,336(s1)
    80010100:	00813603          	ld	a2,8(sp)
    80010104:	00050793          	mv	a5,a0
    80010108:	00050713          	mv	a4,a0
    8001010c:	10050693          	add	a3,a0,256
    80010110:	00050a63          	beqz	a0,80010124 <_signal_r+0x90>
    80010114:	00073023          	sd	zero,0(a4)
    80010118:	00870713          	add	a4,a4,8
    8001011c:	fed71ce3          	bne	a4,a3,80010114 <_signal_r+0x80>
    80010120:	f9dff06f          	j	800100bc <_signal_r+0x28>
    80010124:	02013403          	ld	s0,32(sp)
    80010128:	fff00513          	li	a0,-1
    8001012c:	fa5ff06f          	j	800100d0 <_signal_r+0x3c>

0000000080010130 <_raise_r>:
    80010130:	fe010113          	add	sp,sp,-32
    80010134:	00913423          	sd	s1,8(sp)
    80010138:	00113c23          	sd	ra,24(sp)
    8001013c:	01f00793          	li	a5,31
    80010140:	00050493          	mv	s1,a0
    80010144:	0ab7e063          	bltu	a5,a1,800101e4 <_raise_r+0xb4>
    80010148:	15053783          	ld	a5,336(a0)
    8001014c:	00813823          	sd	s0,16(sp)
    80010150:	00058413          	mv	s0,a1
    80010154:	04078463          	beqz	a5,8001019c <_raise_r+0x6c>
    80010158:	00359713          	sll	a4,a1,0x3
    8001015c:	00e787b3          	add	a5,a5,a4
    80010160:	0007b703          	ld	a4,0(a5)
    80010164:	02070c63          	beqz	a4,8001019c <_raise_r+0x6c>
    80010168:	00100693          	li	a3,1
    8001016c:	00d70c63          	beq	a4,a3,80010184 <_raise_r+0x54>
    80010170:	fff00693          	li	a3,-1
    80010174:	04d70863          	beq	a4,a3,800101c4 <_raise_r+0x94>
    80010178:	0007b023          	sd	zero,0(a5)
    8001017c:	00058513          	mv	a0,a1
    80010180:	000700e7          	jalr	a4
    80010184:	01013403          	ld	s0,16(sp)
    80010188:	00000513          	li	a0,0
    8001018c:	01813083          	ld	ra,24(sp)
    80010190:	00813483          	ld	s1,8(sp)
    80010194:	02010113          	add	sp,sp,32
    80010198:	00008067          	ret
    8001019c:	00048513          	mv	a0,s1
    800101a0:	430000ef          	jal	800105d0 <_getpid_r>
    800101a4:	00040613          	mv	a2,s0
    800101a8:	01013403          	ld	s0,16(sp)
    800101ac:	01813083          	ld	ra,24(sp)
    800101b0:	00050593          	mv	a1,a0
    800101b4:	00048513          	mv	a0,s1
    800101b8:	00813483          	ld	s1,8(sp)
    800101bc:	02010113          	add	sp,sp,32
    800101c0:	3b80006f          	j	80010578 <_kill_r>
    800101c4:	01013403          	ld	s0,16(sp)
    800101c8:	01813083          	ld	ra,24(sp)
    800101cc:	01600793          	li	a5,22
    800101d0:	00f52023          	sw	a5,0(a0)
    800101d4:	00813483          	ld	s1,8(sp)
    800101d8:	00100513          	li	a0,1
    800101dc:	02010113          	add	sp,sp,32
    800101e0:	00008067          	ret
    800101e4:	01600793          	li	a5,22
    800101e8:	00f52023          	sw	a5,0(a0)
    800101ec:	fff00513          	li	a0,-1
    800101f0:	f9dff06f          	j	8001018c <_raise_r+0x5c>

00000000800101f4 <__sigtramp_r>:
    800101f4:	01f00793          	li	a5,31
    800101f8:	0cb7ea63          	bltu	a5,a1,800102cc <__sigtramp_r+0xd8>
    800101fc:	15053783          	ld	a5,336(a0)
    80010200:	fe010113          	add	sp,sp,-32
    80010204:	00813823          	sd	s0,16(sp)
    80010208:	00913423          	sd	s1,8(sp)
    8001020c:	00113c23          	sd	ra,24(sp)
    80010210:	00058413          	mv	s0,a1
    80010214:	00050493          	mv	s1,a0
    80010218:	08078063          	beqz	a5,80010298 <__sigtramp_r+0xa4>
    8001021c:	00341713          	sll	a4,s0,0x3
    80010220:	00e787b3          	add	a5,a5,a4
    80010224:	0007b703          	ld	a4,0(a5)
    80010228:	02070c63          	beqz	a4,80010260 <__sigtramp_r+0x6c>
    8001022c:	fff00693          	li	a3,-1
    80010230:	06d70063          	beq	a4,a3,80010290 <__sigtramp_r+0x9c>
    80010234:	00100693          	li	a3,1
    80010238:	04d70063          	beq	a4,a3,80010278 <__sigtramp_r+0x84>
    8001023c:	00040513          	mv	a0,s0
    80010240:	0007b023          	sd	zero,0(a5)
    80010244:	000700e7          	jalr	a4
    80010248:	00000513          	li	a0,0
    8001024c:	01813083          	ld	ra,24(sp)
    80010250:	01013403          	ld	s0,16(sp)
    80010254:	00813483          	ld	s1,8(sp)
    80010258:	02010113          	add	sp,sp,32
    8001025c:	00008067          	ret
    80010260:	01813083          	ld	ra,24(sp)
    80010264:	01013403          	ld	s0,16(sp)
    80010268:	00813483          	ld	s1,8(sp)
    8001026c:	00100513          	li	a0,1
    80010270:	02010113          	add	sp,sp,32
    80010274:	00008067          	ret
    80010278:	01813083          	ld	ra,24(sp)
    8001027c:	01013403          	ld	s0,16(sp)
    80010280:	00813483          	ld	s1,8(sp)
    80010284:	00300513          	li	a0,3
    80010288:	02010113          	add	sp,sp,32
    8001028c:	00008067          	ret
    80010290:	00200513          	li	a0,2
    80010294:	fb9ff06f          	j	8001024c <__sigtramp_r+0x58>
    80010298:	10000593          	li	a1,256
    8001029c:	e65f60ef          	jal	80007100 <_malloc_r>
    800102a0:	14a4b823          	sd	a0,336(s1)
    800102a4:	00050793          	mv	a5,a0
    800102a8:	00050e63          	beqz	a0,800102c4 <__sigtramp_r+0xd0>
    800102ac:	00050713          	mv	a4,a0
    800102b0:	10050693          	add	a3,a0,256
    800102b4:	00073023          	sd	zero,0(a4)
    800102b8:	00870713          	add	a4,a4,8
    800102bc:	fed71ce3          	bne	a4,a3,800102b4 <__sigtramp_r+0xc0>
    800102c0:	f5dff06f          	j	8001021c <__sigtramp_r+0x28>
    800102c4:	fff00513          	li	a0,-1
    800102c8:	f85ff06f          	j	8001024c <__sigtramp_r+0x58>
    800102cc:	fff00513          	li	a0,-1
    800102d0:	00008067          	ret

00000000800102d4 <raise>:
    800102d4:	fe010113          	add	sp,sp,-32
    800102d8:	00913423          	sd	s1,8(sp)
    800102dc:	00113c23          	sd	ra,24(sp)
    800102e0:	01f00793          	li	a5,31
    800102e4:	8101b483          	ld	s1,-2032(gp) # 8001e908 <_impure_ptr>
    800102e8:	08a7ee63          	bltu	a5,a0,80010384 <raise+0xb0>
    800102ec:	1504b783          	ld	a5,336(s1)
    800102f0:	00813823          	sd	s0,16(sp)
    800102f4:	00050413          	mv	s0,a0
    800102f8:	04078263          	beqz	a5,8001033c <raise+0x68>
    800102fc:	00351713          	sll	a4,a0,0x3
    80010300:	00e787b3          	add	a5,a5,a4
    80010304:	0007b703          	ld	a4,0(a5)
    80010308:	02070a63          	beqz	a4,8001033c <raise+0x68>
    8001030c:	00100693          	li	a3,1
    80010310:	00d70a63          	beq	a4,a3,80010324 <raise+0x50>
    80010314:	fff00693          	li	a3,-1
    80010318:	04d70663          	beq	a4,a3,80010364 <raise+0x90>
    8001031c:	0007b023          	sd	zero,0(a5)
    80010320:	000700e7          	jalr	a4
    80010324:	01013403          	ld	s0,16(sp)
    80010328:	00000513          	li	a0,0
    8001032c:	01813083          	ld	ra,24(sp)
    80010330:	00813483          	ld	s1,8(sp)
    80010334:	02010113          	add	sp,sp,32
    80010338:	00008067          	ret
    8001033c:	00048513          	mv	a0,s1
    80010340:	290000ef          	jal	800105d0 <_getpid_r>
    80010344:	00040613          	mv	a2,s0
    80010348:	01013403          	ld	s0,16(sp)
    8001034c:	01813083          	ld	ra,24(sp)
    80010350:	00050593          	mv	a1,a0
    80010354:	00048513          	mv	a0,s1
    80010358:	00813483          	ld	s1,8(sp)
    8001035c:	02010113          	add	sp,sp,32
    80010360:	2180006f          	j	80010578 <_kill_r>
    80010364:	01013403          	ld	s0,16(sp)
    80010368:	01813083          	ld	ra,24(sp)
    8001036c:	01600793          	li	a5,22
    80010370:	00f4a023          	sw	a5,0(s1)
    80010374:	00100513          	li	a0,1
    80010378:	00813483          	ld	s1,8(sp)
    8001037c:	02010113          	add	sp,sp,32
    80010380:	00008067          	ret
    80010384:	01600793          	li	a5,22
    80010388:	00f4a023          	sw	a5,0(s1)
    8001038c:	fff00513          	li	a0,-1
    80010390:	f9dff06f          	j	8001032c <raise+0x58>

0000000080010394 <signal>:
    80010394:	fe010113          	add	sp,sp,-32
    80010398:	01213023          	sd	s2,0(sp)
    8001039c:	00113c23          	sd	ra,24(sp)
    800103a0:	01f00793          	li	a5,31
    800103a4:	8101b903          	ld	s2,-2032(gp) # 8001e908 <_impure_ptr>
    800103a8:	04a7e263          	bltu	a5,a0,800103ec <signal+0x58>
    800103ac:	00813823          	sd	s0,16(sp)
    800103b0:	00050413          	mv	s0,a0
    800103b4:	15093503          	ld	a0,336(s2)
    800103b8:	00913423          	sd	s1,8(sp)
    800103bc:	00058493          	mv	s1,a1
    800103c0:	02050e63          	beqz	a0,800103fc <signal+0x68>
    800103c4:	00341413          	sll	s0,s0,0x3
    800103c8:	008507b3          	add	a5,a0,s0
    800103cc:	0007b503          	ld	a0,0(a5)
    800103d0:	01013403          	ld	s0,16(sp)
    800103d4:	0097b023          	sd	s1,0(a5)
    800103d8:	00813483          	ld	s1,8(sp)
    800103dc:	01813083          	ld	ra,24(sp)
    800103e0:	00013903          	ld	s2,0(sp)
    800103e4:	02010113          	add	sp,sp,32
    800103e8:	00008067          	ret
    800103ec:	01600793          	li	a5,22
    800103f0:	00f92023          	sw	a5,0(s2)
    800103f4:	fff00513          	li	a0,-1
    800103f8:	fe5ff06f          	j	800103dc <signal+0x48>
    800103fc:	10000593          	li	a1,256
    80010400:	00090513          	mv	a0,s2
    80010404:	cfdf60ef          	jal	80007100 <_malloc_r>
    80010408:	14a93823          	sd	a0,336(s2)
    8001040c:	00050793          	mv	a5,a0
    80010410:	10050713          	add	a4,a0,256
    80010414:	00050a63          	beqz	a0,80010428 <signal+0x94>
    80010418:	0007b023          	sd	zero,0(a5)
    8001041c:	00878793          	add	a5,a5,8
    80010420:	fef71ce3          	bne	a4,a5,80010418 <signal+0x84>
    80010424:	fa1ff06f          	j	800103c4 <signal+0x30>
    80010428:	01013403          	ld	s0,16(sp)
    8001042c:	00813483          	ld	s1,8(sp)
    80010430:	fff00513          	li	a0,-1
    80010434:	fa9ff06f          	j	800103dc <signal+0x48>

0000000080010438 <_init_signal>:
    80010438:	ff010113          	add	sp,sp,-16
    8001043c:	00813023          	sd	s0,0(sp)
    80010440:	8101b403          	ld	s0,-2032(gp) # 8001e908 <_impure_ptr>
    80010444:	15043783          	ld	a5,336(s0)
    80010448:	00113423          	sd	ra,8(sp)
    8001044c:	00078c63          	beqz	a5,80010464 <_init_signal+0x2c>
    80010450:	00000513          	li	a0,0
    80010454:	00813083          	ld	ra,8(sp)
    80010458:	00013403          	ld	s0,0(sp)
    8001045c:	01010113          	add	sp,sp,16
    80010460:	00008067          	ret
    80010464:	10000593          	li	a1,256
    80010468:	00040513          	mv	a0,s0
    8001046c:	c95f60ef          	jal	80007100 <_malloc_r>
    80010470:	14a43823          	sd	a0,336(s0)
    80010474:	00050c63          	beqz	a0,8001048c <_init_signal+0x54>
    80010478:	10050793          	add	a5,a0,256
    8001047c:	00053023          	sd	zero,0(a0)
    80010480:	00850513          	add	a0,a0,8
    80010484:	fef51ce3          	bne	a0,a5,8001047c <_init_signal+0x44>
    80010488:	fc9ff06f          	j	80010450 <_init_signal+0x18>
    8001048c:	fff00513          	li	a0,-1
    80010490:	fc5ff06f          	j	80010454 <_init_signal+0x1c>

0000000080010494 <__sigtramp>:
    80010494:	fe010113          	add	sp,sp,-32
    80010498:	00913423          	sd	s1,8(sp)
    8001049c:	00113c23          	sd	ra,24(sp)
    800104a0:	01f00793          	li	a5,31
    800104a4:	8101b483          	ld	s1,-2032(gp) # 8001e908 <_impure_ptr>
    800104a8:	0ca7e463          	bltu	a5,a0,80010570 <__sigtramp+0xdc>
    800104ac:	1504b783          	ld	a5,336(s1)
    800104b0:	00813823          	sd	s0,16(sp)
    800104b4:	00050413          	mv	s0,a0
    800104b8:	08078263          	beqz	a5,8001053c <__sigtramp+0xa8>
    800104bc:	00341713          	sll	a4,s0,0x3
    800104c0:	00e787b3          	add	a5,a5,a4
    800104c4:	0007b703          	ld	a4,0(a5)
    800104c8:	02070c63          	beqz	a4,80010500 <__sigtramp+0x6c>
    800104cc:	fff00693          	li	a3,-1
    800104d0:	06d70063          	beq	a4,a3,80010530 <__sigtramp+0x9c>
    800104d4:	00100693          	li	a3,1
    800104d8:	04d70063          	beq	a4,a3,80010518 <__sigtramp+0x84>
    800104dc:	00040513          	mv	a0,s0
    800104e0:	0007b023          	sd	zero,0(a5)
    800104e4:	000700e7          	jalr	a4
    800104e8:	01013403          	ld	s0,16(sp)
    800104ec:	00000513          	li	a0,0
    800104f0:	01813083          	ld	ra,24(sp)
    800104f4:	00813483          	ld	s1,8(sp)
    800104f8:	02010113          	add	sp,sp,32
    800104fc:	00008067          	ret
    80010500:	01013403          	ld	s0,16(sp)
    80010504:	01813083          	ld	ra,24(sp)
    80010508:	00813483          	ld	s1,8(sp)
    8001050c:	00100513          	li	a0,1
    80010510:	02010113          	add	sp,sp,32
    80010514:	00008067          	ret
    80010518:	01013403          	ld	s0,16(sp)
    8001051c:	01813083          	ld	ra,24(sp)
    80010520:	00813483          	ld	s1,8(sp)
    80010524:	00300513          	li	a0,3
    80010528:	02010113          	add	sp,sp,32
    8001052c:	00008067          	ret
    80010530:	01013403          	ld	s0,16(sp)
    80010534:	00200513          	li	a0,2
    80010538:	fb9ff06f          	j	800104f0 <__sigtramp+0x5c>
    8001053c:	10000593          	li	a1,256
    80010540:	00048513          	mv	a0,s1
    80010544:	bbdf60ef          	jal	80007100 <_malloc_r>
    80010548:	14a4b823          	sd	a0,336(s1)
    8001054c:	00050793          	mv	a5,a0
    80010550:	00050e63          	beqz	a0,8001056c <__sigtramp+0xd8>
    80010554:	00050713          	mv	a4,a0
    80010558:	10050693          	add	a3,a0,256
    8001055c:	00073023          	sd	zero,0(a4)
    80010560:	00870713          	add	a4,a4,8
    80010564:	fee69ce3          	bne	a3,a4,8001055c <__sigtramp+0xc8>
    80010568:	f55ff06f          	j	800104bc <__sigtramp+0x28>
    8001056c:	01013403          	ld	s0,16(sp)
    80010570:	fff00513          	li	a0,-1
    80010574:	f7dff06f          	j	800104f0 <__sigtramp+0x5c>

0000000080010578 <_kill_r>:
    80010578:	ff010113          	add	sp,sp,-16
    8001057c:	00058713          	mv	a4,a1
    80010580:	00813023          	sd	s0,0(sp)
    80010584:	00060593          	mv	a1,a2
    80010588:	00050413          	mv	s0,a0
    8001058c:	00070513          	mv	a0,a4
    80010590:	8a01a823          	sw	zero,-1872(gp) # 8001e9a8 <errno>
    80010594:	00113423          	sd	ra,8(sp)
    80010598:	0c8000ef          	jal	80010660 <_kill>
    8001059c:	fff00793          	li	a5,-1
    800105a0:	00f50a63          	beq	a0,a5,800105b4 <_kill_r+0x3c>
    800105a4:	00813083          	ld	ra,8(sp)
    800105a8:	00013403          	ld	s0,0(sp)
    800105ac:	01010113          	add	sp,sp,16
    800105b0:	00008067          	ret
    800105b4:	8b01a783          	lw	a5,-1872(gp) # 8001e9a8 <errno>
    800105b8:	fe0786e3          	beqz	a5,800105a4 <_kill_r+0x2c>
    800105bc:	00813083          	ld	ra,8(sp)
    800105c0:	00f42023          	sw	a5,0(s0)
    800105c4:	00013403          	ld	s0,0(sp)
    800105c8:	01010113          	add	sp,sp,16
    800105cc:	00008067          	ret

00000000800105d0 <_getpid_r>:
    800105d0:	07c0006f          	j	8001064c <_getpid>

00000000800105d4 <_close>:
    800105d4:	ff010113          	add	sp,sp,-16
    800105d8:	03900693          	li	a3,57
    800105dc:	00000613          	li	a2,0
    800105e0:	00000593          	li	a1,0
    800105e4:	00113423          	sd	ra,8(sp)
    800105e8:	190000ef          	jal	80010778 <htif_syscall>
    800105ec:	00813083          	ld	ra,8(sp)
    800105f0:	0005051b          	sext.w	a0,a0
    800105f4:	01010113          	add	sp,sp,16
    800105f8:	00008067          	ret

00000000800105fc <_exit>:
    800105fc:	0015179b          	sllw	a5,a0,0x1
    80010600:	0017e793          	or	a5,a5,1
    80010604:	0007879b          	sext.w	a5,a5
    80010608:	01079793          	sll	a5,a5,0x10
    8001060c:	0107d793          	srl	a5,a5,0x10
    80010610:	0000d717          	auipc	a4,0xd
    80010614:	7b070713          	add	a4,a4,1968 # 8001ddc0 <tohost>
    80010618:	0000d697          	auipc	a3,0xd
    8001061c:	7a06b823          	sd	zero,1968(a3) # 8001ddc8 <fromhost>
    80010620:	00f73023          	sd	a5,0(a4)
    80010624:	ff5ff06f          	j	80010618 <_exit+0x1c>

0000000080010628 <_fstat>:
    80010628:	ff010113          	add	sp,sp,-16
    8001062c:	05000693          	li	a3,80
    80010630:	00000613          	li	a2,0
    80010634:	00113423          	sd	ra,8(sp)
    80010638:	140000ef          	jal	80010778 <htif_syscall>
    8001063c:	00813083          	ld	ra,8(sp)
    80010640:	0005051b          	sext.w	a0,a0
    80010644:	01010113          	add	sp,sp,16
    80010648:	00008067          	ret

000000008001064c <_getpid>:
    8001064c:	00100513          	li	a0,1
    80010650:	00008067          	ret

0000000080010654 <_isatty>:
    80010654:	fff5051b          	addw	a0,a0,-1
    80010658:	00253513          	sltiu	a0,a0,2
    8001065c:	00008067          	ret

0000000080010660 <_kill>:
    80010660:	ff010113          	add	sp,sp,-16
    80010664:	00113423          	sd	ra,8(sp)
    80010668:	9b1ff0ef          	jal	80010018 <__errno>
    8001066c:	00813083          	ld	ra,8(sp)
    80010670:	01600793          	li	a5,22
    80010674:	00f52023          	sw	a5,0(a0)
    80010678:	fff00513          	li	a0,-1
    8001067c:	01010113          	add	sp,sp,16
    80010680:	00008067          	ret

0000000080010684 <_lseek>:
    80010684:	03e00693          	li	a3,62
    80010688:	0f00006f          	j	80010778 <htif_syscall>

000000008001068c <_open>:
    8001068c:	ff010113          	add	sp,sp,-16
    80010690:	40000693          	li	a3,1024
    80010694:	00113423          	sd	ra,8(sp)
    80010698:	0e0000ef          	jal	80010778 <htif_syscall>
    8001069c:	00813083          	ld	ra,8(sp)
    800106a0:	0005051b          	sext.w	a0,a0
    800106a4:	01010113          	add	sp,sp,16
    800106a8:	00008067          	ret

00000000800106ac <_read>:
    800106ac:	03f00693          	li	a3,63
    800106b0:	0c80006f          	j	80010778 <htif_syscall>

00000000800106b4 <_sbrk>:
    800106b4:	82818713          	add	a4,gp,-2008 # 8001e920 <curbrk>
    800106b8:	00073783          	ld	a5,0(a4)
    800106bc:	e6018693          	add	a3,gp,-416 # 8001ef58 <_end>
    800106c0:	00a78533          	add	a0,a5,a0
    800106c4:	00d56e63          	bltu	a0,a3,800106e0 <_sbrk+0x2c>
    800106c8:	0080f697          	auipc	a3,0x80f
    800106cc:	93868693          	add	a3,a3,-1736 # 8081f000 <__heap_end>
    800106d0:	00d57863          	bgeu	a0,a3,800106e0 <_sbrk+0x2c>
    800106d4:	00a73023          	sd	a0,0(a4)
    800106d8:	00078513          	mv	a0,a5
    800106dc:	00008067          	ret
    800106e0:	ff010113          	add	sp,sp,-16
    800106e4:	00113423          	sd	ra,8(sp)
    800106e8:	931ff0ef          	jal	80010018 <__errno>
    800106ec:	00813083          	ld	ra,8(sp)
    800106f0:	00c00793          	li	a5,12
    800106f4:	00f52023          	sw	a5,0(a0)
    800106f8:	fff00793          	li	a5,-1
    800106fc:	00078513          	mv	a0,a5
    80010700:	01010113          	add	sp,sp,16
    80010704:	00008067          	ret

0000000080010708 <_write>:
    80010708:	04000693          	li	a3,64
    8001070c:	06c0006f          	j	80010778 <htif_syscall>

0000000080010710 <handle_trap>:
    80010710:	ff010113          	add	sp,sp,-16
    80010714:	02159513          	sll	a0,a1,0x21
    80010718:	00113423          	sd	ra,8(sp)
    8001071c:	02155513          	srl	a0,a0,0x21
    80010720:	0005d463          	bgez	a1,80010728 <handle_trap+0x18>
    80010724:	40a0053b          	negw	a0,a0
    80010728:	ed5ff0ef          	jal	800105fc <_exit>

000000008001072c <__init_tls>:
    8001072c:	ff010113          	add	sp,sp,-16
    80010730:	00000613          	li	a2,0
    80010734:	00003597          	auipc	a1,0x3
    80010738:	92458593          	add	a1,a1,-1756 # 80013058 <__tbss_end>
    8001073c:	00020513          	mv	a0,tp
    80010740:	00813023          	sd	s0,0(sp)
    80010744:	00113423          	sd	ra,8(sp)
    80010748:	00020413          	mv	s0,tp
    8001074c:	ad8f60ef          	jal	80006a24 <memcpy>
    80010750:	00000513          	li	a0,0
    80010754:	00a40533          	add	a0,s0,a0
    80010758:	00013403          	ld	s0,0(sp)
    8001075c:	00813083          	ld	ra,8(sp)
    80010760:	00000613          	li	a2,0
    80010764:	00000593          	li	a1,0
    80010768:	01010113          	add	sp,sp,16
    8001076c:	9dcf606f          	j	80006948 <memset>

0000000080010770 <__main>:
    80010770:	10500073          	wfi
    80010774:	ffdff06f          	j	80010770 <__main>

0000000080010778 <htif_syscall>:
    80010778:	fc010113          	add	sp,sp,-64
    8001077c:	00d13023          	sd	a3,0(sp)
    80010780:	00a13423          	sd	a0,8(sp)
    80010784:	fff007b7          	lui	a5,0xfff00
    80010788:	00b13823          	sd	a1,16(sp)
    8001078c:	0107d793          	srl	a5,a5,0x10
    80010790:	00c13c23          	sd	a2,24(sp)
    80010794:	00010613          	mv	a2,sp
    80010798:	00f67633          	and	a2,a2,a5
    8001079c:	8d818713          	add	a4,gp,-1832 # 8001e9d0 <htif_lock>
    800107a0:	fff00693          	li	a3,-1
    800107a4:	00072783          	lw	a5,0(a4)
    800107a8:	00d72023          	sw	a3,0(a4)
    800107ac:	0007879b          	sext.w	a5,a5
    800107b0:	0330000f          	fence	rw,rw
    800107b4:	fe0798e3          	bnez	a5,800107a4 <htif_syscall+0x2c>
    800107b8:	0110000f          	fence	w,w
    800107bc:	0000d717          	auipc	a4,0xd
    800107c0:	60470713          	add	a4,a4,1540 # 8001ddc0 <tohost>
    800107c4:	00c73023          	sd	a2,0(a4)
    800107c8:	00873783          	ld	a5,8(a4)
    800107cc:	fe078ee3          	beqz	a5,800107c8 <htif_syscall+0x50>
    800107d0:	0000d797          	auipc	a5,0xd
    800107d4:	5e07bc23          	sd	zero,1528(a5) # 8001ddc8 <fromhost>
    800107d8:	0310000f          	fence	rw,w
    800107dc:	8c01ac23          	sw	zero,-1832(gp) # 8001e9d0 <htif_lock>
    800107e0:	0220000f          	fence	r,r
    800107e4:	00013503          	ld	a0,0(sp)
    800107e8:	04010113          	add	sp,sp,64
    800107ec:	00008067          	ret

00000000800107f0 <atexit>:
    800107f0:	00050593          	mv	a1,a0
    800107f4:	00000693          	li	a3,0
    800107f8:	00000613          	li	a2,0
    800107fc:	00000513          	li	a0,0
    80010800:	1200006f          	j	80010920 <__register_exitproc>

0000000080010804 <exit>:
    80010804:	ff010113          	add	sp,sp,-16
    80010808:	00000593          	li	a1,0
    8001080c:	00813023          	sd	s0,0(sp)
    80010810:	00113423          	sd	ra,8(sp)
    80010814:	00050413          	mv	s0,a0
    80010818:	1b0000ef          	jal	800109c8 <__call_exitprocs>
    8001081c:	8a81b783          	ld	a5,-1880(gp) # 8001e9a0 <__stdio_exit_handler>
    80010820:	00078463          	beqz	a5,80010828 <exit+0x24>
    80010824:	000780e7          	jalr	a5
    80010828:	00040513          	mv	a0,s0
    8001082c:	dd1ff0ef          	jal	800105fc <_exit>

0000000080010830 <__libc_init_array>:
    80010830:	fe010113          	add	sp,sp,-32
    80010834:	00813823          	sd	s0,16(sp)
    80010838:	01213023          	sd	s2,0(sp)
    8001083c:	0000d797          	auipc	a5,0xd
    80010840:	56c78793          	add	a5,a5,1388 # 8001dda8 <__init_array_start>
    80010844:	0000d417          	auipc	s0,0xd
    80010848:	56440413          	add	s0,s0,1380 # 8001dda8 <__init_array_start>
    8001084c:	00113c23          	sd	ra,24(sp)
    80010850:	00913423          	sd	s1,8(sp)
    80010854:	40878933          	sub	s2,a5,s0
    80010858:	02878063          	beq	a5,s0,80010878 <__libc_init_array+0x48>
    8001085c:	40395913          	sra	s2,s2,0x3
    80010860:	00000493          	li	s1,0
    80010864:	00043783          	ld	a5,0(s0)
    80010868:	00148493          	add	s1,s1,1
    8001086c:	00840413          	add	s0,s0,8
    80010870:	000780e7          	jalr	a5
    80010874:	ff24e8e3          	bltu	s1,s2,80010864 <__libc_init_array+0x34>
    80010878:	0000d797          	auipc	a5,0xd
    8001087c:	53878793          	add	a5,a5,1336 # 8001ddb0 <__fini_array_end>
    80010880:	0000d417          	auipc	s0,0xd
    80010884:	52840413          	add	s0,s0,1320 # 8001dda8 <__init_array_start>
    80010888:	40878933          	sub	s2,a5,s0
    8001088c:	40395913          	sra	s2,s2,0x3
    80010890:	00878e63          	beq	a5,s0,800108ac <__libc_init_array+0x7c>
    80010894:	00000493          	li	s1,0
    80010898:	00043783          	ld	a5,0(s0)
    8001089c:	00148493          	add	s1,s1,1
    800108a0:	00840413          	add	s0,s0,8
    800108a4:	000780e7          	jalr	a5
    800108a8:	ff24e8e3          	bltu	s1,s2,80010898 <__libc_init_array+0x68>
    800108ac:	01813083          	ld	ra,24(sp)
    800108b0:	01013403          	ld	s0,16(sp)
    800108b4:	00813483          	ld	s1,8(sp)
    800108b8:	00013903          	ld	s2,0(sp)
    800108bc:	02010113          	add	sp,sp,32
    800108c0:	00008067          	ret

00000000800108c4 <__libc_fini_array>:
    800108c4:	fe010113          	add	sp,sp,-32
    800108c8:	00813823          	sd	s0,16(sp)
    800108cc:	0000d797          	auipc	a5,0xd
    800108d0:	4e478793          	add	a5,a5,1252 # 8001ddb0 <__fini_array_end>
    800108d4:	0000d417          	auipc	s0,0xd
    800108d8:	4dc40413          	add	s0,s0,1244 # 8001ddb0 <__fini_array_end>
    800108dc:	40f40433          	sub	s0,s0,a5
    800108e0:	00913423          	sd	s1,8(sp)
    800108e4:	00113c23          	sd	ra,24(sp)
    800108e8:	40345493          	sra	s1,s0,0x3
    800108ec:	02048063          	beqz	s1,8001090c <__libc_fini_array+0x48>
    800108f0:	ff840413          	add	s0,s0,-8
    800108f4:	00f40433          	add	s0,s0,a5
    800108f8:	00043783          	ld	a5,0(s0)
    800108fc:	fff48493          	add	s1,s1,-1
    80010900:	ff840413          	add	s0,s0,-8
    80010904:	000780e7          	jalr	a5
    80010908:	fe0498e3          	bnez	s1,800108f8 <__libc_fini_array+0x34>
    8001090c:	01813083          	ld	ra,24(sp)
    80010910:	01013403          	ld	s0,16(sp)
    80010914:	00813483          	ld	s1,8(sp)
    80010918:	02010113          	add	sp,sp,32
    8001091c:	00008067          	ret

0000000080010920 <__register_exitproc>:
    80010920:	8e818713          	add	a4,gp,-1816 # 8001e9e0 <__atexit>
    80010924:	00073783          	ld	a5,0(a4)
    80010928:	06078063          	beqz	a5,80010988 <__register_exitproc+0x68>
    8001092c:	0087a703          	lw	a4,8(a5)
    80010930:	01f00813          	li	a6,31
    80010934:	08e84663          	blt	a6,a4,800109c0 <__register_exitproc+0xa0>
    80010938:	02050863          	beqz	a0,80010968 <__register_exitproc+0x48>
    8001093c:	00371813          	sll	a6,a4,0x3
    80010940:	01078833          	add	a6,a5,a6
    80010944:	10c83823          	sd	a2,272(a6)
    80010948:	3107a883          	lw	a7,784(a5)
    8001094c:	00100613          	li	a2,1
    80010950:	00e6163b          	sllw	a2,a2,a4
    80010954:	00c8e8b3          	or	a7,a7,a2
    80010958:	3117a823          	sw	a7,784(a5)
    8001095c:	20d83823          	sd	a3,528(a6)
    80010960:	00200693          	li	a3,2
    80010964:	02d50863          	beq	a0,a3,80010994 <__register_exitproc+0x74>
    80010968:	00270693          	add	a3,a4,2
    8001096c:	00369693          	sll	a3,a3,0x3
    80010970:	0017071b          	addw	a4,a4,1
    80010974:	00e7a423          	sw	a4,8(a5)
    80010978:	00d787b3          	add	a5,a5,a3
    8001097c:	00b7b023          	sd	a1,0(a5)
    80010980:	00000513          	li	a0,0
    80010984:	00008067          	ret
    80010988:	b4818793          	add	a5,gp,-1208 # 8001ec40 <__atexit0>
    8001098c:	00f73023          	sd	a5,0(a4)
    80010990:	f9dff06f          	j	8001092c <__register_exitproc+0xc>
    80010994:	3147a683          	lw	a3,788(a5)
    80010998:	00000513          	li	a0,0
    8001099c:	00c6e6b3          	or	a3,a3,a2
    800109a0:	30d7aa23          	sw	a3,788(a5)
    800109a4:	00270693          	add	a3,a4,2
    800109a8:	00369693          	sll	a3,a3,0x3
    800109ac:	0017071b          	addw	a4,a4,1
    800109b0:	00e7a423          	sw	a4,8(a5)
    800109b4:	00d787b3          	add	a5,a5,a3
    800109b8:	00b7b023          	sd	a1,0(a5)
    800109bc:	00008067          	ret
    800109c0:	fff00513          	li	a0,-1
    800109c4:	00008067          	ret

00000000800109c8 <__call_exitprocs>:
    800109c8:	fb010113          	add	sp,sp,-80
    800109cc:	03413023          	sd	s4,32(sp)
    800109d0:	8e818a13          	add	s4,gp,-1816 # 8001e9e0 <__atexit>
    800109d4:	03213823          	sd	s2,48(sp)
    800109d8:	000a3903          	ld	s2,0(s4)
    800109dc:	04113423          	sd	ra,72(sp)
    800109e0:	0a090a63          	beqz	s2,80010a94 <__call_exitprocs+0xcc>
    800109e4:	03313423          	sd	s3,40(sp)
    800109e8:	01513c23          	sd	s5,24(sp)
    800109ec:	01613823          	sd	s6,16(sp)
    800109f0:	01713423          	sd	s7,8(sp)
    800109f4:	04813023          	sd	s0,64(sp)
    800109f8:	02913c23          	sd	s1,56(sp)
    800109fc:	01813023          	sd	s8,0(sp)
    80010a00:	00050b13          	mv	s6,a0
    80010a04:	00058b93          	mv	s7,a1
    80010a08:	fff00993          	li	s3,-1
    80010a0c:	00100a93          	li	s5,1
    80010a10:	00892483          	lw	s1,8(s2)
    80010a14:	fff4841b          	addw	s0,s1,-1
    80010a18:	06044063          	bltz	s0,80010a78 <__call_exitprocs+0xb0>
    80010a1c:	00349493          	sll	s1,s1,0x3
    80010a20:	009904b3          	add	s1,s2,s1
    80010a24:	080b9263          	bnez	s7,80010aa8 <__call_exitprocs+0xe0>
    80010a28:	00892783          	lw	a5,8(s2)
    80010a2c:	0084b703          	ld	a4,8(s1)
    80010a30:	fff7879b          	addw	a5,a5,-1
    80010a34:	0c878063          	beq	a5,s0,80010af4 <__call_exitprocs+0x12c>
    80010a38:	0004b423          	sd	zero,8(s1)
    80010a3c:	02070863          	beqz	a4,80010a6c <__call_exitprocs+0xa4>
    80010a40:	31092783          	lw	a5,784(s2)
    80010a44:	008a96bb          	sllw	a3,s5,s0
    80010a48:	00892c03          	lw	s8,8(s2)
    80010a4c:	00d7f7b3          	and	a5,a5,a3
    80010a50:	0007879b          	sext.w	a5,a5
    80010a54:	06079663          	bnez	a5,80010ac0 <__call_exitprocs+0xf8>
    80010a58:	000700e7          	jalr	a4
    80010a5c:	00892703          	lw	a4,8(s2)
    80010a60:	000a3783          	ld	a5,0(s4)
    80010a64:	09871263          	bne	a4,s8,80010ae8 <__call_exitprocs+0x120>
    80010a68:	09279063          	bne	a5,s2,80010ae8 <__call_exitprocs+0x120>
    80010a6c:	fff4041b          	addw	s0,s0,-1
    80010a70:	ff848493          	add	s1,s1,-8
    80010a74:	fb3418e3          	bne	s0,s3,80010a24 <__call_exitprocs+0x5c>
    80010a78:	04013403          	ld	s0,64(sp)
    80010a7c:	03813483          	ld	s1,56(sp)
    80010a80:	02813983          	ld	s3,40(sp)
    80010a84:	01813a83          	ld	s5,24(sp)
    80010a88:	01013b03          	ld	s6,16(sp)
    80010a8c:	00813b83          	ld	s7,8(sp)
    80010a90:	00013c03          	ld	s8,0(sp)
    80010a94:	04813083          	ld	ra,72(sp)
    80010a98:	03013903          	ld	s2,48(sp)
    80010a9c:	02013a03          	ld	s4,32(sp)
    80010aa0:	05010113          	add	sp,sp,80
    80010aa4:	00008067          	ret
    80010aa8:	2084b783          	ld	a5,520(s1)
    80010aac:	f7778ee3          	beq	a5,s7,80010a28 <__call_exitprocs+0x60>
    80010ab0:	fff4041b          	addw	s0,s0,-1
    80010ab4:	ff848493          	add	s1,s1,-8
    80010ab8:	ff3418e3          	bne	s0,s3,80010aa8 <__call_exitprocs+0xe0>
    80010abc:	fbdff06f          	j	80010a78 <__call_exitprocs+0xb0>
    80010ac0:	31492783          	lw	a5,788(s2)
    80010ac4:	1084b583          	ld	a1,264(s1)
    80010ac8:	00d7f7b3          	and	a5,a5,a3
    80010acc:	0007879b          	sext.w	a5,a5
    80010ad0:	02079663          	bnez	a5,80010afc <__call_exitprocs+0x134>
    80010ad4:	000b0513          	mv	a0,s6
    80010ad8:	000700e7          	jalr	a4
    80010adc:	00892703          	lw	a4,8(s2)
    80010ae0:	000a3783          	ld	a5,0(s4)
    80010ae4:	f98702e3          	beq	a4,s8,80010a68 <__call_exitprocs+0xa0>
    80010ae8:	f80788e3          	beqz	a5,80010a78 <__call_exitprocs+0xb0>
    80010aec:	00078913          	mv	s2,a5
    80010af0:	f21ff06f          	j	80010a10 <__call_exitprocs+0x48>
    80010af4:	00892423          	sw	s0,8(s2)
    80010af8:	f45ff06f          	j	80010a3c <__call_exitprocs+0x74>
    80010afc:	00058513          	mv	a0,a1
    80010b00:	000700e7          	jalr	a4
    80010b04:	f59ff06f          	j	80010a5c <__call_exitprocs+0x94>

0000000080010b08 <__adddf3>:
    80010b08:	fff00693          	li	a3,-1
    80010b0c:	fe010113          	add	sp,sp,-32
    80010b10:	00c6d693          	srl	a3,a3,0xc
    80010b14:	0345d613          	srl	a2,a1,0x34
    80010b18:	03455713          	srl	a4,a0,0x34
    80010b1c:	00a6f833          	and	a6,a3,a0
    80010b20:	00813823          	sd	s0,16(sp)
    80010b24:	00b6f6b3          	and	a3,a3,a1
    80010b28:	01213023          	sd	s2,0(sp)
    80010b2c:	7ff67613          	and	a2,a2,2047
    80010b30:	7ff77913          	and	s2,a4,2047
    80010b34:	00113c23          	sd	ra,24(sp)
    80010b38:	00913423          	sd	s1,8(sp)
    80010b3c:	03f55413          	srl	s0,a0,0x3f
    80010b40:	03f5d593          	srl	a1,a1,0x3f
    80010b44:	00369793          	sll	a5,a3,0x3
    80010b48:	00381813          	sll	a6,a6,0x3
    80010b4c:	40c906bb          	subw	a3,s2,a2
    80010b50:	1ab41063          	bne	s0,a1,80010cf0 <__adddf3+0x1e8>
    80010b54:	0006859b          	sext.w	a1,a3
    80010b58:	08b05e63          	blez	a1,80010bf4 <__adddf3+0xec>
    80010b5c:	04061c63          	bnez	a2,80010bb4 <__adddf3+0xac>
    80010b60:	04078663          	beqz	a5,80010bac <__adddf3+0xa4>
    80010b64:	fff6859b          	addw	a1,a3,-1
    80010b68:	02059e63          	bnez	a1,80010ba4 <__adddf3+0x9c>
    80010b6c:	010787b3          	add	a5,a5,a6
    80010b70:	00879713          	sll	a4,a5,0x8
    80010b74:	12075863          	bgez	a4,80010ca4 <__adddf3+0x19c>
    80010b78:	00190913          	add	s2,s2,1
    80010b7c:	7ff00713          	li	a4,2047
    80010b80:	3ce90263          	beq	s2,a4,80010f44 <__adddf3+0x43c>
    80010b84:	1ff00713          	li	a4,511
    80010b88:	03671713          	sll	a4,a4,0x36
    80010b8c:	0017f693          	and	a3,a5,1
    80010b90:	fff70713          	add	a4,a4,-1
    80010b94:	0017d793          	srl	a5,a5,0x1
    80010b98:	00e7f7b3          	and	a5,a5,a4
    80010b9c:	00d7e7b3          	or	a5,a5,a3
    80010ba0:	1040006f          	j	80010ca4 <__adddf3+0x19c>
    80010ba4:	7ff00713          	li	a4,2047
    80010ba8:	02e91063          	bne	s2,a4,80010bc8 <__adddf3+0xc0>
    80010bac:	00080793          	mv	a5,a6
    80010bb0:	0f40006f          	j	80010ca4 <__adddf3+0x19c>
    80010bb4:	7ff00713          	li	a4,2047
    80010bb8:	fee90ae3          	beq	s2,a4,80010bac <__adddf3+0xa4>
    80010bbc:	00100713          	li	a4,1
    80010bc0:	03771713          	sll	a4,a4,0x37
    80010bc4:	00e7e7b3          	or	a5,a5,a4
    80010bc8:	03800693          	li	a3,56
    80010bcc:	00100713          	li	a4,1
    80010bd0:	00b6ce63          	blt	a3,a1,80010bec <__adddf3+0xe4>
    80010bd4:	04000693          	li	a3,64
    80010bd8:	40b686bb          	subw	a3,a3,a1
    80010bdc:	00d796b3          	sll	a3,a5,a3
    80010be0:	00b7d733          	srl	a4,a5,a1
    80010be4:	00d036b3          	snez	a3,a3
    80010be8:	00d76733          	or	a4,a4,a3
    80010bec:	010707b3          	add	a5,a4,a6
    80010bf0:	f81ff06f          	j	80010b70 <__adddf3+0x68>
    80010bf4:	06058c63          	beqz	a1,80010c6c <__adddf3+0x164>
    80010bf8:	02091863          	bnez	s2,80010c28 <__adddf3+0x120>
    80010bfc:	32080e63          	beqz	a6,80010f38 <__adddf3+0x430>
    80010c00:	fff6c693          	not	a3,a3
    80010c04:	0006869b          	sext.w	a3,a3
    80010c08:	00069863          	bnez	a3,80010c18 <__adddf3+0x110>
    80010c0c:	010787b3          	add	a5,a5,a6
    80010c10:	00060913          	mv	s2,a2
    80010c14:	f5dff06f          	j	80010b70 <__adddf3+0x68>
    80010c18:	7ff00713          	li	a4,2047
    80010c1c:	02e61263          	bne	a2,a4,80010c40 <__adddf3+0x138>
    80010c20:	7ff00913          	li	s2,2047
    80010c24:	0800006f          	j	80010ca4 <__adddf3+0x19c>
    80010c28:	7ff00713          	li	a4,2047
    80010c2c:	fee60ae3          	beq	a2,a4,80010c20 <__adddf3+0x118>
    80010c30:	00100713          	li	a4,1
    80010c34:	03771713          	sll	a4,a4,0x37
    80010c38:	40d006bb          	negw	a3,a3
    80010c3c:	00e86833          	or	a6,a6,a4
    80010c40:	03800593          	li	a1,56
    80010c44:	00100713          	li	a4,1
    80010c48:	00d5ce63          	blt	a1,a3,80010c64 <__adddf3+0x15c>
    80010c4c:	04000713          	li	a4,64
    80010c50:	40d7073b          	subw	a4,a4,a3
    80010c54:	00e81733          	sll	a4,a6,a4
    80010c58:	00d855b3          	srl	a1,a6,a3
    80010c5c:	00e03733          	snez	a4,a4
    80010c60:	00e5e733          	or	a4,a1,a4
    80010c64:	00e787b3          	add	a5,a5,a4
    80010c68:	fa9ff06f          	j	80010c10 <__adddf3+0x108>
    80010c6c:	00190713          	add	a4,s2,1
    80010c70:	7fe77693          	and	a3,a4,2046
    80010c74:	06069263          	bnez	a3,80010cd8 <__adddf3+0x1d0>
    80010c78:	04091463          	bnez	s2,80010cc0 <__adddf3+0x1b8>
    80010c7c:	02080463          	beqz	a6,80010ca4 <__adddf3+0x19c>
    80010c80:	f20786e3          	beqz	a5,80010bac <__adddf3+0xa4>
    80010c84:	010787b3          	add	a5,a5,a6
    80010c88:	00879713          	sll	a4,a5,0x8
    80010c8c:	00075c63          	bgez	a4,80010ca4 <__adddf3+0x19c>
    80010c90:	fff00713          	li	a4,-1
    80010c94:	03771713          	sll	a4,a4,0x37
    80010c98:	fff70713          	add	a4,a4,-1
    80010c9c:	00e7f7b3          	and	a5,a5,a4
    80010ca0:	00100913          	li	s2,1
    80010ca4:	0077f713          	and	a4,a5,7
    80010ca8:	18070e63          	beqz	a4,80010e44 <__adddf3+0x33c>
    80010cac:	00f7f713          	and	a4,a5,15
    80010cb0:	00400693          	li	a3,4
    80010cb4:	18d70863          	beq	a4,a3,80010e44 <__adddf3+0x33c>
    80010cb8:	00478793          	add	a5,a5,4
    80010cbc:	1880006f          	j	80010e44 <__adddf3+0x33c>
    80010cc0:	f60800e3          	beqz	a6,80010c20 <__adddf3+0x118>
    80010cc4:	28078e63          	beqz	a5,80010f60 <__adddf3+0x458>
    80010cc8:	00100793          	li	a5,1
    80010ccc:	03679793          	sll	a5,a5,0x36
    80010cd0:	7ff00913          	li	s2,2047
    80010cd4:	12c0006f          	j	80010e00 <__adddf3+0x2f8>
    80010cd8:	7ff00693          	li	a3,2047
    80010cdc:	26d70263          	beq	a4,a3,80010f40 <__adddf3+0x438>
    80010ce0:	00f807b3          	add	a5,a6,a5
    80010ce4:	0017d793          	srl	a5,a5,0x1
    80010ce8:	00070913          	mv	s2,a4
    80010cec:	fb9ff06f          	j	80010ca4 <__adddf3+0x19c>
    80010cf0:	0006851b          	sext.w	a0,a3
    80010cf4:	06a05c63          	blez	a0,80010d6c <__adddf3+0x264>
    80010cf8:	04061e63          	bnez	a2,80010d54 <__adddf3+0x24c>
    80010cfc:	ea0788e3          	beqz	a5,80010bac <__adddf3+0xa4>
    80010d00:	fff6851b          	addw	a0,a3,-1
    80010d04:	00051e63          	bnez	a0,80010d20 <__adddf3+0x218>
    80010d08:	40f807b3          	sub	a5,a6,a5
    80010d0c:	00879713          	sll	a4,a5,0x8
    80010d10:	f8075ae3          	bgez	a4,80010ca4 <__adddf3+0x19c>
    80010d14:	00979493          	sll	s1,a5,0x9
    80010d18:	0094d493          	srl	s1,s1,0x9
    80010d1c:	1b80006f          	j	80010ed4 <__adddf3+0x3cc>
    80010d20:	7ff00713          	li	a4,2047
    80010d24:	e8e904e3          	beq	s2,a4,80010bac <__adddf3+0xa4>
    80010d28:	03800693          	li	a3,56
    80010d2c:	00100713          	li	a4,1
    80010d30:	00a6ce63          	blt	a3,a0,80010d4c <__adddf3+0x244>
    80010d34:	04000693          	li	a3,64
    80010d38:	40a686bb          	subw	a3,a3,a0
    80010d3c:	00d796b3          	sll	a3,a5,a3
    80010d40:	00a7d733          	srl	a4,a5,a0
    80010d44:	00d036b3          	snez	a3,a3
    80010d48:	00d76733          	or	a4,a4,a3
    80010d4c:	40e807b3          	sub	a5,a6,a4
    80010d50:	fbdff06f          	j	80010d0c <__adddf3+0x204>
    80010d54:	7ff00713          	li	a4,2047
    80010d58:	e4e90ae3          	beq	s2,a4,80010bac <__adddf3+0xa4>
    80010d5c:	00100713          	li	a4,1
    80010d60:	03771713          	sll	a4,a4,0x37
    80010d64:	00e7e7b3          	or	a5,a5,a4
    80010d68:	fc1ff06f          	j	80010d28 <__adddf3+0x220>
    80010d6c:	06050e63          	beqz	a0,80010de8 <__adddf3+0x2e0>
    80010d70:	02091a63          	bnez	s2,80010da4 <__adddf3+0x29c>
    80010d74:	1c080c63          	beqz	a6,80010f4c <__adddf3+0x444>
    80010d78:	fff6c693          	not	a3,a3
    80010d7c:	0006869b          	sext.w	a3,a3
    80010d80:	00069a63          	bnez	a3,80010d94 <__adddf3+0x28c>
    80010d84:	410787b3          	sub	a5,a5,a6
    80010d88:	00060913          	mv	s2,a2
    80010d8c:	00058413          	mv	s0,a1
    80010d90:	f7dff06f          	j	80010d0c <__adddf3+0x204>
    80010d94:	7ff00713          	li	a4,2047
    80010d98:	02e61263          	bne	a2,a4,80010dbc <__adddf3+0x2b4>
    80010d9c:	7ff00913          	li	s2,2047
    80010da0:	1b00006f          	j	80010f50 <__adddf3+0x448>
    80010da4:	7ff00713          	li	a4,2047
    80010da8:	fee60ae3          	beq	a2,a4,80010d9c <__adddf3+0x294>
    80010dac:	00100713          	li	a4,1
    80010db0:	03771713          	sll	a4,a4,0x37
    80010db4:	40d006bb          	negw	a3,a3
    80010db8:	00e86833          	or	a6,a6,a4
    80010dbc:	03800513          	li	a0,56
    80010dc0:	00100713          	li	a4,1
    80010dc4:	00d54e63          	blt	a0,a3,80010de0 <__adddf3+0x2d8>
    80010dc8:	04000713          	li	a4,64
    80010dcc:	40d7073b          	subw	a4,a4,a3
    80010dd0:	00e81733          	sll	a4,a6,a4
    80010dd4:	00d85533          	srl	a0,a6,a3
    80010dd8:	00e03733          	snez	a4,a4
    80010ddc:	00e56733          	or	a4,a0,a4
    80010de0:	40e787b3          	sub	a5,a5,a4
    80010de4:	fa5ff06f          	j	80010d88 <__adddf3+0x280>
    80010de8:	00190713          	add	a4,s2,1
    80010dec:	7fe77713          	and	a4,a4,2046
    80010df0:	0c071863          	bnez	a4,80010ec0 <__adddf3+0x3b8>
    80010df4:	02091c63          	bnez	s2,80010e2c <__adddf3+0x324>
    80010df8:	00081863          	bnez	a6,80010e08 <__adddf3+0x300>
    80010dfc:	14079a63          	bnez	a5,80010f50 <__adddf3+0x448>
    80010e00:	00000413          	li	s0,0
    80010e04:	0400006f          	j	80010e44 <__adddf3+0x33c>
    80010e08:	da0782e3          	beqz	a5,80010bac <__adddf3+0xa4>
    80010e0c:	40f80733          	sub	a4,a6,a5
    80010e10:	00871693          	sll	a3,a4,0x8
    80010e14:	410787b3          	sub	a5,a5,a6
    80010e18:	1206cc63          	bltz	a3,80010f50 <__adddf3+0x448>
    80010e1c:	00070793          	mv	a5,a4
    80010e20:	e80712e3          	bnez	a4,80010ca4 <__adddf3+0x19c>
    80010e24:	00000793          	li	a5,0
    80010e28:	fd9ff06f          	j	80010e00 <__adddf3+0x2f8>
    80010e2c:	e8081ce3          	bnez	a6,80010cc4 <__adddf3+0x1bc>
    80010e30:	12079463          	bnez	a5,80010f58 <__adddf3+0x450>
    80010e34:	00100793          	li	a5,1
    80010e38:	00000413          	li	s0,0
    80010e3c:	03679793          	sll	a5,a5,0x36
    80010e40:	7ff00913          	li	s2,2047
    80010e44:	00879713          	sll	a4,a5,0x8
    80010e48:	02075063          	bgez	a4,80010e68 <__adddf3+0x360>
    80010e4c:	00190913          	add	s2,s2,1
    80010e50:	7ff00713          	li	a4,2047
    80010e54:	10e90a63          	beq	s2,a4,80010f68 <__adddf3+0x460>
    80010e58:	fff00713          	li	a4,-1
    80010e5c:	03771713          	sll	a4,a4,0x37
    80010e60:	fff70713          	add	a4,a4,-1
    80010e64:	00e7f7b3          	and	a5,a5,a4
    80010e68:	7ff00713          	li	a4,2047
    80010e6c:	0037d793          	srl	a5,a5,0x3
    80010e70:	00e91a63          	bne	s2,a4,80010e84 <__adddf3+0x37c>
    80010e74:	00078863          	beqz	a5,80010e84 <__adddf3+0x37c>
    80010e78:	00100793          	li	a5,1
    80010e7c:	03379793          	sll	a5,a5,0x33
    80010e80:	00000413          	li	s0,0
    80010e84:	7ff00693          	li	a3,2047
    80010e88:	01813083          	ld	ra,24(sp)
    80010e8c:	03491713          	sll	a4,s2,0x34
    80010e90:	03f41513          	sll	a0,s0,0x3f
    80010e94:	03469693          	sll	a3,a3,0x34
    80010e98:	01013403          	ld	s0,16(sp)
    80010e9c:	00c79793          	sll	a5,a5,0xc
    80010ea0:	00d77733          	and	a4,a4,a3
    80010ea4:	00c7d793          	srl	a5,a5,0xc
    80010ea8:	00f767b3          	or	a5,a4,a5
    80010eac:	00813483          	ld	s1,8(sp)
    80010eb0:	00013903          	ld	s2,0(sp)
    80010eb4:	00a7e533          	or	a0,a5,a0
    80010eb8:	02010113          	add	sp,sp,32
    80010ebc:	00008067          	ret
    80010ec0:	40f804b3          	sub	s1,a6,a5
    80010ec4:	00849713          	sll	a4,s1,0x8
    80010ec8:	04075463          	bgez	a4,80010f10 <__adddf3+0x408>
    80010ecc:	410784b3          	sub	s1,a5,a6
    80010ed0:	00058413          	mv	s0,a1
    80010ed4:	00048513          	mv	a0,s1
    80010ed8:	134020ef          	jal	8001300c <__clzdi2>
    80010edc:	ff85079b          	addw	a5,a0,-8
    80010ee0:	00f494b3          	sll	s1,s1,a5
    80010ee4:	0327ce63          	blt	a5,s2,80010f20 <__adddf3+0x418>
    80010ee8:	4127853b          	subw	a0,a5,s2
    80010eec:	0015051b          	addw	a0,a0,1
    80010ef0:	04000713          	li	a4,64
    80010ef4:	40a7073b          	subw	a4,a4,a0
    80010ef8:	00a4d7b3          	srl	a5,s1,a0
    80010efc:	00e494b3          	sll	s1,s1,a4
    80010f00:	009034b3          	snez	s1,s1
    80010f04:	0097e7b3          	or	a5,a5,s1
    80010f08:	00000913          	li	s2,0
    80010f0c:	d99ff06f          	j	80010ca4 <__adddf3+0x19c>
    80010f10:	fc0492e3          	bnez	s1,80010ed4 <__adddf3+0x3cc>
    80010f14:	00000793          	li	a5,0
    80010f18:	00000913          	li	s2,0
    80010f1c:	ee5ff06f          	j	80010e00 <__adddf3+0x2f8>
    80010f20:	40f90933          	sub	s2,s2,a5
    80010f24:	fff00793          	li	a5,-1
    80010f28:	03779793          	sll	a5,a5,0x37
    80010f2c:	fff78793          	add	a5,a5,-1
    80010f30:	00f4f7b3          	and	a5,s1,a5
    80010f34:	d71ff06f          	j	80010ca4 <__adddf3+0x19c>
    80010f38:	00060913          	mv	s2,a2
    80010f3c:	d69ff06f          	j	80010ca4 <__adddf3+0x19c>
    80010f40:	7ff00913          	li	s2,2047
    80010f44:	00000793          	li	a5,0
    80010f48:	efdff06f          	j	80010e44 <__adddf3+0x33c>
    80010f4c:	00060913          	mv	s2,a2
    80010f50:	00058413          	mv	s0,a1
    80010f54:	d51ff06f          	j	80010ca4 <__adddf3+0x19c>
    80010f58:	00058413          	mv	s0,a1
    80010f5c:	cc5ff06f          	j	80010c20 <__adddf3+0x118>
    80010f60:	00080793          	mv	a5,a6
    80010f64:	cbdff06f          	j	80010c20 <__adddf3+0x118>
    80010f68:	00000793          	li	a5,0
    80010f6c:	efdff06f          	j	80010e68 <__adddf3+0x360>

0000000080010f70 <__divdf3>:
    80010f70:	fc010113          	add	sp,sp,-64
    80010f74:	02913423          	sd	s1,40(sp)
    80010f78:	03455493          	srl	s1,a0,0x34
    80010f7c:	03213023          	sd	s2,32(sp)
    80010f80:	01313c23          	sd	s3,24(sp)
    80010f84:	01413823          	sd	s4,16(sp)
    80010f88:	00c51993          	sll	s3,a0,0xc
    80010f8c:	02113c23          	sd	ra,56(sp)
    80010f90:	02813823          	sd	s0,48(sp)
    80010f94:	01513423          	sd	s5,8(sp)
    80010f98:	7ff4f493          	and	s1,s1,2047
    80010f9c:	00058a13          	mv	s4,a1
    80010fa0:	00c9d993          	srl	s3,s3,0xc
    80010fa4:	03f55913          	srl	s2,a0,0x3f
    80010fa8:	08048a63          	beqz	s1,8001103c <__divdf3+0xcc>
    80010fac:	7ff00793          	li	a5,2047
    80010fb0:	0af48863          	beq	s1,a5,80011060 <__divdf3+0xf0>
    80010fb4:	00100793          	li	a5,1
    80010fb8:	00399993          	sll	s3,s3,0x3
    80010fbc:	03779793          	sll	a5,a5,0x37
    80010fc0:	00f9e9b3          	or	s3,s3,a5
    80010fc4:	c0148493          	add	s1,s1,-1023
    80010fc8:	00000a93          	li	s5,0
    80010fcc:	034a5793          	srl	a5,s4,0x34
    80010fd0:	00ca1413          	sll	s0,s4,0xc
    80010fd4:	7ff7f793          	and	a5,a5,2047
    80010fd8:	00c45413          	srl	s0,s0,0xc
    80010fdc:	03fa5a13          	srl	s4,s4,0x3f
    80010fe0:	0a078063          	beqz	a5,80011080 <__divdf3+0x110>
    80010fe4:	7ff00713          	li	a4,2047
    80010fe8:	0ae78e63          	beq	a5,a4,800110a4 <__divdf3+0x134>
    80010fec:	00100713          	li	a4,1
    80010ff0:	00341413          	sll	s0,s0,0x3
    80010ff4:	03771713          	sll	a4,a4,0x37
    80010ff8:	00e46433          	or	s0,s0,a4
    80010ffc:	c0178793          	add	a5,a5,-1023
    80011000:	00000713          	li	a4,0
    80011004:	40f484b3          	sub	s1,s1,a5
    80011008:	002a9793          	sll	a5,s5,0x2
    8001100c:	00e7e7b3          	or	a5,a5,a4
    80011010:	fff78793          	add	a5,a5,-1
    80011014:	00e00613          	li	a2,14
    80011018:	014946b3          	xor	a3,s2,s4
    8001101c:	0af66463          	bltu	a2,a5,800110c4 <__divdf3+0x154>
    80011020:	0000d617          	auipc	a2,0xd
    80011024:	c2060613          	add	a2,a2,-992 # 8001dc40 <blanks.1+0x10>
    80011028:	00279793          	sll	a5,a5,0x2
    8001102c:	00c787b3          	add	a5,a5,a2
    80011030:	0007a783          	lw	a5,0(a5)
    80011034:	00c787b3          	add	a5,a5,a2
    80011038:	00078067          	jr	a5
    8001103c:	02098c63          	beqz	s3,80011074 <__divdf3+0x104>
    80011040:	00098513          	mv	a0,s3
    80011044:	7c9010ef          	jal	8001300c <__clzdi2>
    80011048:	0005079b          	sext.w	a5,a0
    8001104c:	c0d00493          	li	s1,-1011
    80011050:	ff85051b          	addw	a0,a0,-8
    80011054:	00a999b3          	sll	s3,s3,a0
    80011058:	40f484b3          	sub	s1,s1,a5
    8001105c:	f6dff06f          	j	80010fc8 <__divdf3+0x58>
    80011060:	7ff00493          	li	s1,2047
    80011064:	00200a93          	li	s5,2
    80011068:	f60982e3          	beqz	s3,80010fcc <__divdf3+0x5c>
    8001106c:	00300a93          	li	s5,3
    80011070:	f5dff06f          	j	80010fcc <__divdf3+0x5c>
    80011074:	00000493          	li	s1,0
    80011078:	00100a93          	li	s5,1
    8001107c:	f51ff06f          	j	80010fcc <__divdf3+0x5c>
    80011080:	02040c63          	beqz	s0,800110b8 <__divdf3+0x148>
    80011084:	00040513          	mv	a0,s0
    80011088:	785010ef          	jal	8001300c <__clzdi2>
    8001108c:	0005071b          	sext.w	a4,a0
    80011090:	c0d00793          	li	a5,-1011
    80011094:	ff85051b          	addw	a0,a0,-8
    80011098:	00a41433          	sll	s0,s0,a0
    8001109c:	40e787b3          	sub	a5,a5,a4
    800110a0:	f61ff06f          	j	80011000 <__divdf3+0x90>
    800110a4:	7ff00793          	li	a5,2047
    800110a8:	00200713          	li	a4,2
    800110ac:	f4040ce3          	beqz	s0,80011004 <__divdf3+0x94>
    800110b0:	00300713          	li	a4,3
    800110b4:	f51ff06f          	j	80011004 <__divdf3+0x94>
    800110b8:	00000793          	li	a5,0
    800110bc:	00100713          	li	a4,1
    800110c0:	f45ff06f          	j	80011004 <__divdf3+0x94>
    800110c4:	00841613          	sll	a2,s0,0x8
    800110c8:	1289f663          	bgeu	s3,s0,800111f4 <__divdf3+0x284>
    800110cc:	fff48493          	add	s1,s1,-1
    800110d0:	00000793          	li	a5,0
    800110d4:	02065593          	srl	a1,a2,0x20
    800110d8:	02b9d833          	divu	a6,s3,a1
    800110dc:	00100713          	li	a4,1
    800110e0:	02071713          	sll	a4,a4,0x20
    800110e4:	f0070713          	add	a4,a4,-256
    800110e8:	00e67733          	and	a4,a2,a4
    800110ec:	0207d793          	srl	a5,a5,0x20
    800110f0:	02b9f9b3          	remu	s3,s3,a1
    800110f4:	00080413          	mv	s0,a6
    800110f8:	03070533          	mul	a0,a4,a6
    800110fc:	02099993          	sll	s3,s3,0x20
    80011100:	0137e7b3          	or	a5,a5,s3
    80011104:	00a7fe63          	bgeu	a5,a0,80011120 <__divdf3+0x1b0>
    80011108:	00f607b3          	add	a5,a2,a5
    8001110c:	fff80413          	add	s0,a6,-1
    80011110:	00c7e863          	bltu	a5,a2,80011120 <__divdf3+0x1b0>
    80011114:	00a7f663          	bgeu	a5,a0,80011120 <__divdf3+0x1b0>
    80011118:	ffe80413          	add	s0,a6,-2
    8001111c:	00c787b3          	add	a5,a5,a2
    80011120:	40a787b3          	sub	a5,a5,a0
    80011124:	02b7d533          	divu	a0,a5,a1
    80011128:	02b7f7b3          	remu	a5,a5,a1
    8001112c:	00050593          	mv	a1,a0
    80011130:	02a70733          	mul	a4,a4,a0
    80011134:	02079793          	sll	a5,a5,0x20
    80011138:	02e7f263          	bgeu	a5,a4,8001115c <__divdf3+0x1ec>
    8001113c:	00c78833          	add	a6,a5,a2
    80011140:	00f838b3          	sltu	a7,a6,a5
    80011144:	fff50593          	add	a1,a0,-1
    80011148:	00080793          	mv	a5,a6
    8001114c:	00089863          	bnez	a7,8001115c <__divdf3+0x1ec>
    80011150:	00e87663          	bgeu	a6,a4,8001115c <__divdf3+0x1ec>
    80011154:	ffe50593          	add	a1,a0,-2
    80011158:	00c807b3          	add	a5,a6,a2
    8001115c:	02041413          	sll	s0,s0,0x20
    80011160:	40e787b3          	sub	a5,a5,a4
    80011164:	00b46433          	or	s0,s0,a1
    80011168:	00f037b3          	snez	a5,a5
    8001116c:	00f46433          	or	s0,s0,a5
    80011170:	3ff48713          	add	a4,s1,1023
    80011174:	0ce05c63          	blez	a4,8001124c <__divdf3+0x2dc>
    80011178:	00747793          	and	a5,s0,7
    8001117c:	00078a63          	beqz	a5,80011190 <__divdf3+0x220>
    80011180:	00f47793          	and	a5,s0,15
    80011184:	00400613          	li	a2,4
    80011188:	00c78463          	beq	a5,a2,80011190 <__divdf3+0x220>
    8001118c:	00440413          	add	s0,s0,4
    80011190:	00741793          	sll	a5,s0,0x7
    80011194:	0007dc63          	bgez	a5,800111ac <__divdf3+0x23c>
    80011198:	fff00793          	li	a5,-1
    8001119c:	03879793          	sll	a5,a5,0x38
    800111a0:	fff78793          	add	a5,a5,-1
    800111a4:	00f47433          	and	s0,s0,a5
    800111a8:	40048713          	add	a4,s1,1024
    800111ac:	7fe00793          	li	a5,2046
    800111b0:	06e7ca63          	blt	a5,a4,80011224 <__divdf3+0x2b4>
    800111b4:	00345793          	srl	a5,s0,0x3
    800111b8:	03813083          	ld	ra,56(sp)
    800111bc:	03013403          	ld	s0,48(sp)
    800111c0:	00c79793          	sll	a5,a5,0xc
    800111c4:	03471713          	sll	a4,a4,0x34
    800111c8:	00c7d793          	srl	a5,a5,0xc
    800111cc:	00f76733          	or	a4,a4,a5
    800111d0:	03f69513          	sll	a0,a3,0x3f
    800111d4:	02813483          	ld	s1,40(sp)
    800111d8:	02013903          	ld	s2,32(sp)
    800111dc:	01813983          	ld	s3,24(sp)
    800111e0:	01013a03          	ld	s4,16(sp)
    800111e4:	00813a83          	ld	s5,8(sp)
    800111e8:	00a76533          	or	a0,a4,a0
    800111ec:	04010113          	add	sp,sp,64
    800111f0:	00008067          	ret
    800111f4:	03f99793          	sll	a5,s3,0x3f
    800111f8:	0019d993          	srl	s3,s3,0x1
    800111fc:	ed9ff06f          	j	800110d4 <__divdf3+0x164>
    80011200:	00090693          	mv	a3,s2
    80011204:	00098413          	mv	s0,s3
    80011208:	000a8713          	mv	a4,s5
    8001120c:	00300793          	li	a5,3
    80011210:	08f70a63          	beq	a4,a5,800112a4 <__divdf3+0x334>
    80011214:	00100793          	li	a5,1
    80011218:	0af70063          	beq	a4,a5,800112b8 <__divdf3+0x348>
    8001121c:	00200793          	li	a5,2
    80011220:	f4f718e3          	bne	a4,a5,80011170 <__divdf3+0x200>
    80011224:	00000793          	li	a5,0
    80011228:	7ff00713          	li	a4,2047
    8001122c:	f8dff06f          	j	800111b8 <__divdf3+0x248>
    80011230:	000a0693          	mv	a3,s4
    80011234:	fd9ff06f          	j	8001120c <__divdf3+0x29c>
    80011238:	00100413          	li	s0,1
    8001123c:	03341413          	sll	s0,s0,0x33
    80011240:	00000693          	li	a3,0
    80011244:	00300713          	li	a4,3
    80011248:	fc5ff06f          	j	8001120c <__divdf3+0x29c>
    8001124c:	00100793          	li	a5,1
    80011250:	40e78733          	sub	a4,a5,a4
    80011254:	03800793          	li	a5,56
    80011258:	06e7c063          	blt	a5,a4,800112b8 <__divdf3+0x348>
    8001125c:	04000613          	li	a2,64
    80011260:	00e457b3          	srl	a5,s0,a4
    80011264:	40e6073b          	subw	a4,a2,a4
    80011268:	00e41433          	sll	s0,s0,a4
    8001126c:	00803433          	snez	s0,s0
    80011270:	0087e7b3          	or	a5,a5,s0
    80011274:	0077f713          	and	a4,a5,7
    80011278:	00070a63          	beqz	a4,8001128c <__divdf3+0x31c>
    8001127c:	00f7f713          	and	a4,a5,15
    80011280:	00400613          	li	a2,4
    80011284:	00c70463          	beq	a4,a2,8001128c <__divdf3+0x31c>
    80011288:	00478793          	add	a5,a5,4
    8001128c:	00879713          	sll	a4,a5,0x8
    80011290:	0037d793          	srl	a5,a5,0x3
    80011294:	02075463          	bgez	a4,800112bc <__divdf3+0x34c>
    80011298:	00000793          	li	a5,0
    8001129c:	00100713          	li	a4,1
    800112a0:	f19ff06f          	j	800111b8 <__divdf3+0x248>
    800112a4:	00100793          	li	a5,1
    800112a8:	03379793          	sll	a5,a5,0x33
    800112ac:	7ff00713          	li	a4,2047
    800112b0:	00000693          	li	a3,0
    800112b4:	f05ff06f          	j	800111b8 <__divdf3+0x248>
    800112b8:	00000793          	li	a5,0
    800112bc:	00000713          	li	a4,0
    800112c0:	ef9ff06f          	j	800111b8 <__divdf3+0x248>

00000000800112c4 <__eqdf2>:
    800112c4:	fff00793          	li	a5,-1
    800112c8:	03455613          	srl	a2,a0,0x34
    800112cc:	00c7d793          	srl	a5,a5,0xc
    800112d0:	0345d813          	srl	a6,a1,0x34
    800112d4:	7ff67613          	and	a2,a2,2047
    800112d8:	7ff00693          	li	a3,2047
    800112dc:	00a7f8b3          	and	a7,a5,a0
    800112e0:	03f55713          	srl	a4,a0,0x3f
    800112e4:	00b7f7b3          	and	a5,a5,a1
    800112e8:	7ff87813          	and	a6,a6,2047
    800112ec:	03f5d593          	srl	a1,a1,0x3f
    800112f0:	00d61e63          	bne	a2,a3,8001130c <__eqdf2+0x48>
    800112f4:	00100513          	li	a0,1
    800112f8:	04089663          	bnez	a7,80011344 <__eqdf2+0x80>
    800112fc:	00100693          	li	a3,1
    80011300:	02c81863          	bne	a6,a2,80011330 <__eqdf2+0x6c>
    80011304:	00078c63          	beqz	a5,8001131c <__eqdf2+0x58>
    80011308:	00008067          	ret
    8001130c:	02d80663          	beq	a6,a3,80011338 <__eqdf2+0x74>
    80011310:	00100693          	li	a3,1
    80011314:	01061e63          	bne	a2,a6,80011330 <__eqdf2+0x6c>
    80011318:	00f89c63          	bne	a7,a5,80011330 <__eqdf2+0x6c>
    8001131c:	00000693          	li	a3,0
    80011320:	00b70863          	beq	a4,a1,80011330 <__eqdf2+0x6c>
    80011324:	00100693          	li	a3,1
    80011328:	00061463          	bnez	a2,80011330 <__eqdf2+0x6c>
    8001132c:	011036b3          	snez	a3,a7
    80011330:	00068513          	mv	a0,a3
    80011334:	00008067          	ret
    80011338:	00100513          	li	a0,1
    8001133c:	00100693          	li	a3,1
    80011340:	fe0788e3          	beqz	a5,80011330 <__eqdf2+0x6c>
    80011344:	00008067          	ret

0000000080011348 <__gedf2>:
    80011348:	fff00793          	li	a5,-1
    8001134c:	00c7d793          	srl	a5,a5,0xc
    80011350:	03455693          	srl	a3,a0,0x34
    80011354:	00a7f633          	and	a2,a5,a0
    80011358:	03f55713          	srl	a4,a0,0x3f
    8001135c:	7ff6f693          	and	a3,a3,2047
    80011360:	0345d513          	srl	a0,a1,0x34
    80011364:	7ff00813          	li	a6,2047
    80011368:	00b7f7b3          	and	a5,a5,a1
    8001136c:	7ff57513          	and	a0,a0,2047
    80011370:	03f5d593          	srl	a1,a1,0x3f
    80011374:	01069463          	bne	a3,a6,8001137c <__gedf2+0x34>
    80011378:	04061263          	bnez	a2,800113bc <__gedf2+0x74>
    8001137c:	7ff00813          	li	a6,2047
    80011380:	01051463          	bne	a0,a6,80011388 <__gedf2+0x40>
    80011384:	02079c63          	bnez	a5,800113bc <__gedf2+0x74>
    80011388:	04069a63          	bnez	a3,800113dc <__gedf2+0x94>
    8001138c:	02051c63          	bnez	a0,800113c4 <__gedf2+0x7c>
    80011390:	04061863          	bnez	a2,800113e0 <__gedf2+0x98>
    80011394:	04078263          	beqz	a5,800113d8 <__gedf2+0x90>
    80011398:	00100513          	li	a0,1
    8001139c:	02059e63          	bnez	a1,800113d8 <__gedf2+0x90>
    800113a0:	fff00513          	li	a0,-1
    800113a4:	00008067          	ret
    800113a8:	fea6c8e3          	blt	a3,a0,80011398 <__gedf2+0x50>
    800113ac:	02c7e263          	bltu	a5,a2,800113d0 <__gedf2+0x88>
    800113b0:	00000513          	li	a0,0
    800113b4:	02f67263          	bgeu	a2,a5,800113d8 <__gedf2+0x90>
    800113b8:	fe1ff06f          	j	80011398 <__gedf2+0x50>
    800113bc:	ffe00513          	li	a0,-2
    800113c0:	00008067          	ret
    800113c4:	fc060ae3          	beqz	a2,80011398 <__gedf2+0x50>
    800113c8:	00e59e63          	bne	a1,a4,800113e4 <__gedf2+0x9c>
    800113cc:	fcd55ee3          	bge	a0,a3,800113a8 <__gedf2+0x60>
    800113d0:	fff00513          	li	a0,-1
    800113d4:	00058c63          	beqz	a1,800113ec <__gedf2+0xa4>
    800113d8:	00008067          	ret
    800113dc:	fe0516e3          	bnez	a0,800113c8 <__gedf2+0x80>
    800113e0:	fe0794e3          	bnez	a5,800113c8 <__gedf2+0x80>
    800113e4:	fff00513          	li	a0,-1
    800113e8:	fe0718e3          	bnez	a4,800113d8 <__gedf2+0x90>
    800113ec:	00100513          	li	a0,1
    800113f0:	00008067          	ret

00000000800113f4 <__ledf2>:
    800113f4:	fff00793          	li	a5,-1
    800113f8:	00c7d793          	srl	a5,a5,0xc
    800113fc:	03455693          	srl	a3,a0,0x34
    80011400:	00a7f633          	and	a2,a5,a0
    80011404:	03f55713          	srl	a4,a0,0x3f
    80011408:	7ff6f693          	and	a3,a3,2047
    8001140c:	0345d513          	srl	a0,a1,0x34
    80011410:	7ff00813          	li	a6,2047
    80011414:	00b7f7b3          	and	a5,a5,a1
    80011418:	7ff57513          	and	a0,a0,2047
    8001141c:	03f5d593          	srl	a1,a1,0x3f
    80011420:	01069463          	bne	a3,a6,80011428 <__ledf2+0x34>
    80011424:	04061263          	bnez	a2,80011468 <__ledf2+0x74>
    80011428:	7ff00813          	li	a6,2047
    8001142c:	01051463          	bne	a0,a6,80011434 <__ledf2+0x40>
    80011430:	02079c63          	bnez	a5,80011468 <__ledf2+0x74>
    80011434:	04069a63          	bnez	a3,80011488 <__ledf2+0x94>
    80011438:	02051c63          	bnez	a0,80011470 <__ledf2+0x7c>
    8001143c:	04061863          	bnez	a2,8001148c <__ledf2+0x98>
    80011440:	04078263          	beqz	a5,80011484 <__ledf2+0x90>
    80011444:	00100513          	li	a0,1
    80011448:	02059e63          	bnez	a1,80011484 <__ledf2+0x90>
    8001144c:	fff00513          	li	a0,-1
    80011450:	00008067          	ret
    80011454:	fea6c8e3          	blt	a3,a0,80011444 <__ledf2+0x50>
    80011458:	02c7e263          	bltu	a5,a2,8001147c <__ledf2+0x88>
    8001145c:	00000513          	li	a0,0
    80011460:	02f67263          	bgeu	a2,a5,80011484 <__ledf2+0x90>
    80011464:	fe1ff06f          	j	80011444 <__ledf2+0x50>
    80011468:	00200513          	li	a0,2
    8001146c:	00008067          	ret
    80011470:	fc060ae3          	beqz	a2,80011444 <__ledf2+0x50>
    80011474:	00e59e63          	bne	a1,a4,80011490 <__ledf2+0x9c>
    80011478:	fcd55ee3          	bge	a0,a3,80011454 <__ledf2+0x60>
    8001147c:	fff00513          	li	a0,-1
    80011480:	00058c63          	beqz	a1,80011498 <__ledf2+0xa4>
    80011484:	00008067          	ret
    80011488:	fe0516e3          	bnez	a0,80011474 <__ledf2+0x80>
    8001148c:	fe0794e3          	bnez	a5,80011474 <__ledf2+0x80>
    80011490:	fff00513          	li	a0,-1
    80011494:	fe0718e3          	bnez	a4,80011484 <__ledf2+0x90>
    80011498:	00100513          	li	a0,1
    8001149c:	00008067          	ret

00000000800114a0 <__muldf3>:
    800114a0:	fc010113          	add	sp,sp,-64
    800114a4:	03213023          	sd	s2,32(sp)
    800114a8:	03455913          	srl	s2,a0,0x34
    800114ac:	02913423          	sd	s1,40(sp)
    800114b0:	01313c23          	sd	s3,24(sp)
    800114b4:	01513423          	sd	s5,8(sp)
    800114b8:	00c51493          	sll	s1,a0,0xc
    800114bc:	02113c23          	sd	ra,56(sp)
    800114c0:	02813823          	sd	s0,48(sp)
    800114c4:	01413823          	sd	s4,16(sp)
    800114c8:	7ff97913          	and	s2,s2,2047
    800114cc:	00058a93          	mv	s5,a1
    800114d0:	00c4d493          	srl	s1,s1,0xc
    800114d4:	03f55993          	srl	s3,a0,0x3f
    800114d8:	12090063          	beqz	s2,800115f8 <__muldf3+0x158>
    800114dc:	7ff00793          	li	a5,2047
    800114e0:	12f90e63          	beq	s2,a5,8001161c <__muldf3+0x17c>
    800114e4:	00100793          	li	a5,1
    800114e8:	00349493          	sll	s1,s1,0x3
    800114ec:	03779793          	sll	a5,a5,0x37
    800114f0:	00f4e4b3          	or	s1,s1,a5
    800114f4:	c0190913          	add	s2,s2,-1023
    800114f8:	00000a13          	li	s4,0
    800114fc:	034ad793          	srl	a5,s5,0x34
    80011500:	00ca9413          	sll	s0,s5,0xc
    80011504:	7ff7f793          	and	a5,a5,2047
    80011508:	00c45413          	srl	s0,s0,0xc
    8001150c:	03fada93          	srl	s5,s5,0x3f
    80011510:	12078663          	beqz	a5,8001163c <__muldf3+0x19c>
    80011514:	7ff00713          	li	a4,2047
    80011518:	14e78463          	beq	a5,a4,80011660 <__muldf3+0x1c0>
    8001151c:	00100713          	li	a4,1
    80011520:	00341413          	sll	s0,s0,0x3
    80011524:	03771713          	sll	a4,a4,0x37
    80011528:	00e46433          	or	s0,s0,a4
    8001152c:	c0178793          	add	a5,a5,-1023
    80011530:	00000713          	li	a4,0
    80011534:	00f90933          	add	s2,s2,a5
    80011538:	002a1793          	sll	a5,s4,0x2
    8001153c:	00e7e7b3          	or	a5,a5,a4
    80011540:	00a00693          	li	a3,10
    80011544:	00190513          	add	a0,s2,1
    80011548:	1ef6cc63          	blt	a3,a5,80011740 <__muldf3+0x2a0>
    8001154c:	00200693          	li	a3,2
    80011550:	0159c9b3          	xor	s3,s3,s5
    80011554:	12f6c663          	blt	a3,a5,80011680 <__muldf3+0x1e0>
    80011558:	fff78793          	add	a5,a5,-1
    8001155c:	00100693          	li	a3,1
    80011560:	14f6f263          	bgeu	a3,a5,800116a4 <__muldf3+0x204>
    80011564:	fff00613          	li	a2,-1
    80011568:	02065613          	srl	a2,a2,0x20
    8001156c:	0204d693          	srl	a3,s1,0x20
    80011570:	02045793          	srl	a5,s0,0x20
    80011574:	00c4f4b3          	and	s1,s1,a2
    80011578:	00c47433          	and	s0,s0,a2
    8001157c:	029405b3          	mul	a1,s0,s1
    80011580:	02868433          	mul	s0,a3,s0
    80011584:	02f686b3          	mul	a3,a3,a5
    80011588:	029787b3          	mul	a5,a5,s1
    8001158c:	00878733          	add	a4,a5,s0
    80011590:	0205d793          	srl	a5,a1,0x20
    80011594:	00e787b3          	add	a5,a5,a4
    80011598:	0087f863          	bgeu	a5,s0,800115a8 <__muldf3+0x108>
    8001159c:	00100713          	li	a4,1
    800115a0:	02071713          	sll	a4,a4,0x20
    800115a4:	00e686b3          	add	a3,a3,a4
    800115a8:	00c7f733          	and	a4,a5,a2
    800115ac:	02071713          	sll	a4,a4,0x20
    800115b0:	00c5f5b3          	and	a1,a1,a2
    800115b4:	00b70733          	add	a4,a4,a1
    800115b8:	0207d793          	srl	a5,a5,0x20
    800115bc:	00971413          	sll	s0,a4,0x9
    800115c0:	00d787b3          	add	a5,a5,a3
    800115c4:	03775713          	srl	a4,a4,0x37
    800115c8:	00979793          	sll	a5,a5,0x9
    800115cc:	00803433          	snez	s0,s0
    800115d0:	00e46433          	or	s0,s0,a4
    800115d4:	00779713          	sll	a4,a5,0x7
    800115d8:	0087e433          	or	s0,a5,s0
    800115dc:	00075a63          	bgez	a4,800115f0 <__muldf3+0x150>
    800115e0:	00145793          	srl	a5,s0,0x1
    800115e4:	00147413          	and	s0,s0,1
    800115e8:	0087e433          	or	s0,a5,s0
    800115ec:	00050913          	mv	s2,a0
    800115f0:	00090513          	mv	a0,s2
    800115f4:	0c80006f          	j	800116bc <__muldf3+0x21c>
    800115f8:	02048c63          	beqz	s1,80011630 <__muldf3+0x190>
    800115fc:	00048513          	mv	a0,s1
    80011600:	20d010ef          	jal	8001300c <__clzdi2>
    80011604:	0005079b          	sext.w	a5,a0
    80011608:	c0d00913          	li	s2,-1011
    8001160c:	ff85051b          	addw	a0,a0,-8
    80011610:	00a494b3          	sll	s1,s1,a0
    80011614:	40f90933          	sub	s2,s2,a5
    80011618:	ee1ff06f          	j	800114f8 <__muldf3+0x58>
    8001161c:	7ff00913          	li	s2,2047
    80011620:	00200a13          	li	s4,2
    80011624:	ec048ce3          	beqz	s1,800114fc <__muldf3+0x5c>
    80011628:	00300a13          	li	s4,3
    8001162c:	ed1ff06f          	j	800114fc <__muldf3+0x5c>
    80011630:	00000913          	li	s2,0
    80011634:	00100a13          	li	s4,1
    80011638:	ec5ff06f          	j	800114fc <__muldf3+0x5c>
    8001163c:	02040c63          	beqz	s0,80011674 <__muldf3+0x1d4>
    80011640:	00040513          	mv	a0,s0
    80011644:	1c9010ef          	jal	8001300c <__clzdi2>
    80011648:	0005071b          	sext.w	a4,a0
    8001164c:	c0d00793          	li	a5,-1011
    80011650:	ff85051b          	addw	a0,a0,-8
    80011654:	00a41433          	sll	s0,s0,a0
    80011658:	40e787b3          	sub	a5,a5,a4
    8001165c:	ed5ff06f          	j	80011530 <__muldf3+0x90>
    80011660:	7ff00793          	li	a5,2047
    80011664:	00200713          	li	a4,2
    80011668:	ec0406e3          	beqz	s0,80011534 <__muldf3+0x94>
    8001166c:	00300713          	li	a4,3
    80011670:	ec5ff06f          	j	80011534 <__muldf3+0x94>
    80011674:	00000793          	li	a5,0
    80011678:	00100713          	li	a4,1
    8001167c:	eb9ff06f          	j	80011534 <__muldf3+0x94>
    80011680:	00100693          	li	a3,1
    80011684:	00f697b3          	sll	a5,a3,a5
    80011688:	5307f693          	and	a3,a5,1328
    8001168c:	0c069263          	bnez	a3,80011750 <__muldf3+0x2b0>
    80011690:	2407f693          	and	a3,a5,576
    80011694:	12069663          	bnez	a3,800117c0 <__muldf3+0x320>
    80011698:	0887f793          	and	a5,a5,136
    8001169c:	ec0784e3          	beqz	a5,80011564 <__muldf3+0xc4>
    800116a0:	000a8993          	mv	s3,s5
    800116a4:	00200793          	li	a5,2
    800116a8:	10f70663          	beq	a4,a5,800117b4 <__muldf3+0x314>
    800116ac:	00300793          	li	a5,3
    800116b0:	10f70863          	beq	a4,a5,800117c0 <__muldf3+0x320>
    800116b4:	00100793          	li	a5,1
    800116b8:	10f70e63          	beq	a4,a5,800117d4 <__muldf3+0x334>
    800116bc:	3ff50713          	add	a4,a0,1023
    800116c0:	08e05e63          	blez	a4,8001175c <__muldf3+0x2bc>
    800116c4:	00747793          	and	a5,s0,7
    800116c8:	00078a63          	beqz	a5,800116dc <__muldf3+0x23c>
    800116cc:	00f47793          	and	a5,s0,15
    800116d0:	00400693          	li	a3,4
    800116d4:	00d78463          	beq	a5,a3,800116dc <__muldf3+0x23c>
    800116d8:	00440413          	add	s0,s0,4
    800116dc:	00741793          	sll	a5,s0,0x7
    800116e0:	0007dc63          	bgez	a5,800116f8 <__muldf3+0x258>
    800116e4:	fff00793          	li	a5,-1
    800116e8:	03879793          	sll	a5,a5,0x38
    800116ec:	fff78793          	add	a5,a5,-1
    800116f0:	00f47433          	and	s0,s0,a5
    800116f4:	40050713          	add	a4,a0,1024
    800116f8:	7fe00793          	li	a5,2046
    800116fc:	0ae7cc63          	blt	a5,a4,800117b4 <__muldf3+0x314>
    80011700:	00345793          	srl	a5,s0,0x3
    80011704:	03813083          	ld	ra,56(sp)
    80011708:	03013403          	ld	s0,48(sp)
    8001170c:	00c79793          	sll	a5,a5,0xc
    80011710:	03471513          	sll	a0,a4,0x34
    80011714:	00c7d793          	srl	a5,a5,0xc
    80011718:	03f99993          	sll	s3,s3,0x3f
    8001171c:	00f56533          	or	a0,a0,a5
    80011720:	02813483          	ld	s1,40(sp)
    80011724:	02013903          	ld	s2,32(sp)
    80011728:	01013a03          	ld	s4,16(sp)
    8001172c:	00813a83          	ld	s5,8(sp)
    80011730:	01356533          	or	a0,a0,s3
    80011734:	01813983          	ld	s3,24(sp)
    80011738:	04010113          	add	sp,sp,64
    8001173c:	00008067          	ret
    80011740:	00f00693          	li	a3,15
    80011744:	06d78e63          	beq	a5,a3,800117c0 <__muldf3+0x320>
    80011748:	00b00693          	li	a3,11
    8001174c:	f4d78ae3          	beq	a5,a3,800116a0 <__muldf3+0x200>
    80011750:	00048413          	mv	s0,s1
    80011754:	000a0713          	mv	a4,s4
    80011758:	f4dff06f          	j	800116a4 <__muldf3+0x204>
    8001175c:	00100693          	li	a3,1
    80011760:	40e686b3          	sub	a3,a3,a4
    80011764:	03800793          	li	a5,56
    80011768:	06d7c663          	blt	a5,a3,800117d4 <__muldf3+0x334>
    8001176c:	04000713          	li	a4,64
    80011770:	40d7073b          	subw	a4,a4,a3
    80011774:	00e41733          	sll	a4,s0,a4
    80011778:	00e03733          	snez	a4,a4
    8001177c:	00d457b3          	srl	a5,s0,a3
    80011780:	00e7e7b3          	or	a5,a5,a4
    80011784:	0077f713          	and	a4,a5,7
    80011788:	00070a63          	beqz	a4,8001179c <__muldf3+0x2fc>
    8001178c:	00f7f713          	and	a4,a5,15
    80011790:	00400693          	li	a3,4
    80011794:	00d70463          	beq	a4,a3,8001179c <__muldf3+0x2fc>
    80011798:	00478793          	add	a5,a5,4
    8001179c:	00879713          	sll	a4,a5,0x8
    800117a0:	0037d793          	srl	a5,a5,0x3
    800117a4:	02075a63          	bgez	a4,800117d8 <__muldf3+0x338>
    800117a8:	00000793          	li	a5,0
    800117ac:	00100713          	li	a4,1
    800117b0:	f55ff06f          	j	80011704 <__muldf3+0x264>
    800117b4:	00000793          	li	a5,0
    800117b8:	7ff00713          	li	a4,2047
    800117bc:	f49ff06f          	j	80011704 <__muldf3+0x264>
    800117c0:	00100793          	li	a5,1
    800117c4:	03379793          	sll	a5,a5,0x33
    800117c8:	7ff00713          	li	a4,2047
    800117cc:	00000993          	li	s3,0
    800117d0:	f35ff06f          	j	80011704 <__muldf3+0x264>
    800117d4:	00000793          	li	a5,0
    800117d8:	00000713          	li	a4,0
    800117dc:	f29ff06f          	j	80011704 <__muldf3+0x264>

00000000800117e0 <__subdf3>:
    800117e0:	fff00613          	li	a2,-1
    800117e4:	fe010113          	add	sp,sp,-32
    800117e8:	00c65613          	srl	a2,a2,0xc
    800117ec:	00a676b3          	and	a3,a2,a0
    800117f0:	03455813          	srl	a6,a0,0x34
    800117f4:	00813823          	sd	s0,16(sp)
    800117f8:	03f55413          	srl	s0,a0,0x3f
    800117fc:	0345d513          	srl	a0,a1,0x34
    80011800:	00b677b3          	and	a5,a2,a1
    80011804:	01213023          	sd	s2,0(sp)
    80011808:	7ff87813          	and	a6,a6,2047
    8001180c:	00113c23          	sd	ra,24(sp)
    80011810:	00913423          	sd	s1,8(sp)
    80011814:	7ff57513          	and	a0,a0,2047
    80011818:	7ff00713          	li	a4,2047
    8001181c:	00080913          	mv	s2,a6
    80011820:	00369693          	sll	a3,a3,0x3
    80011824:	03f5d593          	srl	a1,a1,0x3f
    80011828:	00379793          	sll	a5,a5,0x3
    8001182c:	00e51463          	bne	a0,a4,80011834 <__subdf3+0x54>
    80011830:	00079463          	bnez	a5,80011838 <__subdf3+0x58>
    80011834:	0015c593          	xor	a1,a1,1
    80011838:	40a8063b          	subw	a2,a6,a0
    8001183c:	0006089b          	sext.w	a7,a2
    80011840:	18859a63          	bne	a1,s0,800119d4 <__subdf3+0x1f4>
    80011844:	09105e63          	blez	a7,800118e0 <__subdf3+0x100>
    80011848:	04051c63          	bnez	a0,800118a0 <__subdf3+0xc0>
    8001184c:	04078663          	beqz	a5,80011898 <__subdf3+0xb8>
    80011850:	fff6089b          	addw	a7,a2,-1
    80011854:	02089e63          	bnez	a7,80011890 <__subdf3+0xb0>
    80011858:	00d787b3          	add	a5,a5,a3
    8001185c:	00879713          	sll	a4,a5,0x8
    80011860:	12075863          	bgez	a4,80011990 <__subdf3+0x1b0>
    80011864:	00190913          	add	s2,s2,1
    80011868:	7ff00713          	li	a4,2047
    8001186c:	34e90263          	beq	s2,a4,80011bb0 <__subdf3+0x3d0>
    80011870:	1ff00713          	li	a4,511
    80011874:	03671713          	sll	a4,a4,0x36
    80011878:	0017f693          	and	a3,a5,1
    8001187c:	fff70713          	add	a4,a4,-1
    80011880:	0017d793          	srl	a5,a5,0x1
    80011884:	00e7f7b3          	and	a5,a5,a4
    80011888:	00d7e7b3          	or	a5,a5,a3
    8001188c:	1040006f          	j	80011990 <__subdf3+0x1b0>
    80011890:	7ff00713          	li	a4,2047
    80011894:	02e81063          	bne	a6,a4,800118b4 <__subdf3+0xd4>
    80011898:	00068793          	mv	a5,a3
    8001189c:	0f40006f          	j	80011990 <__subdf3+0x1b0>
    800118a0:	7ff00713          	li	a4,2047
    800118a4:	fee80ae3          	beq	a6,a4,80011898 <__subdf3+0xb8>
    800118a8:	00100713          	li	a4,1
    800118ac:	03771713          	sll	a4,a4,0x37
    800118b0:	00e7e7b3          	or	a5,a5,a4
    800118b4:	03800613          	li	a2,56
    800118b8:	00100713          	li	a4,1
    800118bc:	01164e63          	blt	a2,a7,800118d8 <__subdf3+0xf8>
    800118c0:	04000613          	li	a2,64
    800118c4:	4116063b          	subw	a2,a2,a7
    800118c8:	00c79633          	sll	a2,a5,a2
    800118cc:	0117d733          	srl	a4,a5,a7
    800118d0:	00c03633          	snez	a2,a2
    800118d4:	00c76733          	or	a4,a4,a2
    800118d8:	00d707b3          	add	a5,a4,a3
    800118dc:	f81ff06f          	j	8001185c <__subdf3+0x7c>
    800118e0:	06088c63          	beqz	a7,80011958 <__subdf3+0x178>
    800118e4:	02081863          	bnez	a6,80011914 <__subdf3+0x134>
    800118e8:	2a068e63          	beqz	a3,80011ba4 <__subdf3+0x3c4>
    800118ec:	fff64613          	not	a2,a2
    800118f0:	0006061b          	sext.w	a2,a2
    800118f4:	00061863          	bnez	a2,80011904 <__subdf3+0x124>
    800118f8:	00d787b3          	add	a5,a5,a3
    800118fc:	00050913          	mv	s2,a0
    80011900:	f5dff06f          	j	8001185c <__subdf3+0x7c>
    80011904:	7ff00713          	li	a4,2047
    80011908:	02e51263          	bne	a0,a4,8001192c <__subdf3+0x14c>
    8001190c:	7ff00913          	li	s2,2047
    80011910:	0800006f          	j	80011990 <__subdf3+0x1b0>
    80011914:	7ff00713          	li	a4,2047
    80011918:	fee50ae3          	beq	a0,a4,8001190c <__subdf3+0x12c>
    8001191c:	00100713          	li	a4,1
    80011920:	03771713          	sll	a4,a4,0x37
    80011924:	40c0063b          	negw	a2,a2
    80011928:	00e6e6b3          	or	a3,a3,a4
    8001192c:	03800593          	li	a1,56
    80011930:	00100713          	li	a4,1
    80011934:	00c5ce63          	blt	a1,a2,80011950 <__subdf3+0x170>
    80011938:	04000713          	li	a4,64
    8001193c:	40c7073b          	subw	a4,a4,a2
    80011940:	00e69733          	sll	a4,a3,a4
    80011944:	00c6d5b3          	srl	a1,a3,a2
    80011948:	00e03733          	snez	a4,a4
    8001194c:	00e5e733          	or	a4,a1,a4
    80011950:	00e787b3          	add	a5,a5,a4
    80011954:	fa9ff06f          	j	800118fc <__subdf3+0x11c>
    80011958:	00180713          	add	a4,a6,1
    8001195c:	7fe77613          	and	a2,a4,2046
    80011960:	04061e63          	bnez	a2,800119bc <__subdf3+0x1dc>
    80011964:	04081463          	bnez	a6,800119ac <__subdf3+0x1cc>
    80011968:	02068463          	beqz	a3,80011990 <__subdf3+0x1b0>
    8001196c:	f20786e3          	beqz	a5,80011898 <__subdf3+0xb8>
    80011970:	00d787b3          	add	a5,a5,a3
    80011974:	00879713          	sll	a4,a5,0x8
    80011978:	00075c63          	bgez	a4,80011990 <__subdf3+0x1b0>
    8001197c:	fff00713          	li	a4,-1
    80011980:	03771713          	sll	a4,a4,0x37
    80011984:	fff70713          	add	a4,a4,-1
    80011988:	00e7f7b3          	and	a5,a5,a4
    8001198c:	00100913          	li	s2,1
    80011990:	0077f713          	and	a4,a5,7
    80011994:	22070063          	beqz	a4,80011bb4 <__subdf3+0x3d4>
    80011998:	00f7f713          	and	a4,a5,15
    8001199c:	00400693          	li	a3,4
    800119a0:	20d70a63          	beq	a4,a3,80011bb4 <__subdf3+0x3d4>
    800119a4:	00478793          	add	a5,a5,4
    800119a8:	20c0006f          	j	80011bb4 <__subdf3+0x3d4>
    800119ac:	f60680e3          	beqz	a3,8001190c <__subdf3+0x12c>
    800119b0:	16079463          	bnez	a5,80011b18 <__subdf3+0x338>
    800119b4:	00068793          	mv	a5,a3
    800119b8:	f55ff06f          	j	8001190c <__subdf3+0x12c>
    800119bc:	7ff00613          	li	a2,2047
    800119c0:	1ec70663          	beq	a4,a2,80011bac <__subdf3+0x3cc>
    800119c4:	00f687b3          	add	a5,a3,a5
    800119c8:	0017d793          	srl	a5,a5,0x1
    800119cc:	00070913          	mv	s2,a4
    800119d0:	fc1ff06f          	j	80011990 <__subdf3+0x1b0>
    800119d4:	07105c63          	blez	a7,80011a4c <__subdf3+0x26c>
    800119d8:	04051e63          	bnez	a0,80011a34 <__subdf3+0x254>
    800119dc:	ea078ee3          	beqz	a5,80011898 <__subdf3+0xb8>
    800119e0:	fff6089b          	addw	a7,a2,-1
    800119e4:	00089e63          	bnez	a7,80011a00 <__subdf3+0x220>
    800119e8:	40f687b3          	sub	a5,a3,a5
    800119ec:	00879713          	sll	a4,a5,0x8
    800119f0:	fa0750e3          	bgez	a4,80011990 <__subdf3+0x1b0>
    800119f4:	00979493          	sll	s1,a5,0x9
    800119f8:	0094d493          	srl	s1,s1,0x9
    800119fc:	1440006f          	j	80011b40 <__subdf3+0x360>
    80011a00:	7ff00713          	li	a4,2047
    80011a04:	e8e80ae3          	beq	a6,a4,80011898 <__subdf3+0xb8>
    80011a08:	03800613          	li	a2,56
    80011a0c:	00100713          	li	a4,1
    80011a10:	01164e63          	blt	a2,a7,80011a2c <__subdf3+0x24c>
    80011a14:	04000613          	li	a2,64
    80011a18:	4116063b          	subw	a2,a2,a7
    80011a1c:	00c79633          	sll	a2,a5,a2
    80011a20:	0117d733          	srl	a4,a5,a7
    80011a24:	00c03633          	snez	a2,a2
    80011a28:	00c76733          	or	a4,a4,a2
    80011a2c:	40e687b3          	sub	a5,a3,a4
    80011a30:	fbdff06f          	j	800119ec <__subdf3+0x20c>
    80011a34:	7ff00713          	li	a4,2047
    80011a38:	e6e800e3          	beq	a6,a4,80011898 <__subdf3+0xb8>
    80011a3c:	00100713          	li	a4,1
    80011a40:	03771713          	sll	a4,a4,0x37
    80011a44:	00e7e7b3          	or	a5,a5,a4
    80011a48:	fc1ff06f          	j	80011a08 <__subdf3+0x228>
    80011a4c:	06088e63          	beqz	a7,80011ac8 <__subdf3+0x2e8>
    80011a50:	02081a63          	bnez	a6,80011a84 <__subdf3+0x2a4>
    80011a54:	1c068e63          	beqz	a3,80011c30 <__subdf3+0x450>
    80011a58:	fff64613          	not	a2,a2
    80011a5c:	0006061b          	sext.w	a2,a2
    80011a60:	00061a63          	bnez	a2,80011a74 <__subdf3+0x294>
    80011a64:	40d787b3          	sub	a5,a5,a3
    80011a68:	00050913          	mv	s2,a0
    80011a6c:	00058413          	mv	s0,a1
    80011a70:	f7dff06f          	j	800119ec <__subdf3+0x20c>
    80011a74:	7ff00713          	li	a4,2047
    80011a78:	02e51263          	bne	a0,a4,80011a9c <__subdf3+0x2bc>
    80011a7c:	7ff00913          	li	s2,2047
    80011a80:	1b40006f          	j	80011c34 <__subdf3+0x454>
    80011a84:	7ff00713          	li	a4,2047
    80011a88:	fee50ae3          	beq	a0,a4,80011a7c <__subdf3+0x29c>
    80011a8c:	00100713          	li	a4,1
    80011a90:	03771713          	sll	a4,a4,0x37
    80011a94:	40c0063b          	negw	a2,a2
    80011a98:	00e6e6b3          	or	a3,a3,a4
    80011a9c:	03800813          	li	a6,56
    80011aa0:	00100713          	li	a4,1
    80011aa4:	00c84e63          	blt	a6,a2,80011ac0 <__subdf3+0x2e0>
    80011aa8:	04000713          	li	a4,64
    80011aac:	40c7073b          	subw	a4,a4,a2
    80011ab0:	00e69733          	sll	a4,a3,a4
    80011ab4:	00c6d833          	srl	a6,a3,a2
    80011ab8:	00e03733          	snez	a4,a4
    80011abc:	00e86733          	or	a4,a6,a4
    80011ac0:	40e787b3          	sub	a5,a5,a4
    80011ac4:	fa5ff06f          	j	80011a68 <__subdf3+0x288>
    80011ac8:	00180713          	add	a4,a6,1
    80011acc:	7fe77713          	and	a4,a4,2046
    80011ad0:	04071e63          	bnez	a4,80011b2c <__subdf3+0x34c>
    80011ad4:	02081c63          	bnez	a6,80011b0c <__subdf3+0x32c>
    80011ad8:	00069863          	bnez	a3,80011ae8 <__subdf3+0x308>
    80011adc:	14079c63          	bnez	a5,80011c34 <__subdf3+0x454>
    80011ae0:	00000413          	li	s0,0
    80011ae4:	0d00006f          	j	80011bb4 <__subdf3+0x3d4>
    80011ae8:	da0788e3          	beqz	a5,80011898 <__subdf3+0xb8>
    80011aec:	40f68733          	sub	a4,a3,a5
    80011af0:	00871613          	sll	a2,a4,0x8
    80011af4:	40d787b3          	sub	a5,a5,a3
    80011af8:	12064e63          	bltz	a2,80011c34 <__subdf3+0x454>
    80011afc:	00070793          	mv	a5,a4
    80011b00:	e80718e3          	bnez	a4,80011990 <__subdf3+0x1b0>
    80011b04:	00000793          	li	a5,0
    80011b08:	fd9ff06f          	j	80011ae0 <__subdf3+0x300>
    80011b0c:	ea0692e3          	bnez	a3,800119b0 <__subdf3+0x1d0>
    80011b10:	00058413          	mv	s0,a1
    80011b14:	de079ce3          	bnez	a5,8001190c <__subdf3+0x12c>
    80011b18:	00100793          	li	a5,1
    80011b1c:	00000413          	li	s0,0
    80011b20:	03679793          	sll	a5,a5,0x36
    80011b24:	7ff00913          	li	s2,2047
    80011b28:	08c0006f          	j	80011bb4 <__subdf3+0x3d4>
    80011b2c:	40f684b3          	sub	s1,a3,a5
    80011b30:	00849713          	sll	a4,s1,0x8
    80011b34:	04075463          	bgez	a4,80011b7c <__subdf3+0x39c>
    80011b38:	40d784b3          	sub	s1,a5,a3
    80011b3c:	00058413          	mv	s0,a1
    80011b40:	00048513          	mv	a0,s1
    80011b44:	4c8010ef          	jal	8001300c <__clzdi2>
    80011b48:	ff85079b          	addw	a5,a0,-8
    80011b4c:	00f494b3          	sll	s1,s1,a5
    80011b50:	0327ce63          	blt	a5,s2,80011b8c <__subdf3+0x3ac>
    80011b54:	4127853b          	subw	a0,a5,s2
    80011b58:	0015051b          	addw	a0,a0,1
    80011b5c:	04000713          	li	a4,64
    80011b60:	40a7073b          	subw	a4,a4,a0
    80011b64:	00a4d7b3          	srl	a5,s1,a0
    80011b68:	00e494b3          	sll	s1,s1,a4
    80011b6c:	009034b3          	snez	s1,s1
    80011b70:	0097e7b3          	or	a5,a5,s1
    80011b74:	00000913          	li	s2,0
    80011b78:	e19ff06f          	j	80011990 <__subdf3+0x1b0>
    80011b7c:	fc0492e3          	bnez	s1,80011b40 <__subdf3+0x360>
    80011b80:	00000793          	li	a5,0
    80011b84:	00000913          	li	s2,0
    80011b88:	f59ff06f          	j	80011ae0 <__subdf3+0x300>
    80011b8c:	40f90933          	sub	s2,s2,a5
    80011b90:	fff00793          	li	a5,-1
    80011b94:	03779793          	sll	a5,a5,0x37
    80011b98:	fff78793          	add	a5,a5,-1
    80011b9c:	00f4f7b3          	and	a5,s1,a5
    80011ba0:	df1ff06f          	j	80011990 <__subdf3+0x1b0>
    80011ba4:	00050913          	mv	s2,a0
    80011ba8:	de9ff06f          	j	80011990 <__subdf3+0x1b0>
    80011bac:	7ff00913          	li	s2,2047
    80011bb0:	00000793          	li	a5,0
    80011bb4:	00879713          	sll	a4,a5,0x8
    80011bb8:	02075063          	bgez	a4,80011bd8 <__subdf3+0x3f8>
    80011bbc:	00190913          	add	s2,s2,1
    80011bc0:	7ff00713          	li	a4,2047
    80011bc4:	06e90c63          	beq	s2,a4,80011c3c <__subdf3+0x45c>
    80011bc8:	fff00713          	li	a4,-1
    80011bcc:	03771713          	sll	a4,a4,0x37
    80011bd0:	fff70713          	add	a4,a4,-1
    80011bd4:	00e7f7b3          	and	a5,a5,a4
    80011bd8:	7ff00713          	li	a4,2047
    80011bdc:	0037d793          	srl	a5,a5,0x3
    80011be0:	00e91a63          	bne	s2,a4,80011bf4 <__subdf3+0x414>
    80011be4:	00078863          	beqz	a5,80011bf4 <__subdf3+0x414>
    80011be8:	00100793          	li	a5,1
    80011bec:	03379793          	sll	a5,a5,0x33
    80011bf0:	00000413          	li	s0,0
    80011bf4:	7ff00693          	li	a3,2047
    80011bf8:	01813083          	ld	ra,24(sp)
    80011bfc:	03491713          	sll	a4,s2,0x34
    80011c00:	03f41513          	sll	a0,s0,0x3f
    80011c04:	03469693          	sll	a3,a3,0x34
    80011c08:	01013403          	ld	s0,16(sp)
    80011c0c:	00c79793          	sll	a5,a5,0xc
    80011c10:	00d77733          	and	a4,a4,a3
    80011c14:	00c7d793          	srl	a5,a5,0xc
    80011c18:	00f767b3          	or	a5,a4,a5
    80011c1c:	00813483          	ld	s1,8(sp)
    80011c20:	00013903          	ld	s2,0(sp)
    80011c24:	00a7e533          	or	a0,a5,a0
    80011c28:	02010113          	add	sp,sp,32
    80011c2c:	00008067          	ret
    80011c30:	00050913          	mv	s2,a0
    80011c34:	00058413          	mv	s0,a1
    80011c38:	d59ff06f          	j	80011990 <__subdf3+0x1b0>
    80011c3c:	00000793          	li	a5,0
    80011c40:	f99ff06f          	j	80011bd8 <__subdf3+0x3f8>

0000000080011c44 <__fixdfsi>:
    80011c44:	03455693          	srl	a3,a0,0x34
    80011c48:	00c51793          	sll	a5,a0,0xc
    80011c4c:	7ff6f693          	and	a3,a3,2047
    80011c50:	3fe00613          	li	a2,1022
    80011c54:	00c7d793          	srl	a5,a5,0xc
    80011c58:	03f55713          	srl	a4,a0,0x3f
    80011c5c:	04d65263          	bge	a2,a3,80011ca0 <__fixdfsi+0x5c>
    80011c60:	41d00613          	li	a2,1053
    80011c64:	00d65a63          	bge	a2,a3,80011c78 <__fixdfsi+0x34>
    80011c68:	80000537          	lui	a0,0x80000
    80011c6c:	fff54513          	not	a0,a0
    80011c70:	00a7053b          	addw	a0,a4,a0
    80011c74:	00008067          	ret
    80011c78:	00100613          	li	a2,1
    80011c7c:	03461613          	sll	a2,a2,0x34
    80011c80:	00c7e533          	or	a0,a5,a2
    80011c84:	43300793          	li	a5,1075
    80011c88:	40d787bb          	subw	a5,a5,a3
    80011c8c:	00f55533          	srl	a0,a0,a5
    80011c90:	0005051b          	sext.w	a0,a0
    80011c94:	00070863          	beqz	a4,80011ca4 <__fixdfsi+0x60>
    80011c98:	40a0053b          	negw	a0,a0
    80011c9c:	00008067          	ret
    80011ca0:	00000513          	li	a0,0
    80011ca4:	00008067          	ret

0000000080011ca8 <__floatsidf>:
    80011ca8:	fe010113          	add	sp,sp,-32
    80011cac:	00113c23          	sd	ra,24(sp)
    80011cb0:	00813823          	sd	s0,16(sp)
    80011cb4:	00913423          	sd	s1,8(sp)
    80011cb8:	06050063          	beqz	a0,80011d18 <__floatsidf+0x70>
    80011cbc:	0005079b          	sext.w	a5,a0
    80011cc0:	03f55493          	srl	s1,a0,0x3f
    80011cc4:	00055463          	bgez	a0,80011ccc <__floatsidf+0x24>
    80011cc8:	40f007bb          	negw	a5,a5
    80011ccc:	02079413          	sll	s0,a5,0x20
    80011cd0:	02045413          	srl	s0,s0,0x20
    80011cd4:	00040513          	mv	a0,s0
    80011cd8:	334010ef          	jal	8001300c <__clzdi2>
    80011cdc:	43e00713          	li	a4,1086
    80011ce0:	40a7073b          	subw	a4,a4,a0
    80011ce4:	ff55051b          	addw	a0,a0,-11 # 7ffffff5 <__heap_size+0x7f7ffff5>
    80011ce8:	00a417b3          	sll	a5,s0,a0
    80011cec:	01813083          	ld	ra,24(sp)
    80011cf0:	01013403          	ld	s0,16(sp)
    80011cf4:	00c79793          	sll	a5,a5,0xc
    80011cf8:	03471713          	sll	a4,a4,0x34
    80011cfc:	00c7d793          	srl	a5,a5,0xc
    80011d00:	03f49513          	sll	a0,s1,0x3f
    80011d04:	00f76733          	or	a4,a4,a5
    80011d08:	00813483          	ld	s1,8(sp)
    80011d0c:	00a76533          	or	a0,a4,a0
    80011d10:	02010113          	add	sp,sp,32
    80011d14:	00008067          	ret
    80011d18:	00000793          	li	a5,0
    80011d1c:	00000713          	li	a4,0
    80011d20:	00000493          	li	s1,0
    80011d24:	fc9ff06f          	j	80011cec <__floatsidf+0x44>

0000000080011d28 <__eqtf2>:
    80011d28:	00008837          	lui	a6,0x8
    80011d2c:	0305d713          	srl	a4,a1,0x30
    80011d30:	fff80813          	add	a6,a6,-1 # 7fff <__stack_shift+0x7fe8>
    80011d34:	fff00793          	li	a5,-1
    80011d38:	0107d793          	srl	a5,a5,0x10
    80011d3c:	0306d893          	srl	a7,a3,0x30
    80011d40:	01077733          	and	a4,a4,a6
    80011d44:	00f5f333          	and	t1,a1,a5
    80011d48:	00050e13          	mv	t3,a0
    80011d4c:	00f6f7b3          	and	a5,a3,a5
    80011d50:	03f5d593          	srl	a1,a1,0x3f
    80011d54:	0108f8b3          	and	a7,a7,a6
    80011d58:	03f6d693          	srl	a3,a3,0x3f
    80011d5c:	01071e63          	bne	a4,a6,80011d78 <__eqtf2+0x50>
    80011d60:	00a36833          	or	a6,t1,a0
    80011d64:	00100513          	li	a0,1
    80011d68:	00081663          	bnez	a6,80011d74 <__eqtf2+0x4c>
    80011d6c:	00e88863          	beq	a7,a4,80011d7c <__eqtf2+0x54>
    80011d70:	00100513          	li	a0,1
    80011d74:	00008067          	ret
    80011d78:	01089863          	bne	a7,a6,80011d88 <__eqtf2+0x60>
    80011d7c:	00c7e833          	or	a6,a5,a2
    80011d80:	00100513          	li	a0,1
    80011d84:	fe0818e3          	bnez	a6,80011d74 <__eqtf2+0x4c>
    80011d88:	00100513          	li	a0,1
    80011d8c:	ff1714e3          	bne	a4,a7,80011d74 <__eqtf2+0x4c>
    80011d90:	fef312e3          	bne	t1,a5,80011d74 <__eqtf2+0x4c>
    80011d94:	fece10e3          	bne	t3,a2,80011d74 <__eqtf2+0x4c>
    80011d98:	00d58a63          	beq	a1,a3,80011dac <__eqtf2+0x84>
    80011d9c:	fc071ce3          	bnez	a4,80011d74 <__eqtf2+0x4c>
    80011da0:	01c36333          	or	t1,t1,t3
    80011da4:	00603533          	snez	a0,t1
    80011da8:	00008067          	ret
    80011dac:	00000513          	li	a0,0
    80011db0:	00008067          	ret

0000000080011db4 <__getf2>:
    80011db4:	00008337          	lui	t1,0x8
    80011db8:	0305d813          	srl	a6,a1,0x30
    80011dbc:	fff30313          	add	t1,t1,-1 # 7fff <__stack_shift+0x7fe8>
    80011dc0:	fff00713          	li	a4,-1
    80011dc4:	01075713          	srl	a4,a4,0x10
    80011dc8:	0306d793          	srl	a5,a3,0x30
    80011dcc:	00687833          	and	a6,a6,t1
    80011dd0:	00e5fe33          	and	t3,a1,a4
    80011dd4:	00050893          	mv	a7,a0
    80011dd8:	00e6f733          	and	a4,a3,a4
    80011ddc:	03f5d593          	srl	a1,a1,0x3f
    80011de0:	0067f533          	and	a0,a5,t1
    80011de4:	03f6d693          	srl	a3,a3,0x3f
    80011de8:	00681663          	bne	a6,t1,80011df4 <__getf2+0x40>
    80011dec:	011e67b3          	or	a5,t3,a7
    80011df0:	06079a63          	bnez	a5,80011e64 <__getf2+0xb0>
    80011df4:	00651663          	bne	a0,t1,80011e00 <__getf2+0x4c>
    80011df8:	00c767b3          	or	a5,a4,a2
    80011dfc:	06079463          	bnez	a5,80011e64 <__getf2+0xb0>
    80011e00:	00000793          	li	a5,0
    80011e04:	00081663          	bnez	a6,80011e10 <__getf2+0x5c>
    80011e08:	011e67b3          	or	a5,t3,a7
    80011e0c:	0017b793          	seqz	a5,a5
    80011e10:	04051e63          	bnez	a0,80011e6c <__getf2+0xb8>
    80011e14:	00c76333          	or	t1,a4,a2
    80011e18:	00078c63          	beqz	a5,80011e30 <__getf2+0x7c>
    80011e1c:	02030063          	beqz	t1,80011e3c <__getf2+0x88>
    80011e20:	00100513          	li	a0,1
    80011e24:	00069c63          	bnez	a3,80011e3c <__getf2+0x88>
    80011e28:	fff00513          	li	a0,-1
    80011e2c:	00008067          	ret
    80011e30:	04031063          	bnez	t1,80011e70 <__getf2+0xbc>
    80011e34:	fff00513          	li	a0,-1
    80011e38:	04058463          	beqz	a1,80011e80 <__getf2+0xcc>
    80011e3c:	00008067          	ret
    80011e40:	fea840e3          	blt	a6,a0,80011e20 <__getf2+0x6c>
    80011e44:	ffc768e3          	bltu	a4,t3,80011e34 <__getf2+0x80>
    80011e48:	00ee1863          	bne	t3,a4,80011e58 <__getf2+0xa4>
    80011e4c:	ff1664e3          	bltu	a2,a7,80011e34 <__getf2+0x80>
    80011e50:	00000513          	li	a0,0
    80011e54:	fec8f4e3          	bgeu	a7,a2,80011e3c <__getf2+0x88>
    80011e58:	00100513          	li	a0,1
    80011e5c:	fe0590e3          	bnez	a1,80011e3c <__getf2+0x88>
    80011e60:	fc9ff06f          	j	80011e28 <__getf2+0x74>
    80011e64:	ffe00513          	li	a0,-2
    80011e68:	00008067          	ret
    80011e6c:	fa079ae3          	bnez	a5,80011e20 <__getf2+0x6c>
    80011e70:	fcb692e3          	bne	a3,a1,80011e34 <__getf2+0x80>
    80011e74:	fd0556e3          	bge	a0,a6,80011e40 <__getf2+0x8c>
    80011e78:	fff00513          	li	a0,-1
    80011e7c:	fc0690e3          	bnez	a3,80011e3c <__getf2+0x88>
    80011e80:	00100513          	li	a0,1
    80011e84:	00008067          	ret

0000000080011e88 <__letf2>:
    80011e88:	00008337          	lui	t1,0x8
    80011e8c:	0305d813          	srl	a6,a1,0x30
    80011e90:	fff30313          	add	t1,t1,-1 # 7fff <__stack_shift+0x7fe8>
    80011e94:	fff00713          	li	a4,-1
    80011e98:	01075713          	srl	a4,a4,0x10
    80011e9c:	0306d793          	srl	a5,a3,0x30
    80011ea0:	00687833          	and	a6,a6,t1
    80011ea4:	00e5fe33          	and	t3,a1,a4
    80011ea8:	00050893          	mv	a7,a0
    80011eac:	00e6f733          	and	a4,a3,a4
    80011eb0:	03f5d593          	srl	a1,a1,0x3f
    80011eb4:	0067f533          	and	a0,a5,t1
    80011eb8:	03f6d693          	srl	a3,a3,0x3f
    80011ebc:	00681663          	bne	a6,t1,80011ec8 <__letf2+0x40>
    80011ec0:	011e67b3          	or	a5,t3,a7
    80011ec4:	06079a63          	bnez	a5,80011f38 <__letf2+0xb0>
    80011ec8:	00651663          	bne	a0,t1,80011ed4 <__letf2+0x4c>
    80011ecc:	00c767b3          	or	a5,a4,a2
    80011ed0:	06079463          	bnez	a5,80011f38 <__letf2+0xb0>
    80011ed4:	00000793          	li	a5,0
    80011ed8:	00081663          	bnez	a6,80011ee4 <__letf2+0x5c>
    80011edc:	011e67b3          	or	a5,t3,a7
    80011ee0:	0017b793          	seqz	a5,a5
    80011ee4:	04051e63          	bnez	a0,80011f40 <__letf2+0xb8>
    80011ee8:	00c76333          	or	t1,a4,a2
    80011eec:	00078c63          	beqz	a5,80011f04 <__letf2+0x7c>
    80011ef0:	02030063          	beqz	t1,80011f10 <__letf2+0x88>
    80011ef4:	00100513          	li	a0,1
    80011ef8:	00069c63          	bnez	a3,80011f10 <__letf2+0x88>
    80011efc:	fff00513          	li	a0,-1
    80011f00:	00008067          	ret
    80011f04:	04031063          	bnez	t1,80011f44 <__letf2+0xbc>
    80011f08:	fff00513          	li	a0,-1
    80011f0c:	04058463          	beqz	a1,80011f54 <__letf2+0xcc>
    80011f10:	00008067          	ret
    80011f14:	fea840e3          	blt	a6,a0,80011ef4 <__letf2+0x6c>
    80011f18:	ffc768e3          	bltu	a4,t3,80011f08 <__letf2+0x80>
    80011f1c:	00ee1863          	bne	t3,a4,80011f2c <__letf2+0xa4>
    80011f20:	ff1664e3          	bltu	a2,a7,80011f08 <__letf2+0x80>
    80011f24:	00000513          	li	a0,0
    80011f28:	fec8f4e3          	bgeu	a7,a2,80011f10 <__letf2+0x88>
    80011f2c:	00100513          	li	a0,1
    80011f30:	fe0590e3          	bnez	a1,80011f10 <__letf2+0x88>
    80011f34:	fc9ff06f          	j	80011efc <__letf2+0x74>
    80011f38:	00200513          	li	a0,2
    80011f3c:	00008067          	ret
    80011f40:	fa079ae3          	bnez	a5,80011ef4 <__letf2+0x6c>
    80011f44:	fcb692e3          	bne	a3,a1,80011f08 <__letf2+0x80>
    80011f48:	fd0556e3          	bge	a0,a6,80011f14 <__letf2+0x8c>
    80011f4c:	fff00513          	li	a0,-1
    80011f50:	fc0690e3          	bnez	a3,80011f10 <__letf2+0x88>
    80011f54:	00100513          	li	a0,1
    80011f58:	00008067          	ret

0000000080011f5c <__multf3>:
    80011f5c:	00008737          	lui	a4,0x8
    80011f60:	fb010113          	add	sp,sp,-80
    80011f64:	0305d793          	srl	a5,a1,0x30
    80011f68:	fff70713          	add	a4,a4,-1 # 7fff <__stack_shift+0x7fe8>
    80011f6c:	04813023          	sd	s0,64(sp)
    80011f70:	02913c23          	sd	s1,56(sp)
    80011f74:	03313423          	sd	s3,40(sp)
    80011f78:	01513c23          	sd	s5,24(sp)
    80011f7c:	01613823          	sd	s6,16(sp)
    80011f80:	01059493          	sll	s1,a1,0x10
    80011f84:	04113423          	sd	ra,72(sp)
    80011f88:	03213823          	sd	s2,48(sp)
    80011f8c:	03413023          	sd	s4,32(sp)
    80011f90:	01713423          	sd	s7,8(sp)
    80011f94:	00e7f7b3          	and	a5,a5,a4
    80011f98:	00050413          	mv	s0,a0
    80011f9c:	00060b13          	mv	s6,a2
    80011fa0:	00068993          	mv	s3,a3
    80011fa4:	0104d493          	srl	s1,s1,0x10
    80011fa8:	03f5da93          	srl	s5,a1,0x3f
    80011fac:	2e078463          	beqz	a5,80012294 <__multf3+0x338>
    80011fb0:	0007891b          	sext.w	s2,a5
    80011fb4:	34e78863          	beq	a5,a4,80012304 <__multf3+0x3a8>
    80011fb8:	00349493          	sll	s1,s1,0x3
    80011fbc:	03d55713          	srl	a4,a0,0x3d
    80011fc0:	00976733          	or	a4,a4,s1
    80011fc4:	ffffc937          	lui	s2,0xffffc
    80011fc8:	00100493          	li	s1,1
    80011fcc:	03349493          	sll	s1,s1,0x33
    80011fd0:	00190913          	add	s2,s2,1 # ffffffffffffc001 <__heap_end+0xffffffff7f7dd001>
    80011fd4:	009764b3          	or	s1,a4,s1
    80011fd8:	00351a13          	sll	s4,a0,0x3
    80011fdc:	01278933          	add	s2,a5,s2
    80011fe0:	00000b93          	li	s7,0
    80011fe4:	000087b7          	lui	a5,0x8
    80011fe8:	0309d613          	srl	a2,s3,0x30
    80011fec:	fff78793          	add	a5,a5,-1 # 7fff <__stack_shift+0x7fe8>
    80011ff0:	01099413          	sll	s0,s3,0x10
    80011ff4:	00f67633          	and	a2,a2,a5
    80011ff8:	01045413          	srl	s0,s0,0x10
    80011ffc:	03f9d993          	srl	s3,s3,0x3f
    80012000:	32060a63          	beqz	a2,80012334 <__multf3+0x3d8>
    80012004:	0006071b          	sext.w	a4,a2
    80012008:	3af60063          	beq	a2,a5,800123a8 <__multf3+0x44c>
    8001200c:	00341413          	sll	s0,s0,0x3
    80012010:	03db5793          	srl	a5,s6,0x3d
    80012014:	0087e7b3          	or	a5,a5,s0
    80012018:	ffffc737          	lui	a4,0xffffc
    8001201c:	00100413          	li	s0,1
    80012020:	03341413          	sll	s0,s0,0x33
    80012024:	00170713          	add	a4,a4,1 # ffffffffffffc001 <__heap_end+0xffffffff7f7dd001>
    80012028:	0087e433          	or	s0,a5,s0
    8001202c:	00e60733          	add	a4,a2,a4
    80012030:	003b1793          	sll	a5,s6,0x3
    80012034:	00000693          	li	a3,0
    80012038:	002b9593          	sll	a1,s7,0x2
    8001203c:	01270733          	add	a4,a4,s2
    80012040:	00d5e5b3          	or	a1,a1,a3
    80012044:	00a00613          	li	a2,10
    80012048:	00170813          	add	a6,a4,1
    8001204c:	46b64e63          	blt	a2,a1,800124c8 <__multf3+0x56c>
    80012050:	00200513          	li	a0,2
    80012054:	013ac633          	xor	a2,s5,s3
    80012058:	38b54063          	blt	a0,a1,800123d8 <__multf3+0x47c>
    8001205c:	fff58593          	add	a1,a1,-1
    80012060:	00100513          	li	a0,1
    80012064:	38b57c63          	bgeu	a0,a1,800123fc <__multf3+0x4a0>
    80012068:	fff00693          	li	a3,-1
    8001206c:	0206d693          	srl	a3,a3,0x20
    80012070:	008782b3          	add	t0,a5,s0
    80012074:	020a5593          	srl	a1,s4,0x20
    80012078:	0207d513          	srl	a0,a5,0x20
    8001207c:	01448333          	add	t1,s1,s4
    80012080:	00f2beb3          	sltu	t4,t0,a5
    80012084:	00da7a33          	and	s4,s4,a3
    80012088:	00d7f7b3          	and	a5,a5,a3
    8001208c:	02fa08b3          	mul	a7,s4,a5
    80012090:	00933e33          	sltu	t3,t1,s1
    80012094:	02a586b3          	mul	a3,a1,a0
    80012098:	02f587b3          	mul	a5,a1,a5
    8001209c:	03450533          	mul	a0,a0,s4
    800120a0:	00f505b3          	add	a1,a0,a5
    800120a4:	0208d513          	srl	a0,a7,0x20
    800120a8:	00b50533          	add	a0,a0,a1
    800120ac:	00f57863          	bgeu	a0,a5,800120bc <__multf3+0x160>
    800120b0:	00100793          	li	a5,1
    800120b4:	02079793          	sll	a5,a5,0x20
    800120b8:	00f686b3          	add	a3,a3,a5
    800120bc:	fff00793          	li	a5,-1
    800120c0:	0207d793          	srl	a5,a5,0x20
    800120c4:	02055f13          	srl	t5,a0,0x20
    800120c8:	00f57533          	and	a0,a0,a5
    800120cc:	00f8f8b3          	and	a7,a7,a5
    800120d0:	02051513          	sll	a0,a0,0x20
    800120d4:	02035393          	srl	t2,t1,0x20
    800120d8:	00df0f33          	add	t5,t5,a3
    800120dc:	01150533          	add	a0,a0,a7
    800120e0:	0202d693          	srl	a3,t0,0x20
    800120e4:	00f378b3          	and	a7,t1,a5
    800120e8:	00f2f7b3          	and	a5,t0,a5
    800120ec:	02f885b3          	mul	a1,a7,a5
    800120f0:	02f387b3          	mul	a5,t2,a5
    800120f4:	0205df93          	srl	t6,a1,0x20
    800120f8:	02d383b3          	mul	t2,t2,a3
    800120fc:	031686b3          	mul	a3,a3,a7
    80012100:	00f686b3          	add	a3,a3,a5
    80012104:	00df8fb3          	add	t6,t6,a3
    80012108:	00fff863          	bgeu	t6,a5,80012118 <__multf3+0x1bc>
    8001210c:	00100793          	li	a5,1
    80012110:	02079793          	sll	a5,a5,0x20
    80012114:	00f383b3          	add	t2,t2,a5
    80012118:	fff00793          	li	a5,-1
    8001211c:	0207d793          	srl	a5,a5,0x20
    80012120:	020fd693          	srl	a3,t6,0x20
    80012124:	00ffffb3          	and	t6,t6,a5
    80012128:	00f5f5b3          	and	a1,a1,a5
    8001212c:	020f9f93          	sll	t6,t6,0x20
    80012130:	02045893          	srl	a7,s0,0x20
    80012134:	00bf8fb3          	add	t6,t6,a1
    80012138:	0204d593          	srl	a1,s1,0x20
    8001213c:	00f4f4b3          	and	s1,s1,a5
    80012140:	00f477b3          	and	a5,s0,a5
    80012144:	02f48933          	mul	s2,s1,a5
    80012148:	03158433          	mul	s0,a1,a7
    8001214c:	02f587b3          	mul	a5,a1,a5
    80012150:	029888b3          	mul	a7,a7,s1
    80012154:	00f885b3          	add	a1,a7,a5
    80012158:	02095893          	srl	a7,s2,0x20
    8001215c:	00b888b3          	add	a7,a7,a1
    80012160:	00f8f863          	bgeu	a7,a5,80012170 <__multf3+0x214>
    80012164:	00100793          	li	a5,1
    80012168:	02079793          	sll	a5,a5,0x20
    8001216c:	00f40433          	add	s0,s0,a5
    80012170:	0208d593          	srl	a1,a7,0x20
    80012174:	008585b3          	add	a1,a1,s0
    80012178:	fff00413          	li	s0,-1
    8001217c:	02045413          	srl	s0,s0,0x20
    80012180:	0088f7b3          	and	a5,a7,s0
    80012184:	02079793          	sll	a5,a5,0x20
    80012188:	00897933          	and	s2,s2,s0
    8001218c:	012787b3          	add	a5,a5,s2
    80012190:	00000893          	li	a7,0
    80012194:	000e8463          	beqz	t4,8001219c <__multf3+0x240>
    80012198:	00030893          	mv	a7,t1
    8001219c:	00000313          	li	t1,0
    800121a0:	000e0463          	beqz	t3,800121a8 <__multf3+0x24c>
    800121a4:	00028313          	mv	t1,t0
    800121a8:	01ef82b3          	add	t0,t6,t5
    800121ac:	01f2bfb3          	sltu	t6,t0,t6
    800121b0:	01f686b3          	add	a3,a3,t6
    800121b4:	007686b3          	add	a3,a3,t2
    800121b8:	01de7e33          	and	t3,t3,t4
    800121bc:	01f6bfb3          	sltu	t6,a3,t6
    800121c0:	011688b3          	add	a7,a3,a7
    800121c4:	01cf8fb3          	add	t6,t6,t3
    800121c8:	00d8b6b3          	sltu	a3,a7,a3
    800121cc:	011308b3          	add	a7,t1,a7
    800121d0:	01f686b3          	add	a3,a3,t6
    800121d4:	0068b333          	sltu	t1,a7,t1
    800121d8:	40a28eb3          	sub	t4,t0,a0
    800121dc:	01d2be33          	sltu	t3,t0,t4
    800121e0:	00d30333          	add	t1,t1,a3
    800121e4:	41e886b3          	sub	a3,a7,t5
    800121e8:	00d8bfb3          	sltu	t6,a7,a3
    800121ec:	41c686b3          	sub	a3,a3,t3
    800121f0:	00000e13          	li	t3,0
    800121f4:	01d2f663          	bgeu	t0,t4,80012200 <__multf3+0x2a4>
    800121f8:	411f0f33          	sub	t5,t5,a7
    800121fc:	001f3e13          	seqz	t3,t5
    80012200:	01fe6fb3          	or	t6,t3,t6
    80012204:	00b30333          	add	t1,t1,a1
    80012208:	40fe8e33          	sub	t3,t4,a5
    8001220c:	40b685b3          	sub	a1,a3,a1
    80012210:	00b6b8b3          	sltu	a7,a3,a1
    80012214:	01ceb6b3          	sltu	a3,t4,t3
    80012218:	40d786b3          	sub	a3,a5,a3
    8001221c:	00000f13          	li	t5,0
    80012220:	01cef463          	bgeu	t4,t3,80012228 <__multf3+0x2cc>
    80012224:	0015bf13          	seqz	t5,a1
    80012228:	00d585b3          	add	a1,a1,a3
    8001222c:	00f5b6b3          	sltu	a3,a1,a5
    80012230:	006686b3          	add	a3,a3,t1
    80012234:	00de1793          	sll	a5,t3,0xd
    80012238:	41f686b3          	sub	a3,a3,t6
    8001223c:	011f6f33          	or	t5,t5,a7
    80012240:	00a7e7b3          	or	a5,a5,a0
    80012244:	41e686b3          	sub	a3,a3,t5
    80012248:	00f037b3          	snez	a5,a5
    8001224c:	033e5e13          	srl	t3,t3,0x33
    80012250:	00d69693          	sll	a3,a3,0xd
    80012254:	0335d413          	srl	s0,a1,0x33
    80012258:	01c7e7b3          	or	a5,a5,t3
    8001225c:	00d59593          	sll	a1,a1,0xd
    80012260:	00b7e7b3          	or	a5,a5,a1
    80012264:	00b69593          	sll	a1,a3,0xb
    80012268:	0086e433          	or	s0,a3,s0
    8001226c:	0205d063          	bgez	a1,8001228c <__multf3+0x330>
    80012270:	0017d713          	srl	a4,a5,0x1
    80012274:	0017f793          	and	a5,a5,1
    80012278:	00f76733          	or	a4,a4,a5
    8001227c:	03f41793          	sll	a5,s0,0x3f
    80012280:	00f767b3          	or	a5,a4,a5
    80012284:	00145413          	srl	s0,s0,0x1
    80012288:	00080713          	mv	a4,a6
    8001228c:	00070813          	mv	a6,a4
    80012290:	1840006f          	j	80012414 <__multf3+0x4b8>
    80012294:	00956a33          	or	s4,a0,s1
    80012298:	080a0063          	beqz	s4,80012318 <__multf3+0x3bc>
    8001229c:	04048463          	beqz	s1,800122e4 <__multf3+0x388>
    800122a0:	00048513          	mv	a0,s1
    800122a4:	569000ef          	jal	8001300c <__clzdi2>
    800122a8:	0005051b          	sext.w	a0,a0
    800122ac:	ff150793          	add	a5,a0,-15
    800122b0:	03d00713          	li	a4,61
    800122b4:	0037869b          	addw	a3,a5,3
    800122b8:	40f707bb          	subw	a5,a4,a5
    800122bc:	00d494b3          	sll	s1,s1,a3
    800122c0:	00f457b3          	srl	a5,s0,a5
    800122c4:	0097e7b3          	or	a5,a5,s1
    800122c8:	00d414b3          	sll	s1,s0,a3
    800122cc:	ffffc937          	lui	s2,0xffffc
    800122d0:	01190913          	add	s2,s2,17 # ffffffffffffc011 <__heap_end+0xffffffff7f7dd011>
    800122d4:	00048a13          	mv	s4,s1
    800122d8:	40a90933          	sub	s2,s2,a0
    800122dc:	00078493          	mv	s1,a5
    800122e0:	d01ff06f          	j	80011fe0 <__multf3+0x84>
    800122e4:	529000ef          	jal	8001300c <__clzdi2>
    800122e8:	0405051b          	addw	a0,a0,64
    800122ec:	ff150793          	add	a5,a0,-15
    800122f0:	03c00713          	li	a4,60
    800122f4:	faf75ee3          	bge	a4,a5,800122b0 <__multf3+0x354>
    800122f8:	fc37879b          	addw	a5,a5,-61
    800122fc:	00f417b3          	sll	a5,s0,a5
    80012300:	fcdff06f          	j	800122cc <__multf3+0x370>
    80012304:	00956a33          	or	s4,a0,s1
    80012308:	020a1063          	bnez	s4,80012328 <__multf3+0x3cc>
    8001230c:	00000493          	li	s1,0
    80012310:	00200b93          	li	s7,2
    80012314:	cd1ff06f          	j	80011fe4 <__multf3+0x88>
    80012318:	00000493          	li	s1,0
    8001231c:	00000913          	li	s2,0
    80012320:	00100b93          	li	s7,1
    80012324:	cc1ff06f          	j	80011fe4 <__multf3+0x88>
    80012328:	00050a13          	mv	s4,a0
    8001232c:	00300b93          	li	s7,3
    80012330:	cb5ff06f          	j	80011fe4 <__multf3+0x88>
    80012334:	008b67b3          	or	a5,s6,s0
    80012338:	08078263          	beqz	a5,800123bc <__multf3+0x460>
    8001233c:	04040463          	beqz	s0,80012384 <__multf3+0x428>
    80012340:	00040513          	mv	a0,s0
    80012344:	4c9000ef          	jal	8001300c <__clzdi2>
    80012348:	0005051b          	sext.w	a0,a0
    8001234c:	ff150793          	add	a5,a0,-15
    80012350:	03d00713          	li	a4,61
    80012354:	0037861b          	addw	a2,a5,3
    80012358:	40f707bb          	subw	a5,a4,a5
    8001235c:	00c41433          	sll	s0,s0,a2
    80012360:	00fb57b3          	srl	a5,s6,a5
    80012364:	0087e6b3          	or	a3,a5,s0
    80012368:	00cb1433          	sll	s0,s6,a2
    8001236c:	ffffc737          	lui	a4,0xffffc
    80012370:	01170713          	add	a4,a4,17 # ffffffffffffc011 <__heap_end+0xffffffff7f7dd011>
    80012374:	00040793          	mv	a5,s0
    80012378:	40a70733          	sub	a4,a4,a0
    8001237c:	00068413          	mv	s0,a3
    80012380:	cb5ff06f          	j	80012034 <__multf3+0xd8>
    80012384:	000b0513          	mv	a0,s6
    80012388:	485000ef          	jal	8001300c <__clzdi2>
    8001238c:	0405051b          	addw	a0,a0,64
    80012390:	ff150793          	add	a5,a0,-15
    80012394:	03c00713          	li	a4,60
    80012398:	faf75ce3          	bge	a4,a5,80012350 <__multf3+0x3f4>
    8001239c:	fc37879b          	addw	a5,a5,-61
    800123a0:	00fb16b3          	sll	a3,s6,a5
    800123a4:	fc9ff06f          	j	8001236c <__multf3+0x410>
    800123a8:	008b67b3          	or	a5,s6,s0
    800123ac:	02079063          	bnez	a5,800123cc <__multf3+0x470>
    800123b0:	00000413          	li	s0,0
    800123b4:	00200693          	li	a3,2
    800123b8:	c81ff06f          	j	80012038 <__multf3+0xdc>
    800123bc:	00000413          	li	s0,0
    800123c0:	00000713          	li	a4,0
    800123c4:	00100693          	li	a3,1
    800123c8:	c71ff06f          	j	80012038 <__multf3+0xdc>
    800123cc:	000b0793          	mv	a5,s6
    800123d0:	00300693          	li	a3,3
    800123d4:	c65ff06f          	j	80012038 <__multf3+0xdc>
    800123d8:	00100513          	li	a0,1
    800123dc:	00b515b3          	sll	a1,a0,a1
    800123e0:	5305f513          	and	a0,a1,1328
    800123e4:	0e051c63          	bnez	a0,800124dc <__multf3+0x580>
    800123e8:	2405f893          	and	a7,a1,576
    800123ec:	1c089663          	bnez	a7,800125b8 <__multf3+0x65c>
    800123f0:	0885f593          	and	a1,a1,136
    800123f4:	c6058ae3          	beqz	a1,80012068 <__multf3+0x10c>
    800123f8:	00098613          	mv	a2,s3
    800123fc:	00200713          	li	a4,2
    80012400:	1ae68263          	beq	a3,a4,800125a4 <__multf3+0x648>
    80012404:	00300713          	li	a4,3
    80012408:	1ce68463          	beq	a3,a4,800125d0 <__multf3+0x674>
    8001240c:	00100713          	li	a4,1
    80012410:	1ce68863          	beq	a3,a4,800125e0 <__multf3+0x684>
    80012414:	000046b7          	lui	a3,0x4
    80012418:	fff68693          	add	a3,a3,-1 # 3fff <__stack_shift+0x3fe8>
    8001241c:	00d806b3          	add	a3,a6,a3
    80012420:	0cd05663          	blez	a3,800124ec <__multf3+0x590>
    80012424:	0077f713          	and	a4,a5,7
    80012428:	02070063          	beqz	a4,80012448 <__multf3+0x4ec>
    8001242c:	00f7f713          	and	a4,a5,15
    80012430:	00400593          	li	a1,4
    80012434:	00b70a63          	beq	a4,a1,80012448 <__multf3+0x4ec>
    80012438:	00478713          	add	a4,a5,4
    8001243c:	00f735b3          	sltu	a1,a4,a5
    80012440:	00b40433          	add	s0,s0,a1
    80012444:	00070793          	mv	a5,a4
    80012448:	00b41713          	sll	a4,s0,0xb
    8001244c:	00075e63          	bgez	a4,80012468 <__multf3+0x50c>
    80012450:	fff00713          	li	a4,-1
    80012454:	03471713          	sll	a4,a4,0x34
    80012458:	fff70713          	add	a4,a4,-1
    8001245c:	000046b7          	lui	a3,0x4
    80012460:	00e47433          	and	s0,s0,a4
    80012464:	00d806b3          	add	a3,a6,a3
    80012468:	00008737          	lui	a4,0x8
    8001246c:	ffe70713          	add	a4,a4,-2 # 7ffe <__stack_shift+0x7fe7>
    80012470:	12d74a63          	blt	a4,a3,800125a4 <__multf3+0x648>
    80012474:	0037d793          	srl	a5,a5,0x3
    80012478:	03d41513          	sll	a0,s0,0x3d
    8001247c:	00f56533          	or	a0,a0,a5
    80012480:	00345713          	srl	a4,s0,0x3
    80012484:	04813083          	ld	ra,72(sp)
    80012488:	04013403          	ld	s0,64(sp)
    8001248c:	00f6161b          	sllw	a2,a2,0xf
    80012490:	01071593          	sll	a1,a4,0x10
    80012494:	00c6e6b3          	or	a3,a3,a2
    80012498:	03069693          	sll	a3,a3,0x30
    8001249c:	0105d593          	srl	a1,a1,0x10
    800124a0:	03813483          	ld	s1,56(sp)
    800124a4:	03013903          	ld	s2,48(sp)
    800124a8:	02813983          	ld	s3,40(sp)
    800124ac:	02013a03          	ld	s4,32(sp)
    800124b0:	01813a83          	ld	s5,24(sp)
    800124b4:	01013b03          	ld	s6,16(sp)
    800124b8:	00813b83          	ld	s7,8(sp)
    800124bc:	00d5e5b3          	or	a1,a1,a3
    800124c0:	05010113          	add	sp,sp,80
    800124c4:	00008067          	ret
    800124c8:	00f00713          	li	a4,15
    800124cc:	10e58263          	beq	a1,a4,800125d0 <__multf3+0x674>
    800124d0:	00b00713          	li	a4,11
    800124d4:	000a8613          	mv	a2,s5
    800124d8:	f2e580e3          	beq	a1,a4,800123f8 <__multf3+0x49c>
    800124dc:	00048413          	mv	s0,s1
    800124e0:	000a0793          	mv	a5,s4
    800124e4:	000b8693          	mv	a3,s7
    800124e8:	f15ff06f          	j	800123fc <__multf3+0x4a0>
    800124ec:	00100593          	li	a1,1
    800124f0:	40d585b3          	sub	a1,a1,a3
    800124f4:	07400713          	li	a4,116
    800124f8:	0eb74463          	blt	a4,a1,800125e0 <__multf3+0x684>
    800124fc:	03f00693          	li	a3,63
    80012500:	0005871b          	sext.w	a4,a1
    80012504:	06b6c663          	blt	a3,a1,80012570 <__multf3+0x614>
    80012508:	04000693          	li	a3,64
    8001250c:	40e686bb          	subw	a3,a3,a4
    80012510:	00d41533          	sll	a0,s0,a3
    80012514:	00e7d5b3          	srl	a1,a5,a4
    80012518:	00d796b3          	sll	a3,a5,a3
    8001251c:	00b56533          	or	a0,a0,a1
    80012520:	00d036b3          	snez	a3,a3
    80012524:	00d56533          	or	a0,a0,a3
    80012528:	00e45733          	srl	a4,s0,a4
    8001252c:	00757793          	and	a5,a0,7
    80012530:	02078063          	beqz	a5,80012550 <__multf3+0x5f4>
    80012534:	00f57793          	and	a5,a0,15
    80012538:	00400693          	li	a3,4
    8001253c:	00d78a63          	beq	a5,a3,80012550 <__multf3+0x5f4>
    80012540:	00450793          	add	a5,a0,4
    80012544:	00a7b6b3          	sltu	a3,a5,a0
    80012548:	00d70733          	add	a4,a4,a3
    8001254c:	00078513          	mv	a0,a5
    80012550:	00c71793          	sll	a5,a4,0xc
    80012554:	0807cc63          	bltz	a5,800125ec <__multf3+0x690>
    80012558:	03d71793          	sll	a5,a4,0x3d
    8001255c:	00355513          	srl	a0,a0,0x3
    80012560:	00a7e533          	or	a0,a5,a0
    80012564:	00375713          	srl	a4,a4,0x3
    80012568:	00000693          	li	a3,0
    8001256c:	f19ff06f          	j	80012484 <__multf3+0x528>
    80012570:	fc07051b          	addw	a0,a4,-64
    80012574:	04000813          	li	a6,64
    80012578:	00a45533          	srl	a0,s0,a0
    8001257c:	00000693          	li	a3,0
    80012580:	01058863          	beq	a1,a6,80012590 <__multf3+0x634>
    80012584:	08000693          	li	a3,128
    80012588:	40e686bb          	subw	a3,a3,a4
    8001258c:	00d416b3          	sll	a3,s0,a3
    80012590:	00d7e6b3          	or	a3,a5,a3
    80012594:	00d036b3          	snez	a3,a3
    80012598:	00d56533          	or	a0,a0,a3
    8001259c:	00000713          	li	a4,0
    800125a0:	f8dff06f          	j	8001252c <__multf3+0x5d0>
    800125a4:	000086b7          	lui	a3,0x8
    800125a8:	00000713          	li	a4,0
    800125ac:	00000513          	li	a0,0
    800125b0:	fff68693          	add	a3,a3,-1 # 7fff <__stack_shift+0x7fe8>
    800125b4:	ed1ff06f          	j	80012484 <__multf3+0x528>
    800125b8:	00100713          	li	a4,1
    800125bc:	02f71713          	sll	a4,a4,0x2f
    800125c0:	000086b7          	lui	a3,0x8
    800125c4:	fff68693          	add	a3,a3,-1 # 7fff <__stack_shift+0x7fe8>
    800125c8:	00000613          	li	a2,0
    800125cc:	eb9ff06f          	j	80012484 <__multf3+0x528>
    800125d0:	00100713          	li	a4,1
    800125d4:	02f71713          	sll	a4,a4,0x2f
    800125d8:	00000513          	li	a0,0
    800125dc:	fe5ff06f          	j	800125c0 <__multf3+0x664>
    800125e0:	00000713          	li	a4,0
    800125e4:	00000513          	li	a0,0
    800125e8:	f81ff06f          	j	80012568 <__multf3+0x60c>
    800125ec:	00000713          	li	a4,0
    800125f0:	00000513          	li	a0,0
    800125f4:	00100693          	li	a3,1
    800125f8:	e8dff06f          	j	80012484 <__multf3+0x528>

00000000800125fc <__subtf3>:
    800125fc:	fff00893          	li	a7,-1
    80012600:	fd010113          	add	sp,sp,-48
    80012604:	0108d893          	srl	a7,a7,0x10
    80012608:	00008337          	lui	t1,0x8
    8001260c:	0305de93          	srl	t4,a1,0x30
    80012610:	fff30313          	add	t1,t1,-1 # 7fff <__stack_shift+0x7fe8>
    80012614:	0306d813          	srl	a6,a3,0x30
    80012618:	00913c23          	sd	s1,24(sp)
    8001261c:	03f6de13          	srl	t3,a3,0x3f
    80012620:	03f5d493          	srl	s1,a1,0x3f
    80012624:	0116f6b3          	and	a3,a3,a7
    80012628:	0115f5b3          	and	a1,a1,a7
    8001262c:	00359713          	sll	a4,a1,0x3
    80012630:	03d65893          	srl	a7,a2,0x3d
    80012634:	03d55593          	srl	a1,a0,0x3d
    80012638:	01213823          	sd	s2,16(sp)
    8001263c:	006efeb3          	and	t4,t4,t1
    80012640:	00369693          	sll	a3,a3,0x3
    80012644:	02113423          	sd	ra,40(sp)
    80012648:	02813023          	sd	s0,32(sp)
    8001264c:	01313423          	sd	s3,8(sp)
    80012650:	00687833          	and	a6,a6,t1
    80012654:	000e8913          	mv	s2,t4
    80012658:	00e5e5b3          	or	a1,a1,a4
    8001265c:	00351513          	sll	a0,a0,0x3
    80012660:	00d8e8b3          	or	a7,a7,a3
    80012664:	00361613          	sll	a2,a2,0x3
    80012668:	00681663          	bne	a6,t1,80012674 <__subtf3+0x78>
    8001266c:	00c8e7b3          	or	a5,a7,a2
    80012670:	00079463          	bnez	a5,80012678 <__subtf3+0x7c>
    80012674:	001e4e13          	xor	t3,t3,1
    80012678:	410e873b          	subw	a4,t4,a6
    8001267c:	00008337          	lui	t1,0x8
    80012680:	0007069b          	sext.w	a3,a4
    80012684:	fff30313          	add	t1,t1,-1 # 7fff <__stack_shift+0x7fe8>
    80012688:	2c9e1063          	bne	t3,s1,80012948 <__subtf3+0x34c>
    8001268c:	12d05c63          	blez	a3,800127c4 <__subtf3+0x1c8>
    80012690:	08081c63          	bnez	a6,80012728 <__subtf3+0x12c>
    80012694:	00c8e7b3          	or	a5,a7,a2
    80012698:	06078463          	beqz	a5,80012700 <__subtf3+0x104>
    8001269c:	fff7069b          	addw	a3,a4,-1
    800126a0:	04069e63          	bnez	a3,800126fc <__subtf3+0x100>
    800126a4:	00c50633          	add	a2,a0,a2
    800126a8:	00a637b3          	sltu	a5,a2,a0
    800126ac:	011585b3          	add	a1,a1,a7
    800126b0:	00060513          	mv	a0,a2
    800126b4:	00f585b3          	add	a1,a1,a5
    800126b8:	00c59793          	sll	a5,a1,0xc
    800126bc:	0407d263          	bgez	a5,80012700 <__subtf3+0x104>
    800126c0:	000087b7          	lui	a5,0x8
    800126c4:	00190913          	add	s2,s2,1
    800126c8:	fff78793          	add	a5,a5,-1 # 7fff <__stack_shift+0x7fe8>
    800126cc:	64f90063          	beq	s2,a5,80012d0c <__subtf3+0x710>
    800126d0:	fff00793          	li	a5,-1
    800126d4:	03379793          	sll	a5,a5,0x33
    800126d8:	fff78793          	add	a5,a5,-1
    800126dc:	00f5f733          	and	a4,a1,a5
    800126e0:	00155693          	srl	a3,a0,0x1
    800126e4:	00157793          	and	a5,a0,1
    800126e8:	00f6e6b3          	or	a3,a3,a5
    800126ec:	03f71793          	sll	a5,a4,0x3f
    800126f0:	00d7e533          	or	a0,a5,a3
    800126f4:	00175593          	srl	a1,a4,0x1
    800126f8:	0080006f          	j	80012700 <__subtf3+0x104>
    800126fc:	026e9e63          	bne	t4,t1,80012738 <__subtf3+0x13c>
    80012700:	00757793          	and	a5,a0,7
    80012704:	60078863          	beqz	a5,80012d14 <__subtf3+0x718>
    80012708:	00f57793          	and	a5,a0,15
    8001270c:	00400713          	li	a4,4
    80012710:	60e78263          	beq	a5,a4,80012d14 <__subtf3+0x718>
    80012714:	00450793          	add	a5,a0,4
    80012718:	00a7b733          	sltu	a4,a5,a0
    8001271c:	00e585b3          	add	a1,a1,a4
    80012720:	00078513          	mv	a0,a5
    80012724:	5f00006f          	j	80012d14 <__subtf3+0x718>
    80012728:	fc6e8ce3          	beq	t4,t1,80012700 <__subtf3+0x104>
    8001272c:	00100793          	li	a5,1
    80012730:	03379793          	sll	a5,a5,0x33
    80012734:	00f8e8b3          	or	a7,a7,a5
    80012738:	07400793          	li	a5,116
    8001273c:	06d7ce63          	blt	a5,a3,800127b8 <__subtf3+0x1bc>
    80012740:	03f00793          	li	a5,63
    80012744:	04d7c063          	blt	a5,a3,80012784 <__subtf3+0x188>
    80012748:	04000793          	li	a5,64
    8001274c:	40d787bb          	subw	a5,a5,a3
    80012750:	00f89733          	sll	a4,a7,a5
    80012754:	00d65833          	srl	a6,a2,a3
    80012758:	00f617b3          	sll	a5,a2,a5
    8001275c:	01076733          	or	a4,a4,a6
    80012760:	00f037b3          	snez	a5,a5
    80012764:	00f76733          	or	a4,a4,a5
    80012768:	00d8d6b3          	srl	a3,a7,a3
    8001276c:	00a707b3          	add	a5,a4,a0
    80012770:	00b686b3          	add	a3,a3,a1
    80012774:	00e7b733          	sltu	a4,a5,a4
    80012778:	00078513          	mv	a0,a5
    8001277c:	00e685b3          	add	a1,a3,a4
    80012780:	f39ff06f          	j	800126b8 <__subtf3+0xbc>
    80012784:	fc06871b          	addw	a4,a3,-64
    80012788:	04000813          	li	a6,64
    8001278c:	00e8d733          	srl	a4,a7,a4
    80012790:	00000793          	li	a5,0
    80012794:	01068863          	beq	a3,a6,800127a4 <__subtf3+0x1a8>
    80012798:	08000793          	li	a5,128
    8001279c:	40d787bb          	subw	a5,a5,a3
    800127a0:	00f897b3          	sll	a5,a7,a5
    800127a4:	00c7e7b3          	or	a5,a5,a2
    800127a8:	00f037b3          	snez	a5,a5
    800127ac:	00f76733          	or	a4,a4,a5
    800127b0:	00000693          	li	a3,0
    800127b4:	fb9ff06f          	j	8001276c <__subtf3+0x170>
    800127b8:	00c8e733          	or	a4,a7,a2
    800127bc:	00e03733          	snez	a4,a4
    800127c0:	ff1ff06f          	j	800127b0 <__subtf3+0x1b4>
    800127c4:	0e068663          	beqz	a3,800128b0 <__subtf3+0x2b4>
    800127c8:	040e9463          	bnez	t4,80012810 <__subtf3+0x214>
    800127cc:	00a5e7b3          	or	a5,a1,a0
    800127d0:	02078863          	beqz	a5,80012800 <__subtf3+0x204>
    800127d4:	fff74713          	not	a4,a4
    800127d8:	0007071b          	sext.w	a4,a4
    800127dc:	02071063          	bnez	a4,800127fc <__subtf3+0x200>
    800127e0:	00c50633          	add	a2,a0,a2
    800127e4:	00a637b3          	sltu	a5,a2,a0
    800127e8:	011585b3          	add	a1,a1,a7
    800127ec:	00060513          	mv	a0,a2
    800127f0:	00f585b3          	add	a1,a1,a5
    800127f4:	00080913          	mv	s2,a6
    800127f8:	ec1ff06f          	j	800126b8 <__subtf3+0xbc>
    800127fc:	02681463          	bne	a6,t1,80012824 <__subtf3+0x228>
    80012800:	00088593          	mv	a1,a7
    80012804:	00060513          	mv	a0,a2
    80012808:	00080913          	mv	s2,a6
    8001280c:	ef5ff06f          	j	80012700 <__subtf3+0x104>
    80012810:	fe6808e3          	beq	a6,t1,80012800 <__subtf3+0x204>
    80012814:	00100793          	li	a5,1
    80012818:	03379793          	sll	a5,a5,0x33
    8001281c:	40e0073b          	negw	a4,a4
    80012820:	00f5e5b3          	or	a1,a1,a5
    80012824:	07400793          	li	a5,116
    80012828:	06e7ce63          	blt	a5,a4,800128a4 <__subtf3+0x2a8>
    8001282c:	03f00793          	li	a5,63
    80012830:	04e7c063          	blt	a5,a4,80012870 <__subtf3+0x274>
    80012834:	04000693          	li	a3,64
    80012838:	40e686bb          	subw	a3,a3,a4
    8001283c:	00d597b3          	sll	a5,a1,a3
    80012840:	00e55333          	srl	t1,a0,a4
    80012844:	00d516b3          	sll	a3,a0,a3
    80012848:	0067e7b3          	or	a5,a5,t1
    8001284c:	00d036b3          	snez	a3,a3
    80012850:	00d7e7b3          	or	a5,a5,a3
    80012854:	00e5d733          	srl	a4,a1,a4
    80012858:	00c78633          	add	a2,a5,a2
    8001285c:	01170733          	add	a4,a4,a7
    80012860:	00f637b3          	sltu	a5,a2,a5
    80012864:	00060513          	mv	a0,a2
    80012868:	00f705b3          	add	a1,a4,a5
    8001286c:	f89ff06f          	j	800127f4 <__subtf3+0x1f8>
    80012870:	fc07079b          	addw	a5,a4,-64
    80012874:	04000313          	li	t1,64
    80012878:	00f5d7b3          	srl	a5,a1,a5
    8001287c:	00000693          	li	a3,0
    80012880:	00670863          	beq	a4,t1,80012890 <__subtf3+0x294>
    80012884:	08000693          	li	a3,128
    80012888:	40e686bb          	subw	a3,a3,a4
    8001288c:	00d596b3          	sll	a3,a1,a3
    80012890:	00a6e6b3          	or	a3,a3,a0
    80012894:	00d036b3          	snez	a3,a3
    80012898:	00d7e7b3          	or	a5,a5,a3
    8001289c:	00000713          	li	a4,0
    800128a0:	fb9ff06f          	j	80012858 <__subtf3+0x25c>
    800128a4:	00a5e7b3          	or	a5,a1,a0
    800128a8:	00f037b3          	snez	a5,a5
    800128ac:	ff1ff06f          	j	8001289c <__subtf3+0x2a0>
    800128b0:	001e8713          	add	a4,t4,1
    800128b4:	03171793          	sll	a5,a4,0x31
    800128b8:	0327d793          	srl	a5,a5,0x32
    800128bc:	06079063          	bnez	a5,8001291c <__subtf3+0x320>
    800128c0:	00a5e7b3          	or	a5,a1,a0
    800128c4:	040e9263          	bnez	t4,80012908 <__subtf3+0x30c>
    800128c8:	42078463          	beqz	a5,80012cf0 <__subtf3+0x6f4>
    800128cc:	00c8e7b3          	or	a5,a7,a2
    800128d0:	e20788e3          	beqz	a5,80012700 <__subtf3+0x104>
    800128d4:	00c50633          	add	a2,a0,a2
    800128d8:	00a637b3          	sltu	a5,a2,a0
    800128dc:	011585b3          	add	a1,a1,a7
    800128e0:	00f585b3          	add	a1,a1,a5
    800128e4:	00c59793          	sll	a5,a1,0xc
    800128e8:	00060513          	mv	a0,a2
    800128ec:	e007dae3          	bgez	a5,80012700 <__subtf3+0x104>
    800128f0:	fff00793          	li	a5,-1
    800128f4:	03379793          	sll	a5,a5,0x33
    800128f8:	fff78793          	add	a5,a5,-1
    800128fc:	00f5f5b3          	and	a1,a1,a5
    80012900:	00100913          	li	s2,1
    80012904:	dfdff06f          	j	80012700 <__subtf3+0x104>
    80012908:	3e078a63          	beqz	a5,80012cfc <__subtf3+0x700>
    8001290c:	00c8e633          	or	a2,a7,a2
    80012910:	2a061463          	bnez	a2,80012bb8 <__subtf3+0x5bc>
    80012914:	00030913          	mv	s2,t1
    80012918:	de9ff06f          	j	80012700 <__subtf3+0x104>
    8001291c:	3e670663          	beq	a4,t1,80012d08 <__subtf3+0x70c>
    80012920:	00c50633          	add	a2,a0,a2
    80012924:	00a637b3          	sltu	a5,a2,a0
    80012928:	011585b3          	add	a1,a1,a7
    8001292c:	00f585b3          	add	a1,a1,a5
    80012930:	03f59793          	sll	a5,a1,0x3f
    80012934:	00165613          	srl	a2,a2,0x1
    80012938:	00c7e533          	or	a0,a5,a2
    8001293c:	0015d593          	srl	a1,a1,0x1
    80012940:	00070913          	mv	s2,a4
    80012944:	dbdff06f          	j	80012700 <__subtf3+0x104>
    80012948:	0ed05463          	blez	a3,80012a30 <__subtf3+0x434>
    8001294c:	08081863          	bnez	a6,800129dc <__subtf3+0x3e0>
    80012950:	00c8e7b3          	or	a5,a7,a2
    80012954:	da0786e3          	beqz	a5,80012700 <__subtf3+0x104>
    80012958:	fff7069b          	addw	a3,a4,-1
    8001295c:	02069863          	bnez	a3,8001298c <__subtf3+0x390>
    80012960:	40c50633          	sub	a2,a0,a2
    80012964:	00c537b3          	sltu	a5,a0,a2
    80012968:	411585b3          	sub	a1,a1,a7
    8001296c:	00060513          	mv	a0,a2
    80012970:	40f585b3          	sub	a1,a1,a5
    80012974:	00c59793          	sll	a5,a1,0xc
    80012978:	d807d4e3          	bgez	a5,80012700 <__subtf3+0x104>
    8001297c:	00d59413          	sll	s0,a1,0xd
    80012980:	00d45413          	srl	s0,s0,0xd
    80012984:	00050993          	mv	s3,a0
    80012988:	2780006f          	j	80012c00 <__subtf3+0x604>
    8001298c:	d66e8ae3          	beq	t4,t1,80012700 <__subtf3+0x104>
    80012990:	07400793          	li	a5,116
    80012994:	08d7c863          	blt	a5,a3,80012a24 <__subtf3+0x428>
    80012998:	03f00793          	li	a5,63
    8001299c:	04d7ca63          	blt	a5,a3,800129f0 <__subtf3+0x3f4>
    800129a0:	04000713          	li	a4,64
    800129a4:	40d7073b          	subw	a4,a4,a3
    800129a8:	00e897b3          	sll	a5,a7,a4
    800129ac:	00d65833          	srl	a6,a2,a3
    800129b0:	00e61733          	sll	a4,a2,a4
    800129b4:	0107e7b3          	or	a5,a5,a6
    800129b8:	00e03733          	snez	a4,a4
    800129bc:	00e7e7b3          	or	a5,a5,a4
    800129c0:	00d8d6b3          	srl	a3,a7,a3
    800129c4:	40f507b3          	sub	a5,a0,a5
    800129c8:	00f53733          	sltu	a4,a0,a5
    800129cc:	40d586b3          	sub	a3,a1,a3
    800129d0:	00078513          	mv	a0,a5
    800129d4:	40e685b3          	sub	a1,a3,a4
    800129d8:	f9dff06f          	j	80012974 <__subtf3+0x378>
    800129dc:	d26e82e3          	beq	t4,t1,80012700 <__subtf3+0x104>
    800129e0:	00100793          	li	a5,1
    800129e4:	03379793          	sll	a5,a5,0x33
    800129e8:	00f8e8b3          	or	a7,a7,a5
    800129ec:	fa5ff06f          	j	80012990 <__subtf3+0x394>
    800129f0:	fc06879b          	addw	a5,a3,-64
    800129f4:	04000813          	li	a6,64
    800129f8:	00f8d7b3          	srl	a5,a7,a5
    800129fc:	00000713          	li	a4,0
    80012a00:	01068863          	beq	a3,a6,80012a10 <__subtf3+0x414>
    80012a04:	08000713          	li	a4,128
    80012a08:	40d7073b          	subw	a4,a4,a3
    80012a0c:	00e89733          	sll	a4,a7,a4
    80012a10:	00c76733          	or	a4,a4,a2
    80012a14:	00e03733          	snez	a4,a4
    80012a18:	00e7e7b3          	or	a5,a5,a4
    80012a1c:	00000693          	li	a3,0
    80012a20:	fa5ff06f          	j	800129c4 <__subtf3+0x3c8>
    80012a24:	00c8e7b3          	or	a5,a7,a2
    80012a28:	00f037b3          	snez	a5,a5
    80012a2c:	ff1ff06f          	j	80012a1c <__subtf3+0x420>
    80012a30:	0e068863          	beqz	a3,80012b20 <__subtf3+0x524>
    80012a34:	040e9663          	bnez	t4,80012a80 <__subtf3+0x484>
    80012a38:	00a5e7b3          	or	a5,a1,a0
    80012a3c:	02078a63          	beqz	a5,80012a70 <__subtf3+0x474>
    80012a40:	fff74713          	not	a4,a4
    80012a44:	0007071b          	sext.w	a4,a4
    80012a48:	02071263          	bnez	a4,80012a6c <__subtf3+0x470>
    80012a4c:	40a607b3          	sub	a5,a2,a0
    80012a50:	40b885b3          	sub	a1,a7,a1
    80012a54:	00f63633          	sltu	a2,a2,a5
    80012a58:	00078513          	mv	a0,a5
    80012a5c:	40c585b3          	sub	a1,a1,a2
    80012a60:	00080913          	mv	s2,a6
    80012a64:	000e0493          	mv	s1,t3
    80012a68:	f0dff06f          	j	80012974 <__subtf3+0x378>
    80012a6c:	02681463          	bne	a6,t1,80012a94 <__subtf3+0x498>
    80012a70:	00088593          	mv	a1,a7
    80012a74:	00060513          	mv	a0,a2
    80012a78:	00080913          	mv	s2,a6
    80012a7c:	0d00006f          	j	80012b4c <__subtf3+0x550>
    80012a80:	fe6808e3          	beq	a6,t1,80012a70 <__subtf3+0x474>
    80012a84:	00100793          	li	a5,1
    80012a88:	03379793          	sll	a5,a5,0x33
    80012a8c:	40e0073b          	negw	a4,a4
    80012a90:	00f5e5b3          	or	a1,a1,a5
    80012a94:	07400793          	li	a5,116
    80012a98:	06e7ce63          	blt	a5,a4,80012b14 <__subtf3+0x518>
    80012a9c:	03f00793          	li	a5,63
    80012aa0:	04e7c063          	blt	a5,a4,80012ae0 <__subtf3+0x4e4>
    80012aa4:	04000693          	li	a3,64
    80012aa8:	40e686bb          	subw	a3,a3,a4
    80012aac:	00d597b3          	sll	a5,a1,a3
    80012ab0:	00e55333          	srl	t1,a0,a4
    80012ab4:	00d516b3          	sll	a3,a0,a3
    80012ab8:	0067e7b3          	or	a5,a5,t1
    80012abc:	00d036b3          	snez	a3,a3
    80012ac0:	00d7e7b3          	or	a5,a5,a3
    80012ac4:	00e5d733          	srl	a4,a1,a4
    80012ac8:	40f607b3          	sub	a5,a2,a5
    80012acc:	40e88733          	sub	a4,a7,a4
    80012ad0:	00f635b3          	sltu	a1,a2,a5
    80012ad4:	00078513          	mv	a0,a5
    80012ad8:	40b705b3          	sub	a1,a4,a1
    80012adc:	f85ff06f          	j	80012a60 <__subtf3+0x464>
    80012ae0:	fc07079b          	addw	a5,a4,-64
    80012ae4:	04000313          	li	t1,64
    80012ae8:	00f5d7b3          	srl	a5,a1,a5
    80012aec:	00000693          	li	a3,0
    80012af0:	00670863          	beq	a4,t1,80012b00 <__subtf3+0x504>
    80012af4:	08000693          	li	a3,128
    80012af8:	40e686bb          	subw	a3,a3,a4
    80012afc:	00d596b3          	sll	a3,a1,a3
    80012b00:	00a6e6b3          	or	a3,a3,a0
    80012b04:	00d036b3          	snez	a3,a3
    80012b08:	00d7e7b3          	or	a5,a5,a3
    80012b0c:	00000713          	li	a4,0
    80012b10:	fb9ff06f          	j	80012ac8 <__subtf3+0x4cc>
    80012b14:	00a5e7b3          	or	a5,a1,a0
    80012b18:	00f037b3          	snez	a5,a5
    80012b1c:	ff1ff06f          	j	80012b0c <__subtf3+0x510>
    80012b20:	001e8793          	add	a5,t4,1
    80012b24:	03179713          	sll	a4,a5,0x31
    80012b28:	03275713          	srl	a4,a4,0x32
    80012b2c:	0a071263          	bnez	a4,80012bd0 <__subtf3+0x5d4>
    80012b30:	00c8e7b3          	or	a5,a7,a2
    80012b34:	00a5e733          	or	a4,a1,a0
    80012b38:	060e9263          	bnez	t4,80012b9c <__subtf3+0x5a0>
    80012b3c:	00071c63          	bnez	a4,80012b54 <__subtf3+0x558>
    80012b40:	26078863          	beqz	a5,80012db0 <__subtf3+0x7b4>
    80012b44:	00088593          	mv	a1,a7
    80012b48:	00060513          	mv	a0,a2
    80012b4c:	000e0493          	mv	s1,t3
    80012b50:	bb1ff06f          	j	80012700 <__subtf3+0x104>
    80012b54:	ba0786e3          	beqz	a5,80012700 <__subtf3+0x104>
    80012b58:	40c50733          	sub	a4,a0,a2
    80012b5c:	00e536b3          	sltu	a3,a0,a4
    80012b60:	411587b3          	sub	a5,a1,a7
    80012b64:	40d787b3          	sub	a5,a5,a3
    80012b68:	00c79693          	sll	a3,a5,0xc
    80012b6c:	0006de63          	bgez	a3,80012b88 <__subtf3+0x58c>
    80012b70:	40a607b3          	sub	a5,a2,a0
    80012b74:	40b885b3          	sub	a1,a7,a1
    80012b78:	00f63633          	sltu	a2,a2,a5
    80012b7c:	00078513          	mv	a0,a5
    80012b80:	40c585b3          	sub	a1,a1,a2
    80012b84:	fc9ff06f          	j	80012b4c <__subtf3+0x550>
    80012b88:	00f76533          	or	a0,a4,a5
    80012b8c:	22050a63          	beqz	a0,80012dc0 <__subtf3+0x7c4>
    80012b90:	00078593          	mv	a1,a5
    80012b94:	00070513          	mv	a0,a4
    80012b98:	b69ff06f          	j	80012700 <__subtf3+0x104>
    80012b9c:	00071c63          	bnez	a4,80012bb4 <__subtf3+0x5b8>
    80012ba0:	00078c63          	beqz	a5,80012bb8 <__subtf3+0x5bc>
    80012ba4:	00088593          	mv	a1,a7
    80012ba8:	00060513          	mv	a0,a2
    80012bac:	000e0493          	mv	s1,t3
    80012bb0:	d65ff06f          	j	80012914 <__subtf3+0x318>
    80012bb4:	d60780e3          	beqz	a5,80012914 <__subtf3+0x318>
    80012bb8:	00100593          	li	a1,1
    80012bbc:	00000493          	li	s1,0
    80012bc0:	03259593          	sll	a1,a1,0x32
    80012bc4:	00000513          	li	a0,0
    80012bc8:	00030913          	mv	s2,t1
    80012bcc:	1480006f          	j	80012d14 <__subtf3+0x718>
    80012bd0:	40c507b3          	sub	a5,a0,a2
    80012bd4:	00f53733          	sltu	a4,a0,a5
    80012bd8:	41158433          	sub	s0,a1,a7
    80012bdc:	40e40433          	sub	s0,s0,a4
    80012be0:	00c41713          	sll	a4,s0,0xc
    80012be4:	00078993          	mv	s3,a5
    80012be8:	08075063          	bgez	a4,80012c68 <__subtf3+0x66c>
    80012bec:	40a609b3          	sub	s3,a2,a0
    80012bf0:	40b88433          	sub	s0,a7,a1
    80012bf4:	01363633          	sltu	a2,a2,s3
    80012bf8:	40c40433          	sub	s0,s0,a2
    80012bfc:	000e0493          	mv	s1,t3
    80012c00:	08040063          	beqz	s0,80012c80 <__subtf3+0x684>
    80012c04:	00040513          	mv	a0,s0
    80012c08:	404000ef          	jal	8001300c <__clzdi2>
    80012c0c:	ff45069b          	addw	a3,a0,-12
    80012c10:	04000593          	li	a1,64
    80012c14:	40d585bb          	subw	a1,a1,a3
    80012c18:	00d41433          	sll	s0,s0,a3
    80012c1c:	00b9d5b3          	srl	a1,s3,a1
    80012c20:	0085e5b3          	or	a1,a1,s0
    80012c24:	00d99433          	sll	s0,s3,a3
    80012c28:	0b26c663          	blt	a3,s2,80012cd4 <__subtf3+0x6d8>
    80012c2c:	412686bb          	subw	a3,a3,s2
    80012c30:	0016861b          	addw	a2,a3,1
    80012c34:	03f00793          	li	a5,63
    80012c38:	06c7c463          	blt	a5,a2,80012ca0 <__subtf3+0x6a4>
    80012c3c:	04000713          	li	a4,64
    80012c40:	40c7073b          	subw	a4,a4,a2
    80012c44:	00e597b3          	sll	a5,a1,a4
    80012c48:	00c456b3          	srl	a3,s0,a2
    80012c4c:	00e41733          	sll	a4,s0,a4
    80012c50:	00d7e7b3          	or	a5,a5,a3
    80012c54:	00e03733          	snez	a4,a4
    80012c58:	00e7e533          	or	a0,a5,a4
    80012c5c:	00c5d5b3          	srl	a1,a1,a2
    80012c60:	00000913          	li	s2,0
    80012c64:	a9dff06f          	j	80012700 <__subtf3+0x104>
    80012c68:	0087e7b3          	or	a5,a5,s0
    80012c6c:	f8079ae3          	bnez	a5,80012c00 <__subtf3+0x604>
    80012c70:	00000593          	li	a1,0
    80012c74:	00000513          	li	a0,0
    80012c78:	00000913          	li	s2,0
    80012c7c:	13c0006f          	j	80012db8 <__subtf3+0x7bc>
    80012c80:	00098513          	mv	a0,s3
    80012c84:	388000ef          	jal	8001300c <__clzdi2>
    80012c88:	0345069b          	addw	a3,a0,52
    80012c8c:	03f00793          	li	a5,63
    80012c90:	f8d7d0e3          	bge	a5,a3,80012c10 <__subtf3+0x614>
    80012c94:	ff45059b          	addw	a1,a0,-12
    80012c98:	00b995b3          	sll	a1,s3,a1
    80012c9c:	f8dff06f          	j	80012c28 <__subtf3+0x62c>
    80012ca0:	fc16869b          	addw	a3,a3,-63
    80012ca4:	00d5d7b3          	srl	a5,a1,a3
    80012ca8:	04000693          	li	a3,64
    80012cac:	00000713          	li	a4,0
    80012cb0:	00d60863          	beq	a2,a3,80012cc0 <__subtf3+0x6c4>
    80012cb4:	08000713          	li	a4,128
    80012cb8:	40c7073b          	subw	a4,a4,a2
    80012cbc:	00e59733          	sll	a4,a1,a4
    80012cc0:	00e46733          	or	a4,s0,a4
    80012cc4:	00e03733          	snez	a4,a4
    80012cc8:	00e7e533          	or	a0,a5,a4
    80012ccc:	00000593          	li	a1,0
    80012cd0:	f91ff06f          	j	80012c60 <__subtf3+0x664>
    80012cd4:	fff00793          	li	a5,-1
    80012cd8:	03379793          	sll	a5,a5,0x33
    80012cdc:	fff78793          	add	a5,a5,-1
    80012ce0:	40d90933          	sub	s2,s2,a3
    80012ce4:	00f5f5b3          	and	a1,a1,a5
    80012ce8:	00040513          	mv	a0,s0
    80012cec:	a15ff06f          	j	80012700 <__subtf3+0x104>
    80012cf0:	00088593          	mv	a1,a7
    80012cf4:	00060513          	mv	a0,a2
    80012cf8:	a09ff06f          	j	80012700 <__subtf3+0x104>
    80012cfc:	00088593          	mv	a1,a7
    80012d00:	00060513          	mv	a0,a2
    80012d04:	c11ff06f          	j	80012914 <__subtf3+0x318>
    80012d08:	00070913          	mv	s2,a4
    80012d0c:	00000593          	li	a1,0
    80012d10:	00000513          	li	a0,0
    80012d14:	00c59793          	sll	a5,a1,0xc
    80012d18:	0207d263          	bgez	a5,80012d3c <__subtf3+0x740>
    80012d1c:	000087b7          	lui	a5,0x8
    80012d20:	00190913          	add	s2,s2,1
    80012d24:	fff78793          	add	a5,a5,-1 # 7fff <__stack_shift+0x7fe8>
    80012d28:	0af90063          	beq	s2,a5,80012dc8 <__subtf3+0x7cc>
    80012d2c:	fff00793          	li	a5,-1
    80012d30:	03379793          	sll	a5,a5,0x33
    80012d34:	fff78793          	add	a5,a5,-1
    80012d38:	00f5f5b3          	and	a1,a1,a5
    80012d3c:	00355793          	srl	a5,a0,0x3
    80012d40:	03d59513          	sll	a0,a1,0x3d
    80012d44:	00f56533          	or	a0,a0,a5
    80012d48:	000087b7          	lui	a5,0x8
    80012d4c:	fff78793          	add	a5,a5,-1 # 7fff <__stack_shift+0x7fe8>
    80012d50:	0035d593          	srl	a1,a1,0x3
    80012d54:	02f91063          	bne	s2,a5,80012d74 <__subtf3+0x778>
    80012d58:	00b56533          	or	a0,a0,a1
    80012d5c:	00000593          	li	a1,0
    80012d60:	00050a63          	beqz	a0,80012d74 <__subtf3+0x778>
    80012d64:	00100593          	li	a1,1
    80012d68:	02f59593          	sll	a1,a1,0x2f
    80012d6c:	00000513          	li	a0,0
    80012d70:	00000493          	li	s1,0
    80012d74:	03191793          	sll	a5,s2,0x31
    80012d78:	02813083          	ld	ra,40(sp)
    80012d7c:	02013403          	ld	s0,32(sp)
    80012d80:	00f4971b          	sllw	a4,s1,0xf
    80012d84:	0317d793          	srl	a5,a5,0x31
    80012d88:	01059593          	sll	a1,a1,0x10
    80012d8c:	00e7e7b3          	or	a5,a5,a4
    80012d90:	03079793          	sll	a5,a5,0x30
    80012d94:	0105d593          	srl	a1,a1,0x10
    80012d98:	01813483          	ld	s1,24(sp)
    80012d9c:	01013903          	ld	s2,16(sp)
    80012da0:	00813983          	ld	s3,8(sp)
    80012da4:	00f5e5b3          	or	a1,a1,a5
    80012da8:	03010113          	add	sp,sp,48
    80012dac:	00008067          	ret
    80012db0:	00000593          	li	a1,0
    80012db4:	00000513          	li	a0,0
    80012db8:	00000493          	li	s1,0
    80012dbc:	f59ff06f          	j	80012d14 <__subtf3+0x718>
    80012dc0:	00000593          	li	a1,0
    80012dc4:	ff5ff06f          	j	80012db8 <__subtf3+0x7bc>
    80012dc8:	00000593          	li	a1,0
    80012dcc:	00000513          	li	a0,0
    80012dd0:	f6dff06f          	j	80012d3c <__subtf3+0x740>

0000000080012dd4 <__unordtf2>:
    80012dd4:	000087b7          	lui	a5,0x8
    80012dd8:	fff78793          	add	a5,a5,-1 # 7fff <__stack_shift+0x7fe8>
    80012ddc:	0305d813          	srl	a6,a1,0x30
    80012de0:	0306d713          	srl	a4,a3,0x30
    80012de4:	00f87833          	and	a6,a6,a5
    80012de8:	00f77733          	and	a4,a4,a5
    80012dec:	00f81c63          	bne	a6,a5,80012e04 <__unordtf2+0x30>
    80012df0:	01059593          	sll	a1,a1,0x10
    80012df4:	0105d593          	srl	a1,a1,0x10
    80012df8:	00a5e5b3          	or	a1,a1,a0
    80012dfc:	00100513          	li	a0,1
    80012e00:	02059263          	bnez	a1,80012e24 <__unordtf2+0x50>
    80012e04:	000087b7          	lui	a5,0x8
    80012e08:	fff78793          	add	a5,a5,-1 # 7fff <__stack_shift+0x7fe8>
    80012e0c:	00000513          	li	a0,0
    80012e10:	00f71a63          	bne	a4,a5,80012e24 <__unordtf2+0x50>
    80012e14:	01069693          	sll	a3,a3,0x10
    80012e18:	0106d693          	srl	a3,a3,0x10
    80012e1c:	00c6e633          	or	a2,a3,a2
    80012e20:	00c03533          	snez	a0,a2
    80012e24:	00008067          	ret

0000000080012e28 <__fixtfsi>:
    80012e28:	00159713          	sll	a4,a1,0x1
    80012e2c:	000047b7          	lui	a5,0x4
    80012e30:	03175713          	srl	a4,a4,0x31
    80012e34:	ffe78793          	add	a5,a5,-2 # 3ffe <__stack_shift+0x3fe7>
    80012e38:	03f5d693          	srl	a3,a1,0x3f
    80012e3c:	00000513          	li	a0,0
    80012e40:	04e7d863          	bge	a5,a4,80012e90 <__fixtfsi+0x68>
    80012e44:	000047b7          	lui	a5,0x4
    80012e48:	01d78793          	add	a5,a5,29 # 401d <__stack_shift+0x4006>
    80012e4c:	00e7da63          	bge	a5,a4,80012e60 <__fixtfsi+0x38>
    80012e50:	80000537          	lui	a0,0x80000
    80012e54:	fff54513          	not	a0,a0
    80012e58:	00a6853b          	addw	a0,a3,a0
    80012e5c:	00008067          	ret
    80012e60:	01059513          	sll	a0,a1,0x10
    80012e64:	00100793          	li	a5,1
    80012e68:	03079793          	sll	a5,a5,0x30
    80012e6c:	01055513          	srl	a0,a0,0x10
    80012e70:	00f56533          	or	a0,a0,a5
    80012e74:	000047b7          	lui	a5,0x4
    80012e78:	02f7879b          	addw	a5,a5,47 # 402f <__stack_shift+0x4018>
    80012e7c:	40e787bb          	subw	a5,a5,a4
    80012e80:	00f55533          	srl	a0,a0,a5
    80012e84:	0005051b          	sext.w	a0,a0
    80012e88:	00068463          	beqz	a3,80012e90 <__fixtfsi+0x68>
    80012e8c:	40a0053b          	negw	a0,a0
    80012e90:	00008067          	ret

0000000080012e94 <__floatsitf>:
    80012e94:	fe010113          	add	sp,sp,-32
    80012e98:	00113c23          	sd	ra,24(sp)
    80012e9c:	00813823          	sd	s0,16(sp)
    80012ea0:	00913423          	sd	s1,8(sp)
    80012ea4:	06050463          	beqz	a0,80012f0c <__floatsitf+0x78>
    80012ea8:	0005079b          	sext.w	a5,a0
    80012eac:	03f55493          	srl	s1,a0,0x3f
    80012eb0:	00055463          	bgez	a0,80012eb8 <__floatsitf+0x24>
    80012eb4:	40f007bb          	negw	a5,a5
    80012eb8:	02079413          	sll	s0,a5,0x20
    80012ebc:	02045413          	srl	s0,s0,0x20
    80012ec0:	00040513          	mv	a0,s0
    80012ec4:	148000ef          	jal	8001300c <__clzdi2>
    80012ec8:	000045b7          	lui	a1,0x4
    80012ecc:	03e5859b          	addw	a1,a1,62 # 403e <__stack_shift+0x4027>
    80012ed0:	40a585bb          	subw	a1,a1,a0
    80012ed4:	ff15051b          	addw	a0,a0,-15 # 7ffffff1 <__heap_size+0x7f7ffff1>
    80012ed8:	00a417b3          	sll	a5,s0,a0
    80012edc:	01813083          	ld	ra,24(sp)
    80012ee0:	01013403          	ld	s0,16(sp)
    80012ee4:	00f4949b          	sllw	s1,s1,0xf
    80012ee8:	0095e5b3          	or	a1,a1,s1
    80012eec:	01079793          	sll	a5,a5,0x10
    80012ef0:	03059593          	sll	a1,a1,0x30
    80012ef4:	0107d793          	srl	a5,a5,0x10
    80012ef8:	00813483          	ld	s1,8(sp)
    80012efc:	00000513          	li	a0,0
    80012f00:	00b7e5b3          	or	a1,a5,a1
    80012f04:	02010113          	add	sp,sp,32
    80012f08:	00008067          	ret
    80012f0c:	00000793          	li	a5,0
    80012f10:	00000593          	li	a1,0
    80012f14:	00000493          	li	s1,0
    80012f18:	fc5ff06f          	j	80012edc <__floatsitf+0x48>

0000000080012f1c <__extenddftf2>:
    80012f1c:	03455793          	srl	a5,a0,0x34
    80012f20:	7ff7f793          	and	a5,a5,2047
    80012f24:	fe010113          	add	sp,sp,-32
    80012f28:	00178713          	add	a4,a5,1
    80012f2c:	00813823          	sd	s0,16(sp)
    80012f30:	00913423          	sd	s1,8(sp)
    80012f34:	00c51413          	sll	s0,a0,0xc
    80012f38:	00113c23          	sd	ra,24(sp)
    80012f3c:	7fe77713          	and	a4,a4,2046
    80012f40:	00c45413          	srl	s0,s0,0xc
    80012f44:	03f55493          	srl	s1,a0,0x3f
    80012f48:	04070463          	beqz	a4,80012f90 <__extenddftf2+0x74>
    80012f4c:	00004737          	lui	a4,0x4
    80012f50:	c0070713          	add	a4,a4,-1024 # 3c00 <__stack_shift+0x3be9>
    80012f54:	00445593          	srl	a1,s0,0x4
    80012f58:	00e787b3          	add	a5,a5,a4
    80012f5c:	03c41413          	sll	s0,s0,0x3c
    80012f60:	00f4951b          	sllw	a0,s1,0xf
    80012f64:	01813083          	ld	ra,24(sp)
    80012f68:	00a7e7b3          	or	a5,a5,a0
    80012f6c:	00040513          	mv	a0,s0
    80012f70:	01013403          	ld	s0,16(sp)
    80012f74:	01059593          	sll	a1,a1,0x10
    80012f78:	03079793          	sll	a5,a5,0x30
    80012f7c:	0105d593          	srl	a1,a1,0x10
    80012f80:	00813483          	ld	s1,8(sp)
    80012f84:	00f5e5b3          	or	a1,a1,a5
    80012f88:	02010113          	add	sp,sp,32
    80012f8c:	00008067          	ret
    80012f90:	04079a63          	bnez	a5,80012fe4 <__extenddftf2+0xc8>
    80012f94:	00000593          	li	a1,0
    80012f98:	fc0404e3          	beqz	s0,80012f60 <__extenddftf2+0x44>
    80012f9c:	00040513          	mv	a0,s0
    80012fa0:	06c000ef          	jal	8001300c <__clzdi2>
    80012fa4:	0005071b          	sext.w	a4,a0
    80012fa8:	00e00793          	li	a5,14
    80012fac:	02e7c463          	blt	a5,a4,80012fd4 <__extenddftf2+0xb8>
    80012fb0:	00f00593          	li	a1,15
    80012fb4:	40a585bb          	subw	a1,a1,a0
    80012fb8:	0315079b          	addw	a5,a0,49
    80012fbc:	00b455b3          	srl	a1,s0,a1
    80012fc0:	00f41433          	sll	s0,s0,a5
    80012fc4:	000047b7          	lui	a5,0x4
    80012fc8:	c0c7879b          	addw	a5,a5,-1012 # 3c0c <__stack_shift+0x3bf5>
    80012fcc:	40a787bb          	subw	a5,a5,a0
    80012fd0:	f91ff06f          	j	80012f60 <__extenddftf2+0x44>
    80012fd4:	ff15059b          	addw	a1,a0,-15
    80012fd8:	00b415b3          	sll	a1,s0,a1
    80012fdc:	00000413          	li	s0,0
    80012fe0:	fe5ff06f          	j	80012fc4 <__extenddftf2+0xa8>
    80012fe4:	00000593          	li	a1,0
    80012fe8:	00040c63          	beqz	s0,80013000 <__extenddftf2+0xe4>
    80012fec:	00100793          	li	a5,1
    80012ff0:	00445593          	srl	a1,s0,0x4
    80012ff4:	02f79793          	sll	a5,a5,0x2f
    80012ff8:	03c41413          	sll	s0,s0,0x3c
    80012ffc:	00f5e5b3          	or	a1,a1,a5
    80013000:	000087b7          	lui	a5,0x8
    80013004:	fff78793          	add	a5,a5,-1 # 7fff <__stack_shift+0x7fe8>
    80013008:	f59ff06f          	j	80012f60 <__extenddftf2+0x44>

000000008001300c <__clzdi2>:
    8001300c:	03855793          	srl	a5,a0,0x38
    80013010:	04079063          	bnez	a5,80013050 <__clzdi2+0x44>
    80013014:	03800793          	li	a5,56
    80013018:	ff878793          	add	a5,a5,-8
    8001301c:	00078863          	beqz	a5,8001302c <__clzdi2+0x20>
    80013020:	00f55733          	srl	a4,a0,a5
    80013024:	0ff77713          	zext.b	a4,a4
    80013028:	fe0708e3          	beqz	a4,80013018 <__clzdi2+0xc>
    8001302c:	04000713          	li	a4,64
    80013030:	40f70733          	sub	a4,a4,a5
    80013034:	00f55533          	srl	a0,a0,a5
    80013038:	0000b797          	auipc	a5,0xb
    8001303c:	c4878793          	add	a5,a5,-952 # 8001dc80 <__clz_tab>
    80013040:	00a787b3          	add	a5,a5,a0
    80013044:	0007c503          	lbu	a0,0(a5)
    80013048:	40a7053b          	subw	a0,a4,a0
    8001304c:	00008067          	ret
    80013050:	03800793          	li	a5,56
    80013054:	fd9ff06f          	j	8001302c <__clzdi2+0x20>
